cdebian_linux.config
ConfigCore
p0
(tRp1
(Vabi
p2
tp3
(dp4
Vabiname
p5
Vparrot3-28t
p6
sVignore-changes
p7
(lp8
V__cpuhp_*
p9
aV__xive_vm_h_*
p10
aVbpf_analyzer
p11
aVcxl_*
p12
aVdax_flush
p13
aVieee80211_nullfunc_get
p14
aVinet_add_protocol
p15
aVinet_del_protocol
p16
aViommu_device_*
p17
aVkvm_async_pf_task_wait
p18
aVkvmppc_*
p19
aVmm_iommu_*
p20
aVmv_mbus_*
p21
aVperf_*
p22
aVregister_cxl_calls
p23
aVregister_key_type
p24
aVunregister_cxl_calls
p25
aV*_hw_breakpoint
p26
aVmodule:arch/x86/kvm/*
p27
aVmodule:drivers/crypto/ccp/*
p28
aVmodule:drivers/hv/*
p29
aVmodule:drivers/gpu/drm/sun4i/*
p30
aVmodule:drivers/iio/**
p31
aVmodule:drivers/misc/cxl/*
p32
aVmodule:drivers/mtd/nand/*
p33
aVmodule:drivers/net/ethernet/**
p34
aVmodule:drivers/net/wireless/**
p35
aVmodule:drivers/nvdimm/*
p36
aVmodule:drivers/power/supply/bq27xxx_battery
p37
aVmodule:drivers/scsi/cxgbi/*
p38
aVmodule:drivers/scsi/libiscs*
p39
aVmodule:drivers/scsi/qla2xxx/qla2xxx
p40
aVmodule:drivers/scsi/ufs/*
p41
aVmodule:drivers/target/**
p42
aVmodule:drivers/usb/chipidea/**
p43
aVmodule:drivers/usb/gadget/**
p44
aVmodule:drivers/usb/host/**
p45
aVmodule:drivers/usb/musb/**
p46
aVmodule:fs/nfs/**
p47
aVmodule:net/ceph/libceph
p48
aVmodule:net/l2tp/**
p49
aVmodule:net/rxrpc/rxrpc
p50
aVmodule:net/sctp/**
p51
aVmodule:sound/core/seq/**
p52
aVmodule:sound/firewire/snd-firewire-lib
p53
aVmodule:sound/pci/hda/*
p54
aVbtree_*
p55
aVvisitor*
p56
aVcan_rx_register
p57
aVip6_xmit
p58
aVmodule:net/dccp/dccp
p59
aVmodule:net/rds/rds
p60
aVdevfreq_*
p61
aVdevm_devfreq_*
p62
aVupdate_devfreq
p63
aVmodule:drivers/infiniband/**
p64
aVacpi_ec_add_query_handler
p65
aVacpi_ec_remove_query_handler
p66
aVfirst_ec
p67
aVdebugfs_create_automount
p68
aVmodule:drivers/iio/imu/inv_mpu6050/*
p69
aVdrm_crtc_accurate_vblank_count
p70
aVacpi_nfit_desc_init
p71
aVacpi_nfit_init
p72
aVloop_register_transfer
p73
aVxen_xlate_*
p74
aVnf_nat_masquerade_ipv4_register_notifier
p75
aVnf_nat_masquerade_ipv6_register_notifier
p76
ass(Vbase
p77
tp78
(dp79
Varches
p80
(lp81
Valpha
p82
aVamd64
p83
aVarm64
p84
aVarm64ilp32
p85
aVarmel
p86
aVarmhf
p87
aVhppa
p88
aVi386
p89
aVia64
p90
aVm68k
p91
aVmips
p92
aVmips64
p93
aVmips64el
p94
aVmips64r6
p95
aVmips64r6el
p96
aVmipsel
p97
aVmipsn32
p98
aVmipsn32el
p99
aVmipsn32r6
p100
aVmipsn32r6el
p101
aVmipsr6
p102
aVmipsr6el
p103
aVpowerpc
p104
aVpowerpcspe
p105
aVppc64
p106
aVppc64el
p107
aVriscv64
p108
aVs390
p109
aVs390x
p110
aVsh3
p111
aVsh4
p112
aVsparc
p113
aVsparc64
p114
aVx32
p115
asVcompiler
p116
Vgcc-8
p117
sVfeaturesets
p118
(lp119
Vnone
p120
aVrt
p121
ass(Vbuild
p122
tp123
(dp124
Vdebug-info
p125
I01
sVsigned-code
p126
I00
ss(Vbase
p127
NVrt
p128
tp129
(dp130
Venabled
p131
I01
ss(Vdescription
p132
tp133
(dp134
Vpart-long-up
p135
VThis kernel is not suitable for SMP (multi-processor,\u000amulti-core or hyper-threaded) systems.
p136
ss(Vimage
p137
tp138
(dp139
Vinitramfs-generators
p140
(lp141
Vinitramfs-tools
p142
aVinitramfs-fallback
p143
asVrecommends
p144
Vapparmor
p145
ss(Vrelations
p146
tp147
(dp148
Vgcc-8
p149
Vgcc-8 <!stage1 !cross !pkg.linux.nokernel>, gcc-8-@gnu-type-package@ <!stage1 cross !pkg.linux.nokernel>
p150
sVinitramfs-fallback
p151
Vlinux-initramfs-tool
p152
sVinitramfs-tools
p153
Vinitramfs-tools (>= 0.120+deb8u2)
p154
ss(Vbase
p155
Valpha
p156
tp157
(dp158
Vkernel-arch
p159
Valpha
p160
sVfeaturesets
p161
(lp162
Vnone
p163
ass(Vbuild
p164
g156
tp165
(dp166
Vimage-file
p167
Varch/alpha/boot/vmlinux.gz
p168
ss(Vimage
p169
g156
tp170
(dp171
Vsuggests
p172
Vaboot, fdutils
p173
sVinstall-stem
p174
Vvmlinuz
p175
ss(Vdescription
p176
g156
NValpha-generic
p177
tp178
(dp179
Vhardware
p180
VAlpha
p181
sVhardware-long
p182
VDEC Alpha systems with extended kernel start address (Wildfire, Titan, Marvel)
p183
ss(Vdescription
p184
g156
NValpha-smp
p185
tp186
(dp187
Vhardware
p188
VAlpha SMP
p189
sVhardware-long
p190
VDEC Alpha SMP systems with extended kernel start address (Wildfire, Titan, Marvel)
p191
ss(Vbase
p192
g156
g163
tp193
(dp194
Vflavours
p195
(lp196
Valpha-generic
p197
aValpha-smp
p198
asVimplicit-flavour
p199
I01
ss(Vbase
p200
Vamd64
p201
tp202
(dp203
Vfeaturesets
p204
(lp205
Vnone
p206
aVrt
p207
asVkernel-arch
p208
Vx86
p209
ss(Vbuild
p210
g201
tp211
(dp212
Vdebug-info
p213
I01
sVimage-file
p214
Varch/x86/boot/bzImage
p215
sVsigned-code
p216
I00
sVvdso
p217
I01
ss(Vimage
p218
g201
tp219
(dp220
Vbootloaders
p221
(lp222
Vgrub-pc
p223
aVgrub-efi-amd64
p224
aVextlinux
p225
asVinstall-stem
p226
Vvmlinuz
p227
sVbreaks
p228
Vxserver-xorg-input-vmmouse (<< 1:13.0.99)
p229
ss(Vrelations
p230
g201
tp231
(dp232
Vgcc-8
p233
Vgcc-8 (>= 8-20180123-1~) <!stage1 !cross !pkg.linux.nokernel>, gcc-8-x86-64-linux-gnu (>= 8-20180123-1~) <!stage1 cross !pkg.linux.nokernel>
p234
sVheaders%gcc-8
p235
Vlinux-compiler-gcc-8-x86
p236
ss(Vdescription
p237
g201
NVamd64
p238
tp239
(dp240
Vhardware
p241
V64-bit PCs
p242
sVhardware-long
p243
VPCs with AMD64, Intel 64 or VIA Nano processors
p244
ss(Vdescription
p245
g201
NVcloud-amd64
p246
tp247
(dp248
Vhardware
p249
Vx86-64 cloud
p250
sVhardware-long
p251
VAmazon EC2, Google Compute Engine and Microsoft Azure cloud platforms
p252
ss(Vbase
p253
g201
Vnone
p254
tp255
(dp256
Vflavours
p257
(lp258
Vamd64
p259
aVcloud-amd64
p260
ass(Vbase
p261
g201
Vrt
p262
tp263
(dp264
Vflavours
p265
(lp266
Vamd64
p267
ass(Vbase
p268
Varm64
p269
tp270
(dp271
Vkernel-arch
p272
Varm64
p273
sVfeaturesets
p274
(lp275
Vnone
p276
aVrt
p277
ass(Vbuild
p278
g269
tp279
(dp280
Vdebug-info
p281
I01
sVimage-file
p282
Varch/arm64/boot/Image
p283
sVsigned-code
p284
I00
sVvdso
p285
I01
ss(Vimage
p286
g269
tp287
(dp288
Vinstall-stem
p289
Vvmlinuz
p290
sVbreaks
p291
Vlibmozjs185-1.0, libmozjs-24-0 (<< 24.2.0-5.1~)
p292
ss(Vdescription
p293
g269
NVarm64
p294
tp295
(dp296
Vhardware
p297
V64-bit ARMv8 machines
p298
ss(Vimage
p299
g269
NVarm64
p300
tp301
(dp302
s(Vbase
p303
g269
Vnone
p304
tp305
(dp306
Vflavours
p307
(lp308
Varm64
p309
ass(Vbase
p310
g269
Vrt
p311
tp312
(dp313
Vflavours
p314
(lp315
Varm64
p316
ass(Vbase
p317
Varm64ilp32
p318
tp319
(dp320
Vkernel-arch
p321
Varm64
p322
sVfeaturesets
p323
(lp324
ss(Vbase
p325
Varmel
p326
tp327
(dp328
Vkernel-arch
p329
Varm
p330
sg161
(lp331
g163
ass(Vbuild
p332
g326
tp333
(dp334
Vimage-file
p335
Varch/arm/boot/zImage
p336
sVuncompressed-image-file
p337
Varch/arm/boot/Image
p338
sVsigned-code
p339
I00
ss(Vimage
p340
g326
tp341
(dp342
Vinstall-stem
p343
Vvmlinuz
p344
ss(Vrelations
p345
g326
tp346
(dp347
Vheaders%gcc-8
p348
Vlinux-compiler-gcc-8-arm
p349
ss(Vdescription
p350
g326
NVmarvell
p351
tp352
(dp353
Vhardware
p354
VMarvell Kirkwood/Orion
p355
sVhardware-long
p356
VMarvell Kirkwood and Orion based systems (https://wiki.debian.org/ArmEabiPort#Supported_hardware)
p357
ss(Vdescription
p358
g326
NVrpi
p359
tp360
(dp361
Vhardware
p362
VRaspberry Pi and Pi Zero
p363
sVhardware-long
p364
VRaspberry Pi, Raspberry Pi Zero based systems
p365
ss(Vimage
p366
g326
NVmarvell
p367
tp368
(dp369
Vrecommends
p370
Vu-boot-tools
p371
sVcheck-size
p372
I2097080
sVcheck-size-with-dtb
p373
I01
sVcheck-uncompressed-size
p374
I7340032
sVbreaks
p375
Vflash-kernel (<< 3.57~)
p376
ss(g192
g326
g163
tp377
(dp378
g195
(lp379
Vmarvell
p380
aVrpi
p381
asg199
I01
ss(Vbase
p382
Varmhf
p383
tp384
(dp385
Vfeaturesets
p386
(lp387
Vnone
p388
aVrt
p389
asVkernel-arch
p390
Varm
p391
ss(Vbuild
p392
g383
tp393
(dp394
Vimage-file
p395
Varch/arm/boot/zImage
p396
sVvdso
p397
I01
sVsigned-code
p398
I00
ss(Vimage
p399
g383
tp400
(dp401
Vinstall-stem
p402
Vvmlinuz
p403
ss(Vrelations
p404
g383
tp405
(dp406
Vheaders%gcc-8
p407
Vlinux-compiler-gcc-8-arm
p408
ss(Vdescription
p409
g383
NVarmmp
p410
tp411
(dp412
Vhardware
p413
VARMv7 multiplatform compatible SoCs
p414
sVhardware-long
p415
VARMv7 multiplatform kernel. See\u000ahttps://wiki.debian.org/DebianKernel/ARMMP for details of supported\u000aplatforms
p416
ss(Vdescription
p417
g383
NVarmmp-lpae
p418
tp419
(dp420
Vhardware
p421
VARMv7 multiplatform compatible SoCs supporting LPAE
p422
sVhardware-long
p423
VARMv7 multiplatform kernel supporting LPAE. See\u000ahttps://wiki.debian.org/DebianKernel/ARMMP for details of supported\u000aplatforms.
p424
ss(Vbase
p425
g383
Vnone
p426
tp427
(dp428
Vflavours
p429
(lp430
Varmmp
p431
aVarmmp-lpae
p432
ass(Vbase
p433
g383
Vrt
p434
tp435
(dp436
Vflavours
p437
(lp438
Varmmp
p439
ass(Vbase
p440
Vhppa
p441
tp442
(dp443
Vkernel-arch
p444
Vparisc
p445
sg161
(lp446
g163
ass(Vbuild
p447
g441
tp448
(dp449
Vimage-file
p450
Varch/parisc/boot/bzImage
p451
sVdebug-info
p452
I00
ss(Vimage
p453
g441
tp454
(dp455
Vsuggests
p456
Vpalo
p457
sVinstall-stem
p458
Vvmlinuz
p459
ss(Vdescription
p460
g441
NVparisc
p461
tp462
(dp463
Vhardware
p464
V32-bit PA-RISC
p465
sVhardware-long
p466
VHP PA-RISC 32-bit systems with max 4 GB RAM
p467
ss(Vdescription
p468
g441
NVparisc-smp
p469
tp470
(dp471
Vhardware
p472
Vmultiprocessor 32-bit PA-RISC
p473
sVhardware-long
p474
VHP PA-RISC 32-bit SMP systems with max 4 GB RAM
p475
ss(Vbase
p476
g441
NVparisc64-smp
p477
tp478
(dp479
Vcflags
p480
V-fno-cse-follow-jumps
p481
sVoverride-host-type
p482
Vhppa64-linux-gnu
p483
ss(Vdescription
p484
g441
NVparisc64-smp
p485
tp486
(dp487
Vhardware
p488
Vmultiprocessor 64-bit PA-RISC
p489
sVhardware-long
p490
VHP PA-RISC 64-bit SMP systems with support for more than 4 GB RAM
p491
ss(Vrelations
p492
g441
tp493
(dp494
Vgcc-8
p495
Vgcc-8 <!stage1 !cross !pkg.linux.nokernel>, gcc-8-hppa-linux-gnu <!stage1 cross !pkg.linux.nokernel>, binutils-hppa64-linux-gnu <!stage1 !pkg.linux.nokernel>, gcc-8-hppa64-linux-gnu <!stage1 !pkg.linux.nokernel>
p496
ss(g192
g441
g163
tp497
(dp498
g195
(lp499
Vparisc
p500
aVparisc-smp
p501
aVparisc64-smp
p502
asg199
I01
ss(Vbase
p503
Vi386
p504
tp505
(dp506
Vfeaturesets
p507
(lp508
Vnone
p509
aVrt
p510
asVkernel-arch
p511
Vx86
p512
ss(Vbuild
p513
g504
tp514
(dp515
Vimage-file
p516
Varch/x86/boot/bzImage
p517
sVsigned-code
p518
I00
sVvdso
p519
I01
ss(Vdescription
p520
g504
tp521
(dp522
Vpart-long-pae
p523
VThis kernel requires PAE (Physical Address Extension).\u000aThis feature is supported by the Intel Pentium Pro/II/III/4/4M/D, Xeon,\u000aCore and Atom; AMD Geode NX, Athlon (K7), Duron, Opteron, Sempron,\u000aTurion or Phenom; Transmeta Efficeon; VIA C7; and some other processors.
p524
ss(Vimage
p525
g504
tp526
(dp527
Vbootloaders
p528
(lp529
Vgrub-pc
p530
aVextlinux
p531
asVinstall-stem
p532
Vvmlinuz
p533
sVbreaks
p534
Vxserver-xorg-input-vmmouse (<< 1:13.0.99)
p535
ss(Vrelations
p536
g504
tp537
(dp538
Vgcc-8
p539
Vgcc-8 (>= 8-20180123-1~) <!stage1 !cross !pkg.linux.nokernel>, gcc-8-i686-linux-gnu (>= 8-20180123-1~) <!stage1 cross !pkg.linux.nokernel>
p540
sVheaders%gcc-8
p541
Vlinux-compiler-gcc-8-x86
p542
ss(Vdescription
p543
g504
NV686
p544
tp545
(dp546
Vhardware
p547
Volder PCs
p548
sVhardware-long
p549
VPCs with one or more processors not supporting PAE
p550
ss(Vbuild
p551
g504
NV686-pae
p552
tp553
(dp554
Vdebug-info
p555
I01
ss(Vdescription
p556
g504
NV686-pae
p557
tp558
(dp559
Vhardware
p560
Vmodern PCs
p561
sVhardware-long
p562
VPCs with one or more processors supporting PAE
p563
sVparts
p564
(lp565
Vpae
p566
ass(Vbase
p567
g504
Vnone
p568
tp569
(dp570
Vflavours
p571
(lp572
V686
p573
aV686-pae
p574
ass(Vbase
p575
g504
Vrt
p576
tp577
(dp578
Vflavours
p579
(lp580
V686-pae
p581
ass(Vbase
p582
Via64
p583
tp584
(dp585
Vkernel-arch
p586
Via64
p587
sg161
(lp588
g163
ass(Vbuild
p589
g583
tp590
(dp591
Vimage-file
p592
Vvmlinux.gz
p593
ss(Vimage
p594
g583
tp595
(dp596
Vbootloaders
p597
(lp598
Velilo
p599
asVinstall-stem
p600
Vvmlinuz
p601
ss(Vdescription
p602
g583
NVitanium
p603
tp604
(dp605
Vhardware
p606
VItanium (Merced)
p607
sVhardware-long
p608
Vsystems with original Itanium (Merced) processors
p609
ss(Vdescription
p610
g583
NVmckinley
p611
tp612
(dp613
Vhardware
p614
VItanium 2+
p615
sVhardware-long
p616
Vsystems with Itanium 2 or 9300/9500/9700-series processors
p617
ss(g192
g583
g163
tp618
(dp619
g195
(lp620
Vitanium
p621
aVmckinley
p622
asg199
I01
ss(Vbase
p623
Vm68k
p624
tp625
(dp626
Vcflags
p627
V-ffreestanding
p628
sVkernel-arch
p629
Vm68k
p630
sg161
(lp631
g163
ass(Vbuild
p632
g624
tp633
(dp634
Vimage-file
p635
Vvmlinux
p636
ss(Vimage
p637
g624
tp638
(dp639
Vsuggests
p640
Vvmelilo, fdutils
p641
sVinstall-stem
p642
Vvmlinux
p643
ss(Vdescription
p644
g624
NVm68k
p645
tp646
(dp647
Vhardware
p648
VMotorola MC68020+ family
p649
ss(g192
g624
g163
tp650
(dp651
g195
(lp652
Vm68k
p653
asg199
I01
ss(Vbase
p654
Vmips
p655
tp656
(dp657
Vkernel-arch
p658
Vmips
p659
sg161
(lp660
g163
ass(Vbuild
p661
g655
tp662
(dp663
Vimage-file
p664
Vvmlinux
p665
ss(Vimage
p666
g655
tp667
(dp668
Vinstall-stem
p669
Vvmlinux
p670
ss(Vdescription
p671
g655
NV4kc-malta
p672
tp673
(dp674
Vhardware
p675
VMIPS Malta
p676
sVhardware-long
p677
VMIPS Malta boards
p678
ss(Vimage
p679
g655
NV4kc-malta
p680
tp681
(dp682
Vconfigs
p683
(lp684
Vkernelarch-mips/config.malta
p685
aVkernelarch-mips/config.mips32r2
p686
ass(Vdescription
p687
g655
NV5kc-malta
p688
tp689
(dp690
Vhardware
p691
VMIPS Malta (64-bit)
p692
sVhardware-long
p693
VMIPS Malta boards (64-bit)
p694
ss(Vimage
p695
g655
NV5kc-malta
p696
tp697
(dp698
Vconfigs
p699
(lp700
Vkernelarch-mips/config.malta
p701
aVkernelarch-mips/config.mips64r2
p702
ass(Vdescription
p703
g655
NVocteon
p704
tp705
(dp706
Vhardware
p707
VOcteon
p708
sVhardware-long
p709
VCavium Networks Octeon
p710
ss(Vimage
p711
g655
NVocteon
p712
tp713
(dp714
Vconfigs
p715
(lp716
Vkernelarch-mips/config.octeon
p717
ass(g192
g655
g163
tp718
(dp719
g195
(lp720
V4kc-malta
p721
aV5kc-malta
p722
aVocteon
p723
asg199
I01
ss(Vbase
p724
Vmips64
p725
tp726
(dp727
Vkernel-arch
p728
Vmips
p729
sg161
(lp730
g163
ass(Vbuild
p731
g725
tp732
(dp733
Vimage-file
p734
Vvmlinux
p735
ss(Vimage
p736
g725
tp737
(dp738
Vinstall-stem
p739
Vvmlinux
p740
ss(Vdescription
p741
g725
NV5kc-malta
p742
tp743
(dp744
Vhardware
p745
VMIPS Malta
p746
sVhardware-long
p747
VMIPS Malta boards
p748
ss(Vimage
p749
g725
NV5kc-malta
p750
tp751
(dp752
Vconfigs
p753
(lp754
Vkernelarch-mips/config.malta
p755
aVkernelarch-mips/config.mips64r2
p756
ass(Vdescription
p757
g725
NVocteon
p758
tp759
(dp760
Vhardware
p761
VOcteon
p762
sVhardware-long
p763
VCavium Networks Octeon
p764
ss(Vimage
p765
g725
NVocteon
p766
tp767
(dp768
Vconfigs
p769
(lp770
Vkernelarch-mips/config.octeon
p771
ass(g192
g725
g163
tp772
(dp773
g195
(lp774
V5kc-malta
p775
aVocteon
p776
asg199
I01
ss(Vbase
p777
Vmips64el
p778
tp779
(dp780
Vkernel-arch
p781
Vmips
p782
sg161
(lp783
g163
ass(Vbuild
p784
g778
tp785
(dp786
Vimage-file
p787
Vvmlinux
p788
ss(Vimage
p789
g778
tp790
(dp791
Vinstall-stem
p792
Vvmlinux
p793
ss(Vdescription
p794
g778
NV5kc-malta
p795
tp796
(dp797
Vhardware
p798
VMIPS Malta
p799
sVhardware-long
p800
VMIPS Malta boards
p801
ss(Vimage
p802
g778
NV5kc-malta
p803
tp804
(dp805
Vconfigs
p806
(lp807
Vkernelarch-mips/config.malta
p808
aVkernelarch-mips/config.mips64r2
p809
ass(Vdescription
p810
g778
NVloongson-3
p811
tp812
(dp813
Vhardware
p814
VLoongson 3A/3B
p815
sVhardware-long
p816
VLoongson 3A or 3B based systems (e.g. from Loongson or Lemote)
p817
ss(Vimage
p818
g778
NVloongson-3
p819
tp820
(dp821
Vconfigs
p822
(lp823
Vkernelarch-mips/config.loongson-3
p824
ass(Vdescription
p825
g778
NVocteon
p826
tp827
(dp828
Vhardware
p829
VOcteon
p830
sVhardware-long
p831
VCavium Networks Octeon
p832
ss(Vimage
p833
g778
NVocteon
p834
tp835
(dp836
Vconfigs
p837
(lp838
Vkernelarch-mips/config.octeon
p839
ass(g192
g778
g163
tp840
(dp841
g195
(lp842
V5kc-malta
p843
aVloongson-3
p844
aVocteon
p845
asg199
I01
ss(Vbase
p846
Vmips64r6
p847
tp848
(dp849
Vkernel-arch
p850
Vmips
p851
sg161
(lp852
g163
ass(Vbuild
p853
g847
tp854
(dp855
Vimage-file
p856
Vvmlinux
p857
ss(Vimage
p858
g847
tp859
(dp860
Vinstall-stem
p861
Vvmlinux
p862
ss(Vdescription
p863
g847
NVmips64r6
p864
tp865
(dp866
Vhardware
p867
VMIPS R6 (64 bit, big endian)
p868
sVhardware-long
p869
VMIPS R6 (64 bit, big endian)
p870
ss(Vimage
p871
g847
NVmips64r6
p872
tp873
(dp874
Vconfigs
p875
(lp876
Vkernelarch-mips/config.boston
p877
aVkernelarch-mips/config.mips64r6
p878
ass(g192
g847
g163
tp879
(dp880
g195
(lp881
Vmips64r6
p882
asg199
I01
ss(Vbase
p883
Vmips64r6el
p884
tp885
(dp886
Vkernel-arch
p887
Vmips
p888
sg161
(lp889
g163
ass(Vbuild
p890
g884
tp891
(dp892
Vimage-file
p893
Vvmlinux
p894
ss(Vimage
p895
g884
tp896
(dp897
Vinstall-stem
p898
Vvmlinux
p899
ss(Vdescription
p900
g884
NVmips64r6el
p901
tp902
(dp903
Vhardware
p904
VMIPS R6 (64 bit, little endian)
p905
sVhardware-long
p906
VMIPS R6 (64 bit, little endian)
p907
ss(Vimage
p908
g884
NVmips64r6el
p909
tp910
(dp911
Vconfigs
p912
(lp913
Vkernelarch-mips/config.boston
p914
aVkernelarch-mips/config.mips64r6
p915
ass(g192
g884
g163
tp916
(dp917
g195
(lp918
Vmips64r6el
p919
asg199
I01
ss(Vbase
p920
Vmipsel
p921
tp922
(dp923
Vkernel-arch
p924
Vmips
p925
sg161
(lp926
g163
ass(Vbuild
p927
g921
tp928
(dp929
Vimage-file
p930
Vvmlinux
p931
ss(Vimage
p932
g921
tp933
(dp934
Vinstall-stem
p935
Vvmlinux
p936
ss(Vdescription
p937
g921
NV4kc-malta
p938
tp939
(dp940
Vhardware
p941
VMIPS Malta
p942
sVhardware-long
p943
VMIPS Malta boards
p944
ss(Vimage
p945
g921
NV4kc-malta
p946
tp947
(dp948
Vconfigs
p949
(lp950
Vkernelarch-mips/config.malta
p951
aVkernelarch-mips/config.mips32r2
p952
ass(Vdescription
p953
g921
NV5kc-malta
p954
tp955
(dp956
Vhardware
p957
VMIPS Malta (64-bit)
p958
sVhardware-long
p959
VMIPS Malta boards (64-bit)
p960
ss(Vimage
p961
g921
NV5kc-malta
p962
tp963
(dp964
Vconfigs
p965
(lp966
Vkernelarch-mips/config.malta
p967
aVkernelarch-mips/config.mips64r2
p968
ass(Vdescription
p969
g921
NVloongson-3
p970
tp971
(dp972
Vhardware
p973
VLoongson 3A/3B
p974
sVhardware-long
p975
VLoongson 3A or 3B based systems (e.g. from Loongson or Lemote)
p976
ss(Vimage
p977
g921
NVloongson-3
p978
tp979
(dp980
Vconfigs
p981
(lp982
Vkernelarch-mips/config.loongson-3
p983
ass(Vdescription
p984
g921
NVocteon
p985
tp986
(dp987
Vhardware
p988
VOcteon
p989
sVhardware-long
p990
VCavium Networks Octeon
p991
ss(Vimage
p992
g921
NVocteon
p993
tp994
(dp995
Vconfigs
p996
(lp997
Vkernelarch-mips/config.octeon
p998
ass(g192
g921
g163
tp999
(dp1000
g195
(lp1001
V4kc-malta
p1002
aV5kc-malta
p1003
aVloongson-3
p1004
aVocteon
p1005
asg199
I01
ss(Vbase
p1006
Vmipsn32
p1007
tp1008
(dp1009
Vkernel-arch
p1010
Vmips
p1011
sVfeaturesets
p1012
(lp1013
ss(Vbase
p1014
Vmipsn32el
p1015
tp1016
(dp1017
Vkernel-arch
p1018
Vmips
p1019
sVfeaturesets
p1020
(lp1021
ss(Vbase
p1022
Vmipsn32r6
p1023
tp1024
(dp1025
Vkernel-arch
p1026
Vmips
p1027
sVfeaturesets
p1028
(lp1029
ss(Vbase
p1030
Vmipsn32r6el
p1031
tp1032
(dp1033
Vkernel-arch
p1034
Vmips
p1035
sVfeaturesets
p1036
(lp1037
ss(Vbase
p1038
Vmipsr6
p1039
tp1040
(dp1041
Vkernel-arch
p1042
Vmips
p1043
sg161
(lp1044
g163
ass(Vbuild
p1045
g1039
tp1046
(dp1047
Vimage-file
p1048
Vvmlinux
p1049
ss(Vimage
p1050
g1039
tp1051
(dp1052
Vinstall-stem
p1053
Vvmlinux
p1054
ss(Vdescription
p1055
g1039
NVmips32r6
p1056
tp1057
(dp1058
Vhardware
p1059
VMIPS R6 (32 bit, big endian)
p1060
sVhardware-long
p1061
VMIPS R6 (32 bit, big endian)
p1062
ss(Vimage
p1063
g1039
NVmips32r6
p1064
tp1065
(dp1066
Vconfigs
p1067
(lp1068
Vkernelarch-mips/config.boston
p1069
aVkernelarch-mips/config.mips32r6
p1070
ass(Vdescription
p1071
g1039
NVmips64r6
p1072
tp1073
(dp1074
Vhardware
p1075
VMIPS R6 (64 bit, big endian)
p1076
sVhardware-long
p1077
VMIPS R6 (64 bit, big endian)
p1078
ss(Vimage
p1079
g1039
NVmips64r6
p1080
tp1081
(dp1082
Vconfigs
p1083
(lp1084
Vkernelarch-mips/config.boston
p1085
aVkernelarch-mips/config.mips64r6
p1086
ass(g192
g1039
g163
tp1087
(dp1088
g195
(lp1089
Vmips32r6
p1090
aVmips64r6
p1091
asg199
I01
ss(Vbase
p1092
Vmipsr6el
p1093
tp1094
(dp1095
Vkernel-arch
p1096
Vmips
p1097
sg161
(lp1098
g163
ass(Vbuild
p1099
g1093
tp1100
(dp1101
Vimage-file
p1102
Vvmlinux
p1103
ss(Vimage
p1104
g1093
tp1105
(dp1106
Vinstall-stem
p1107
Vvmlinux
p1108
ss(Vdescription
p1109
g1093
NVmips32r6el
p1110
tp1111
(dp1112
Vhardware
p1113
VMIPS R6 (32 bit, little endian)
p1114
sVhardware-long
p1115
VMIPS R6 (32 bit, little endian)
p1116
ss(Vimage
p1117
g1093
NVmips32r6el
p1118
tp1119
(dp1120
Vconfigs
p1121
(lp1122
Vkernelarch-mips/config.boston
p1123
aVkernelarch-mips/config.mips32r6
p1124
ass(Vdescription
p1125
g1093
NVmips64r6el
p1126
tp1127
(dp1128
Vhardware
p1129
VMIPS R6 (64 bit, little endian)
p1130
sVhardware-long
p1131
VMIPS R6 (64 bit, little endian)
p1132
ss(Vimage
p1133
g1093
NVmips64r6el
p1134
tp1135
(dp1136
Vconfigs
p1137
(lp1138
Vkernelarch-mips/config.boston
p1139
aVkernelarch-mips/config.mips64r6
p1140
ass(g192
g1093
g163
tp1141
(dp1142
g195
(lp1143
Vmips32r6el
p1144
aVmips64r6el
p1145
asg199
I01
ss(Vbase
p1146
Vpowerpc
p1147
tp1148
(dp1149
Vkernel-arch
p1150
Vpowerpc
p1151
sg161
(lp1152
g163
ass(Vbuild
p1153
g1147
tp1154
(dp1155
Vimage-file
p1156
Vvmlinux
p1157
sVvdso
p1158
I01
ss(Vimage
p1159
g1147
tp1160
(dp1161
Vconfigs
p1162
(lp1163
sVsuggests
p1164
Vmkvmlinuz
p1165
sVinstall-stem
p1166
Vvmlinux
p1167
ss(Vdescription
p1168
g1147
NVpowerpc
p1169
tp1170
(dp1171
Vhardware
p1172
Vuniprocessor 32-bit PowerPC
p1173
ss(Vdescription
p1174
g1147
NVpowerpc-smp
p1175
tp1176
(dp1177
Vhardware
p1178
Vmultiprocessor 32-bit PowerPC
p1179
ss(Vimage
p1180
g1147
NVpowerpc-smp
p1181
tp1182
(dp1183
Vconfigs
p1184
(lp1185
Vpowerpc/config.powerpc
p1186
aVpowerpc/config.powerpc-smp
p1187
ass(Vdescription
p1188
g1147
NVpowerpc64
p1189
tp1190
(dp1191
Vhardware
p1192
V64-bit PowerPC
p1193
ss(Vimage
p1194
g1147
NVpowerpc64
p1195
tp1196
(dp1197
Vconfigs
p1198
(lp1199
Vkernelarch-powerpc/config-arch-64
p1200
aVkernelarch-powerpc/config-arch-64-be
p1201
ass(g192
g1147
g163
tp1202
(dp1203
g195
(lp1204
Vpowerpc
p1205
aVpowerpc-smp
p1206
aVpowerpc64
p1207
asg199
I01
ss(Vbase
p1208
Vpowerpcspe
p1209
tp1210
(dp1211
Vkernel-arch
p1212
Vpowerpc
p1213
sg161
(lp1214
g163
ass(Vbuild
p1215
g1209
tp1216
(dp1217
Vimage-file
p1218
Vvmlinux
p1219
sVvdso
p1220
I01
ss(Vimage
p1221
g1209
tp1222
(dp1223
Vsuggests
p1224
Vmkvmlinuz
p1225
sVinstall-stem
p1226
Vvmlinux
p1227
ss(Vdescription
p1228
g1209
tp1229
(dp1230
Vhardware
p1231
V32-bit PowerPC with SPE (instead of AltiVec) with SMP support
p1232
ss(g192
g1209
g163
tp1233
(dp1234
g195
(lp1235
Vpowerpcspe
p1236
asg199
I01
ss(Vbase
p1237
Vppc64
p1238
tp1239
(dp1240
Vkernel-arch
p1241
Vpowerpc
p1242
sg161
(lp1243
g163
ass(Vbuild
p1244
g1238
tp1245
(dp1246
Vimage-file
p1247
Vvmlinux
p1248
sVvdso
p1249
I01
ss(Vimage
p1250
g1238
tp1251
(dp1252
Vconfigs
p1253
(lp1254
sVsuggests
p1255
Vmkvmlinuz
p1256
sVinstall-stem
p1257
Vvmlinux
p1258
ss(Vdescription
p1259
g1238
NVpowerpc64
p1260
tp1261
(dp1262
Vhardware
p1263
V64-bit PowerPC
p1264
ss(Vimage
p1265
g1238
NVpowerpc64
p1266
tp1267
(dp1268
Vconfigs
p1269
(lp1270
Vkernelarch-powerpc/config-arch-64
p1271
aVkernelarch-powerpc/config-arch-64-be
p1272
ass(g192
g1238
g163
tp1273
(dp1274
g195
(lp1275
Vpowerpc64
p1276
asg199
I01
ss(Vbase
p1277
Vppc64el
p1278
tp1279
(dp1280
Vkernel-arch
p1281
Vpowerpc
p1282
sg161
(lp1283
g163
ass(Vbuild
p1284
g1278
tp1285
(dp1286
Vimage-file
p1287
Vvmlinux
p1288
sVvdso
p1289
I01
ss(Vimage
p1290
g1278
tp1291
(dp1292
Vconfigs
p1293
(lp1294
sVsuggests
p1295
Vmkvmlinuz
p1296
sVinstall-stem
p1297
Vvmlinux
p1298
ss(Vdescription
p1299
g1278
NVpowerpc64le
p1300
tp1301
(dp1302
Vhardware
p1303
VLittle-endian 64-bit PowerPC
p1304
ss(Vimage
p1305
g1278
NVpowerpc64le
p1306
tp1307
(dp1308
Vconfigs
p1309
(lp1310
Vkernelarch-powerpc/config-arch-64
p1311
aVkernelarch-powerpc/config-arch-64-le
p1312
ass(g192
g1278
g163
tp1313
(dp1314
g195
(lp1315
Vpowerpc64le
p1316
asg199
I01
ss(Vbase
p1317
Vriscv64
p1318
tp1319
(dp1320
Vkernel-arch
p1321
Vriscv
p1322
sVfeaturesets
p1323
(lp1324
Vnone
p1325
ass(Vbuild
p1326
g1318
tp1327
(dp1328
Vimage-file
p1329
Vvmlinux
p1330
ss(Vimage
p1331
g1318
tp1332
(dp1333
Vinstall-stem
p1334
Vvmlinux
p1335
ss(Vdescription
p1336
g1318
NVriscv64
p1337
tp1338
(dp1339
Vhardware
p1340
V64-bit RISC-V platforms
p1341
sVhardware-long
p1342
V64-bit RISC-V platforms
p1343
ss(Vbase
p1344
g1318
Vnone
p1345
tp1346
(dp1347
Vflavours
p1348
(lp1349
Vriscv64
p1350
ass(Vbase
p1351
Vs390
p1352
tp1353
(dp1354
Vkernel-arch
p1355
Vs390
p1356
sVfeaturesets
p1357
(lp1358
ss(Vbase
p1359
Vs390x
p1360
tp1361
(dp1362
Vkernel-arch
p1363
Vs390
p1364
sg161
(lp1365
g163
ass(Vbuild
p1366
g1360
tp1367
(dp1368
Vimage-file
p1369
Varch/s390/boot/bzImage
p1370
sVvdso
p1371
I01
ss(Vimage
p1372
g1360
tp1373
(dp1374
Vbootloaders
p1375
(lp1376
Vs390-tools
p1377
asVinstall-stem
p1378
Vvmlinuz
p1379
ss(Vrelations
p1380
g1360
tp1381
(dp1382
Vheaders%gcc-8
p1383
Vlinux-compiler-gcc-8-s390
p1384
ss(Vbuild
p1385
g1360
NVs390x
p1386
tp1387
(dp1388
Vdebug-info
p1389
I01
ss(Vdescription
p1390
g1360
NVs390x
p1391
tp1392
(dp1393
Vhardware
p1394
VIBM zSeries
p1395
ss(g192
g1360
g163
tp1396
(dp1397
g195
(lp1398
Vs390x
p1399
asg199
I01
ss(Vbase
p1400
Vsh3
p1401
tp1402
(dp1403
Vkernel-arch
p1404
Vsh
p1405
sVfeaturesets
p1406
(lp1407
ss(Vbase
p1408
Vsh4
p1409
tp1410
(dp1411
Vkernel-arch
p1412
Vsh
p1413
sg161
(lp1414
g163
ass(Vbuild
p1415
g1409
tp1416
(dp1417
Vimage-file
p1418
Varch/sh/boot/zImage
p1419
ss(Vimage
p1420
g1409
tp1421
(dp1422
Vinstall-stem
p1423
Vvmlinuz
p1424
ss(Vdescription
p1425
g1409
NVsh7751r
p1426
tp1427
(dp1428
Vhardware
p1429
Vsh7751r
p1430
sVhardware-long
p1431
VRenesas SH7751R R2D plus board
p1432
ss(Vdescription
p1433
g1409
NVsh7785lcr
p1434
tp1435
(dp1436
Vhardware
p1437
Vsh7785lcr
p1438
sVhardware-long
p1439
VRenesas SH7785 reference board
p1440
ss(Vimage
p1441
g1409
NVsh7785lcr
p1442
tp1443
(dp1444
Vrecommends
p1445
Vu-boot-tools
p1446
sVcheck-size
p1447
I4194304
ss(g192
g1409
g163
tp1448
(dp1449
g195
(lp1450
Vsh7751r
p1451
aVsh7785lcr
p1452
asg199
I01
ss(Vbase
p1453
Vsparc
p1454
tp1455
(dp1456
Vkernel-arch
p1457
Vsparc
p1458
sVfeaturesets
p1459
(lp1460
ss(Vbase
p1461
Vsparc64
p1462
tp1463
(dp1464
Vkernel-arch
p1465
Vsparc
p1466
sg161
(lp1467
g163
ass(Vbuild
p1468
g1462
tp1469
(dp1470
Vimage-file
p1471
Varch/sparc/boot/zImage
p1472
ss(Vimage
p1473
g1462
tp1474
(dp1475
Vconfigs
p1476
(lp1477
sVsuggests
p1478
Vsilo, fdutils
p1479
sVinstall-stem
p1480
Vvmlinuz
p1481
ss(Vdescription
p1482
g1462
NVsparc64
p1483
tp1484
(dp1485
Vhardware
p1486
Vuniprocessor 64-bit UltraSPARC
p1487
ss(Vimage
p1488
g1462
NVsparc64
p1489
tp1490
(dp1491
Vconfigs
p1492
(lp1493
Vkernelarch-sparc/config-up
p1494
ass(Vdescription
p1495
g1462
NVsparc64-smp
p1496
tp1497
(dp1498
Vhardware
p1499
Vmultiprocessor 64-bit UltraSPARC
p1500
ss(Vimage
p1501
g1462
NVsparc64-smp
p1502
tp1503
(dp1504
Vconfigs
p1505
(lp1506
Vkernelarch-sparc/config-smp
p1507
ass(g192
g1462
g163
tp1508
(dp1509
g195
(lp1510
Vsparc64
p1511
aVsparc64-smp
p1512
asg199
I01
ss(Vbase
p1513
Vx32
p1514
tp1515
(dp1516
Vkernel-arch
p1517
Vx86
p1518
sVfeaturesets
p1519
(lp1520
ss(Vabi
p1521
NVrt
p1522
tp1523
(dp1524
Vignore-changes
p1525
(lp1526
V*
p1527
ass(Vdescription
p1528
Ng1522
tp1529
(dp1530
Vpart-long-rt
p1531
VThis kernel includes the PREEMPT_RT realtime patch set.
p1532
sVpart-short-rt
p1533
VPREEMPT_RT
p1534
sVparts
p1535
(lp1536
Vrt
p1537
ass(Vversion
p1538
tp1539
(dp1540
Vsource
p1541
V4.19.28-2parrot3.28t
p1542
sVupstream
p1543
V4.19
p1544
sVabiname_base
p1545
V4.19.0
p1546
sVabiname
p1547
V4.19.0-parrot3-28t
p1548
ss.