cdebian_linux.config
ConfigCore
p0
(tRp1
(Vbase
p2
tp3
(dp4
Varches
p5
(lp6
Valpha
p7
aVamd64
p8
aVarm64
p9
aVarmel
p10
aVarmhf
p11
aVhppa
p12
aVi386
p13
aVm68k
p14
aVmips
p15
aVmipsel
p16
aVmipsn32
p17
aVmipsn32el
p18
aVmips64
p19
aVmips64el
p20
aVpowerpc
p21
aVpowerpcspe
p22
aVppc64
p23
aVppc64el
p24
aVs390
p25
aVs390x
p26
aVsh3
p27
aVsh4
p28
aVsparc
p29
aVsparc64
p30
aVtilegx
p31
aVx32
p32
asVfeaturesets
p33
(lp34
Vnone
p35
aVrt
p36
asVcompiler
p37
Vgcc-6
p38
ss(Vbuild
p39
tp40
(dp41
Vsigned-modules
p42
I01
sVdebug-info
p43
I01
ss(Vbase
p44
NVrt
p45
tp46
(dp47
Venabled
p48
I01
ss(Vdescription
p49
tp50
(dp51
Vpart-long-up
p52
VThis kernel is not suitable for SMP (multi-processor,\u000amulti-core or hyper-threaded) systems.
p53
sVpart-long-xen
p54
VThis kernel also runs on a Xen hypervisor.\u000aIt supports both privileged (dom0) and unprivileged (domU) operation.
p55
ss(Vrelations
p56
tp57
(dp58
Vinitramfs-tools
p59
Vinitramfs-tools (>= 0.120+deb8u2)
p60
sVgcc-6
p61
Vgcc-6 <!stage1 !cross>, gcc-6-@gnu-type-package@:native <!stage1 cross>
p62
sVinitramfs-fallback
p63
Vlinux-initramfs-tool
p64
ss(Vimage
p65
tp66
(dp67
Vinitramfs-generators
p68
(lp69
Vinitramfs-tools
p70
aVinitramfs-fallback
p71
ass(Vabi
p72
tp73
(dp74
Vabiname
p75
Vparrot13
p76
sVignore-changes
p77
(lp78
V__cpuhp_*
p79
aVmodule:drivers/iio/common/st_sensors/**
p80
aVmodule:drivers/net/wireless/**
p81
aVmodule:drivers/power/supply/bq27xxx_battery
p82
aVmodule:drivers/usb/host/**
p83
aVmodule:drivers/usb/musb/**
p84
aVmodule:net/ceph/libceph
p85
aVbtree_*
p86
aVvisitor*
p87
aVcan_rx_register
p88
aVip6_xmit
p89
ass(Vbase
p90
Valpha
p91
tp92
(dp93
Vfeaturesets
p94
(lp95
Vnone
p96
asVkernel-arch
p97
Valpha
p98
ss(Vdescription
p99
g91
NValpha-smp
p100
tp101
(dp102
Vhardware
p103
VAlpha SMP
p104
sVhardware-long
p105
VDEC Alpha SMP systems with extended kernel start address (Wildfire, Titan, Marvel)
p106
ss(Vbuild
p107
g91
tp108
(dp109
Vsigned-modules
p110
I00
sVimage-file
p111
Varch/alpha/boot/vmlinux.gz
p112
ss(Vdescription
p113
g91
NValpha-generic
p114
tp115
(dp116
Vhardware
p117
VAlpha
p118
sVhardware-long
p119
VDEC Alpha systems with extended kernel start address (Wildfire, Titan, Marvel)
p120
ss(Vimage
p121
g91
tp122
(dp123
Vsuggests
p124
Vaboot, fdutils
p125
sVinstall-stem
p126
Vvmlinuz
p127
ss(Vbase
p128
g91
g96
tp129
(dp130
Vflavours
p131
(lp132
Valpha-generic
p133
aValpha-smp
p134
asVimplicit-flavour
p135
I01
ss(Vbase
p136
Vamd64
p137
tp138
(dp139
Vfeaturesets
p140
(lp141
Vnone
p142
aVrt
p143
asVkernel-arch
p144
Vx86
p145
ss(Vdescription
p146
g137
NVamd64
p147
tp148
(dp149
Vhardware
p150
V64-bit PCs
p151
sVhardware-long
p152
VPCs with AMD64, Intel 64 or VIA Nano processors
p153
ss(Vbuild
p154
g137
tp155
(dp156
Vvdso
p157
I01
sVimage-file
p158
Varch/x86/boot/bzImage
p159
sVdebug-info
p160
I01
sVsigned-modules
p161
I00
ss(Vrelations
p162
g137
tp163
(dp164
Vheaders%gcc-6
p165
Vlinux-compiler-gcc-6-x86
p166
ss(Vimage
p167
g137
tp168
(dp169
Vbreaks
p170
Vxserver-xorg-input-vmmouse (<< 1:13.0.99)
p171
sVinstall-stem
p172
Vvmlinuz
p173
sVbootloaders
p174
(lp175
Vgrub-pc
p176
aVgrub-efi-amd64
p177
aVextlinux
p178
ass(Vbase
p179
g137
Vnone
p180
tp181
(dp182
Vflavours
p183
(lp184
Vamd64
p185
ass(Vdescription
p186
g137
g180
Vamd64
p187
tp188
(dp189
Vparts
p190
(lp191
Vxen
p192
ass(Vbase
p193
g137
Vrt
p194
tp195
(dp196
Vflavours
p197
(lp198
Vamd64
p199
ass(Vbase
p200
Varm64
p201
tp202
(dp203
Vfeaturesets
p204
(lp205
Vnone
p206
asVkernel-arch
p207
Varm64
p208
ss(Vdescription
p209
g201
NVarm64
p210
tp211
(dp212
Vhardware
p213
V64-bit ARMv8 machines
p214
ss(Vbuild
p215
g201
tp216
(dp217
Vvdso
p218
I01
sVimage-file
p219
Varch/arm64/boot/Image
p220
sVdebug-info
p221
I01
sVsigned-modules
p222
I00
ss(Vimage
p223
g201
NVarm64
p224
tp225
(dp226
s(Vimage
p227
g201
tp228
(dp229
Vbreaks
p230
Vlibmozjs185-1.0, libmozjs-24-0 (<< 24.2.0-5.1~)
p231
sVinstall-stem
p232
Vvmlinuz
p233
ss(Vbase
p234
g201
Vnone
p235
tp236
(dp237
Vflavours
p238
(lp239
Varm64
p240
ass(Vbase
p241
Varmel
p242
tp243
(dp244
g94
(lp245
g96
asVkernel-arch
p246
Varm
p247
ss(Vbuild
p248
g242
tp249
(dp250
Vsigned-modules
p251
I00
sVimage-file
p252
Varch/arm/boot/zImage
p253
ss(Vimage
p254
g242
NVmarvell
p255
tp256
(dp257
Vrecommends
p258
Vu-boot-tools
p259
sVbreaks
p260
Vflash-kernel (<< 3.57~)
p261
sVcheck-size-with-dtb
p262
I01
sVcheck-size
p263
L2097080L
ss(Vdescription
p264
g242
NVmarvell
p265
tp266
(dp267
Vhardware
p268
VMarvell Kirkwood/Orion
p269
sVhardware-long
p270
VMarvell Kirkwood based systems (SheevaPlug, QNAP TS-119/TS-219, etc)\u000aand Orion 5181, 5182 and 5281 based systems (QNAP TS-109/TS-209, etc)
p271
ss(Vrelations
p272
g242
tp273
(dp274
Vheaders%gcc-6
p275
Vlinux-compiler-gcc-6-arm
p276
ss(Vimage
p277
g242
tp278
(dp279
Vinstall-stem
p280
Vvmlinuz
p281
ss(g128
g242
g96
tp282
(dp283
g131
(lp284
Vmarvell
p285
asg135
I01
ss(Vbase
p286
Varmhf
p287
tp288
(dp289
g94
(lp290
g96
asVkernel-arch
p291
Varm
p292
ss(Vdescription
p293
g287
NVarmmp
p294
tp295
(dp296
Vhardware
p297
VARMv7 multiplatform compatible SoCs
p298
sVhardware-long
p299
VARMv7 multiplatform kernel. See\u000ahttps://wiki.debian.org/DebianKernel/ARMMP for details of supported\u000aplatforms
p300
ss(Vbuild
p301
g287
tp302
(dp303
Vvdso
p304
I01
sVimage-file
p305
Varch/arm/boot/zImage
p306
sVsigned-modules
p307
I00
ss(Vdescription
p308
g287
NVarmmp-lpae
p309
tp310
(dp311
Vhardware
p312
VARMv7 multiplatform compatible SoCs supporting LPAE
p313
sVhardware-long
p314
VARMv7 multiplatform kernel supporting LPAE. See\u000ahttps://wiki.debian.org/DebianKernel/ARMMP for details of supported\u000aplatforms.
p315
ss(Vrelations
p316
g287
tp317
(dp318
Vheaders%gcc-6
p319
Vlinux-compiler-gcc-6-arm
p320
ss(Vimage
p321
g287
tp322
(dp323
Vinstall-stem
p324
Vvmlinuz
p325
ss(g128
g287
g96
tp326
(dp327
g131
(lp328
Varmmp
p329
aVarmmp-lpae
p330
asg135
I01
ss(Vbase
p331
Vhppa
p332
tp333
(dp334
g94
(lp335
g96
asVkernel-arch
p336
Vparisc
p337
ss(Vbuild
p338
g332
tp339
(dp340
Vsigned-modules
p341
I00
sVimage-file
p342
Vvmlinux
p343
ss(Vdescription
p344
g332
NVparisc64-smp
p345
tp346
(dp347
Vhardware
p348
Vmultiprocessor 64-bit PA-RISC
p349
sVhardware-long
p350
VHP PA-RISC 64-bit SMP systems with support for more than 4 GB RAM
p351
ss(Vbase
p352
g332
NVparisc64-smp
p353
tp354
(dp355
Vcflags
p356
V-fno-cse-follow-jumps
p357
sVoverride-host-type
p358
Vhppa64-linux-gnu
p359
ss(Vrelations
p360
g332
tp361
(dp362
Vgcc-6
p363
Vgcc-6 <!stage1 !cross>, binutils-hppa64-linux-gnu <!stage1 !cross>, gcc-6-hppa64-linux-gnu <!stage1 !cross>, gcc-6-hppa-linux-gnu:native <!stage1 cross>, binutils-hppa64-linux-gnu:native <!stage1 cross>, gcc-6-hppa64-linux-gnu:native <!stage1 cross>
p364
ss(Vdescription
p365
g332
NVparisc
p366
tp367
(dp368
Vhardware
p369
V32-bit PA-RISC
p370
sVhardware-long
p371
VHP PA-RISC 32-bit systems with max 4 GB RAM
p372
ss(Vimage
p373
g332
tp374
(dp375
Vsuggests
p376
Vpalo
p377
sVinstall-stem
p378
Vvmlinux
p379
ss(g128
g332
g96
tp380
(dp381
g131
(lp382
Vparisc
p383
aVparisc64-smp
p384
asg135
I01
ss(Vbase
p385
Vi386
p386
tp387
(dp388
Vfeaturesets
p389
(lp390
Vnone
p391
aVrt
p392
asVkernel-arch
p393
Vx86
p394
ss(Vbuild
p395
g386
tp396
(dp397
Vvdso
p398
I01
sVimage-file
p399
Varch/x86/boot/bzImage
p400
sVsigned-modules
p401
I00
ss(Vdescription
p402
g386
NV686-pae
p403
tp404
(dp405
Vhardware
p406
Vmodern PCs
p407
sVhardware-long
p408
VPCs with one or more processors supporting PAE
p409
sVparts
p410
(lp411
Vpae
p412
ass(Vdescription
p413
g386
tp414
(dp415
Vpart-long-pae
p416
VThis kernel requires PAE (Physical Address Extension).\u000aThis feature is supported by the Intel Pentium Pro/II/III/4/4M/D, Xeon,\u000aCore and Atom; AMD Geode NX, Athlon (K7), Duron, Opteron, Sempron,\u000aTurion or Phenom; Transmeta Efficeon; VIA C7; and some other processors.
p417
ss(Vbuild
p418
g386
NV686-pae
p419
tp420
(dp421
Vdebug-info
p422
I01
ss(Vdescription
p423
g386
NV686
p424
tp425
(dp426
Vhardware
p427
Volder PCs
p428
sVhardware-long
p429
VPCs with one or more processors not supporting PAE
p430
ss(Vrelations
p431
g386
tp432
(dp433
Vheaders%gcc-6
p434
Vlinux-compiler-gcc-6-x86
p435
ss(Vimage
p436
g386
tp437
(dp438
Vbreaks
p439
Vxserver-xorg-input-vmmouse (<< 1:13.0.99)
p440
sVinstall-stem
p441
Vvmlinuz
p442
sVbootloaders
p443
(lp444
Vgrub-pc
p445
aVextlinux
p446
ass(Vbase
p447
g386
Vnone
p448
tp449
(dp450
Vflavours
p451
(lp452
V686
p453
aV686-pae
p454
ass(Vdescription
p455
g386
g448
V686-pae
p456
tp457
(dp458
Vparts
p459
(lp460
Vxen
p461
ass(Vbase
p462
g386
Vrt
p463
tp464
(dp465
Vflavours
p466
(lp467
V686-pae
p468
ass(Vbase
p469
Vm68k
p470
tp471
(dp472
Vcflags
p473
V-ffreestanding
p474
sg94
(lp475
g96
asVkernel-arch
p476
Vm68k
p477
ss(Vbuild
p478
g470
tp479
(dp480
Vsigned-modules
p481
I00
sVimage-file
p482
Vvmlinux.gz
p483
ss(Vdescription
p484
g470
NVm68k
p485
tp486
(dp487
Vhardware
p488
VMotorola MC68020+ family
p489
ss(Vimage
p490
g470
tp491
(dp492
Vsuggests
p493
Vvmelilo, fdutils
p494
sVinstall-stem
p495
Vvmlinuz
p496
ss(g128
g470
g96
tp497
(dp498
g131
(lp499
Vm68k
p500
asg135
I01
ss(Vbase
p501
Vmips
p502
tp503
(dp504
g94
(lp505
g96
asVkernel-arch
p506
Vmips
p507
ss(Vbuild
p508
g502
tp509
(dp510
Vsigned-modules
p511
I00
sVimage-file
p512
Vvmlinux
p513
ss(Vimage
p514
g502
NV4kc-malta
p515
tp516
(dp517
Vconfigs
p518
(lp519
Vkernelarch-mips/config.malta
p520
aVkernelarch-mips/config.mips32r2
p521
ass(Vimage
p522
g502
NV5kc-malta
p523
tp524
(dp525
Vconfigs
p526
(lp527
Vkernelarch-mips/config.malta
p528
aVkernelarch-mips/config.mips64r2
p529
ass(Vdescription
p530
g502
NVocteon
p531
tp532
(dp533
Vhardware
p534
VOcteon
p535
sVhardware-long
p536
VCavium Networks Octeon
p537
ss(Vimage
p538
g502
NVocteon
p539
tp540
(dp541
Vconfigs
p542
(lp543
Vkernelarch-mips/config.octeon
p544
ass(Vimage
p545
g502
tp546
(dp547
Vinstall-stem
p548
Vvmlinux
p549
ss(Vdescription
p550
g502
NV5kc-malta
p551
tp552
(dp553
Vhardware
p554
VMIPS Malta (64-bit)
p555
sVhardware-long
p556
VMIPS Malta boards (64-bit)
p557
ss(Vdescription
p558
g502
NV4kc-malta
p559
tp560
(dp561
Vhardware
p562
VMIPS Malta
p563
sVhardware-long
p564
VMIPS Malta boards
p565
ss(g128
g502
g96
tp566
(dp567
g131
(lp568
V4kc-malta
p569
aV5kc-malta
p570
aVocteon
p571
asg135
I01
ss(Vbase
p572
Vmipsel
p573
tp574
(dp575
g94
(lp576
g96
asVkernel-arch
p577
Vmips
p578
ss(Vimage
p579
g573
NVloongson-3
p580
tp581
(dp582
Vconfigs
p583
(lp584
Vkernelarch-mips/config.loongson-3
p585
ass(Vbuild
p586
g573
tp587
(dp588
Vsigned-modules
p589
I00
sVimage-file
p590
Vvmlinux
p591
ss(Vimage
p592
g573
NV4kc-malta
p593
tp594
(dp595
Vconfigs
p596
(lp597
Vkernelarch-mips/config.malta
p598
aVkernelarch-mips/config.mips32r2
p599
ass(Vimage
p600
g573
NV5kc-malta
p601
tp602
(dp603
Vconfigs
p604
(lp605
Vkernelarch-mips/config.malta
p606
aVkernelarch-mips/config.mips64r2
p607
ass(Vdescription
p608
g573
NVocteon
p609
tp610
(dp611
Vhardware
p612
VOcteon
p613
sVhardware-long
p614
VCavium Networks Octeon
p615
ss(Vdescription
p616
g573
NVloongson-3
p617
tp618
(dp619
Vhardware
p620
VLoongson 3A/3B
p621
sVhardware-long
p622
VLoongson 3A or 3B based systems (e.g. from Loongson or Lemote)
p623
ss(Vimage
p624
g573
NVocteon
p625
tp626
(dp627
Vconfigs
p628
(lp629
Vkernelarch-mips/config.octeon
p630
ass(Vimage
p631
g573
tp632
(dp633
Vinstall-stem
p634
Vvmlinux
p635
ss(Vdescription
p636
g573
NV5kc-malta
p637
tp638
(dp639
Vhardware
p640
VMIPS Malta (64-bit)
p641
sVhardware-long
p642
VMIPS Malta boards (64-bit)
p643
ss(Vdescription
p644
g573
NV4kc-malta
p645
tp646
(dp647
Vhardware
p648
VMIPS Malta
p649
sVhardware-long
p650
VMIPS Malta boards
p651
ss(g128
g573
g96
tp652
(dp653
g131
(lp654
V4kc-malta
p655
aV5kc-malta
p656
aVloongson-3
p657
aVocteon
p658
asg135
I01
ss(Vbase
p659
Vmipsn32
p660
tp661
(dp662
Vfeaturesets
p663
(lp664
sVkernel-arch
p665
Vmips
p666
ss(Vbase
p667
Vmipsn32el
p668
tp669
(dp670
Vfeaturesets
p671
(lp672
sVkernel-arch
p673
Vmips
p674
ss(Vbase
p675
Vmips64
p676
tp677
(dp678
g94
(lp679
g96
asVkernel-arch
p680
Vmips
p681
ss(Vbuild
p682
g676
tp683
(dp684
Vsigned-modules
p685
I00
sVimage-file
p686
Vvmlinux
p687
ss(Vimage
p688
g676
NV5kc-malta
p689
tp690
(dp691
Vconfigs
p692
(lp693
Vkernelarch-mips/config.malta
p694
aVkernelarch-mips/config.mips64r2
p695
ass(Vdescription
p696
g676
NVocteon
p697
tp698
(dp699
Vhardware
p700
VOcteon
p701
sVhardware-long
p702
VCavium Networks Octeon
p703
ss(Vimage
p704
g676
tp705
(dp706
Vinstall-stem
p707
Vvmlinux
p708
ss(Vdescription
p709
g676
NV5kc-malta
p710
tp711
(dp712
Vhardware
p713
VMIPS Malta
p714
sVhardware-long
p715
VMIPS Malta boards
p716
ss(Vimage
p717
g676
NVocteon
p718
tp719
(dp720
Vconfigs
p721
(lp722
Vkernelarch-mips/config.octeon
p723
ass(g128
g676
g96
tp724
(dp725
g131
(lp726
V5kc-malta
p727
aVocteon
p728
asg135
I01
ss(Vbase
p729
Vmips64el
p730
tp731
(dp732
g94
(lp733
g96
asVkernel-arch
p734
Vmips
p735
ss(Vimage
p736
g730
NVloongson-3
p737
tp738
(dp739
Vconfigs
p740
(lp741
Vkernelarch-mips/config.loongson-3
p742
ass(Vbuild
p743
g730
tp744
(dp745
Vsigned-modules
p746
I00
sVimage-file
p747
Vvmlinux
p748
ss(Vimage
p749
g730
NV5kc-malta
p750
tp751
(dp752
Vconfigs
p753
(lp754
Vkernelarch-mips/config.malta
p755
aVkernelarch-mips/config.mips64r2
p756
ass(Vdescription
p757
g730
NVocteon
p758
tp759
(dp760
Vhardware
p761
VOcteon
p762
sVhardware-long
p763
VCavium Networks Octeon
p764
ss(Vdescription
p765
g730
NVloongson-3
p766
tp767
(dp768
Vhardware
p769
VLoongson 3A/3B
p770
sVhardware-long
p771
VLoongson 3A or 3B based systems (e.g. from Loongson or Lemote)
p772
ss(Vimage
p773
g730
tp774
(dp775
Vinstall-stem
p776
Vvmlinux
p777
ss(Vdescription
p778
g730
NV5kc-malta
p779
tp780
(dp781
Vhardware
p782
VMIPS Malta
p783
sVhardware-long
p784
VMIPS Malta boards
p785
ss(Vimage
p786
g730
NVocteon
p787
tp788
(dp789
Vconfigs
p790
(lp791
Vkernelarch-mips/config.octeon
p792
ass(g128
g730
g96
tp793
(dp794
g131
(lp795
V5kc-malta
p796
aVloongson-3
p797
aVocteon
p798
asg135
I01
ss(Vbase
p799
Vpowerpc
p800
tp801
(dp802
g94
(lp803
g96
asVkernel-arch
p804
Vpowerpc
p805
ss(Vdescription
p806
g800
NVpowerpc64
p807
tp808
(dp809
Vhardware
p810
V64-bit PowerPC
p811
ss(Vbuild
p812
g800
tp813
(dp814
Vvdso
p815
I01
sVimage-file
p816
Vvmlinux
p817
ss(Vimage
p818
g800
NVpowerpc-smp
p819
tp820
(dp821
Vconfigs
p822
(lp823
Vpowerpc/config.powerpc
p824
aVpowerpc/config.powerpc-smp
p825
ass(Vdescription
p826
g800
NVpowerpc
p827
tp828
(dp829
Vhardware
p830
Vuniprocessor 32-bit PowerPC
p831
ss(Vimage
p832
g800
NVpowerpc64
p833
tp834
(dp835
Vconfigs
p836
(lp837
Vkernelarch-powerpc/config-arch-64
p838
aVkernelarch-powerpc/config-arch-64-be
p839
ass(Vdescription
p840
g800
NVpowerpc-smp
p841
tp842
(dp843
Vhardware
p844
Vmultiprocessor 32-bit PowerPC
p845
ss(Vimage
p846
g800
tp847
(dp848
Vsuggests
p849
Vmkvmlinuz
p850
sVinstall-stem
p851
Vvmlinux
p852
sVconfigs
p853
(lp854
ss(g128
g800
g96
tp855
(dp856
g131
(lp857
Vpowerpc
p858
aVpowerpc-smp
p859
aVpowerpc64
p860
asg135
I01
ss(Vbase
p861
Vpowerpcspe
p862
tp863
(dp864
g94
(lp865
g96
asVkernel-arch
p866
Vpowerpc
p867
ss(Vbuild
p868
g862
tp869
(dp870
Vsigned-modules
p871
I00
sVimage-file
p872
Vvmlinux
p873
sVvdso
p874
I01
ss(Vimage
p875
g862
tp876
(dp877
Vsuggests
p878
Vmkvmlinuz
p879
sVinstall-stem
p880
Vvmlinux
p881
ss(Vdescription
p882
g862
tp883
(dp884
Vhardware
p885
V32-bit PowerPC with SPE (instead of AltiVec) with SMP support
p886
ss(g128
g862
g96
tp887
(dp888
g131
(lp889
Vpowerpcspe
p890
asg135
I01
ss(Vbase
p891
Vppc64
p892
tp893
(dp894
g94
(lp895
g96
asVkernel-arch
p896
Vpowerpc
p897
ss(Vdescription
p898
g892
NVpowerpc64
p899
tp900
(dp901
Vhardware
p902
V64-bit PowerPC
p903
ss(Vbuild
p904
g892
tp905
(dp906
Vsigned-modules
p907
I00
sVimage-file
p908
Vvmlinux
p909
sVvdso
p910
I01
ss(Vimage
p911
g892
NVpowerpc64
p912
tp913
(dp914
Vconfigs
p915
(lp916
Vkernelarch-powerpc/config-arch-64
p917
aVkernelarch-powerpc/config-arch-64-be
p918
ass(Vimage
p919
g892
tp920
(dp921
Vsuggests
p922
Vmkvmlinuz
p923
sVinstall-stem
p924
Vvmlinux
p925
sVconfigs
p926
(lp927
ss(g128
g892
g96
tp928
(dp929
g131
(lp930
Vpowerpc64
p931
asg135
I01
ss(Vbase
p932
Vppc64el
p933
tp934
(dp935
g94
(lp936
g96
asVkernel-arch
p937
Vpowerpc
p938
ss(Vdescription
p939
g933
NVpowerpc64le
p940
tp941
(dp942
Vhardware
p943
VLittle-endian 64-bit PowerPC
p944
ss(Vbuild
p945
g933
tp946
(dp947
Vvdso
p948
I01
sVimage-file
p949
Vvmlinux
p950
ss(Vimage
p951
g933
tp952
(dp953
Vsuggests
p954
Vmkvmlinuz
p955
sVinstall-stem
p956
Vvmlinux
p957
sVconfigs
p958
(lp959
ss(Vimage
p960
g933
NVpowerpc64le
p961
tp962
(dp963
Vconfigs
p964
(lp965
Vkernelarch-powerpc/config-arch-64
p966
aVkernelarch-powerpc/config-arch-64-le
p967
ass(g128
g933
g96
tp968
(dp969
g131
(lp970
Vpowerpc64le
p971
asg135
I01
ss(Vbase
p972
Vs390
p973
tp974
(dp975
Vfeaturesets
p976
(lp977
sVkernel-arch
p978
Vs390
p979
ss(Vbase
p980
Vs390x
p981
tp982
(dp983
g94
(lp984
g96
asVkernel-arch
p985
Vs390
p986
ss(Vdescription
p987
g981
NVs390x
p988
tp989
(dp990
Vhardware
p991
VIBM zSeries
p992
ss(Vbuild
p993
g981
tp994
(dp995
Vvdso
p996
I01
sVimage-file
p997
Varch/s390/boot/image
p998
ss(Vbuild
p999
g981
NVs390x
p1000
tp1001
(dp1002
Vdebug-info
p1003
I01
ss(Vrelations
p1004
g981
tp1005
(dp1006
Vheaders%gcc-6
p1007
Vlinux-compiler-gcc-6-s390
p1008
ss(Vimage
p1009
g981
tp1010
(dp1011
Vinstall-stem
p1012
Vvmlinuz
p1013
sVbootloaders
p1014
(lp1015
Vs390-tools
p1016
ass(g128
g981
g96
tp1017
(dp1018
g131
(lp1019
Vs390x
p1020
asg135
I01
ss(Vbase
p1021
Vsh3
p1022
tp1023
(dp1024
Vfeaturesets
p1025
(lp1026
sVkernel-arch
p1027
Vsh
p1028
ss(Vbase
p1029
Vsh4
p1030
tp1031
(dp1032
g94
(lp1033
g96
asVkernel-arch
p1034
Vsh
p1035
ss(Vbuild
p1036
g1030
tp1037
(dp1038
Vsigned-modules
p1039
I00
sVimage-file
p1040
Varch/sh/boot/zImage
p1041
ss(Vdescription
p1042
g1030
NVsh7751r
p1043
tp1044
(dp1045
Vhardware
p1046
Vsh7751r
p1047
sVhardware-long
p1048
VRenesas SH7751R R2D plus board
p1049
ss(Vdescription
p1050
g1030
NVsh7785lcr
p1051
tp1052
(dp1053
Vhardware
p1054
Vsh7785lcr
p1055
sVhardware-long
p1056
VRenesas SH7785 reference board
p1057
ss(Vimage
p1058
g1030
tp1059
(dp1060
Vinstall-stem
p1061
Vvmlinuz
p1062
ss(Vimage
p1063
g1030
NVsh7785lcr
p1064
tp1065
(dp1066
Vrecommends
p1067
Vu-boot-tools
p1068
sVcheck-size
p1069
L4194304L
ss(g128
g1030
g96
tp1070
(dp1071
g131
(lp1072
Vsh7751r
p1073
aVsh7785lcr
p1074
asg135
I01
ss(Vbase
p1075
Vsparc
p1076
tp1077
(dp1078
Vfeaturesets
p1079
(lp1080
sVkernel-arch
p1081
Vsparc
p1082
ss(Vbase
p1083
Vsparc64
p1084
tp1085
(dp1086
g94
(lp1087
g96
asVkernel-arch
p1088
Vsparc
p1089
ss(Vbuild
p1090
g1084
tp1091
(dp1092
Vsigned-modules
p1093
I00
sVimage-file
p1094
Varch/sparc/boot/zImage
p1095
ss(Vimage
p1096
g1084
NVsparc64
p1097
tp1098
(dp1099
Vconfigs
p1100
(lp1101
Vkernelarch-sparc/config-up
p1102
ass(Vimage
p1103
g1084
NVsparc64-smp
p1104
tp1105
(dp1106
Vconfigs
p1107
(lp1108
Vkernelarch-sparc/config-smp
p1109
ass(Vimage
p1110
g1084
tp1111
(dp1112
Vsuggests
p1113
Vsilo, fdutils
p1114
sVinstall-stem
p1115
Vvmlinuz
p1116
sVconfigs
p1117
(lp1118
ss(Vdescription
p1119
g1084
NVsparc64-smp
p1120
tp1121
(dp1122
Vhardware
p1123
Vmultiprocessor 64-bit UltraSPARC
p1124
ss(Vdescription
p1125
g1084
NVsparc64
p1126
tp1127
(dp1128
Vhardware
p1129
Vuniprocessor 64-bit UltraSPARC
p1130
ss(g128
g1084
g96
tp1131
(dp1132
g131
(lp1133
Vsparc64
p1134
aVsparc64-smp
p1135
asg135
I01
ss(Vbase
p1136
Vtilegx
p1137
tp1138
(dp1139
Vfeaturesets
p1140
(lp1141
sVkernel-arch
p1142
Vtile
p1143
ss(Vbase
p1144
Vx32
p1145
tp1146
(dp1147
Vfeaturesets
p1148
(lp1149
sVkernel-arch
p1150
Vx86
p1151
ss(Vdescription
p1152
NVrt
p1153
tp1154
(dp1155
Vparts
p1156
(lp1157
Vrt
p1158
asVpart-long-rt
p1159
VThis kernel includes the PREEMPT_RT realtime patch set.
p1160
sVpart-short-rt
p1161
VPREEMPT_RT
p1162
ss(Vabi
p1163
Ng1153
tp1164
(dp1165
Vignore-changes
p1166
(lp1167
V*
p1168
ass(Vversion
p1169
tp1170
(dp1171
Vupstream
p1172
V4.9
p1173
sVsource
p1174
V4.9.13-1parrot1
p1175
sVabiname
p1176
V4.9.0-parrot13
p1177
sVabiname_base
p1178
V4.9.0
p1179
ss.