cdebian_linux.config
ConfigCore
p0
(tRp1
(Vabi
p2
tp3
(dp4
Vabiname
p5
V6parrot1
p6
sVignore-changes
p7
(lp8
V__cpuhp_*
p9
aV__udp_gso_segment
p10
aVbpf_analyzer
p11
aVcxl_*
p12
aVdax_flush
p13
aVieee80211_nullfunc_get
p14
aVinet_add_protocol
p15
aVinet_del_protocol
p16
aViommu_device_*
p17
aVmm_iommu_*
p18
aVmv_mbus_*
p19
aVperf_*
p20
aVregister_cxl_calls
p21
aVregister_key_type
p22
aVunregister_cxl_calls
p23
aV*_hw_breakpoint
p24
aVmodule:drivers/crypto/ccp/*
p25
aVmodule:drivers/hv/*
p26
aVmodule:drivers/gpu/drm/sun4i/*
p27
aVmodule:drivers/iio/**
p28
aVmodule:drivers/misc/cxl/*
p29
aVmodule:drivers/mtd/nand/*
p30
aVmodule:drivers/net/ethernet/**
p31
aVmodule:drivers/net/wireless/**
p32
aVmodule:drivers/nvdimm/*
p33
aVmodule:drivers/nvme/**
p34
aVmodule:drivers/power/supply/bq27xxx_battery
p35
aVmodule:drivers/scsi/cxgbi/*
p36
aVmodule:drivers/scsi/libiscs*
p37
aVmodule:drivers/scsi/qla2xxx/qla2xxx
p38
aVmodule:drivers/scsi/ufs/*
p39
aVmodule:drivers/target/**
p40
aVmodule:drivers/usb/chipidea/**
p41
aVmodule:drivers/usb/gadget/**
p42
aVmodule:drivers/usb/host/**
p43
aVmodule:drivers/usb/musb/**
p44
aVmodule:fs/nfs/**
p45
aVmodule:net/ceph/libceph
p46
aVmodule:net/l2tp/**
p47
aVmodule:net/rxrpc/rxrpc
p48
aVmodule:net/sctp/**
p49
aVmodule:sound/core/seq/**
p50
aVmodule:sound/firewire/snd-firewire-lib
p51
aVmodule:sound/pci/hda/*
p52
aVbtree_*
p53
aVvisitor*
p54
aVcan_rx_register
p55
aVip6_xmit
p56
aVmodule:net/dccp/dccp
p57
aVmodule:net/rds/rds
p58
aVdevfreq_*
p59
aVdevm_devfreq_*
p60
aVupdate_devfreq
p61
aVmodule:drivers/infiniband/**
p62
aVacpi_ec_add_query_handler
p63
aVacpi_ec_remove_query_handler
p64
aVfirst_ec
p65
aVdebugfs_create_automount
p66
aVmodule:drivers/iio/imu/inv_mpu6050/*
p67
aVdrm_crtc_accurate_vblank_count
p68
aVacpi_nfit_desc_init
p69
aVacpi_nfit_init
p70
aVloop_register_transfer
p71
aVxen_xlate_*
p72
aVnf_nat_masquerade_ipv4_register_notifier
p73
aVnf_nat_masquerade_ipv6_register_notifier
p74
aVdfltcc_*
p75
aVmodule:drivers/scsi/hisi_sas/*
p76
aV__gfn_*
p77
aV__kvmhv_*
p78
aV__kvm_*
p79
aV__xive_vm_h_*
p80
aVgfn_*
p81
aVh_ipi_redirect
p82
aVhalt_poll_ns*
p83
aVkvm_*
p84
aVkvmhv_*
p85
aVkvmppc_*
p86
aVmark_page_dirty
p87
aVvcpu_*
p88
aVmodule:arch/powerpc/kvm/*
p89
aVmodule:arch/s390/kvm/*
p90
aVmodule:arch/x86/kvm/*
p91
aVuv_info
p92
aVxhci_init_driver
p93
ass(Vbase
p94
tp95
(dp96
Varches
p97
(lp98
Valpha
p99
aVamd64
p100
aVarm64
p101
aVarm64ilp32
p102
aVarmel
p103
aVarmhf
p104
aVhppa
p105
aVi386
p106
aVia64
p107
aVm68k
p108
aVmips
p109
aVmips64
p110
aVmips64el
p111
aVmips64r6
p112
aVmips64r6el
p113
aVmipsel
p114
aVmipsn32
p115
aVmipsn32el
p116
aVmipsn32r6
p117
aVmipsn32r6el
p118
aVmipsr6
p119
aVmipsr6el
p120
aVpowerpc
p121
aVppc64
p122
aVppc64el
p123
aVriscv64
p124
aVs390
p125
aVs390x
p126
aVsh3
p127
aVsh4
p128
aVsparc
p129
aVsparc64
p130
aVx32
p131
asVcompiler
p132
Vgcc-10
p133
sVfeaturesets
p134
(lp135
Vnone
p136
aVrt
p137
ass(Vbuild
p138
tp139
(dp140
Vdebug-info
p141
I01
sVsigned-code
p142
I00
ss(Vbase
p143
NVrt
p144
tp145
(dp146
Venabled
p147
I01
ss(Vdescription
p148
tp149
(dp150
Vpart-long-up
p151
VThis kernel is not suitable for SMP (multi-processor,\u000amulti-core or hyper-threaded) systems.
p152
ss(Vimage
p153
tp154
(dp155
Vinitramfs-generators
p156
(lp157
Vinitramfs-tools
p158
aVinitramfs-fallback
p159
asVbreaks
p160
(lp161
Vfwupdate (<< 12-7)
p162
aVwireless-regdb (<< 2019.06.03-1~)
p163
asVrecommends
p164
(lp165
Vapparmor
p166
ass(Vrelations
p167
tp168
(dp169
Vgcc-10
p170
Vgcc-10 <!stage1 !cross !pkg.linux.nokernel>, gcc-10-@gnu-type-package@ <!stage1 cross !pkg.linux.nokernel>
p171
sVinitramfs-fallback
p172
Vlinux-initramfs-tool
p173
sVinitramfs-tools
p174
Vinitramfs-tools (>= 0.120+deb8u2)
p175
ss(Vbase
p176
Valpha
p177
tp178
(dp179
Vdefault-flavour
p180
Valpha-smp
p181
sVkernel-arch
p182
Valpha
p183
sVfeaturesets
p184
(lp185
Vnone
p186
ass(Vbuild
p187
g177
tp188
(dp189
Vimage-file
p190
Varch/alpha/boot/vmlinux.gz
p191
ss(Vimage
p192
g177
tp193
(dp194
Vsuggests
p195
(lp196
Vaboot
p197
aVfdutils
p198
asVinstall-stem
p199
Vvmlinuz
p200
ss(Vdescription
p201
g177
NValpha-generic
p202
tp203
(dp204
Vhardware
p205
VAlpha
p206
sVhardware-long
p207
VDEC Alpha systems with extended kernel start address (Wildfire, Titan, Marvel)
p208
ss(Vdescription
p209
g177
NValpha-smp
p210
tp211
(dp212
Vhardware
p213
VAlpha SMP
p214
sVhardware-long
p215
VDEC Alpha SMP systems with extended kernel start address (Wildfire, Titan, Marvel)
p216
ss(Vbase
p217
g177
g186
tp218
(dp219
Vflavours
p220
(lp221
Valpha-generic
p222
aValpha-smp
p223
asVimplicit-flavour
p224
I01
ss(Vbase
p225
Vamd64
p226
tp227
(dp228
Vfeaturesets
p229
(lp230
Vnone
p231
aVrt
p232
asVkernel-arch
p233
Vx86
p234
ss(Vbuild
p235
g226
tp236
(dp237
Vimage-file
p238
Varch/x86/boot/bzImage
p239
sVsigned-code
p240
I00
sVvdso
p241
I01
ss(Vimage
p242
g226
tp243
(dp244
Vbootloaders
p245
(lp246
Vgrub-pc
p247
aVgrub-efi-amd64
p248
aVextlinux
p249
asVinstall-stem
p250
Vvmlinuz
p251
sVbreaks
p252
(lp253
Vxserver-xorg-input-vmmouse (<< 1:13.0.99)
p254
ass(Vrelations
p255
g226
tp256
(dp257
Vheaders%gcc-10
p258
Vlinux-compiler-gcc-10-x86
p259
ss(Vdescription
p260
g226
NVamd64
p261
tp262
(dp263
Vhardware
p264
V64-bit PCs
p265
sVhardware-long
p266
VPCs with AMD64, Intel 64 or VIA Nano processors
p267
ss(Vdescription
p268
g226
NVcloud-amd64
p269
tp270
(dp271
Vhardware
p272
Vx86-64 cloud
p273
sVhardware-long
p274
Vcloud platforms including Amazon EC2, Microsoft Azure, and Google Compute Engine
p275
ss(Vbase
p276
g226
Vnone
p277
tp278
(dp279
Vflavours
p280
(lp281
Vamd64
p282
aVcloud-amd64
p283
asVdefault-flavour
p284
Vamd64
p285
ss(Vimage
p286
g226
g277
Vcloud-amd64
p287
tp288
(dp289
Vconfigs
p290
(lp291
Vconfig.cloud
p292
aVamd64/config.cloud-amd64
p293
ass(Vbase
p294
g226
Vrt
p295
tp296
(dp297
Vflavours
p298
(lp299
Vamd64
p300
ass(Vbase
p301
Varm64
p302
tp303
(dp304
Vcross-compile-compat
p305
Varm-linux-gnueabihf-
p306
sVkernel-arch
p307
Varm64
p308
sVfeaturesets
p309
(lp310
Vnone
p311
aVrt
p312
ass(Vbuild
p313
g302
tp314
(dp315
Vimage-file
p316
Varch/arm64/boot/Image
p317
sVsigned-code
p318
I00
sVvdso
p319
I01
ss(Vimage
p320
g302
tp321
(dp322
Vinstall-stem
p323
Vvmlinuz
p324
sVbreaks
p325
(lp326
Vlibmozjs185-1.0
p327
aVlibmozjs-24-0 (<< 24.2.0-5.1~)
p328
ass(Vdescription
p329
g302
NVarm64
p330
tp331
(dp332
Vhardware
p333
V64-bit ARMv8 machines
p334
ss(Vdescription
p335
g302
NVcloud-arm64
p336
tp337
(dp338
Vhardware
p339
Varm64 cloud
p340
sVhardware-long
p341
Vcloud platforms supporting arm64 virtual machines
p342
ss(Vimage
p343
g302
NVarm64
p344
tp345
(dp346
s(Vrelations
p347
g302
tp348
(dp349
Vgcc-10
p350
Vgcc-10 <!stage1 !cross !pkg.linux.nokernel>, gcc-10-aarch64-linux-gnu <!stage1 cross !pkg.linux.nokernel>, gcc-arm-linux-gnueabihf <!stage1 !pkg.linux.nokernel>
p351
sVheaders%gcc-10
p352
Vgcc-10
p353
ss(Vbase
p354
g302
Vnone
p355
tp356
(dp357
Vflavours
p358
(lp359
Varm64
p360
aVcloud-arm64
p361
asVdefault-flavour
p362
Varm64
p363
ss(Vimage
p364
g302
g355
Vcloud-arm64
p365
tp366
(dp367
Vconfigs
p368
(lp369
Vconfig.cloud
p370
aVarm64/config.cloud-arm64
p371
ass(Vbase
p372
g302
Vrt
p373
tp374
(dp375
Vflavours
p376
(lp377
Varm64
p378
ass(Vbase
p379
Varm64ilp32
p380
tp381
(dp382
Vkernel-arch
p383
Varm64
p384
sVfeaturesets
p385
(lp386
ss(Vbase
p387
Varmel
p388
tp389
(dp390
Vkernel-arch
p391
Varm
p392
sg184
(lp393
g186
ass(Vbuild
p394
g388
tp395
(dp396
Vimage-file
p397
Varch/arm/boot/zImage
p398
sVuncompressed-image-file
p399
Varch/arm/boot/Image
p400
ss(Vimage
p401
g388
tp402
(dp403
Vinstall-stem
p404
Vvmlinuz
p405
ss(Vrelations
p406
g388
tp407
(dp408
Vheaders%gcc-10
p409
Vlinux-compiler-gcc-10-arm
p410
ss(Vdescription
p411
g388
NVmarvell
p412
tp413
(dp414
Vhardware
p415
VMarvell Kirkwood/Orion
p416
sVhardware-long
p417
VMarvell Kirkwood and Orion based systems (https://wiki.debian.org/ArmEabiPort#Supported_hardware)
p418
ss(Vdescription
p419
g388
NVrpi
p420
tp421
(dp422
Vhardware
p423
VRaspberry Pi and Pi Zero
p424
sVhardware-long
p425
VRaspberry Pi, Raspberry Pi Zero based systems
p426
ss(Vimage
p427
g388
NVmarvell
p428
tp429
(dp430
Vrecommends
p431
(lp432
Vu-boot-tools
p433
asVcheck-size
p434
I2729712
sVcheck-size-with-dtb
p435
I01
sVbreaks
p436
(lp437
Vflash-kernel (<< 3.57~)
p438
ass(g217
g388
g186
tp439
(dp440
g220
(lp441
Vmarvell
p442
aVrpi
p443
asg224
I01
ss(Vbase
p444
Varmhf
p445
tp446
(dp447
Vfeaturesets
p448
(lp449
Vnone
p450
aVrt
p451
asVkernel-arch
p452
Varm
p453
ss(Vbuild
p454
g445
tp455
(dp456
Vimage-file
p457
Varch/arm/boot/zImage
p458
sVvdso
p459
I01
ss(Vimage
p460
g445
tp461
(dp462
Vinstall-stem
p463
Vvmlinuz
p464
ss(Vrelations
p465
g445
tp466
(dp467
Vheaders%gcc-10
p468
Vlinux-compiler-gcc-10-arm
p469
ss(Vdescription
p470
g445
NVarmmp
p471
tp472
(dp473
Vhardware
p474
VARMv7 multiplatform compatible SoCs
p475
sVhardware-long
p476
VARMv7 multiplatform kernel. See\u000ahttps://wiki.debian.org/DebianKernel/ARMMP for details of supported\u000aplatforms
p477
ss(Vdescription
p478
g445
NVarmmp-lpae
p479
tp480
(dp481
Vhardware
p482
VARMv7 multiplatform compatible SoCs supporting LPAE
p483
sVhardware-long
p484
VARMv7 multiplatform kernel supporting LPAE. See\u000ahttps://wiki.debian.org/DebianKernel/ARMMP for details of supported\u000aplatforms.
p485
ss(Vbase
p486
g445
Vnone
p487
tp488
(dp489
Vflavours
p490
(lp491
Varmmp
p492
aVarmmp-lpae
p493
asVdefault-flavour
p494
Varmmp
p495
ss(Vbase
p496
g445
Vrt
p497
tp498
(dp499
Vflavours
p500
(lp501
Varmmp
p502
ass(Vbase
p503
Vhppa
p504
tp505
(dp506
Vdefault-flavour
p507
Vparisc
p508
sVkernel-arch
p509
Vparisc
p510
sg184
(lp511
g186
ass(Vbuild
p512
g504
tp513
(dp514
Vimage-file
p515
Varch/parisc/boot/bzImage
p516
sVdebug-info
p517
I00
ss(Vimage
p518
g504
tp519
(dp520
Vsuggests
p521
(lp522
Vpalo
p523
asVinstall-stem
p524
Vvmlinuz
p525
ss(Vdescription
p526
g504
NVparisc
p527
tp528
(dp529
Vhardware
p530
V32-bit PA-RISC
p531
sVhardware-long
p532
VHP PA-RISC 32-bit systems with max 4 GB RAM
p533
ss(Vbase
p534
g504
NVparisc64
p535
tp536
(dp537
Vcflags
p538
V-fno-cse-follow-jumps
p539
sVoverride-host-type
p540
Vhppa64-linux-gnu
p541
ss(Vdescription
p542
g504
NVparisc64
p543
tp544
(dp545
Vhardware
p546
V64-bit PA-RISC
p547
sVhardware-long
p548
VHP PA-RISC 64-bit systems with support for more than 4 GB RAM
p549
ss(Vrelations
p550
g504
tp551
(dp552
Vgcc-10
p553
Vgcc-10 <!stage1 !cross !pkg.linux.nokernel>, gcc-10-hppa-linux-gnu <!stage1 cross !pkg.linux.nokernel>, binutils-hppa64-linux-gnu <!stage1 !pkg.linux.nokernel>, gcc-10-hppa64-linux-gnu <!stage1 !pkg.linux.nokernel>
p554
ss(g217
g504
g186
tp555
(dp556
g220
(lp557
Vparisc
p558
aVparisc64
p559
asg224
I01
ss(Vbase
p560
Vi386
p561
tp562
(dp563
Vfeaturesets
p564
(lp565
Vnone
p566
aVrt
p567
asVkernel-arch
p568
Vx86
p569
ss(Vbuild
p570
g561
tp571
(dp572
Vimage-file
p573
Varch/x86/boot/bzImage
p574
sVsigned-code
p575
I00
sVvdso
p576
I01
ss(Vdescription
p577
g561
tp578
(dp579
Vpart-long-pae
p580
VThis kernel requires PAE (Physical Address Extension).\u000aThis feature is supported by the Intel Pentium Pro/II/III/4/4M/D, Xeon,\u000aCore and Atom; AMD Geode NX, Athlon (K7), Duron, Opteron, Sempron,\u000aTurion or Phenom; Transmeta Efficeon; VIA C7; and some other processors.
p581
ss(Vimage
p582
g561
tp583
(dp584
Vbootloaders
p585
(lp586
Vgrub-pc
p587
aVgrub-efi-ia32
p588
aVextlinux
p589
asVinstall-stem
p590
Vvmlinuz
p591
sVbreaks
p592
(lp593
Vxserver-xorg-input-vmmouse (<< 1:13.0.99)
p594
ass(Vrelations
p595
g561
tp596
(dp597
Vheaders%gcc-10
p598
Vlinux-compiler-gcc-10-x86
p599
ss(Vdescription
p600
g561
NV686
p601
tp602
(dp603
Vhardware
p604
Volder PCs
p605
sVhardware-long
p606
VPCs with one or more processors not supporting PAE
p607
ss(Vdescription
p608
g561
NV686-pae
p609
tp610
(dp611
Vhardware
p612
Vmodern PCs
p613
sVhardware-long
p614
VPCs with one or more processors supporting PAE
p615
sVparts
p616
(lp617
Vpae
p618
ass(Vbase
p619
g561
Vnone
p620
tp621
(dp622
Vflavours
p623
(lp624
V686
p625
aV686-pae
p626
asVdefault-flavour
p627
V686-pae
p628
ss(Vbase
p629
g561
Vrt
p630
tp631
(dp632
Vflavours
p633
(lp634
V686-pae
p635
ass(Vbase
p636
Via64
p637
tp638
(dp639
Vdefault-flavour
p640
Vitanium
p641
sVkernel-arch
p642
Via64
p643
sg184
(lp644
g186
ass(Vbuild
p645
g637
tp646
(dp647
Vimage-file
p648
Vvmlinux.gz
p649
ss(Vimage
p650
g637
tp651
(dp652
Vbootloaders
p653
(lp654
Vgrub-efi-ia64
p655
asVinstall-stem
p656
Vvmlinuz
p657
ss(Vdescription
p658
g637
NVitanium
p659
tp660
(dp661
Vhardware
p662
VItanium (Merced)
p663
sVhardware-long
p664
Vsystems with original Itanium (Merced) processors
p665
ss(Vdescription
p666
g637
NVmckinley
p667
tp668
(dp669
Vhardware
p670
VItanium 2+
p671
sVhardware-long
p672
Vsystems with Itanium 2 or 9300/9500/9700-series processors
p673
ss(g217
g637
g186
tp674
(dp675
g220
(lp676
Vitanium
p677
aVmckinley
p678
asg224
I01
ss(Vbase
p679
Vm68k
p680
tp681
(dp682
Vcflags
p683
V-ffreestanding
p684
sVdefault-flavour
p685
Vm68k
p686
sVkernel-arch
p687
Vm68k
p688
sg184
(lp689
g186
ass(Vbuild
p690
g680
tp691
(dp692
Vimage-file
p693
Vvmlinux
p694
ss(Vimage
p695
g680
tp696
(dp697
Vsuggests
p698
(lp699
Vvmelilo
p700
aVfdutils
p701
asVinstall-stem
p702
Vvmlinux
p703
ss(Vdescription
p704
g680
NVm68k
p705
tp706
(dp707
Vhardware
p708
VMotorola MC68020+ family
p709
ss(g217
g680
g186
tp710
(dp711
g220
(lp712
Vm68k
p713
asg224
I01
ss(Vbase
p714
Vmips
p715
tp716
(dp717
Vkernel-arch
p718
Vmips
p719
sg184
(lp720
g186
ass(Vbuild
p721
g715
tp722
(dp723
Vimage-file
p724
Vvmlinuz
p725
ss(Vimage
p726
g715
tp727
(dp728
Vinstall-stem
p729
Vvmlinuz
p730
ss(Vdescription
p731
g715
NV4kc-malta
p732
tp733
(dp734
Vhardware
p735
VMIPS Malta
p736
sVhardware-long
p737
VMIPS Malta boards
p738
ss(Vimage
p739
g715
NV4kc-malta
p740
tp741
(dp742
Vconfigs
p743
(lp744
Vkernelarch-mips/config.malta
p745
aVkernelarch-mips/config.mips32r2
p746
ass(Vdescription
p747
g715
NV5kc-malta
p748
tp749
(dp750
Vhardware
p751
VMIPS Malta (64-bit)
p752
sVhardware-long
p753
VMIPS Malta boards (64-bit)
p754
ss(Vimage
p755
g715
NV5kc-malta
p756
tp757
(dp758
Vconfigs
p759
(lp760
Vkernelarch-mips/config.malta
p761
aVkernelarch-mips/config.mips64r2
p762
ass(Vdescription
p763
g715
NVocteon
p764
tp765
(dp766
Vhardware
p767
VOcteon
p768
sVhardware-long
p769
VCavium Networks Octeon
p770
ss(Vbuild
p771
g715
NVocteon
p772
tp773
(dp774
Vimage-file
p775
Vvmlinux
p776
ss(Vimage
p777
g715
NVocteon
p778
tp779
(dp780
Vinstall-stem
p781
Vvmlinux
p782
sVconfigs
p783
(lp784
Vkernelarch-mips/config.octeon
p785
ass(g217
g715
g186
tp786
(dp787
g220
(lp788
V4kc-malta
p789
aV5kc-malta
p790
aVocteon
p791
asg224
I01
ss(Vbase
p792
Vmips64
p793
tp794
(dp795
Vkernel-arch
p796
Vmips
p797
sg184
(lp798
g186
ass(Vbuild
p799
g793
tp800
(dp801
Vimage-file
p802
Vvmlinuz
p803
ss(Vimage
p804
g793
tp805
(dp806
Vinstall-stem
p807
Vvmlinuz
p808
ss(Vdescription
p809
g793
NV5kc-malta
p810
tp811
(dp812
Vhardware
p813
VMIPS Malta
p814
sVhardware-long
p815
VMIPS Malta boards
p816
ss(Vimage
p817
g793
NV5kc-malta
p818
tp819
(dp820
Vconfigs
p821
(lp822
Vkernelarch-mips/config.malta
p823
aVkernelarch-mips/config.mips64r2
p824
ass(Vdescription
p825
g793
NVocteon
p826
tp827
(dp828
Vhardware
p829
VOcteon
p830
sVhardware-long
p831
VCavium Networks Octeon
p832
ss(Vbuild
p833
g793
NVocteon
p834
tp835
(dp836
Vimage-file
p837
Vvmlinux
p838
ss(Vimage
p839
g793
NVocteon
p840
tp841
(dp842
Vinstall-stem
p843
Vvmlinux
p844
sVconfigs
p845
(lp846
Vkernelarch-mips/config.octeon
p847
ass(g217
g793
g186
tp848
(dp849
g220
(lp850
V5kc-malta
p851
aVocteon
p852
asg224
I01
ss(Vbase
p853
Vmips64el
p854
tp855
(dp856
Vkernel-arch
p857
Vmips
p858
sg184
(lp859
g186
ass(Vbuild
p860
g854
tp861
(dp862
Vimage-file
p863
Vvmlinuz
p864
ss(Vimage
p865
g854
tp866
(dp867
Vinstall-stem
p868
Vvmlinuz
p869
ss(Vdescription
p870
g854
NV5kc-malta
p871
tp872
(dp873
Vhardware
p874
VMIPS Malta
p875
sVhardware-long
p876
VMIPS Malta boards
p877
ss(Vimage
p878
g854
NV5kc-malta
p879
tp880
(dp881
Vconfigs
p882
(lp883
Vkernelarch-mips/config.malta
p884
aVkernelarch-mips/config.mips64r2
p885
ass(Vdescription
p886
g854
NVloongson-3
p887
tp888
(dp889
Vhardware
p890
VLoongson 3A/3B
p891
sVhardware-long
p892
VLoongson 3A or 3B based systems (e.g. from Loongson or Lemote)
p893
ss(Vimage
p894
g854
NVloongson-3
p895
tp896
(dp897
Vconfigs
p898
(lp899
Vkernelarch-mips/config.loongson-3
p900
ass(Vdescription
p901
g854
NVocteon
p902
tp903
(dp904
Vhardware
p905
VOcteon
p906
sVhardware-long
p907
VCavium Networks Octeon
p908
ss(Vbuild
p909
g854
NVocteon
p910
tp911
(dp912
Vimage-file
p913
Vvmlinux
p914
ss(Vimage
p915
g854
NVocteon
p916
tp917
(dp918
Vinstall-stem
p919
Vvmlinux
p920
sVconfigs
p921
(lp922
Vkernelarch-mips/config.octeon
p923
ass(g217
g854
g186
tp924
(dp925
g220
(lp926
V5kc-malta
p927
aVloongson-3
p928
aVocteon
p929
asg224
I01
ss(Vbase
p930
Vmips64r6
p931
tp932
(dp933
Vdefault-flavour
p934
Vmips64r6
p935
sVkernel-arch
p936
Vmips
p937
sg184
(lp938
g186
ass(Vbuild
p939
g931
tp940
(dp941
Vimage-file
p942
Vvmlinux
p943
ss(Vimage
p944
g931
tp945
(dp946
Vinstall-stem
p947
Vvmlinux
p948
ss(Vdescription
p949
g931
NVmips64r6
p950
tp951
(dp952
Vhardware
p953
VMIPS R6 (64 bit, big endian)
p954
sVhardware-long
p955
VMIPS R6 (64 bit, big endian)
p956
ss(Vimage
p957
g931
NVmips64r6
p958
tp959
(dp960
Vconfigs
p961
(lp962
Vkernelarch-mips/config.boston
p963
aVkernelarch-mips/config.mips64r6
p964
ass(g217
g931
g186
tp965
(dp966
g220
(lp967
Vmips64r6
p968
asg224
I01
ss(Vbase
p969
Vmips64r6el
p970
tp971
(dp972
Vdefault-flavour
p973
Vmips64r6el
p974
sVkernel-arch
p975
Vmips
p976
sg184
(lp977
g186
ass(Vbuild
p978
g970
tp979
(dp980
Vimage-file
p981
Vvmlinux
p982
ss(Vimage
p983
g970
tp984
(dp985
Vinstall-stem
p986
Vvmlinux
p987
ss(Vdescription
p988
g970
NVmips64r6el
p989
tp990
(dp991
Vhardware
p992
VMIPS R6 (64 bit, little endian)
p993
sVhardware-long
p994
VMIPS R6 (64 bit, little endian)
p995
ss(Vimage
p996
g970
NVmips64r6el
p997
tp998
(dp999
Vconfigs
p1000
(lp1001
Vkernelarch-mips/config.boston
p1002
aVkernelarch-mips/config.mips64r6
p1003
ass(g217
g970
g186
tp1004
(dp1005
g220
(lp1006
Vmips64r6el
p1007
asg224
I01
ss(Vbase
p1008
Vmipsel
p1009
tp1010
(dp1011
Vkernel-arch
p1012
Vmips
p1013
sg184
(lp1014
g186
ass(Vbuild
p1015
g1009
tp1016
(dp1017
Vimage-file
p1018
Vvmlinuz
p1019
ss(Vimage
p1020
g1009
tp1021
(dp1022
Vinstall-stem
p1023
Vvmlinuz
p1024
ss(Vdescription
p1025
g1009
NV4kc-malta
p1026
tp1027
(dp1028
Vhardware
p1029
VMIPS Malta
p1030
sVhardware-long
p1031
VMIPS Malta boards
p1032
ss(Vimage
p1033
g1009
NV4kc-malta
p1034
tp1035
(dp1036
Vconfigs
p1037
(lp1038
Vkernelarch-mips/config.malta
p1039
aVkernelarch-mips/config.mips32r2
p1040
ass(Vdescription
p1041
g1009
NV5kc-malta
p1042
tp1043
(dp1044
Vhardware
p1045
VMIPS Malta (64-bit)
p1046
sVhardware-long
p1047
VMIPS Malta boards (64-bit)
p1048
ss(Vimage
p1049
g1009
NV5kc-malta
p1050
tp1051
(dp1052
Vconfigs
p1053
(lp1054
Vkernelarch-mips/config.malta
p1055
aVkernelarch-mips/config.mips64r2
p1056
ass(Vdescription
p1057
g1009
NVloongson-3
p1058
tp1059
(dp1060
Vhardware
p1061
VLoongson 3A/3B
p1062
sVhardware-long
p1063
VLoongson 3A or 3B based systems (e.g. from Loongson or Lemote)
p1064
ss(Vimage
p1065
g1009
NVloongson-3
p1066
tp1067
(dp1068
Vconfigs
p1069
(lp1070
Vkernelarch-mips/config.loongson-3
p1071
ass(Vdescription
p1072
g1009
NVocteon
p1073
tp1074
(dp1075
Vhardware
p1076
VOcteon
p1077
sVhardware-long
p1078
VCavium Networks Octeon
p1079
ss(Vbuild
p1080
g1009
NVocteon
p1081
tp1082
(dp1083
Vimage-file
p1084
Vvmlinux
p1085
ss(Vimage
p1086
g1009
NVocteon
p1087
tp1088
(dp1089
Vinstall-stem
p1090
Vvmlinux
p1091
sVconfigs
p1092
(lp1093
Vkernelarch-mips/config.octeon
p1094
ass(g217
g1009
g186
tp1095
(dp1096
g220
(lp1097
V4kc-malta
p1098
aV5kc-malta
p1099
aVloongson-3
p1100
aVocteon
p1101
asg224
I01
ss(Vbase
p1102
Vmipsn32
p1103
tp1104
(dp1105
Vkernel-arch
p1106
Vmips
p1107
sVfeaturesets
p1108
(lp1109
ss(Vbase
p1110
Vmipsn32el
p1111
tp1112
(dp1113
Vkernel-arch
p1114
Vmips
p1115
sVfeaturesets
p1116
(lp1117
ss(Vbase
p1118
Vmipsn32r6
p1119
tp1120
(dp1121
Vkernel-arch
p1122
Vmips
p1123
sVfeaturesets
p1124
(lp1125
ss(Vbase
p1126
Vmipsn32r6el
p1127
tp1128
(dp1129
Vkernel-arch
p1130
Vmips
p1131
sVfeaturesets
p1132
(lp1133
ss(Vbase
p1134
Vmipsr6
p1135
tp1136
(dp1137
Vdefault-flavour
p1138
Vmips32r6
p1139
sVkernel-arch
p1140
Vmips
p1141
sg184
(lp1142
g186
ass(Vbuild
p1143
g1135
tp1144
(dp1145
Vimage-file
p1146
Vvmlinux
p1147
ss(Vimage
p1148
g1135
tp1149
(dp1150
Vinstall-stem
p1151
Vvmlinux
p1152
ss(Vdescription
p1153
g1135
NVmips32r6
p1154
tp1155
(dp1156
Vhardware
p1157
VMIPS R6 (32 bit, big endian)
p1158
sVhardware-long
p1159
VMIPS R6 (32 bit, big endian)
p1160
ss(Vimage
p1161
g1135
NVmips32r6
p1162
tp1163
(dp1164
Vconfigs
p1165
(lp1166
Vkernelarch-mips/config.boston
p1167
aVkernelarch-mips/config.mips32r6
p1168
ass(Vdescription
p1169
g1135
NVmips64r6
p1170
tp1171
(dp1172
Vhardware
p1173
VMIPS R6 (64 bit, big endian)
p1174
sVhardware-long
p1175
VMIPS R6 (64 bit, big endian)
p1176
ss(Vimage
p1177
g1135
NVmips64r6
p1178
tp1179
(dp1180
Vconfigs
p1181
(lp1182
Vkernelarch-mips/config.boston
p1183
aVkernelarch-mips/config.mips64r6
p1184
ass(g217
g1135
g186
tp1185
(dp1186
g220
(lp1187
Vmips32r6
p1188
aVmips64r6
p1189
asg224
I01
ss(Vbase
p1190
Vmipsr6el
p1191
tp1192
(dp1193
Vdefault-flavour
p1194
Vmips32r6el
p1195
sVkernel-arch
p1196
Vmips
p1197
sg184
(lp1198
g186
ass(Vbuild
p1199
g1191
tp1200
(dp1201
Vimage-file
p1202
Vvmlinux
p1203
ss(Vimage
p1204
g1191
tp1205
(dp1206
Vinstall-stem
p1207
Vvmlinux
p1208
ss(Vdescription
p1209
g1191
NVmips32r6el
p1210
tp1211
(dp1212
Vhardware
p1213
VMIPS R6 (32 bit, little endian)
p1214
sVhardware-long
p1215
VMIPS R6 (32 bit, little endian)
p1216
ss(Vimage
p1217
g1191
NVmips32r6el
p1218
tp1219
(dp1220
Vconfigs
p1221
(lp1222
Vkernelarch-mips/config.boston
p1223
aVkernelarch-mips/config.mips32r6
p1224
ass(Vdescription
p1225
g1191
NVmips64r6el
p1226
tp1227
(dp1228
Vhardware
p1229
VMIPS R6 (64 bit, little endian)
p1230
sVhardware-long
p1231
VMIPS R6 (64 bit, little endian)
p1232
ss(Vimage
p1233
g1191
NVmips64r6el
p1234
tp1235
(dp1236
Vconfigs
p1237
(lp1238
Vkernelarch-mips/config.boston
p1239
aVkernelarch-mips/config.mips64r6
p1240
ass(g217
g1191
g186
tp1241
(dp1242
g220
(lp1243
Vmips32r6el
p1244
aVmips64r6el
p1245
asg224
I01
ss(Vbase
p1246
Vpowerpc
p1247
tp1248
(dp1249
Vkernel-arch
p1250
Vpowerpc
p1251
sg184
(lp1252
g186
ass(Vbuild
p1253
g1247
tp1254
(dp1255
Vimage-file
p1256
Vvmlinux
p1257
sVvdso
p1258
I01
ss(Vimage
p1259
g1247
tp1260
(dp1261
Vconfigs
p1262
(lp1263
sVbootloaders
p1264
(lp1265
Vgrub-ieee1275
p1266
asVsuggests
p1267
(lp1268
Vmkvmlinuz
p1269
asVinstall-stem
p1270
Vvmlinux
p1271
ss(Vdescription
p1272
g1247
NVpowerpc
p1273
tp1274
(dp1275
Vhardware
p1276
Vuniprocessor 32-bit PowerPC
p1277
ss(Vdescription
p1278
g1247
NVpowerpc-smp
p1279
tp1280
(dp1281
Vhardware
p1282
Vmultiprocessor 32-bit PowerPC
p1283
ss(Vimage
p1284
g1247
NVpowerpc-smp
p1285
tp1286
(dp1287
Vconfigs
p1288
(lp1289
Vpowerpc/config.powerpc
p1290
aVpowerpc/config.powerpc-smp
p1291
ass(Vdescription
p1292
g1247
NVpowerpc64
p1293
tp1294
(dp1295
Vhardware
p1296
V64-bit PowerPC
p1297
ss(Vimage
p1298
g1247
NVpowerpc64
p1299
tp1300
(dp1301
Vconfigs
p1302
(lp1303
Vkernelarch-powerpc/config-arch-64
p1304
aVkernelarch-powerpc/config-arch-64-be
p1305
ass(g217
g1247
g186
tp1306
(dp1307
g220
(lp1308
Vpowerpc
p1309
aVpowerpc-smp
p1310
aVpowerpc64
p1311
asg224
I01
ss(Vbase
p1312
Vppc64
p1313
tp1314
(dp1315
Vdefault-flavour
p1316
Vpowerpc64
p1317
sVkernel-arch
p1318
Vpowerpc
p1319
sg184
(lp1320
g186
ass(Vbuild
p1321
g1313
tp1322
(dp1323
Vimage-file
p1324
Vvmlinux
p1325
sVvdso
p1326
I01
ss(Vimage
p1327
g1313
tp1328
(dp1329
Vconfigs
p1330
(lp1331
sVbootloaders
p1332
(lp1333
Vgrub-ieee1275
p1334
asVsuggests
p1335
(lp1336
Vmkvmlinuz
p1337
asVinstall-stem
p1338
Vvmlinux
p1339
ss(Vdescription
p1340
g1313
NVpowerpc64
p1341
tp1342
(dp1343
Vhardware
p1344
V64-bit PowerPC
p1345
ss(Vimage
p1346
g1313
NVpowerpc64
p1347
tp1348
(dp1349
Vconfigs
p1350
(lp1351
Vkernelarch-powerpc/config-arch-64
p1352
aVkernelarch-powerpc/config-arch-64-be
p1353
ass(g217
g1313
g186
tp1354
(dp1355
g220
(lp1356
Vpowerpc64
p1357
asg224
I01
ss(Vbase
p1358
Vppc64el
p1359
tp1360
(dp1361
Vdefault-flavour
p1362
Vpowerpc64le
p1363
sVkernel-arch
p1364
Vpowerpc
p1365
sg184
(lp1366
g186
ass(Vbuild
p1367
g1359
tp1368
(dp1369
Vimage-file
p1370
Vvmlinux
p1371
sVvdso
p1372
I01
ss(Vimage
p1373
g1359
tp1374
(dp1375
Vconfigs
p1376
(lp1377
sVbootloaders
p1378
(lp1379
Vgrub-ieee1275
p1380
asVsuggests
p1381
(lp1382
Vmkvmlinuz
p1383
asVinstall-stem
p1384
Vvmlinux
p1385
ss(Vdescription
p1386
g1359
NVpowerpc64le
p1387
tp1388
(dp1389
Vhardware
p1390
VLittle-endian 64-bit PowerPC
p1391
ss(Vimage
p1392
g1359
NVpowerpc64le
p1393
tp1394
(dp1395
Vconfigs
p1396
(lp1397
Vkernelarch-powerpc/config-arch-64
p1398
aVkernelarch-powerpc/config-arch-64-le
p1399
ass(g217
g1359
g186
tp1400
(dp1401
g220
(lp1402
Vpowerpc64le
p1403
asg224
I01
ss(Vbase
p1404
Vriscv64
p1405
tp1406
(dp1407
Vkernel-arch
p1408
Vriscv
p1409
sVfeaturesets
p1410
(lp1411
Vnone
p1412
ass(Vbuild
p1413
g1405
tp1414
(dp1415
Vimage-file
p1416
Varch/riscv/boot/Image
p1417
sVvdso
p1418
I01
ss(Vimage
p1419
g1405
tp1420
(dp1421
Vinstall-stem
p1422
Vvmlinux
p1423
ss(Vdescription
p1424
g1405
NVriscv64
p1425
tp1426
(dp1427
Vhardware
p1428
V64-bit RISC-V platforms
p1429
sVhardware-long
p1430
V64-bit RISC-V platforms
p1431
ss(Vbase
p1432
g1405
Vnone
p1433
tp1434
(dp1435
Vflavours
p1436
(lp1437
Vriscv64
p1438
asVdefault-flavour
p1439
Vriscv64
p1440
ss(Vbase
p1441
Vs390
p1442
tp1443
(dp1444
Vkernel-arch
p1445
Vs390
p1446
sVfeaturesets
p1447
(lp1448
ss(Vbase
p1449
Vs390x
p1450
tp1451
(dp1452
Vdefault-flavour
p1453
Vs390x
p1454
sVkernel-arch
p1455
Vs390
p1456
sg184
(lp1457
g186
ass(Vbuild
p1458
g1450
tp1459
(dp1460
Vimage-file
p1461
Varch/s390/boot/bzImage
p1462
sVvdso
p1463
I01
ss(Vimage
p1464
g1450
tp1465
(dp1466
Vbootloaders
p1467
(lp1468
Vs390-tools
p1469
asVinstall-stem
p1470
Vvmlinuz
p1471
ss(Vrelations
p1472
g1450
tp1473
(dp1474
Vheaders%gcc-10
p1475
Vlinux-compiler-gcc-10-s390
p1476
ss(Vdescription
p1477
g1450
NVs390x
p1478
tp1479
(dp1480
Vhardware
p1481
VIBM zSeries
p1482
ss(g217
g1450
g186
tp1483
(dp1484
g220
(lp1485
Vs390x
p1486
asg224
I01
ss(Vbase
p1487
Vsh3
p1488
tp1489
(dp1490
Vkernel-arch
p1491
Vsh
p1492
sVfeaturesets
p1493
(lp1494
ss(Vbase
p1495
Vsh4
p1496
tp1497
(dp1498
Vkernel-arch
p1499
Vsh
p1500
sg184
(lp1501
g186
ass(Vbuild
p1502
g1496
tp1503
(dp1504
Vimage-file
p1505
Varch/sh/boot/zImage
p1506
ss(Vimage
p1507
g1496
tp1508
(dp1509
Vinstall-stem
p1510
Vvmlinuz
p1511
ss(Vdescription
p1512
g1496
NVsh7751r
p1513
tp1514
(dp1515
Vhardware
p1516
Vsh7751r
p1517
sVhardware-long
p1518
VRenesas SH7751R R2D plus board
p1519
ss(Vdescription
p1520
g1496
NVsh7785lcr
p1521
tp1522
(dp1523
Vhardware
p1524
Vsh7785lcr
p1525
sVhardware-long
p1526
VRenesas SH7785 reference board
p1527
ss(Vimage
p1528
g1496
NVsh7785lcr
p1529
tp1530
(dp1531
Vrecommends
p1532
(lp1533
Vu-boot-tools
p1534
asVcheck-size
p1535
I4194304
ss(g217
g1496
g186
tp1536
(dp1537
g220
(lp1538
Vsh7751r
p1539
aVsh7785lcr
p1540
asg224
I01
ss(Vbase
p1541
Vsparc
p1542
tp1543
(dp1544
Vkernel-arch
p1545
Vsparc
p1546
sVfeaturesets
p1547
(lp1548
ss(Vbase
p1549
Vsparc64
p1550
tp1551
(dp1552
Vdefault-flavour
p1553
Vsparc64-smp
p1554
sVkernel-arch
p1555
Vsparc
p1556
sg184
(lp1557
g186
ass(Vbuild
p1558
g1550
tp1559
(dp1560
Vimage-file
p1561
Vvmlinux
p1562
ss(Vimage
p1563
g1550
tp1564
(dp1565
Vconfigs
p1566
(lp1567
sVbootloaders
p1568
(lp1569
Vgrub-ieee1275
p1570
asVsuggests
p1571
(lp1572
Vfdutils
p1573
asVinstall-stem
p1574
Vvmlinux
p1575
ss(Vdescription
p1576
g1550
NVsparc64
p1577
tp1578
(dp1579
Vhardware
p1580
Vuniprocessor 64-bit UltraSPARC
p1581
ss(Vimage
p1582
g1550
NVsparc64
p1583
tp1584
(dp1585
Vconfigs
p1586
(lp1587
Vkernelarch-sparc/config-up
p1588
ass(Vdescription
p1589
g1550
NVsparc64-smp
p1590
tp1591
(dp1592
Vhardware
p1593
Vmultiprocessor 64-bit UltraSPARC
p1594
ss(Vimage
p1595
g1550
NVsparc64-smp
p1596
tp1597
(dp1598
Vconfigs
p1599
(lp1600
Vkernelarch-sparc/config-smp
p1601
ass(g217
g1550
g186
tp1602
(dp1603
g220
(lp1604
Vsparc64
p1605
aVsparc64-smp
p1606
asg224
I01
ss(Vbase
p1607
Vx32
p1608
tp1609
(dp1610
Vkernel-arch
p1611
Vx86
p1612
sVfeaturesets
p1613
(lp1614
ss(Vabi
p1615
NVrt
p1616
tp1617
(dp1618
Vignore-changes
p1619
(lp1620
V*
p1621
ass(Vdescription
p1622
Ng1616
tp1623
(dp1624
Vpart-long-rt
p1625
VThis kernel includes the PREEMPT_RT realtime patch set.
p1626
sVpart-short-rt
p1627
VPREEMPT_RT
p1628
sVparts
p1629
(lp1630
Vrt
p1631
ass(Vversion
p1632
tp1633
(dp1634
Vsource
p1635
V5.10.28-6parrot1
p1636
sVupstream
p1637
V5.10
p1638
sVabiname_base
p1639
V5.10.0
p1640
sVabiname
p1641
V5.10.0-6parrot1
p1642
ss.