cdebian_linux.config
ConfigCore
p0
(tRp1
(Vabi
p2
tp3
(dp4
Vabiname
p5
V2parrot2
p6
sVignore-changes
p7
(lp8
V__cpuhp_*
p9
aVbpf_analyzer
p10
aVcxl_*
p11
aVdax_flush
p12
aVieee80211_nullfunc_get
p13
aVinet_add_protocol
p14
aVinet_del_protocol
p15
aViommu_device_*
p16
aVmm_iommu_*
p17
aVmv_mbus_*
p18
aVperf_*
p19
aVregister_cxl_calls
p20
aVregister_key_type
p21
aVunregister_cxl_calls
p22
aV*_hw_breakpoint
p23
aVmodule:drivers/crypto/ccp/*
p24
aVmodule:drivers/hv/*
p25
aVmodule:drivers/gpu/drm/sun4i/*
p26
aVmodule:drivers/iio/**
p27
aVmodule:drivers/misc/cxl/*
p28
aVmodule:drivers/mtd/nand/*
p29
aVmodule:drivers/net/ethernet/**
p30
aVmodule:drivers/net/wireless/**
p31
aVmodule:drivers/nvdimm/*
p32
aVmodule:drivers/nvme/**
p33
aVmodule:drivers/power/supply/bq27xxx_battery
p34
aVmodule:drivers/scsi/cxgbi/*
p35
aVmodule:drivers/scsi/libiscs*
p36
aVmodule:drivers/scsi/qla2xxx/qla2xxx
p37
aVmodule:drivers/scsi/ufs/*
p38
aVmodule:drivers/target/**
p39
aVmodule:drivers/usb/chipidea/**
p40
aVmodule:drivers/usb/gadget/**
p41
aVmodule:drivers/usb/host/**
p42
aVmodule:drivers/usb/musb/**
p43
aVmodule:fs/nfs/**
p44
aVmodule:net/ceph/libceph
p45
aVmodule:net/l2tp/**
p46
aVmodule:net/rxrpc/rxrpc
p47
aVmodule:net/sctp/**
p48
aVmodule:sound/core/seq/**
p49
aVmodule:sound/firewire/snd-firewire-lib
p50
aVmodule:sound/pci/hda/*
p51
aVbtree_*
p52
aVvisitor*
p53
aVcan_rx_register
p54
aVip6_xmit
p55
aVmodule:net/dccp/dccp
p56
aVmodule:net/rds/rds
p57
aVdevfreq_*
p58
aVdevm_devfreq_*
p59
aVupdate_devfreq
p60
aVmodule:drivers/infiniband/**
p61
aVacpi_ec_add_query_handler
p62
aVacpi_ec_remove_query_handler
p63
aVfirst_ec
p64
aVdebugfs_create_automount
p65
aVmodule:drivers/iio/imu/inv_mpu6050/*
p66
aVdrm_crtc_accurate_vblank_count
p67
aVacpi_nfit_desc_init
p68
aVacpi_nfit_init
p69
aVloop_register_transfer
p70
aVxen_xlate_*
p71
aVnf_nat_masquerade_ipv4_register_notifier
p72
aVnf_nat_masquerade_ipv6_register_notifier
p73
aVmodule:drivers/scsi/hisi_sas/*
p74
aV__gfn_*
p75
aV__kvmhv_*
p76
aV__kvm_*
p77
aV__xive_vm_h_*
p78
aVgfn_*
p79
aVh_ipi_redirect
p80
aVhalt_poll_ns*
p81
aVkvm_*
p82
aVkvmhv_*
p83
aVkvmppc_*
p84
aVmark_page_dirty
p85
aVvcpu_*
p86
aVmodule:arch/powerpc/kvm/*
p87
aVmodule:arch/s390/kvm/*
p88
aVmodule:arch/x86/kvm/*
p89
ass(Vbase
p90
tp91
(dp92
Varches
p93
(lp94
Valpha
p95
aVamd64
p96
aVarm64
p97
aVarm64ilp32
p98
aVarmel
p99
aVarmhf
p100
aVhppa
p101
aVi386
p102
aVia64
p103
aVm68k
p104
aVmips
p105
aVmips64
p106
aVmips64el
p107
aVmips64r6
p108
aVmips64r6el
p109
aVmipsel
p110
aVmipsn32
p111
aVmipsn32el
p112
aVmipsn32r6
p113
aVmipsn32r6el
p114
aVmipsr6
p115
aVmipsr6el
p116
aVpowerpc
p117
aVppc64
p118
aVppc64el
p119
aVriscv64
p120
aVs390
p121
aVs390x
p122
aVsh3
p123
aVsh4
p124
aVsparc
p125
aVsparc64
p126
aVx32
p127
asVcompiler
p128
Vgcc-9
p129
sVfeaturesets
p130
(lp131
Vnone
p132
aVrt
p133
ass(Vbuild
p134
tp135
(dp136
Vdebug-info
p137
I01
sVsigned-code
p138
I00
ss(Vbase
p139
NVrt
p140
tp141
(dp142
Venabled
p143
I00
ss(Vdescription
p144
tp145
(dp146
Vpart-long-up
p147
VThis kernel is not suitable for SMP (multi-processor,\u000amulti-core or hyper-threaded) systems.
p148
ss(Vimage
p149
tp150
(dp151
Vinitramfs-generators
p152
(lp153
Vinitramfs-tools
p154
aVinitramfs-fallback
p155
asVbreaks
p156
(lp157
Vwireless-regdb (<< 2019.06.03-1~)
p158
asVrecommends
p159
(lp160
Vapparmor
p161
ass(Vrelations
p162
tp163
(dp164
Vgcc-9
p165
Vgcc-9 <!stage1 !cross !pkg.linux.nokernel>, gcc-9-@gnu-type-package@ <!stage1 cross !pkg.linux.nokernel>
p166
sVinitramfs-fallback
p167
Vlinux-initramfs-tool
p168
sVinitramfs-tools
p169
Vinitramfs-tools (>= 0.120+deb8u2)
p170
ss(Vbase
p171
Valpha
p172
tp173
(dp174
Vkernel-arch
p175
Valpha
p176
sVfeaturesets
p177
(lp178
Vnone
p179
ass(Vbuild
p180
g172
tp181
(dp182
Vimage-file
p183
Varch/alpha/boot/vmlinux.gz
p184
ss(Vimage
p185
g172
tp186
(dp187
Vsuggests
p188
(lp189
Vaboot
p190
aVfdutils
p191
asVinstall-stem
p192
Vvmlinuz
p193
ss(Vdescription
p194
g172
NValpha-generic
p195
tp196
(dp197
Vhardware
p198
VAlpha
p199
sVhardware-long
p200
VDEC Alpha systems with extended kernel start address (Wildfire, Titan, Marvel)
p201
ss(Vdescription
p202
g172
NValpha-smp
p203
tp204
(dp205
Vhardware
p206
VAlpha SMP
p207
sVhardware-long
p208
VDEC Alpha SMP systems with extended kernel start address (Wildfire, Titan, Marvel)
p209
ss(Vbase
p210
g172
g179
tp211
(dp212
Vflavours
p213
(lp214
Valpha-generic
p215
aValpha-smp
p216
asVimplicit-flavour
p217
I01
ss(Vbase
p218
Vamd64
p219
tp220
(dp221
Vfeaturesets
p222
(lp223
Vnone
p224
aVrt
p225
asVkernel-arch
p226
Vx86
p227
ss(Vbuild
p228
g219
tp229
(dp230
Vimage-file
p231
Varch/x86/boot/bzImage
p232
sVsigned-code
p233
I00
sVvdso
p234
I01
ss(Vimage
p235
g219
tp236
(dp237
Vbootloaders
p238
(lp239
Vgrub-pc
p240
aVgrub-efi-amd64
p241
aVextlinux
p242
asVinstall-stem
p243
Vvmlinuz
p244
sVbreaks
p245
(lp246
Vxserver-xorg-input-vmmouse (<< 1:13.0.99)
p247
ass(Vrelations
p248
g219
tp249
(dp250
Vheaders%gcc-9
p251
Vlinux-compiler-gcc-9-x86
p252
ss(Vdescription
p253
g219
NVamd64
p254
tp255
(dp256
Vhardware
p257
V64-bit PCs
p258
sVhardware-long
p259
VPCs with AMD64, Intel 64 or VIA Nano processors
p260
ss(Vdescription
p261
g219
NVcloud-amd64
p262
tp263
(dp264
Vhardware
p265
Vx86-64 cloud
p266
sVhardware-long
p267
VAmazon EC2, Google Compute Engine and Microsoft Azure cloud platforms
p268
ss(Vbase
p269
g219
Vnone
p270
tp271
(dp272
Vflavours
p273
(lp274
Vamd64
p275
aVcloud-amd64
p276
ass(Vimage
p277
g219
g270
Vcloud-amd64
p278
tp279
(dp280
Vconfigs
p281
(lp282
Vconfig.cloud
p283
aVamd64/config.cloud-amd64
p284
ass(Vbase
p285
g219
Vrt
p286
tp287
(dp288
Vflavours
p289
(lp290
Vamd64
p291
ass(Vbase
p292
Varm64
p293
tp294
(dp295
Vcross-compile-compat
p296
Varm-linux-gnueabihf-
p297
sVkernel-arch
p298
Varm64
p299
sVfeaturesets
p300
(lp301
Vnone
p302
aVrt
p303
ass(Vbuild
p304
g293
tp305
(dp306
Vimage-file
p307
Varch/arm64/boot/Image
p308
sVsigned-code
p309
I00
sVvdso
p310
I01
ss(Vimage
p311
g293
tp312
(dp313
Vinstall-stem
p314
Vvmlinuz
p315
sVbreaks
p316
(lp317
Vlibmozjs185-1.0
p318
aVlibmozjs-24-0 (<< 24.2.0-5.1~)
p319
ass(Vdescription
p320
g293
NVarm64
p321
tp322
(dp323
Vhardware
p324
V64-bit ARMv8 machines
p325
ss(Vdescription
p326
g293
NVcloud-arm64
p327
tp328
(dp329
Vhardware
p330
Varm64 cloud
p331
sVhardware-long
p332
Vcloud platforms supporting arm64 virtual machines
p333
ss(Vimage
p334
g293
NVarm64
p335
tp336
(dp337
s(Vrelations
p338
g293
tp339
(dp340
Vgcc-9
p341
Vgcc-9 <!stage1 !cross !pkg.linux.nokernel>, gcc-9-aarch64-linux-gnu <!stage1 cross !pkg.linux.nokernel>, gcc-arm-linux-gnueabihf <!stage1 !pkg.linux.nokernel>
p342
sVheaders%gcc-9
p343
Vgcc-9
p344
ss(Vbase
p345
g293
Vnone
p346
tp347
(dp348
Vflavours
p349
(lp350
Varm64
p351
aVcloud-arm64
p352
ass(Vimage
p353
g293
g346
Vcloud-arm64
p354
tp355
(dp356
Vconfigs
p357
(lp358
Vconfig.cloud
p359
aVarm64/config.cloud-arm64
p360
ass(Vbase
p361
g293
Vrt
p362
tp363
(dp364
Vflavours
p365
(lp366
Varm64
p367
ass(Vbase
p368
Varm64ilp32
p369
tp370
(dp371
Vkernel-arch
p372
Varm64
p373
sVfeaturesets
p374
(lp375
ss(Vbase
p376
Varmel
p377
tp378
(dp379
Vkernel-arch
p380
Varm
p381
sg177
(lp382
g179
ass(Vbuild
p383
g377
tp384
(dp385
Vimage-file
p386
Varch/arm/boot/zImage
p387
sVuncompressed-image-file
p388
Varch/arm/boot/Image
p389
ss(Vimage
p390
g377
tp391
(dp392
Vinstall-stem
p393
Vvmlinuz
p394
ss(Vrelations
p395
g377
tp396
(dp397
Vheaders%gcc-9
p398
Vlinux-compiler-gcc-9-arm
p399
ss(Vdescription
p400
g377
NVmarvell
p401
tp402
(dp403
Vhardware
p404
VMarvell Kirkwood/Orion
p405
sVhardware-long
p406
VMarvell Kirkwood and Orion based systems (https://wiki.debian.org/ArmEabiPort#Supported_hardware)
p407
ss(Vdescription
p408
g377
NVrpi
p409
tp410
(dp411
Vhardware
p412
VRaspberry Pi and Pi Zero
p413
sVhardware-long
p414
VRaspberry Pi, Raspberry Pi Zero based systems
p415
ss(Vimage
p416
g377
NVmarvell
p417
tp418
(dp419
Vrecommends
p420
(lp421
Vu-boot-tools
p422
asVcheck-size
p423
I2729712
sVcheck-size-with-dtb
p424
I01
sVcheck-uncompressed-size
p425
I7340032
sVbreaks
p426
(lp427
Vflash-kernel (<< 3.57~)
p428
ass(g210
g377
g179
tp429
(dp430
g213
(lp431
Vmarvell
p432
aVrpi
p433
asg217
I01
ss(Vbase
p434
Varmhf
p435
tp436
(dp437
Vfeaturesets
p438
(lp439
Vnone
p440
aVrt
p441
asVkernel-arch
p442
Varm
p443
ss(Vbuild
p444
g435
tp445
(dp446
Vimage-file
p447
Varch/arm/boot/zImage
p448
sVvdso
p449
I01
ss(Vimage
p450
g435
tp451
(dp452
Vinstall-stem
p453
Vvmlinuz
p454
ss(Vrelations
p455
g435
tp456
(dp457
Vheaders%gcc-9
p458
Vlinux-compiler-gcc-9-arm
p459
ss(Vdescription
p460
g435
NVarmmp
p461
tp462
(dp463
Vhardware
p464
VARMv7 multiplatform compatible SoCs
p465
sVhardware-long
p466
VARMv7 multiplatform kernel. See\u000ahttps://wiki.debian.org/DebianKernel/ARMMP for details of supported\u000aplatforms
p467
ss(Vdescription
p468
g435
NVarmmp-lpae
p469
tp470
(dp471
Vhardware
p472
VARMv7 multiplatform compatible SoCs supporting LPAE
p473
sVhardware-long
p474
VARMv7 multiplatform kernel supporting LPAE. See\u000ahttps://wiki.debian.org/DebianKernel/ARMMP for details of supported\u000aplatforms.
p475
ss(Vbase
p476
g435
Vnone
p477
tp478
(dp479
Vflavours
p480
(lp481
Varmmp
p482
aVarmmp-lpae
p483
ass(Vbase
p484
g435
Vrt
p485
tp486
(dp487
Vflavours
p488
(lp489
Varmmp
p490
ass(Vbase
p491
Vhppa
p492
tp493
(dp494
Vkernel-arch
p495
Vparisc
p496
sg177
(lp497
g179
ass(Vbuild
p498
g492
tp499
(dp500
Vimage-file
p501
Varch/parisc/boot/bzImage
p502
sVdebug-info
p503
I00
ss(Vimage
p504
g492
tp505
(dp506
Vsuggests
p507
(lp508
Vpalo
p509
asVinstall-stem
p510
Vvmlinuz
p511
ss(Vdescription
p512
g492
NVparisc
p513
tp514
(dp515
Vhardware
p516
V32-bit PA-RISC
p517
sVhardware-long
p518
VHP PA-RISC 32-bit systems with max 4 GB RAM
p519
ss(Vbase
p520
g492
NVparisc64
p521
tp522
(dp523
Vcflags
p524
V-fno-cse-follow-jumps
p525
sVoverride-host-type
p526
Vhppa64-linux-gnu
p527
ss(Vdescription
p528
g492
NVparisc64
p529
tp530
(dp531
Vhardware
p532
V64-bit PA-RISC
p533
sVhardware-long
p534
VHP PA-RISC 64-bit systems with support for more than 4 GB RAM
p535
ss(Vrelations
p536
g492
tp537
(dp538
Vgcc-9
p539
Vgcc-9 <!stage1 !cross !pkg.linux.nokernel>, gcc-9-hppa-linux-gnu <!stage1 cross !pkg.linux.nokernel>, binutils-hppa64-linux-gnu <!stage1 !pkg.linux.nokernel>, gcc-9-hppa64-linux-gnu <!stage1 !pkg.linux.nokernel>
p540
ss(g210
g492
g179
tp541
(dp542
g213
(lp543
Vparisc
p544
aVparisc64
p545
asg217
I01
ss(Vbase
p546
Vi386
p547
tp548
(dp549
Vfeaturesets
p550
(lp551
Vnone
p552
aVrt
p553
asVkernel-arch
p554
Vx86
p555
ss(Vbuild
p556
g547
tp557
(dp558
Vimage-file
p559
Varch/x86/boot/bzImage
p560
sVsigned-code
p561
I00
sVvdso
p562
I01
ss(Vdescription
p563
g547
tp564
(dp565
Vpart-long-pae
p566
VThis kernel requires PAE (Physical Address Extension).\u000aThis feature is supported by the Intel Pentium Pro/II/III/4/4M/D, Xeon,\u000aCore and Atom; AMD Geode NX, Athlon (K7), Duron, Opteron, Sempron,\u000aTurion or Phenom; Transmeta Efficeon; VIA C7; and some other processors.
p567
ss(Vimage
p568
g547
tp569
(dp570
Vbootloaders
p571
(lp572
Vgrub-pc
p573
aVgrub-efi-ia32
p574
aVextlinux
p575
asVinstall-stem
p576
Vvmlinuz
p577
sVbreaks
p578
(lp579
Vxserver-xorg-input-vmmouse (<< 1:13.0.99)
p580
ass(Vrelations
p581
g547
tp582
(dp583
Vheaders%gcc-9
p584
Vlinux-compiler-gcc-9-x86
p585
ss(Vdescription
p586
g547
NV686
p587
tp588
(dp589
Vhardware
p590
Volder PCs
p591
sVhardware-long
p592
VPCs with one or more processors not supporting PAE
p593
ss(Vdescription
p594
g547
NV686-pae
p595
tp596
(dp597
Vhardware
p598
Vmodern PCs
p599
sVhardware-long
p600
VPCs with one or more processors supporting PAE
p601
sVparts
p602
(lp603
Vpae
p604
ass(Vbase
p605
g547
Vnone
p606
tp607
(dp608
Vflavours
p609
(lp610
V686
p611
aV686-pae
p612
ass(Vbase
p613
g547
Vrt
p614
tp615
(dp616
Vflavours
p617
(lp618
V686-pae
p619
ass(Vbase
p620
Via64
p621
tp622
(dp623
Vkernel-arch
p624
Via64
p625
sg177
(lp626
g179
ass(Vbuild
p627
g621
tp628
(dp629
Vimage-file
p630
Vvmlinux.gz
p631
ss(Vimage
p632
g621
tp633
(dp634
Vbootloaders
p635
(lp636
Vgrub-efi-ia64
p637
asVinstall-stem
p638
Vvmlinuz
p639
ss(Vdescription
p640
g621
NVitanium
p641
tp642
(dp643
Vhardware
p644
VItanium (Merced)
p645
sVhardware-long
p646
Vsystems with original Itanium (Merced) processors
p647
ss(Vdescription
p648
g621
NVmckinley
p649
tp650
(dp651
Vhardware
p652
VItanium 2+
p653
sVhardware-long
p654
Vsystems with Itanium 2 or 9300/9500/9700-series processors
p655
ss(g210
g621
g179
tp656
(dp657
g213
(lp658
Vitanium
p659
aVmckinley
p660
asg217
I01
ss(Vbase
p661
Vm68k
p662
tp663
(dp664
Vcflags
p665
V-ffreestanding
p666
sVkernel-arch
p667
Vm68k
p668
sg177
(lp669
g179
ass(Vbuild
p670
g662
tp671
(dp672
Vimage-file
p673
Vvmlinux
p674
ss(Vimage
p675
g662
tp676
(dp677
Vsuggests
p678
(lp679
Vvmelilo
p680
aVfdutils
p681
asVinstall-stem
p682
Vvmlinux
p683
ss(Vdescription
p684
g662
NVm68k
p685
tp686
(dp687
Vhardware
p688
VMotorola MC68020+ family
p689
ss(g210
g662
g179
tp690
(dp691
g213
(lp692
Vm68k
p693
asg217
I01
ss(Vbase
p694
Vmips
p695
tp696
(dp697
Vkernel-arch
p698
Vmips
p699
sg177
(lp700
g179
ass(Vbuild
p701
g695
tp702
(dp703
Vimage-file
p704
Vvmlinuz
p705
ss(Vimage
p706
g695
tp707
(dp708
Vinstall-stem
p709
Vvmlinuz
p710
ss(Vdescription
p711
g695
NV4kc-malta
p712
tp713
(dp714
Vhardware
p715
VMIPS Malta
p716
sVhardware-long
p717
VMIPS Malta boards
p718
ss(Vimage
p719
g695
NV4kc-malta
p720
tp721
(dp722
Vconfigs
p723
(lp724
Vkernelarch-mips/config.malta
p725
aVkernelarch-mips/config.mips32r2
p726
ass(Vdescription
p727
g695
NV5kc-malta
p728
tp729
(dp730
Vhardware
p731
VMIPS Malta (64-bit)
p732
sVhardware-long
p733
VMIPS Malta boards (64-bit)
p734
ss(Vimage
p735
g695
NV5kc-malta
p736
tp737
(dp738
Vconfigs
p739
(lp740
Vkernelarch-mips/config.malta
p741
aVkernelarch-mips/config.mips64r2
p742
ass(Vdescription
p743
g695
NVocteon
p744
tp745
(dp746
Vhardware
p747
VOcteon
p748
sVhardware-long
p749
VCavium Networks Octeon
p750
ss(Vbuild
p751
g695
NVocteon
p752
tp753
(dp754
Vimage-file
p755
Vvmlinux
p756
ss(Vimage
p757
g695
NVocteon
p758
tp759
(dp760
Vinstall-stem
p761
Vvmlinux
p762
sVconfigs
p763
(lp764
Vkernelarch-mips/config.octeon
p765
ass(g210
g695
g179
tp766
(dp767
g213
(lp768
V4kc-malta
p769
aV5kc-malta
p770
aVocteon
p771
asg217
I01
ss(Vbase
p772
Vmips64
p773
tp774
(dp775
Vkernel-arch
p776
Vmips
p777
sg177
(lp778
g179
ass(Vbuild
p779
g773
tp780
(dp781
Vimage-file
p782
Vvmlinuz
p783
ss(Vimage
p784
g773
tp785
(dp786
Vinstall-stem
p787
Vvmlinuz
p788
ss(Vdescription
p789
g773
NV5kc-malta
p790
tp791
(dp792
Vhardware
p793
VMIPS Malta
p794
sVhardware-long
p795
VMIPS Malta boards
p796
ss(Vimage
p797
g773
NV5kc-malta
p798
tp799
(dp800
Vconfigs
p801
(lp802
Vkernelarch-mips/config.malta
p803
aVkernelarch-mips/config.mips64r2
p804
ass(Vdescription
p805
g773
NVocteon
p806
tp807
(dp808
Vhardware
p809
VOcteon
p810
sVhardware-long
p811
VCavium Networks Octeon
p812
ss(Vbuild
p813
g773
NVocteon
p814
tp815
(dp816
Vimage-file
p817
Vvmlinux
p818
ss(Vimage
p819
g773
NVocteon
p820
tp821
(dp822
Vinstall-stem
p823
Vvmlinux
p824
sVconfigs
p825
(lp826
Vkernelarch-mips/config.octeon
p827
ass(g210
g773
g179
tp828
(dp829
g213
(lp830
V5kc-malta
p831
aVocteon
p832
asg217
I01
ss(Vbase
p833
Vmips64el
p834
tp835
(dp836
Vkernel-arch
p837
Vmips
p838
sg177
(lp839
g179
ass(Vbuild
p840
g834
tp841
(dp842
Vimage-file
p843
Vvmlinuz
p844
ss(Vimage
p845
g834
tp846
(dp847
Vinstall-stem
p848
Vvmlinuz
p849
ss(Vdescription
p850
g834
NV5kc-malta
p851
tp852
(dp853
Vhardware
p854
VMIPS Malta
p855
sVhardware-long
p856
VMIPS Malta boards
p857
ss(Vimage
p858
g834
NV5kc-malta
p859
tp860
(dp861
Vconfigs
p862
(lp863
Vkernelarch-mips/config.malta
p864
aVkernelarch-mips/config.mips64r2
p865
ass(Vdescription
p866
g834
NVloongson-3
p867
tp868
(dp869
Vhardware
p870
VLoongson 3A/3B
p871
sVhardware-long
p872
VLoongson 3A or 3B based systems (e.g. from Loongson or Lemote)
p873
ss(Vimage
p874
g834
NVloongson-3
p875
tp876
(dp877
Vconfigs
p878
(lp879
Vkernelarch-mips/config.loongson-3
p880
ass(Vdescription
p881
g834
NVocteon
p882
tp883
(dp884
Vhardware
p885
VOcteon
p886
sVhardware-long
p887
VCavium Networks Octeon
p888
ss(Vbuild
p889
g834
NVocteon
p890
tp891
(dp892
Vimage-file
p893
Vvmlinux
p894
ss(Vimage
p895
g834
NVocteon
p896
tp897
(dp898
Vinstall-stem
p899
Vvmlinux
p900
sVconfigs
p901
(lp902
Vkernelarch-mips/config.octeon
p903
ass(g210
g834
g179
tp904
(dp905
g213
(lp906
V5kc-malta
p907
aVloongson-3
p908
aVocteon
p909
asg217
I01
ss(Vbase
p910
Vmips64r6
p911
tp912
(dp913
Vkernel-arch
p914
Vmips
p915
sg177
(lp916
g179
ass(Vbuild
p917
g911
tp918
(dp919
Vimage-file
p920
Vvmlinux
p921
ss(Vimage
p922
g911
tp923
(dp924
Vinstall-stem
p925
Vvmlinux
p926
ss(Vdescription
p927
g911
NVmips64r6
p928
tp929
(dp930
Vhardware
p931
VMIPS R6 (64 bit, big endian)
p932
sVhardware-long
p933
VMIPS R6 (64 bit, big endian)
p934
ss(Vimage
p935
g911
NVmips64r6
p936
tp937
(dp938
Vconfigs
p939
(lp940
Vkernelarch-mips/config.boston
p941
aVkernelarch-mips/config.mips64r6
p942
ass(g210
g911
g179
tp943
(dp944
g213
(lp945
Vmips64r6
p946
asg217
I01
ss(Vbase
p947
Vmips64r6el
p948
tp949
(dp950
Vkernel-arch
p951
Vmips
p952
sg177
(lp953
g179
ass(Vbuild
p954
g948
tp955
(dp956
Vimage-file
p957
Vvmlinux
p958
ss(Vimage
p959
g948
tp960
(dp961
Vinstall-stem
p962
Vvmlinux
p963
ss(Vdescription
p964
g948
NVmips64r6el
p965
tp966
(dp967
Vhardware
p968
VMIPS R6 (64 bit, little endian)
p969
sVhardware-long
p970
VMIPS R6 (64 bit, little endian)
p971
ss(Vimage
p972
g948
NVmips64r6el
p973
tp974
(dp975
Vconfigs
p976
(lp977
Vkernelarch-mips/config.boston
p978
aVkernelarch-mips/config.mips64r6
p979
ass(g210
g948
g179
tp980
(dp981
g213
(lp982
Vmips64r6el
p983
asg217
I01
ss(Vbase
p984
Vmipsel
p985
tp986
(dp987
Vkernel-arch
p988
Vmips
p989
sg177
(lp990
g179
ass(Vbuild
p991
g985
tp992
(dp993
Vimage-file
p994
Vvmlinuz
p995
ss(Vimage
p996
g985
tp997
(dp998
Vinstall-stem
p999
Vvmlinuz
p1000
ss(Vdescription
p1001
g985
NV4kc-malta
p1002
tp1003
(dp1004
Vhardware
p1005
VMIPS Malta
p1006
sVhardware-long
p1007
VMIPS Malta boards
p1008
ss(Vimage
p1009
g985
NV4kc-malta
p1010
tp1011
(dp1012
Vconfigs
p1013
(lp1014
Vkernelarch-mips/config.malta
p1015
aVkernelarch-mips/config.mips32r2
p1016
ass(Vdescription
p1017
g985
NV5kc-malta
p1018
tp1019
(dp1020
Vhardware
p1021
VMIPS Malta (64-bit)
p1022
sVhardware-long
p1023
VMIPS Malta boards (64-bit)
p1024
ss(Vimage
p1025
g985
NV5kc-malta
p1026
tp1027
(dp1028
Vconfigs
p1029
(lp1030
Vkernelarch-mips/config.malta
p1031
aVkernelarch-mips/config.mips64r2
p1032
ass(Vdescription
p1033
g985
NVloongson-3
p1034
tp1035
(dp1036
Vhardware
p1037
VLoongson 3A/3B
p1038
sVhardware-long
p1039
VLoongson 3A or 3B based systems (e.g. from Loongson or Lemote)
p1040
ss(Vimage
p1041
g985
NVloongson-3
p1042
tp1043
(dp1044
Vconfigs
p1045
(lp1046
Vkernelarch-mips/config.loongson-3
p1047
ass(Vdescription
p1048
g985
NVocteon
p1049
tp1050
(dp1051
Vhardware
p1052
VOcteon
p1053
sVhardware-long
p1054
VCavium Networks Octeon
p1055
ss(Vbuild
p1056
g985
NVocteon
p1057
tp1058
(dp1059
Vimage-file
p1060
Vvmlinux
p1061
ss(Vimage
p1062
g985
NVocteon
p1063
tp1064
(dp1065
Vinstall-stem
p1066
Vvmlinux
p1067
sVconfigs
p1068
(lp1069
Vkernelarch-mips/config.octeon
p1070
ass(g210
g985
g179
tp1071
(dp1072
g213
(lp1073
V4kc-malta
p1074
aV5kc-malta
p1075
aVloongson-3
p1076
aVocteon
p1077
asg217
I01
ss(Vbase
p1078
Vmipsn32
p1079
tp1080
(dp1081
Vkernel-arch
p1082
Vmips
p1083
sVfeaturesets
p1084
(lp1085
ss(Vbase
p1086
Vmipsn32el
p1087
tp1088
(dp1089
Vkernel-arch
p1090
Vmips
p1091
sVfeaturesets
p1092
(lp1093
ss(Vbase
p1094
Vmipsn32r6
p1095
tp1096
(dp1097
Vkernel-arch
p1098
Vmips
p1099
sVfeaturesets
p1100
(lp1101
ss(Vbase
p1102
Vmipsn32r6el
p1103
tp1104
(dp1105
Vkernel-arch
p1106
Vmips
p1107
sVfeaturesets
p1108
(lp1109
ss(Vbase
p1110
Vmipsr6
p1111
tp1112
(dp1113
Vkernel-arch
p1114
Vmips
p1115
sg177
(lp1116
g179
ass(Vbuild
p1117
g1111
tp1118
(dp1119
Vimage-file
p1120
Vvmlinux
p1121
ss(Vimage
p1122
g1111
tp1123
(dp1124
Vinstall-stem
p1125
Vvmlinux
p1126
ss(Vdescription
p1127
g1111
NVmips32r6
p1128
tp1129
(dp1130
Vhardware
p1131
VMIPS R6 (32 bit, big endian)
p1132
sVhardware-long
p1133
VMIPS R6 (32 bit, big endian)
p1134
ss(Vimage
p1135
g1111
NVmips32r6
p1136
tp1137
(dp1138
Vconfigs
p1139
(lp1140
Vkernelarch-mips/config.boston
p1141
aVkernelarch-mips/config.mips32r6
p1142
ass(Vdescription
p1143
g1111
NVmips64r6
p1144
tp1145
(dp1146
Vhardware
p1147
VMIPS R6 (64 bit, big endian)
p1148
sVhardware-long
p1149
VMIPS R6 (64 bit, big endian)
p1150
ss(Vimage
p1151
g1111
NVmips64r6
p1152
tp1153
(dp1154
Vconfigs
p1155
(lp1156
Vkernelarch-mips/config.boston
p1157
aVkernelarch-mips/config.mips64r6
p1158
ass(g210
g1111
g179
tp1159
(dp1160
g213
(lp1161
Vmips32r6
p1162
aVmips64r6
p1163
asg217
I01
ss(Vbase
p1164
Vmipsr6el
p1165
tp1166
(dp1167
Vkernel-arch
p1168
Vmips
p1169
sg177
(lp1170
g179
ass(Vbuild
p1171
g1165
tp1172
(dp1173
Vimage-file
p1174
Vvmlinux
p1175
ss(Vimage
p1176
g1165
tp1177
(dp1178
Vinstall-stem
p1179
Vvmlinux
p1180
ss(Vdescription
p1181
g1165
NVmips32r6el
p1182
tp1183
(dp1184
Vhardware
p1185
VMIPS R6 (32 bit, little endian)
p1186
sVhardware-long
p1187
VMIPS R6 (32 bit, little endian)
p1188
ss(Vimage
p1189
g1165
NVmips32r6el
p1190
tp1191
(dp1192
Vconfigs
p1193
(lp1194
Vkernelarch-mips/config.boston
p1195
aVkernelarch-mips/config.mips32r6
p1196
ass(Vdescription
p1197
g1165
NVmips64r6el
p1198
tp1199
(dp1200
Vhardware
p1201
VMIPS R6 (64 bit, little endian)
p1202
sVhardware-long
p1203
VMIPS R6 (64 bit, little endian)
p1204
ss(Vimage
p1205
g1165
NVmips64r6el
p1206
tp1207
(dp1208
Vconfigs
p1209
(lp1210
Vkernelarch-mips/config.boston
p1211
aVkernelarch-mips/config.mips64r6
p1212
ass(g210
g1165
g179
tp1213
(dp1214
g213
(lp1215
Vmips32r6el
p1216
aVmips64r6el
p1217
asg217
I01
ss(Vbase
p1218
Vpowerpc
p1219
tp1220
(dp1221
Vkernel-arch
p1222
Vpowerpc
p1223
sg177
(lp1224
g179
ass(Vbuild
p1225
g1219
tp1226
(dp1227
Vimage-file
p1228
Vvmlinux
p1229
sVvdso
p1230
I01
ss(Vimage
p1231
g1219
tp1232
(dp1233
Vconfigs
p1234
(lp1235
sVbootloaders
p1236
(lp1237
Vgrub-ieee1275
p1238
asVsuggests
p1239
(lp1240
Vmkvmlinuz
p1241
asVinstall-stem
p1242
Vvmlinux
p1243
ss(Vdescription
p1244
g1219
NVpowerpc
p1245
tp1246
(dp1247
Vhardware
p1248
Vuniprocessor 32-bit PowerPC
p1249
ss(Vdescription
p1250
g1219
NVpowerpc-smp
p1251
tp1252
(dp1253
Vhardware
p1254
Vmultiprocessor 32-bit PowerPC
p1255
ss(Vimage
p1256
g1219
NVpowerpc-smp
p1257
tp1258
(dp1259
Vconfigs
p1260
(lp1261
Vpowerpc/config.powerpc
p1262
aVpowerpc/config.powerpc-smp
p1263
ass(Vdescription
p1264
g1219
NVpowerpc64
p1265
tp1266
(dp1267
Vhardware
p1268
V64-bit PowerPC
p1269
ss(Vimage
p1270
g1219
NVpowerpc64
p1271
tp1272
(dp1273
Vconfigs
p1274
(lp1275
Vkernelarch-powerpc/config-arch-64
p1276
aVkernelarch-powerpc/config-arch-64-be
p1277
ass(g210
g1219
g179
tp1278
(dp1279
g213
(lp1280
Vpowerpc
p1281
aVpowerpc-smp
p1282
aVpowerpc64
p1283
asg217
I01
ss(Vbase
p1284
Vppc64
p1285
tp1286
(dp1287
Vkernel-arch
p1288
Vpowerpc
p1289
sg177
(lp1290
g179
ass(Vbuild
p1291
g1285
tp1292
(dp1293
Vimage-file
p1294
Vvmlinux
p1295
sVvdso
p1296
I01
ss(Vimage
p1297
g1285
tp1298
(dp1299
Vconfigs
p1300
(lp1301
sVbootloaders
p1302
(lp1303
Vgrub-ieee1275
p1304
asVsuggests
p1305
(lp1306
Vmkvmlinuz
p1307
asVinstall-stem
p1308
Vvmlinux
p1309
ss(Vdescription
p1310
g1285
NVpowerpc64
p1311
tp1312
(dp1313
Vhardware
p1314
V64-bit PowerPC
p1315
ss(Vimage
p1316
g1285
NVpowerpc64
p1317
tp1318
(dp1319
Vconfigs
p1320
(lp1321
Vkernelarch-powerpc/config-arch-64
p1322
aVkernelarch-powerpc/config-arch-64-be
p1323
ass(g210
g1285
g179
tp1324
(dp1325
g213
(lp1326
Vpowerpc64
p1327
asg217
I01
ss(Vbase
p1328
Vppc64el
p1329
tp1330
(dp1331
Vkernel-arch
p1332
Vpowerpc
p1333
sg177
(lp1334
g179
ass(Vbuild
p1335
g1329
tp1336
(dp1337
Vimage-file
p1338
Vvmlinux
p1339
sVvdso
p1340
I01
ss(Vimage
p1341
g1329
tp1342
(dp1343
Vconfigs
p1344
(lp1345
sVbootloaders
p1346
(lp1347
Vgrub-ieee1275
p1348
asVsuggests
p1349
(lp1350
Vmkvmlinuz
p1351
asVinstall-stem
p1352
Vvmlinux
p1353
ss(Vdescription
p1354
g1329
NVpowerpc64le
p1355
tp1356
(dp1357
Vhardware
p1358
VLittle-endian 64-bit PowerPC
p1359
ss(Vimage
p1360
g1329
NVpowerpc64le
p1361
tp1362
(dp1363
Vconfigs
p1364
(lp1365
Vkernelarch-powerpc/config-arch-64
p1366
aVkernelarch-powerpc/config-arch-64-le
p1367
ass(g210
g1329
g179
tp1368
(dp1369
g213
(lp1370
Vpowerpc64le
p1371
asg217
I01
ss(Vbase
p1372
Vriscv64
p1373
tp1374
(dp1375
Vkernel-arch
p1376
Vriscv
p1377
sVfeaturesets
p1378
(lp1379
Vnone
p1380
ass(Vbuild
p1381
g1373
tp1382
(dp1383
Vimage-file
p1384
Varch/riscv/boot/Image
p1385
sVvdso
p1386
I01
ss(Vimage
p1387
g1373
tp1388
(dp1389
Vinstall-stem
p1390
Vvmlinux
p1391
ss(Vdescription
p1392
g1373
NVriscv64
p1393
tp1394
(dp1395
Vhardware
p1396
V64-bit RISC-V platforms
p1397
sVhardware-long
p1398
V64-bit RISC-V platforms
p1399
ss(Vbase
p1400
g1373
Vnone
p1401
tp1402
(dp1403
Vflavours
p1404
(lp1405
Vriscv64
p1406
ass(Vbase
p1407
Vs390
p1408
tp1409
(dp1410
Vkernel-arch
p1411
Vs390
p1412
sVfeaturesets
p1413
(lp1414
ss(Vbase
p1415
Vs390x
p1416
tp1417
(dp1418
Vkernel-arch
p1419
Vs390
p1420
sg177
(lp1421
g179
ass(Vbuild
p1422
g1416
tp1423
(dp1424
Vimage-file
p1425
Varch/s390/boot/bzImage
p1426
sVvdso
p1427
I01
ss(Vimage
p1428
g1416
tp1429
(dp1430
Vbootloaders
p1431
(lp1432
Vs390-tools
p1433
asVinstall-stem
p1434
Vvmlinuz
p1435
ss(Vrelations
p1436
g1416
tp1437
(dp1438
Vheaders%gcc-9
p1439
Vlinux-compiler-gcc-9-s390
p1440
ss(Vdescription
p1441
g1416
NVs390x
p1442
tp1443
(dp1444
Vhardware
p1445
VIBM zSeries
p1446
ss(g210
g1416
g179
tp1447
(dp1448
g213
(lp1449
Vs390x
p1450
asg217
I01
ss(Vbase
p1451
Vsh3
p1452
tp1453
(dp1454
Vkernel-arch
p1455
Vsh
p1456
sVfeaturesets
p1457
(lp1458
ss(Vbase
p1459
Vsh4
p1460
tp1461
(dp1462
Vkernel-arch
p1463
Vsh
p1464
sg177
(lp1465
g179
ass(Vbuild
p1466
g1460
tp1467
(dp1468
Vimage-file
p1469
Varch/sh/boot/zImage
p1470
ss(Vimage
p1471
g1460
tp1472
(dp1473
Vinstall-stem
p1474
Vvmlinuz
p1475
ss(Vdescription
p1476
g1460
NVsh7751r
p1477
tp1478
(dp1479
Vhardware
p1480
Vsh7751r
p1481
sVhardware-long
p1482
VRenesas SH7751R R2D plus board
p1483
ss(Vdescription
p1484
g1460
NVsh7785lcr
p1485
tp1486
(dp1487
Vhardware
p1488
Vsh7785lcr
p1489
sVhardware-long
p1490
VRenesas SH7785 reference board
p1491
ss(Vimage
p1492
g1460
NVsh7785lcr
p1493
tp1494
(dp1495
Vrecommends
p1496
(lp1497
Vu-boot-tools
p1498
asVcheck-size
p1499
I4194304
ss(g210
g1460
g179
tp1500
(dp1501
g213
(lp1502
Vsh7751r
p1503
aVsh7785lcr
p1504
asg217
I01
ss(Vbase
p1505
Vsparc
p1506
tp1507
(dp1508
Vkernel-arch
p1509
Vsparc
p1510
sVfeaturesets
p1511
(lp1512
ss(Vbase
p1513
Vsparc64
p1514
tp1515
(dp1516
Vkernel-arch
p1517
Vsparc
p1518
sg177
(lp1519
g179
ass(Vbuild
p1520
g1514
tp1521
(dp1522
Vimage-file
p1523
Vvmlinux
p1524
ss(Vimage
p1525
g1514
tp1526
(dp1527
Vconfigs
p1528
(lp1529
sVbootloaders
p1530
(lp1531
Vgrub-ieee1275
p1532
asVsuggests
p1533
(lp1534
Vfdutils
p1535
asVinstall-stem
p1536
Vvmlinux
p1537
ss(Vdescription
p1538
g1514
NVsparc64
p1539
tp1540
(dp1541
Vhardware
p1542
Vuniprocessor 64-bit UltraSPARC
p1543
ss(Vimage
p1544
g1514
NVsparc64
p1545
tp1546
(dp1547
Vconfigs
p1548
(lp1549
Vkernelarch-sparc/config-up
p1550
ass(Vdescription
p1551
g1514
NVsparc64-smp
p1552
tp1553
(dp1554
Vhardware
p1555
Vmultiprocessor 64-bit UltraSPARC
p1556
ss(Vimage
p1557
g1514
NVsparc64-smp
p1558
tp1559
(dp1560
Vconfigs
p1561
(lp1562
Vkernelarch-sparc/config-smp
p1563
ass(g210
g1514
g179
tp1564
(dp1565
g213
(lp1566
Vsparc64
p1567
aVsparc64-smp
p1568
asg217
I01
ss(Vbase
p1569
Vx32
p1570
tp1571
(dp1572
Vkernel-arch
p1573
Vx86
p1574
sVfeaturesets
p1575
(lp1576
ss(Vabi
p1577
NVrt
p1578
tp1579
(dp1580
Vignore-changes
p1581
(lp1582
V*
p1583
ass(Vdescription
p1584
Ng1578
tp1585
(dp1586
Vpart-long-rt
p1587
VThis kernel includes the PREEMPT_RT realtime patch set.
p1588
sVpart-short-rt
p1589
VPREEMPT_RT
p1590
sVparts
p1591
(lp1592
Vrt
p1593
ass(Vversion
p1594
tp1595
(dp1596
Vsource
p1597
V5.7.10-1parrot2
p1598
sVupstream
p1599
V5.7
p1600
sVabiname_base
p1601
V5.7.0
p1602
sVabiname
p1603
V5.7.0-2parrot2
p1604
ss.