cdebian_linux.config
ConfigCore
p0
(tRp1
(Vabi
p2
tp3
(dp4
Vabiname
p5
V2
p6
sVignore-changes
p7
(lp8
V__cpuhp_*
p9
aV__xive_vm_h_*
p10
aVbpf_analyzer
p11
aVcxl_*
p12
aVdax_flush
p13
aVieee80211_nullfunc_get
p14
aVinet_add_protocol
p15
aVinet_del_protocol
p16
aViommu_device_*
p17
aVkvm_async_pf_task_wait
p18
aVkvmppc_*
p19
aVmm_iommu_*
p20
aVmv_mbus_*
p21
aVperf_*
p22
aVregister_cxl_calls
p23
aVregister_key_type
p24
aVunregister_cxl_calls
p25
aV*_hw_breakpoint
p26
aVmodule:arch/x86/kvm/*
p27
aVmodule:drivers/crypto/ccp/*
p28
aVmodule:drivers/hv/*
p29
aVmodule:drivers/iio/common/hid-sensors/*
p30
aVmodule:drivers/iio/common/st_sensors/**
p31
aVmodule:drivers/mtd/nand/*
p32
aVmodule:drivers/net/wireless/**
p33
aVmodule:drivers/nvdimm/*
p34
aVmodule:drivers/power/supply/bq27xxx_battery
p35
aVmodule:drivers/scsi/cxgbi/*
p36
aVmodule:drivers/scsi/libiscs*
p37
aVmodule:drivers/scsi/qla2xxx/qla2xxx
p38
aVmodule:drivers/scsi/ufs/*
p39
aVmodule:drivers/target/**
p40
aVmodule:drivers/usb/chipidea/**
p41
aVmodule:drivers/usb/gadget/**
p42
aVmodule:drivers/usb/host/**
p43
aVmodule:drivers/usb/musb/**
p44
aVmodule:fs/nfs/**
p45
aVmodule:net/ceph/libceph
p46
aVmodule:net/l2tp/**
p47
aVmodule:net/rxrpc/rxrpc
p48
aVmodule:sound/core/seq/**
p49
aVmodule:sound/firewire/snd-firewire-lib
p50
aVbtree_*
p51
aVvisitor*
p52
aVcan_rx_register
p53
aVip6_xmit
p54
aVmodule:net/dccp/dccp
p55
aVmodule:net/rds/rds
p56
aVdevfreq_*
p57
aVdevm_devfreq_*
p58
aVupdate_devfreq
p59
aVmodule:drivers/infiniband/**
p60
aVacpi_ec_add_query_handler
p61
aVacpi_ec_remove_query_handler
p62
aVfirst_ec
p63
aVdebugfs_create_automount
p64
aVmodule:drivers/iio/imu/inv_mpu6050/*
p65
ass(Vbase
p66
tp67
(dp68
Varches
p69
(lp70
Valpha
p71
aVamd64
p72
aVarm64
p73
aVarm64ilp32
p74
aVarmel
p75
aVarmhf
p76
aVhppa
p77
aVi386
p78
aVia64
p79
aVm68k
p80
aVmips
p81
aVmips64
p82
aVmips64el
p83
aVmips64r6
p84
aVmips64r6el
p85
aVmipsel
p86
aVmipsn32
p87
aVmipsn32el
p88
aVmipsn32r6
p89
aVmipsn32r6el
p90
aVmipsr6
p91
aVmipsr6el
p92
aVpowerpc
p93
aVpowerpcspe
p94
aVppc64
p95
aVppc64el
p96
aVs390
p97
aVs390x
p98
aVsh3
p99
aVsh4
p100
aVsparc
p101
aVsparc64
p102
aVtilegx
p103
aVx32
p104
asVcompiler
p105
Vgcc-7
p106
sVfeaturesets
p107
(lp108
Vnone
p109
aVrt
p110
ass(Vbuild
p111
tp112
(dp113
Vdebug-info
p114
I01
sVsigned-code
p115
I00
ss(Vbase
p116
NVrt
p117
tp118
(dp119
Venabled
p120
I01
ss(Vdescription
p121
tp122
(dp123
Vpart-long-up
p124
VThis kernel is not suitable for SMP (multi-processor,\u000amulti-core or hyper-threaded) systems.
p125
ss(Vimage
p126
tp127
(dp128
Vinitramfs-generators
p129
(lp130
Vinitramfs-tools
p131
aVinitramfs-fallback
p132
asVrecommends
p133
Vapparmor
p134
ss(Vrelations
p135
tp136
(dp137
Vgcc-7
p138
Vgcc-7 <!stage1 !cross>, gcc-7-@gnu-type-package@ <!stage1 cross>
p139
sVinitramfs-fallback
p140
Vlinux-initramfs-tool
p141
sVinitramfs-tools
p142
Vinitramfs-tools (>= 0.120+deb8u2)
p143
ss(Vbase
p144
Valpha
p145
tp146
(dp147
Vkernel-arch
p148
Valpha
p149
sVfeaturesets
p150
(lp151
Vnone
p152
ass(Vbuild
p153
g145
tp154
(dp155
Vimage-file
p156
Varch/alpha/boot/vmlinux.gz
p157
ss(Vimage
p158
g145
tp159
(dp160
Vsuggests
p161
Vaboot, fdutils
p162
sVinstall-stem
p163
Vvmlinuz
p164
ss(Vdescription
p165
g145
NValpha-generic
p166
tp167
(dp168
Vhardware
p169
VAlpha
p170
sVhardware-long
p171
VDEC Alpha systems with extended kernel start address (Wildfire, Titan, Marvel)
p172
ss(Vdescription
p173
g145
NValpha-smp
p174
tp175
(dp176
Vhardware
p177
VAlpha SMP
p178
sVhardware-long
p179
VDEC Alpha SMP systems with extended kernel start address (Wildfire, Titan, Marvel)
p180
ss(Vbase
p181
g145
g152
tp182
(dp183
Vflavours
p184
(lp185
Valpha-generic
p186
aValpha-smp
p187
asVimplicit-flavour
p188
I01
ss(Vbase
p189
Vamd64
p190
tp191
(dp192
Vfeaturesets
p193
(lp194
Vnone
p195
aVrt
p196
asVkernel-arch
p197
Vx86
p198
ss(Vbuild
p199
g190
tp200
(dp201
Vdebug-info
p202
I01
sVimage-file
p203
Varch/x86/boot/bzImage
p204
sVvdso
p205
I01
ss(Vimage
p206
g190
tp207
(dp208
Vbootloaders
p209
(lp210
Vgrub-pc
p211
aVgrub-efi-amd64
p212
aVextlinux
p213
asVinstall-stem
p214
Vvmlinuz
p215
sVbreaks
p216
Vxserver-xorg-input-vmmouse (<< 1:13.0.99)
p217
ss(Vrelations
p218
g190
tp219
(dp220
Vgcc-7
p221
Vgcc-7 (>= 7.2.0-20~) <!stage1 !cross>, gcc-7-x86-64-linux-gnu (>= 7.2.0-20~) <!stage1 cross>
p222
sVheaders%gcc-7
p223
Vlinux-compiler-gcc-7-x86 (>= 4.14.17-1~)
p224
ss(Vdescription
p225
g190
NVamd64
p226
tp227
(dp228
Vhardware
p229
V64-bit PCs
p230
sVhardware-long
p231
VPCs with AMD64, Intel 64 or VIA Nano processors
p232
ss(Vdescription
p233
g190
NVcloud-amd64
p234
tp235
(dp236
Vhardware
p237
Vx86-64 cloud
p238
sVhardware-long
p239
VAmazon EC2, Google Compute Engine and Microsoft Azure cloud platforms
p240
ss(Vbase
p241
g190
Vnone
p242
tp243
(dp244
Vflavours
p245
(lp246
Vamd64
p247
aVcloud-amd64
p248
ass(Vbase
p249
g190
Vrt
p250
tp251
(dp252
Vflavours
p253
(lp254
Vamd64
p255
ass(Vbase
p256
Varm64
p257
tp258
(dp259
Vkernel-arch
p260
Varm64
p261
sVfeaturesets
p262
(lp263
Vnone
p264
ass(Vbuild
p265
g257
tp266
(dp267
Vdebug-info
p268
I01
sVimage-file
p269
Varch/arm64/boot/Image
p270
sVvdso
p271
I01
ss(Vimage
p272
g257
tp273
(dp274
Vinstall-stem
p275
Vvmlinuz
p276
sVbreaks
p277
Vlibmozjs185-1.0, libmozjs-24-0 (<< 24.2.0-5.1~)
p278
ss(Vdescription
p279
g257
NVarm64
p280
tp281
(dp282
Vhardware
p283
V64-bit ARMv8 machines
p284
ss(Vimage
p285
g257
NVarm64
p286
tp287
(dp288
s(Vbase
p289
g257
Vnone
p290
tp291
(dp292
Vflavours
p293
(lp294
Varm64
p295
ass(Vbase
p296
Varm64ilp32
p297
tp298
(dp299
Vkernel-arch
p300
Varm64
p301
sVfeaturesets
p302
(lp303
ss(Vbase
p304
Varmel
p305
tp306
(dp307
Vkernel-arch
p308
Varm
p309
sg150
(lp310
g152
ass(Vbuild
p311
g305
tp312
(dp313
Vimage-file
p314
Varch/arm/boot/zImage
p315
sVuncompressed-image-file
p316
Varch/arm/boot/Image
p317
ss(Vimage
p318
g305
tp319
(dp320
Vinstall-stem
p321
Vvmlinuz
p322
ss(Vrelations
p323
g305
tp324
(dp325
Vheaders%gcc-7
p326
Vlinux-compiler-gcc-7-arm
p327
ss(Vdescription
p328
g305
NVmarvell
p329
tp330
(dp331
Vhardware
p332
VMarvell Kirkwood/Orion
p333
sVhardware-long
p334
VMarvell Kirkwood and Orion based systems (https://wiki.debian.org/ArmEabiPort#Supported_hardware)
p335
ss(Vimage
p336
g305
NVmarvell
p337
tp338
(dp339
Vrecommends
p340
Vu-boot-tools
p341
sVcheck-size
p342
L2097080L
sVcheck-size-with-dtb
p343
I01
sVcheck-uncompressed-size
p344
L7340032L
sVbreaks
p345
Vflash-kernel (<< 3.57~)
p346
ss(g181
g305
g152
tp347
(dp348
g184
(lp349
Vmarvell
p350
asg188
I01
ss(Vbase
p351
Varmhf
p352
tp353
(dp354
Vkernel-arch
p355
Varm
p356
sg150
(lp357
g152
ass(Vbuild
p358
g352
tp359
(dp360
Vimage-file
p361
Varch/arm/boot/zImage
p362
sVvdso
p363
I01
ss(Vimage
p364
g352
tp365
(dp366
Vinstall-stem
p367
Vvmlinuz
p368
ss(Vrelations
p369
g352
tp370
(dp371
Vheaders%gcc-7
p372
Vlinux-compiler-gcc-7-arm
p373
ss(Vdescription
p374
g352
NVarmmp
p375
tp376
(dp377
Vhardware
p378
VARMv7 multiplatform compatible SoCs
p379
sVhardware-long
p380
VARMv7 multiplatform kernel. See\u000ahttps://wiki.debian.org/DebianKernel/ARMMP for details of supported\u000aplatforms
p381
ss(Vdescription
p382
g352
NVarmmp-lpae
p383
tp384
(dp385
Vhardware
p386
VARMv7 multiplatform compatible SoCs supporting LPAE
p387
sVhardware-long
p388
VARMv7 multiplatform kernel supporting LPAE. See\u000ahttps://wiki.debian.org/DebianKernel/ARMMP for details of supported\u000aplatforms.
p389
ss(g181
g352
g152
tp390
(dp391
g184
(lp392
Varmmp
p393
aVarmmp-lpae
p394
asg188
I01
ss(Vbase
p395
Vhppa
p396
tp397
(dp398
Vkernel-arch
p399
Vparisc
p400
sg150
(lp401
g152
ass(Vbuild
p402
g396
tp403
(dp404
Vimage-file
p405
Varch/parisc/boot/bzImage
p406
sVdebug-info
p407
I01
ss(Vimage
p408
g396
tp409
(dp410
Vsuggests
p411
Vpalo
p412
sVinstall-stem
p413
Vvmlinuz
p414
ss(Vdescription
p415
g396
NVparisc
p416
tp417
(dp418
Vhardware
p419
V32-bit PA-RISC
p420
sVhardware-long
p421
VHP PA-RISC 32-bit systems with max 4 GB RAM
p422
ss(Vdescription
p423
g396
NVparisc-smp
p424
tp425
(dp426
Vhardware
p427
Vmultiprocessor 32-bit PA-RISC
p428
sVhardware-long
p429
VHP PA-RISC 32-bit SMP systems with max 4 GB RAM
p430
ss(Vbase
p431
g396
NVparisc64-smp
p432
tp433
(dp434
Vcflags
p435
V-fno-cse-follow-jumps
p436
sVoverride-host-type
p437
Vhppa64-linux-gnu
p438
ss(Vdescription
p439
g396
NVparisc64-smp
p440
tp441
(dp442
Vhardware
p443
Vmultiprocessor 64-bit PA-RISC
p444
sVhardware-long
p445
VHP PA-RISC 64-bit SMP systems with support for more than 4 GB RAM
p446
ss(Vrelations
p447
g396
tp448
(dp449
Vgcc-7
p450
Vgcc-7 <!stage1 !cross>, binutils-hppa64-linux-gnu <!stage1 !cross>, gcc-7-hppa64-linux-gnu <!stage1 !cross>, gcc-7-hppa-linux-gnu <!stage1 cross>, binutils-hppa64-linux-gnu <!stage1 cross>, gcc-7-hppa64-linux-gnu <!stage1 cross>
p451
ss(g181
g396
g152
tp452
(dp453
g184
(lp454
Vparisc
p455
aVparisc-smp
p456
aVparisc64-smp
p457
asg188
I01
ss(Vbase
p458
Vi386
p459
tp460
(dp461
Vfeaturesets
p462
(lp463
Vnone
p464
aVrt
p465
asVkernel-arch
p466
Vx86
p467
ss(Vbuild
p468
g459
tp469
(dp470
Vimage-file
p471
Varch/x86/boot/bzImage
p472
sVvdso
p473
I01
ss(Vdescription
p474
g459
tp475
(dp476
Vpart-long-pae
p477
VThis kernel requires PAE (Physical Address Extension).\u000aThis feature is supported by the Intel Pentium Pro/II/III/4/4M/D, Xeon,\u000aCore and Atom; AMD Geode NX, Athlon (K7), Duron, Opteron, Sempron,\u000aTurion or Phenom; Transmeta Efficeon; VIA C7; and some other processors.
p478
ss(Vimage
p479
g459
tp480
(dp481
Vbootloaders
p482
(lp483
Vgrub-pc
p484
aVextlinux
p485
asVinstall-stem
p486
Vvmlinuz
p487
sVbreaks
p488
Vxserver-xorg-input-vmmouse (<< 1:13.0.99)
p489
ss(Vrelations
p490
g459
tp491
(dp492
Vgcc-7
p493
Vgcc-7 (>= 7.2.0-20~) <!stage1 !cross>, gcc-7-i686-linux-gnu (>= 7.2.0-20~) <!stage1 cross>
p494
sVheaders%gcc-7
p495
Vlinux-compiler-gcc-7-x86 (>= 4.14.17-1~)
p496
ss(Vdescription
p497
g459
NV686
p498
tp499
(dp500
Vhardware
p501
Volder PCs
p502
sVhardware-long
p503
VPCs with one or more processors not supporting PAE
p504
ss(Vbuild
p505
g459
NV686-pae
p506
tp507
(dp508
Vdebug-info
p509
I01
ss(Vdescription
p510
g459
NV686-pae
p511
tp512
(dp513
Vhardware
p514
Vmodern PCs
p515
sVhardware-long
p516
VPCs with one or more processors supporting PAE
p517
sVparts
p518
(lp519
Vpae
p520
ass(Vbase
p521
g459
Vnone
p522
tp523
(dp524
Vflavours
p525
(lp526
V686
p527
aV686-pae
p528
ass(Vbase
p529
g459
Vrt
p530
tp531
(dp532
Vflavours
p533
(lp534
V686-pae
p535
ass(Vbase
p536
Via64
p537
tp538
(dp539
Vkernel-arch
p540
Via64
p541
sg150
(lp542
g152
ass(Vbuild
p543
g537
tp544
(dp545
Vimage-file
p546
Vvmlinux.gz
p547
ss(Vimage
p548
g537
tp549
(dp550
Vbootloaders
p551
(lp552
Velilo
p553
asVinstall-stem
p554
Vvmlinuz
p555
ss(Vdescription
p556
g537
NVitanium
p557
tp558
(dp559
Vhardware
p560
VItanium (Merced)
p561
sVhardware-long
p562
Vsystems with original Itanium (Merced) processors
p563
ss(Vdescription
p564
g537
NVmckinley
p565
tp566
(dp567
Vhardware
p568
VItanium 2+
p569
sVhardware-long
p570
Vsystems with Itanium 2 or 9300/9500/9700-series processors
p571
ss(g181
g537
g152
tp572
(dp573
g184
(lp574
Vitanium
p575
aVmckinley
p576
asg188
I01
ss(Vbase
p577
Vm68k
p578
tp579
(dp580
Vcflags
p581
V-ffreestanding
p582
sVkernel-arch
p583
Vm68k
p584
sg150
(lp585
g152
ass(Vbuild
p586
g578
tp587
(dp588
Vimage-file
p589
Vvmlinux
p590
ss(Vimage
p591
g578
tp592
(dp593
Vsuggests
p594
Vvmelilo, fdutils
p595
sVinstall-stem
p596
Vvmlinux
p597
ss(Vdescription
p598
g578
NVm68k
p599
tp600
(dp601
Vhardware
p602
VMotorola MC68020+ family
p603
ss(g181
g578
g152
tp604
(dp605
g184
(lp606
Vm68k
p607
asg188
I01
ss(Vbase
p608
Vmips
p609
tp610
(dp611
Vkernel-arch
p612
Vmips
p613
sg150
(lp614
g152
ass(Vbuild
p615
g609
tp616
(dp617
Vimage-file
p618
Vvmlinux
p619
ss(Vimage
p620
g609
tp621
(dp622
Vinstall-stem
p623
Vvmlinux
p624
ss(Vdescription
p625
g609
NV4kc-malta
p626
tp627
(dp628
Vhardware
p629
VMIPS Malta
p630
sVhardware-long
p631
VMIPS Malta boards
p632
ss(Vimage
p633
g609
NV4kc-malta
p634
tp635
(dp636
Vconfigs
p637
(lp638
Vkernelarch-mips/config.malta
p639
aVkernelarch-mips/config.mips32r2
p640
ass(Vdescription
p641
g609
NV5kc-malta
p642
tp643
(dp644
Vhardware
p645
VMIPS Malta (64-bit)
p646
sVhardware-long
p647
VMIPS Malta boards (64-bit)
p648
ss(Vimage
p649
g609
NV5kc-malta
p650
tp651
(dp652
Vconfigs
p653
(lp654
Vkernelarch-mips/config.malta
p655
aVkernelarch-mips/config.mips64r2
p656
ass(Vdescription
p657
g609
NVocteon
p658
tp659
(dp660
Vhardware
p661
VOcteon
p662
sVhardware-long
p663
VCavium Networks Octeon
p664
ss(Vimage
p665
g609
NVocteon
p666
tp667
(dp668
Vconfigs
p669
(lp670
Vkernelarch-mips/config.octeon
p671
ass(g181
g609
g152
tp672
(dp673
g184
(lp674
V4kc-malta
p675
aV5kc-malta
p676
aVocteon
p677
asg188
I01
ss(Vbase
p678
Vmips64
p679
tp680
(dp681
Vkernel-arch
p682
Vmips
p683
sg150
(lp684
g152
ass(Vbuild
p685
g679
tp686
(dp687
Vimage-file
p688
Vvmlinux
p689
ss(Vimage
p690
g679
tp691
(dp692
Vinstall-stem
p693
Vvmlinux
p694
ss(Vdescription
p695
g679
NV5kc-malta
p696
tp697
(dp698
Vhardware
p699
VMIPS Malta
p700
sVhardware-long
p701
VMIPS Malta boards
p702
ss(Vimage
p703
g679
NV5kc-malta
p704
tp705
(dp706
Vconfigs
p707
(lp708
Vkernelarch-mips/config.malta
p709
aVkernelarch-mips/config.mips64r2
p710
ass(Vdescription
p711
g679
NVocteon
p712
tp713
(dp714
Vhardware
p715
VOcteon
p716
sVhardware-long
p717
VCavium Networks Octeon
p718
ss(Vimage
p719
g679
NVocteon
p720
tp721
(dp722
Vconfigs
p723
(lp724
Vkernelarch-mips/config.octeon
p725
ass(g181
g679
g152
tp726
(dp727
g184
(lp728
V5kc-malta
p729
aVocteon
p730
asg188
I01
ss(Vbase
p731
Vmips64el
p732
tp733
(dp734
Vkernel-arch
p735
Vmips
p736
sg150
(lp737
g152
ass(Vbuild
p738
g732
tp739
(dp740
Vimage-file
p741
Vvmlinux
p742
ss(Vimage
p743
g732
tp744
(dp745
Vinstall-stem
p746
Vvmlinux
p747
ss(Vdescription
p748
g732
NV5kc-malta
p749
tp750
(dp751
Vhardware
p752
VMIPS Malta
p753
sVhardware-long
p754
VMIPS Malta boards
p755
ss(Vimage
p756
g732
NV5kc-malta
p757
tp758
(dp759
Vconfigs
p760
(lp761
Vkernelarch-mips/config.malta
p762
aVkernelarch-mips/config.mips64r2
p763
ass(Vdescription
p764
g732
NVloongson-3
p765
tp766
(dp767
Vhardware
p768
VLoongson 3A/3B
p769
sVhardware-long
p770
VLoongson 3A or 3B based systems (e.g. from Loongson or Lemote)
p771
ss(Vimage
p772
g732
NVloongson-3
p773
tp774
(dp775
Vconfigs
p776
(lp777
Vkernelarch-mips/config.loongson-3
p778
ass(Vdescription
p779
g732
NVocteon
p780
tp781
(dp782
Vhardware
p783
VOcteon
p784
sVhardware-long
p785
VCavium Networks Octeon
p786
ss(Vimage
p787
g732
NVocteon
p788
tp789
(dp790
Vconfigs
p791
(lp792
Vkernelarch-mips/config.octeon
p793
ass(g181
g732
g152
tp794
(dp795
g184
(lp796
V5kc-malta
p797
aVloongson-3
p798
aVocteon
p799
asg188
I01
ss(Vbase
p800
Vmips64r6
p801
tp802
(dp803
Vkernel-arch
p804
Vmips
p805
sg150
(lp806
g152
ass(Vbuild
p807
g801
tp808
(dp809
Vimage-file
p810
Vvmlinux
p811
ss(Vimage
p812
g801
tp813
(dp814
Vinstall-stem
p815
Vvmlinux
p816
ss(Vdescription
p817
g801
NVmips64r6
p818
tp819
(dp820
Vhardware
p821
VMIPS R6 (64 bit, big endian)
p822
sVhardware-long
p823
VMIPS R6 (64 bit, big endian)
p824
ss(Vimage
p825
g801
NVmips64r6
p826
tp827
(dp828
Vconfigs
p829
(lp830
Vkernelarch-mips/config.malta
p831
aVkernelarch-mips/config.mips64r6
p832
ass(g181
g801
g152
tp833
(dp834
g184
(lp835
Vmips64r6
p836
asg188
I01
ss(Vbase
p837
Vmips64r6el
p838
tp839
(dp840
Vkernel-arch
p841
Vmips
p842
sg150
(lp843
g152
ass(Vbuild
p844
g838
tp845
(dp846
Vimage-file
p847
Vvmlinux
p848
ss(Vimage
p849
g838
tp850
(dp851
Vinstall-stem
p852
Vvmlinux
p853
ss(Vdescription
p854
g838
NVmips64r6el
p855
tp856
(dp857
Vhardware
p858
VMIPS R6 (64 bit, little endian)
p859
sVhardware-long
p860
VMIPS R6 (64 bit, little endian)
p861
ss(Vimage
p862
g838
NVmips64r6el
p863
tp864
(dp865
Vconfigs
p866
(lp867
Vkernelarch-mips/config.malta
p868
aVkernelarch-mips/config.mips64r6
p869
ass(g181
g838
g152
tp870
(dp871
g184
(lp872
Vmips64r6el
p873
asg188
I01
ss(Vbase
p874
Vmipsel
p875
tp876
(dp877
Vkernel-arch
p878
Vmips
p879
sg150
(lp880
g152
ass(Vbuild
p881
g875
tp882
(dp883
Vimage-file
p884
Vvmlinux
p885
ss(Vimage
p886
g875
tp887
(dp888
Vinstall-stem
p889
Vvmlinux
p890
ss(Vdescription
p891
g875
NV4kc-malta
p892
tp893
(dp894
Vhardware
p895
VMIPS Malta
p896
sVhardware-long
p897
VMIPS Malta boards
p898
ss(Vimage
p899
g875
NV4kc-malta
p900
tp901
(dp902
Vconfigs
p903
(lp904
Vkernelarch-mips/config.malta
p905
aVkernelarch-mips/config.mips32r2
p906
ass(Vdescription
p907
g875
NV5kc-malta
p908
tp909
(dp910
Vhardware
p911
VMIPS Malta (64-bit)
p912
sVhardware-long
p913
VMIPS Malta boards (64-bit)
p914
ss(Vimage
p915
g875
NV5kc-malta
p916
tp917
(dp918
Vconfigs
p919
(lp920
Vkernelarch-mips/config.malta
p921
aVkernelarch-mips/config.mips64r2
p922
ass(Vdescription
p923
g875
NVloongson-3
p924
tp925
(dp926
Vhardware
p927
VLoongson 3A/3B
p928
sVhardware-long
p929
VLoongson 3A or 3B based systems (e.g. from Loongson or Lemote)
p930
ss(Vimage
p931
g875
NVloongson-3
p932
tp933
(dp934
Vconfigs
p935
(lp936
Vkernelarch-mips/config.loongson-3
p937
ass(Vdescription
p938
g875
NVocteon
p939
tp940
(dp941
Vhardware
p942
VOcteon
p943
sVhardware-long
p944
VCavium Networks Octeon
p945
ss(Vimage
p946
g875
NVocteon
p947
tp948
(dp949
Vconfigs
p950
(lp951
Vkernelarch-mips/config.octeon
p952
ass(g181
g875
g152
tp953
(dp954
g184
(lp955
V4kc-malta
p956
aV5kc-malta
p957
aVloongson-3
p958
aVocteon
p959
asg188
I01
ss(Vbase
p960
Vmipsn32
p961
tp962
(dp963
Vkernel-arch
p964
Vmips
p965
sVfeaturesets
p966
(lp967
ss(Vbase
p968
Vmipsn32el
p969
tp970
(dp971
Vkernel-arch
p972
Vmips
p973
sVfeaturesets
p974
(lp975
ss(Vbase
p976
Vmipsn32r6
p977
tp978
(dp979
Vkernel-arch
p980
Vmips
p981
sVfeaturesets
p982
(lp983
ss(Vbase
p984
Vmipsn32r6el
p985
tp986
(dp987
Vkernel-arch
p988
Vmips
p989
sVfeaturesets
p990
(lp991
ss(Vbase
p992
Vmipsr6
p993
tp994
(dp995
Vkernel-arch
p996
Vmips
p997
sg150
(lp998
g152
ass(Vbuild
p999
g993
tp1000
(dp1001
Vimage-file
p1002
Vvmlinux
p1003
ss(Vimage
p1004
g993
tp1005
(dp1006
Vinstall-stem
p1007
Vvmlinux
p1008
ss(Vdescription
p1009
g993
NVmips32r6
p1010
tp1011
(dp1012
Vhardware
p1013
VMIPS R6 (32 bit, big endian)
p1014
sVhardware-long
p1015
VMIPS R6 (32 bit, big endian)
p1016
ss(Vimage
p1017
g993
NVmips32r6
p1018
tp1019
(dp1020
Vconfigs
p1021
(lp1022
Vkernelarch-mips/config.malta
p1023
aVkernelarch-mips/config.mips32r6
p1024
ass(Vdescription
p1025
g993
NVmips64r6
p1026
tp1027
(dp1028
Vhardware
p1029
VMIPS R6 (64 bit, big endian)
p1030
sVhardware-long
p1031
VMIPS R6 (64 bit, big endian)
p1032
ss(Vimage
p1033
g993
NVmips64r6
p1034
tp1035
(dp1036
Vconfigs
p1037
(lp1038
Vkernelarch-mips/config.malta
p1039
aVkernelarch-mips/config.mips64r6
p1040
ass(g181
g993
g152
tp1041
(dp1042
g184
(lp1043
Vmips32r6
p1044
aVmips64r6
p1045
asg188
I01
ss(Vbase
p1046
Vmipsr6el
p1047
tp1048
(dp1049
Vkernel-arch
p1050
Vmips
p1051
sg150
(lp1052
g152
ass(Vbuild
p1053
g1047
tp1054
(dp1055
Vimage-file
p1056
Vvmlinux
p1057
ss(Vimage
p1058
g1047
tp1059
(dp1060
Vinstall-stem
p1061
Vvmlinux
p1062
ss(Vdescription
p1063
g1047
NVmips32r6el
p1064
tp1065
(dp1066
Vhardware
p1067
VMIPS R6 (32 bit, little endian)
p1068
sVhardware-long
p1069
VMIPS R6 (32 bit, little endian)
p1070
ss(Vimage
p1071
g1047
NVmips32r6el
p1072
tp1073
(dp1074
Vconfigs
p1075
(lp1076
Vkernelarch-mips/config.malta
p1077
aVkernelarch-mips/config.mips32r6
p1078
ass(Vdescription
p1079
g1047
NVmips64r6el
p1080
tp1081
(dp1082
Vhardware
p1083
VMIPS R6 (64 bit, little endian)
p1084
sVhardware-long
p1085
VMIPS R6 (64 bit, little endian)
p1086
ss(Vimage
p1087
g1047
NVmips64r6el
p1088
tp1089
(dp1090
Vconfigs
p1091
(lp1092
Vkernelarch-mips/config.malta
p1093
aVkernelarch-mips/config.mips64r6
p1094
ass(g181
g1047
g152
tp1095
(dp1096
g184
(lp1097
Vmips32r6el
p1098
aVmips64r6el
p1099
asg188
I01
ss(Vbase
p1100
Vpowerpc
p1101
tp1102
(dp1103
Vkernel-arch
p1104
Vpowerpc
p1105
sg150
(lp1106
g152
ass(Vbuild
p1107
g1101
tp1108
(dp1109
Vimage-file
p1110
Vvmlinux
p1111
sVvdso
p1112
I01
ss(Vimage
p1113
g1101
tp1114
(dp1115
Vconfigs
p1116
(lp1117
sVsuggests
p1118
Vmkvmlinuz
p1119
sVinstall-stem
p1120
Vvmlinux
p1121
ss(Vdescription
p1122
g1101
NVpowerpc
p1123
tp1124
(dp1125
Vhardware
p1126
Vuniprocessor 32-bit PowerPC
p1127
ss(Vdescription
p1128
g1101
NVpowerpc-smp
p1129
tp1130
(dp1131
Vhardware
p1132
Vmultiprocessor 32-bit PowerPC
p1133
ss(Vimage
p1134
g1101
NVpowerpc-smp
p1135
tp1136
(dp1137
Vconfigs
p1138
(lp1139
Vpowerpc/config.powerpc
p1140
aVpowerpc/config.powerpc-smp
p1141
ass(Vdescription
p1142
g1101
NVpowerpc64
p1143
tp1144
(dp1145
Vhardware
p1146
V64-bit PowerPC
p1147
ss(Vimage
p1148
g1101
NVpowerpc64
p1149
tp1150
(dp1151
Vconfigs
p1152
(lp1153
Vkernelarch-powerpc/config-arch-64
p1154
aVkernelarch-powerpc/config-arch-64-be
p1155
ass(g181
g1101
g152
tp1156
(dp1157
g184
(lp1158
Vpowerpc
p1159
aVpowerpc-smp
p1160
aVpowerpc64
p1161
asg188
I01
ss(Vbase
p1162
Vpowerpcspe
p1163
tp1164
(dp1165
Vkernel-arch
p1166
Vpowerpc
p1167
sg150
(lp1168
g152
ass(Vbuild
p1169
g1163
tp1170
(dp1171
Vimage-file
p1172
Vvmlinux
p1173
sVvdso
p1174
I01
ss(Vimage
p1175
g1163
tp1176
(dp1177
Vsuggests
p1178
Vmkvmlinuz
p1179
sVinstall-stem
p1180
Vvmlinux
p1181
ss(Vdescription
p1182
g1163
tp1183
(dp1184
Vhardware
p1185
V32-bit PowerPC with SPE (instead of AltiVec) with SMP support
p1186
ss(g181
g1163
g152
tp1187
(dp1188
g184
(lp1189
Vpowerpcspe
p1190
asg188
I01
ss(Vbase
p1191
Vppc64
p1192
tp1193
(dp1194
Vkernel-arch
p1195
Vpowerpc
p1196
sg150
(lp1197
g152
ass(Vbuild
p1198
g1192
tp1199
(dp1200
Vimage-file
p1201
Vvmlinux
p1202
sVvdso
p1203
I01
ss(Vimage
p1204
g1192
tp1205
(dp1206
Vconfigs
p1207
(lp1208
sVsuggests
p1209
Vmkvmlinuz
p1210
sVinstall-stem
p1211
Vvmlinux
p1212
ss(Vdescription
p1213
g1192
NVpowerpc64
p1214
tp1215
(dp1216
Vhardware
p1217
V64-bit PowerPC
p1218
ss(Vimage
p1219
g1192
NVpowerpc64
p1220
tp1221
(dp1222
Vconfigs
p1223
(lp1224
Vkernelarch-powerpc/config-arch-64
p1225
aVkernelarch-powerpc/config-arch-64-be
p1226
ass(g181
g1192
g152
tp1227
(dp1228
g184
(lp1229
Vpowerpc64
p1230
asg188
I01
ss(Vbase
p1231
Vppc64el
p1232
tp1233
(dp1234
Vkernel-arch
p1235
Vpowerpc
p1236
sg150
(lp1237
g152
ass(Vbuild
p1238
g1232
tp1239
(dp1240
Vimage-file
p1241
Vvmlinux
p1242
sVvdso
p1243
I01
ss(Vimage
p1244
g1232
tp1245
(dp1246
Vconfigs
p1247
(lp1248
sVsuggests
p1249
Vmkvmlinuz
p1250
sVinstall-stem
p1251
Vvmlinux
p1252
ss(Vdescription
p1253
g1232
NVpowerpc64le
p1254
tp1255
(dp1256
Vhardware
p1257
VLittle-endian 64-bit PowerPC
p1258
ss(Vimage
p1259
g1232
NVpowerpc64le
p1260
tp1261
(dp1262
Vconfigs
p1263
(lp1264
Vkernelarch-powerpc/config-arch-64
p1265
aVkernelarch-powerpc/config-arch-64-le
p1266
ass(g181
g1232
g152
tp1267
(dp1268
g184
(lp1269
Vpowerpc64le
p1270
asg188
I01
ss(Vbase
p1271
Vs390
p1272
tp1273
(dp1274
Vkernel-arch
p1275
Vs390
p1276
sVfeaturesets
p1277
(lp1278
ss(Vbase
p1279
Vs390x
p1280
tp1281
(dp1282
Vkernel-arch
p1283
Vs390
p1284
sg150
(lp1285
g152
ass(Vbuild
p1286
g1280
tp1287
(dp1288
Vimage-file
p1289
Varch/s390/boot/image
p1290
sVvdso
p1291
I01
ss(Vimage
p1292
g1280
tp1293
(dp1294
Vbootloaders
p1295
(lp1296
Vs390-tools
p1297
asVinstall-stem
p1298
Vvmlinuz
p1299
ss(Vrelations
p1300
g1280
tp1301
(dp1302
Vheaders%gcc-7
p1303
Vlinux-compiler-gcc-7-s390
p1304
ss(Vbuild
p1305
g1280
NVs390x
p1306
tp1307
(dp1308
Vdebug-info
p1309
I01
ss(Vdescription
p1310
g1280
NVs390x
p1311
tp1312
(dp1313
Vhardware
p1314
VIBM zSeries
p1315
ss(g181
g1280
g152
tp1316
(dp1317
g184
(lp1318
Vs390x
p1319
asg188
I01
ss(Vbase
p1320
Vsh3
p1321
tp1322
(dp1323
Vkernel-arch
p1324
Vsh
p1325
sVfeaturesets
p1326
(lp1327
ss(Vbase
p1328
Vsh4
p1329
tp1330
(dp1331
Vkernel-arch
p1332
Vsh
p1333
sg150
(lp1334
g152
ass(Vbuild
p1335
g1329
tp1336
(dp1337
Vimage-file
p1338
Varch/sh/boot/zImage
p1339
ss(Vimage
p1340
g1329
tp1341
(dp1342
Vinstall-stem
p1343
Vvmlinuz
p1344
ss(Vdescription
p1345
g1329
NVsh7751r
p1346
tp1347
(dp1348
Vhardware
p1349
Vsh7751r
p1350
sVhardware-long
p1351
VRenesas SH7751R R2D plus board
p1352
ss(Vdescription
p1353
g1329
NVsh7785lcr
p1354
tp1355
(dp1356
Vhardware
p1357
Vsh7785lcr
p1358
sVhardware-long
p1359
VRenesas SH7785 reference board
p1360
ss(Vimage
p1361
g1329
NVsh7785lcr
p1362
tp1363
(dp1364
Vrecommends
p1365
Vu-boot-tools
p1366
sVcheck-size
p1367
L4194304L
ss(g181
g1329
g152
tp1368
(dp1369
g184
(lp1370
Vsh7751r
p1371
aVsh7785lcr
p1372
asg188
I01
ss(Vbase
p1373
Vsparc
p1374
tp1375
(dp1376
Vkernel-arch
p1377
Vsparc
p1378
sVfeaturesets
p1379
(lp1380
ss(Vbase
p1381
Vsparc64
p1382
tp1383
(dp1384
Vkernel-arch
p1385
Vsparc
p1386
sg150
(lp1387
g152
ass(Vbuild
p1388
g1382
tp1389
(dp1390
Vimage-file
p1391
Varch/sparc/boot/zImage
p1392
ss(Vimage
p1393
g1382
tp1394
(dp1395
Vconfigs
p1396
(lp1397
sVsuggests
p1398
Vsilo, fdutils
p1399
sVinstall-stem
p1400
Vvmlinuz
p1401
ss(Vdescription
p1402
g1382
NVsparc64
p1403
tp1404
(dp1405
Vhardware
p1406
Vuniprocessor 64-bit UltraSPARC
p1407
ss(Vimage
p1408
g1382
NVsparc64
p1409
tp1410
(dp1411
Vconfigs
p1412
(lp1413
Vkernelarch-sparc/config-up
p1414
ass(Vdescription
p1415
g1382
NVsparc64-smp
p1416
tp1417
(dp1418
Vhardware
p1419
Vmultiprocessor 64-bit UltraSPARC
p1420
ss(Vimage
p1421
g1382
NVsparc64-smp
p1422
tp1423
(dp1424
Vconfigs
p1425
(lp1426
Vkernelarch-sparc/config-smp
p1427
ass(g181
g1382
g152
tp1428
(dp1429
g184
(lp1430
Vsparc64
p1431
aVsparc64-smp
p1432
asg188
I01
ss(Vbase
p1433
Vtilegx
p1434
tp1435
(dp1436
Vkernel-arch
p1437
Vtile
p1438
sVfeaturesets
p1439
(lp1440
ss(Vbase
p1441
Vx32
p1442
tp1443
(dp1444
Vkernel-arch
p1445
Vx86
p1446
sVfeaturesets
p1447
(lp1448
ss(Vabi
p1449
NVrt
p1450
tp1451
(dp1452
Vignore-changes
p1453
(lp1454
V*
p1455
ass(Vdescription
p1456
Ng1450
tp1457
(dp1458
Vpart-long-rt
p1459
VThis kernel includes the PREEMPT_RT realtime patch set.
p1460
sVpart-short-rt
p1461
VPREEMPT_RT
p1462
sVparts
p1463
(lp1464
Vrt
p1465
ass(Vversion
p1466
tp1467
(dp1468
Vsource
p1469
V4.16.12-1
p1470
sVupstream
p1471
V4.16
p1472
sVabiname_base
p1473
V4.16.0
p1474
sVabiname
p1475
V4.16.0-2
p1476
ss.