cdebian_linux.config
ConfigCore
p0
(tRp1
(Vbase
p2
tp3
(dp4
Varches
p5
(lp6
Valpha
p7
aVamd64
p8
aVarm64
p9
aVarmel
p10
aVarmhf
p11
aVhppa
p12
aVi386
p13
aVm68k
p14
aVmips
p15
aVmipsel
p16
aVmipsn32
p17
aVmipsn32el
p18
aVmips64
p19
aVmips64el
p20
aVpowerpc
p21
aVpowerpcspe
p22
aVppc64
p23
aVppc64el
p24
aVs390
p25
aVs390x
p26
aVsh3
p27
aVsh4
p28
aVsparc
p29
aVsparc64
p30
aVtilegx
p31
aVx32
p32
asVfeaturesets
p33
(lp34
Vnone
p35
aVrt
p36
asVcompiler
p37
Vgcc-6
p38
ss(Vbuild
p39
tp40
(dp41
Vsigned-modules
p42
I00
sVdebug-info
p43
I01
ss(Vbase
p44
NVrt
p45
tp46
(dp47
Venabled
p48
I01
ss(Vdescription
p49
tp50
(dp51
Vpart-long-up
p52
VThis kernel is not suitable for SMP (multi-processor,\u000amulti-core or hyper-threaded) systems.
p53
sVpart-long-xen
p54
VThis kernel also runs on a Xen hypervisor.\u000aIt supports both privileged (dom0) and unprivileged (domU) operation.
p55
ss(Vrelations
p56
tp57
(dp58
Vinitramfs-tools
p59
Vinitramfs-tools (>= 0.120+deb8u2)
p60
sVgcc-6
p61
Vgcc-6 <!stage1 !cross>, gcc-6-@gnu-type-package@ <!stage1 cross>
p62
sVinitramfs-fallback
p63
Vlinux-initramfs-tool
p64
ss(Vimage
p65
tp66
(dp67
Vinitramfs-generators
p68
(lp69
Vinitramfs-tools
p70
aVinitramfs-fallback
p71
ass(Vabi
p72
tp73
(dp74
Vabiname
p75
Vparrot30
p76
sVignore-changes
p77
(lp78
V__cpuhp_*
p79
aVbpf_analyzer
p80
aVcxl_*
p81
aVmm_iommu_*
p82
aVregister_cxl_calls
p83
aVunregister_cxl_calls
p84
aVmodule:arch/x86/kvm/*
p85
aVmodule:drivers/crypto/ccp/*
p86
aVmodule:drivers/hv/*
p87
aVmodule:drivers/iio/common/hid-sensors/*
p88
aVmodule:drivers/iio/common/st_sensors/**
p89
aVmodule:drivers/net/wireless/**
p90
aVmodule:drivers/nvdimm/*
p91
aVmodule:drivers/power/supply/bq27xxx_battery
p92
aVmodule:drivers/scsi/cxgbi/*
p93
aVmodule:drivers/scsi/libiscs*
p94
aVmodule:drivers/scsi/qla2xxx/qla2xxx
p95
aVmodule:drivers/scsi/ufs/*
p96
aVmodule:drivers/target/**
p97
aVmodule:drivers/usb/chipidea/**
p98
aVmodule:drivers/usb/host/**
p99
aVmodule:drivers/usb/musb/**
p100
aVmodule:net/ceph/libceph
p101
aVmodule:net/l2tp/l2tp_core
p102
aVmodule:sound/firewire/snd-firewire-lib
p103
aVbtree_*
p104
aVvisitor*
p105
aVcan_rx_register
p106
aVip6_xmit
p107
aVmodule:net/dccp/dccp
p108
aVmodule:net/rds/rds
p109
aVdevfreq_*
p110
aVdevm_devfreq_*
p111
aVupdate_devfreq
p112
aVmodule:drivers/infiniband/**
p113
aVacpi_ec_add_query_handler
p114
aVacpi_ec_remove_query_handler
p115
aVfirst_ec
p116
aVdebugfs_create_automount
p117
ass(Vbase
p118
Valpha
p119
tp120
(dp121
Vfeaturesets
p122
(lp123
Vnone
p124
asVkernel-arch
p125
Valpha
p126
ss(Vdescription
p127
g119
NValpha-smp
p128
tp129
(dp130
Vhardware
p131
VAlpha SMP
p132
sVhardware-long
p133
VDEC Alpha SMP systems with extended kernel start address (Wildfire, Titan, Marvel)
p134
ss(Vbuild
p135
g119
tp136
(dp137
Vsigned-modules
p138
I00
sVimage-file
p139
Varch/alpha/boot/vmlinux.gz
p140
ss(Vdescription
p141
g119
NValpha-generic
p142
tp143
(dp144
Vhardware
p145
VAlpha
p146
sVhardware-long
p147
VDEC Alpha systems with extended kernel start address (Wildfire, Titan, Marvel)
p148
ss(Vimage
p149
g119
tp150
(dp151
Vsuggests
p152
Vaboot, fdutils
p153
sVinstall-stem
p154
Vvmlinuz
p155
ss(Vbase
p156
g119
g124
tp157
(dp158
Vflavours
p159
(lp160
Valpha-generic
p161
aValpha-smp
p162
asVimplicit-flavour
p163
I01
ss(Vbase
p164
Vamd64
p165
tp166
(dp167
Vfeaturesets
p168
(lp169
Vnone
p170
aVrt
p171
asVkernel-arch
p172
Vx86
p173
ss(Vdescription
p174
g165
NVamd64
p175
tp176
(dp177
Vhardware
p178
V64-bit PCs
p179
sVhardware-long
p180
VPCs with AMD64, Intel 64 or VIA Nano processors
p181
ss(Vbuild
p182
g165
tp183
(dp184
Vvdso
p185
I01
sVimage-file
p186
Varch/x86/boot/bzImage
p187
sVdebug-info
p188
I01
sVsigned-modules
p189
I00
ss(Vrelations
p190
g165
tp191
(dp192
Vheaders%gcc-6
p193
Vlinux-compiler-gcc-6-x86
p194
ss(Vimage
p195
g165
tp196
(dp197
Vbreaks
p198
Vxserver-xorg-input-vmmouse (<< 1:13.0.99)
p199
sVinstall-stem
p200
Vvmlinuz
p201
sVbootloaders
p202
(lp203
Vgrub-pc
p204
aVgrub-efi-amd64
p205
aVextlinux
p206
ass(Vbase
p207
g165
Vnone
p208
tp209
(dp210
Vflavours
p211
(lp212
Vamd64
p213
ass(Vdescription
p214
g165
g208
Vamd64
p215
tp216
(dp217
Vparts
p218
(lp219
Vxen
p220
ass(Vbase
p221
g165
Vrt
p222
tp223
(dp224
Vflavours
p225
(lp226
Vamd64
p227
ass(Vbase
p228
Varm64
p229
tp230
(dp231
Vfeaturesets
p232
(lp233
Vnone
p234
asVkernel-arch
p235
Varm64
p236
ss(Vdescription
p237
g229
NVarm64
p238
tp239
(dp240
Vhardware
p241
V64-bit ARMv8 machines
p242
ss(Vbuild
p243
g229
tp244
(dp245
Vvdso
p246
I01
sVimage-file
p247
Varch/arm64/boot/Image
p248
sVdebug-info
p249
I01
sVsigned-modules
p250
I00
ss(Vimage
p251
g229
NVarm64
p252
tp253
(dp254
s(Vimage
p255
g229
tp256
(dp257
Vbreaks
p258
Vlibmozjs185-1.0, libmozjs-24-0 (<< 24.2.0-5.1~)
p259
sVinstall-stem
p260
Vvmlinuz
p261
ss(Vbase
p262
g229
Vnone
p263
tp264
(dp265
Vflavours
p266
(lp267
Varm64
p268
ass(Vbase
p269
Varmel
p270
tp271
(dp272
g122
(lp273
g124
asVkernel-arch
p274
Varm
p275
ss(Vbuild
p276
g270
tp277
(dp278
Vsigned-modules
p279
I00
sVimage-file
p280
Varch/arm/boot/zImage
p281
ss(Vimage
p282
g270
NVmarvell
p283
tp284
(dp285
Vrecommends
p286
Vu-boot-tools
p287
sVbreaks
p288
Vflash-kernel (<< 3.57~)
p289
sVcheck-size-with-dtb
p290
I01
sVcheck-size
p291
L2097080L
ss(Vdescription
p292
g270
NVmarvell
p293
tp294
(dp295
Vhardware
p296
VMarvell Kirkwood/Orion
p297
sVhardware-long
p298
VMarvell Kirkwood based systems (SheevaPlug, QNAP TS-119/TS-219, etc)\u000aand Orion 5181, 5182 and 5281 based systems (QNAP TS-109/TS-209, etc)
p299
ss(Vrelations
p300
g270
tp301
(dp302
Vheaders%gcc-6
p303
Vlinux-compiler-gcc-6-arm
p304
ss(Vimage
p305
g270
tp306
(dp307
Vinstall-stem
p308
Vvmlinuz
p309
ss(g156
g270
g124
tp310
(dp311
g159
(lp312
Vmarvell
p313
asg163
I01
ss(Vbase
p314
Varmhf
p315
tp316
(dp317
g122
(lp318
g124
asVkernel-arch
p319
Varm
p320
ss(Vdescription
p321
g315
NVarmmp
p322
tp323
(dp324
Vhardware
p325
VARMv7 multiplatform compatible SoCs
p326
sVhardware-long
p327
VARMv7 multiplatform kernel. See\u000ahttps://wiki.debian.org/DebianKernel/ARMMP for details of supported\u000aplatforms
p328
ss(Vbuild
p329
g315
tp330
(dp331
Vvdso
p332
I01
sVimage-file
p333
Varch/arm/boot/zImage
p334
sVsigned-modules
p335
I00
ss(Vdescription
p336
g315
NVarmmp-lpae
p337
tp338
(dp339
Vhardware
p340
VARMv7 multiplatform compatible SoCs supporting LPAE
p341
sVhardware-long
p342
VARMv7 multiplatform kernel supporting LPAE. See\u000ahttps://wiki.debian.org/DebianKernel/ARMMP for details of supported\u000aplatforms.
p343
ss(Vrelations
p344
g315
tp345
(dp346
Vheaders%gcc-6
p347
Vlinux-compiler-gcc-6-arm
p348
ss(Vimage
p349
g315
tp350
(dp351
Vinstall-stem
p352
Vvmlinuz
p353
ss(g156
g315
g124
tp354
(dp355
g159
(lp356
Varmmp
p357
aVarmmp-lpae
p358
asg163
I01
ss(Vbase
p359
Vhppa
p360
tp361
(dp362
g122
(lp363
g124
asVkernel-arch
p364
Vparisc
p365
ss(Vbuild
p366
g360
tp367
(dp368
Vsigned-modules
p369
I00
sVimage-file
p370
Vvmlinux
p371
ss(Vdescription
p372
g360
NVparisc64-smp
p373
tp374
(dp375
Vhardware
p376
Vmultiprocessor 64-bit PA-RISC
p377
sVhardware-long
p378
VHP PA-RISC 64-bit SMP systems with support for more than 4 GB RAM
p379
ss(Vbase
p380
g360
NVparisc64-smp
p381
tp382
(dp383
Vcflags
p384
V-fno-cse-follow-jumps
p385
sVoverride-host-type
p386
Vhppa64-linux-gnu
p387
ss(Vrelations
p388
g360
tp389
(dp390
Vgcc-6
p391
Vgcc-6 <!stage1 !cross>, binutils-hppa64-linux-gnu <!stage1 !cross>, gcc-6-hppa64-linux-gnu <!stage1 !cross>, gcc-6-hppa-linux-gnu <!stage1 cross>, binutils-hppa64-linux-gnu <!stage1 cross>, gcc-6-hppa64-linux-gnu <!stage1 cross>
p392
ss(Vdescription
p393
g360
NVparisc
p394
tp395
(dp396
Vhardware
p397
V32-bit PA-RISC
p398
sVhardware-long
p399
VHP PA-RISC 32-bit systems with max 4 GB RAM
p400
ss(Vimage
p401
g360
tp402
(dp403
Vsuggests
p404
Vpalo
p405
sVinstall-stem
p406
Vvmlinux
p407
ss(g156
g360
g124
tp408
(dp409
g159
(lp410
Vparisc
p411
aVparisc64-smp
p412
asg163
I01
ss(Vbase
p413
Vi386
p414
tp415
(dp416
Vfeaturesets
p417
(lp418
Vnone
p419
aVrt
p420
asVkernel-arch
p421
Vx86
p422
ss(Vbuild
p423
g414
tp424
(dp425
Vvdso
p426
I01
sVimage-file
p427
Varch/x86/boot/bzImage
p428
sVsigned-modules
p429
I00
ss(Vdescription
p430
g414
NV686-pae
p431
tp432
(dp433
Vhardware
p434
Vmodern PCs
p435
sVhardware-long
p436
VPCs with one or more processors supporting PAE
p437
sVparts
p438
(lp439
Vpae
p440
ass(Vdescription
p441
g414
tp442
(dp443
Vpart-long-pae
p444
VThis kernel requires PAE (Physical Address Extension).\u000aThis feature is supported by the Intel Pentium Pro/II/III/4/4M/D, Xeon,\u000aCore and Atom; AMD Geode NX, Athlon (K7), Duron, Opteron, Sempron,\u000aTurion or Phenom; Transmeta Efficeon; VIA C7; and some other processors.
p445
ss(Vbuild
p446
g414
NV686-pae
p447
tp448
(dp449
Vdebug-info
p450
I01
ss(Vdescription
p451
g414
NV686
p452
tp453
(dp454
Vhardware
p455
Volder PCs
p456
sVhardware-long
p457
VPCs with one or more processors not supporting PAE
p458
ss(Vrelations
p459
g414
tp460
(dp461
Vheaders%gcc-6
p462
Vlinux-compiler-gcc-6-x86
p463
ss(Vimage
p464
g414
tp465
(dp466
Vbreaks
p467
Vxserver-xorg-input-vmmouse (<< 1:13.0.99)
p468
sVinstall-stem
p469
Vvmlinuz
p470
sVbootloaders
p471
(lp472
Vgrub-pc
p473
aVextlinux
p474
ass(Vbase
p475
g414
Vnone
p476
tp477
(dp478
Vflavours
p479
(lp480
V686
p481
aV686-pae
p482
ass(Vdescription
p483
g414
g476
V686-pae
p484
tp485
(dp486
Vparts
p487
(lp488
Vxen
p489
ass(Vbase
p490
g414
Vrt
p491
tp492
(dp493
Vflavours
p494
(lp495
V686-pae
p496
ass(Vbase
p497
Vm68k
p498
tp499
(dp500
Vcflags
p501
V-ffreestanding
p502
sg122
(lp503
g124
asVkernel-arch
p504
Vm68k
p505
ss(Vbuild
p506
g498
tp507
(dp508
Vsigned-modules
p509
I00
sVimage-file
p510
Vvmlinux.gz
p511
ss(Vdescription
p512
g498
NVm68k
p513
tp514
(dp515
Vhardware
p516
VMotorola MC68020+ family
p517
ss(Vimage
p518
g498
tp519
(dp520
Vsuggests
p521
Vvmelilo, fdutils
p522
sVinstall-stem
p523
Vvmlinuz
p524
ss(g156
g498
g124
tp525
(dp526
g159
(lp527
Vm68k
p528
asg163
I01
ss(Vbase
p529
Vmips
p530
tp531
(dp532
g122
(lp533
g124
asVkernel-arch
p534
Vmips
p535
ss(Vbuild
p536
g530
tp537
(dp538
Vsigned-modules
p539
I00
sVimage-file
p540
Vvmlinux
p541
ss(Vimage
p542
g530
NV4kc-malta
p543
tp544
(dp545
Vconfigs
p546
(lp547
Vkernelarch-mips/config.malta
p548
aVkernelarch-mips/config.mips32r2
p549
ass(Vimage
p550
g530
NV5kc-malta
p551
tp552
(dp553
Vconfigs
p554
(lp555
Vkernelarch-mips/config.malta
p556
aVkernelarch-mips/config.mips64r2
p557
ass(Vdescription
p558
g530
NVocteon
p559
tp560
(dp561
Vhardware
p562
VOcteon
p563
sVhardware-long
p564
VCavium Networks Octeon
p565
ss(Vimage
p566
g530
NVocteon
p567
tp568
(dp569
Vconfigs
p570
(lp571
Vkernelarch-mips/config.octeon
p572
ass(Vimage
p573
g530
tp574
(dp575
Vinstall-stem
p576
Vvmlinux
p577
ss(Vdescription
p578
g530
NV5kc-malta
p579
tp580
(dp581
Vhardware
p582
VMIPS Malta (64-bit)
p583
sVhardware-long
p584
VMIPS Malta boards (64-bit)
p585
ss(Vdescription
p586
g530
NV4kc-malta
p587
tp588
(dp589
Vhardware
p590
VMIPS Malta
p591
sVhardware-long
p592
VMIPS Malta boards
p593
ss(g156
g530
g124
tp594
(dp595
g159
(lp596
V4kc-malta
p597
aV5kc-malta
p598
aVocteon
p599
asg163
I01
ss(Vbase
p600
Vmipsel
p601
tp602
(dp603
g122
(lp604
g124
asVkernel-arch
p605
Vmips
p606
ss(Vimage
p607
g601
NVloongson-3
p608
tp609
(dp610
Vconfigs
p611
(lp612
Vkernelarch-mips/config.loongson-3
p613
ass(Vbuild
p614
g601
tp615
(dp616
Vsigned-modules
p617
I00
sVimage-file
p618
Vvmlinux
p619
ss(Vimage
p620
g601
NV4kc-malta
p621
tp622
(dp623
Vconfigs
p624
(lp625
Vkernelarch-mips/config.malta
p626
aVkernelarch-mips/config.mips32r2
p627
ass(Vimage
p628
g601
NV5kc-malta
p629
tp630
(dp631
Vconfigs
p632
(lp633
Vkernelarch-mips/config.malta
p634
aVkernelarch-mips/config.mips64r2
p635
ass(Vdescription
p636
g601
NVocteon
p637
tp638
(dp639
Vhardware
p640
VOcteon
p641
sVhardware-long
p642
VCavium Networks Octeon
p643
ss(Vdescription
p644
g601
NVloongson-3
p645
tp646
(dp647
Vhardware
p648
VLoongson 3A/3B
p649
sVhardware-long
p650
VLoongson 3A or 3B based systems (e.g. from Loongson or Lemote)
p651
ss(Vimage
p652
g601
NVocteon
p653
tp654
(dp655
Vconfigs
p656
(lp657
Vkernelarch-mips/config.octeon
p658
ass(Vimage
p659
g601
tp660
(dp661
Vinstall-stem
p662
Vvmlinux
p663
ss(Vdescription
p664
g601
NV5kc-malta
p665
tp666
(dp667
Vhardware
p668
VMIPS Malta (64-bit)
p669
sVhardware-long
p670
VMIPS Malta boards (64-bit)
p671
ss(Vdescription
p672
g601
NV4kc-malta
p673
tp674
(dp675
Vhardware
p676
VMIPS Malta
p677
sVhardware-long
p678
VMIPS Malta boards
p679
ss(g156
g601
g124
tp680
(dp681
g159
(lp682
V4kc-malta
p683
aV5kc-malta
p684
aVloongson-3
p685
aVocteon
p686
asg163
I01
ss(Vbase
p687
Vmipsn32
p688
tp689
(dp690
Vfeaturesets
p691
(lp692
sVkernel-arch
p693
Vmips
p694
ss(Vbase
p695
Vmipsn32el
p696
tp697
(dp698
Vfeaturesets
p699
(lp700
sVkernel-arch
p701
Vmips
p702
ss(Vbase
p703
Vmips64
p704
tp705
(dp706
g122
(lp707
g124
asVkernel-arch
p708
Vmips
p709
ss(Vbuild
p710
g704
tp711
(dp712
Vsigned-modules
p713
I00
sVimage-file
p714
Vvmlinux
p715
ss(Vimage
p716
g704
NV5kc-malta
p717
tp718
(dp719
Vconfigs
p720
(lp721
Vkernelarch-mips/config.malta
p722
aVkernelarch-mips/config.mips64r2
p723
ass(Vdescription
p724
g704
NVocteon
p725
tp726
(dp727
Vhardware
p728
VOcteon
p729
sVhardware-long
p730
VCavium Networks Octeon
p731
ss(Vimage
p732
g704
tp733
(dp734
Vinstall-stem
p735
Vvmlinux
p736
ss(Vdescription
p737
g704
NV5kc-malta
p738
tp739
(dp740
Vhardware
p741
VMIPS Malta
p742
sVhardware-long
p743
VMIPS Malta boards
p744
ss(Vimage
p745
g704
NVocteon
p746
tp747
(dp748
Vconfigs
p749
(lp750
Vkernelarch-mips/config.octeon
p751
ass(g156
g704
g124
tp752
(dp753
g159
(lp754
V5kc-malta
p755
aVocteon
p756
asg163
I01
ss(Vbase
p757
Vmips64el
p758
tp759
(dp760
g122
(lp761
g124
asVkernel-arch
p762
Vmips
p763
ss(Vimage
p764
g758
NVloongson-3
p765
tp766
(dp767
Vconfigs
p768
(lp769
Vkernelarch-mips/config.loongson-3
p770
ass(Vbuild
p771
g758
tp772
(dp773
Vsigned-modules
p774
I00
sVimage-file
p775
Vvmlinux
p776
ss(Vimage
p777
g758
NV5kc-malta
p778
tp779
(dp780
Vconfigs
p781
(lp782
Vkernelarch-mips/config.malta
p783
aVkernelarch-mips/config.mips64r2
p784
ass(Vdescription
p785
g758
NVocteon
p786
tp787
(dp788
Vhardware
p789
VOcteon
p790
sVhardware-long
p791
VCavium Networks Octeon
p792
ss(Vdescription
p793
g758
NVloongson-3
p794
tp795
(dp796
Vhardware
p797
VLoongson 3A/3B
p798
sVhardware-long
p799
VLoongson 3A or 3B based systems (e.g. from Loongson or Lemote)
p800
ss(Vimage
p801
g758
tp802
(dp803
Vinstall-stem
p804
Vvmlinux
p805
ss(Vdescription
p806
g758
NV5kc-malta
p807
tp808
(dp809
Vhardware
p810
VMIPS Malta
p811
sVhardware-long
p812
VMIPS Malta boards
p813
ss(Vimage
p814
g758
NVocteon
p815
tp816
(dp817
Vconfigs
p818
(lp819
Vkernelarch-mips/config.octeon
p820
ass(g156
g758
g124
tp821
(dp822
g159
(lp823
V5kc-malta
p824
aVloongson-3
p825
aVocteon
p826
asg163
I01
ss(Vbase
p827
Vpowerpc
p828
tp829
(dp830
g122
(lp831
g124
asVkernel-arch
p832
Vpowerpc
p833
ss(Vdescription
p834
g828
NVpowerpc64
p835
tp836
(dp837
Vhardware
p838
V64-bit PowerPC
p839
ss(Vbuild
p840
g828
tp841
(dp842
Vvdso
p843
I01
sVimage-file
p844
Vvmlinux
p845
ss(Vimage
p846
g828
NVpowerpc-smp
p847
tp848
(dp849
Vconfigs
p850
(lp851
Vpowerpc/config.powerpc
p852
aVpowerpc/config.powerpc-smp
p853
ass(Vdescription
p854
g828
NVpowerpc
p855
tp856
(dp857
Vhardware
p858
Vuniprocessor 32-bit PowerPC
p859
ss(Vimage
p860
g828
NVpowerpc64
p861
tp862
(dp863
Vconfigs
p864
(lp865
Vkernelarch-powerpc/config-arch-64
p866
aVkernelarch-powerpc/config-arch-64-be
p867
ass(Vdescription
p868
g828
NVpowerpc-smp
p869
tp870
(dp871
Vhardware
p872
Vmultiprocessor 32-bit PowerPC
p873
ss(Vimage
p874
g828
tp875
(dp876
Vsuggests
p877
Vmkvmlinuz
p878
sVinstall-stem
p879
Vvmlinux
p880
sVconfigs
p881
(lp882
ss(g156
g828
g124
tp883
(dp884
g159
(lp885
Vpowerpc
p886
aVpowerpc-smp
p887
aVpowerpc64
p888
asg163
I01
ss(Vbase
p889
Vpowerpcspe
p890
tp891
(dp892
g122
(lp893
g124
asVkernel-arch
p894
Vpowerpc
p895
ss(Vbuild
p896
g890
tp897
(dp898
Vsigned-modules
p899
I00
sVimage-file
p900
Vvmlinux
p901
sVvdso
p902
I01
ss(Vimage
p903
g890
tp904
(dp905
Vsuggests
p906
Vmkvmlinuz
p907
sVinstall-stem
p908
Vvmlinux
p909
ss(Vdescription
p910
g890
tp911
(dp912
Vhardware
p913
V32-bit PowerPC with SPE (instead of AltiVec) with SMP support
p914
ss(g156
g890
g124
tp915
(dp916
g159
(lp917
Vpowerpcspe
p918
asg163
I01
ss(Vbase
p919
Vppc64
p920
tp921
(dp922
g122
(lp923
g124
asVkernel-arch
p924
Vpowerpc
p925
ss(Vdescription
p926
g920
NVpowerpc64
p927
tp928
(dp929
Vhardware
p930
V64-bit PowerPC
p931
ss(Vbuild
p932
g920
tp933
(dp934
Vsigned-modules
p935
I00
sVimage-file
p936
Vvmlinux
p937
sVvdso
p938
I01
ss(Vimage
p939
g920
NVpowerpc64
p940
tp941
(dp942
Vconfigs
p943
(lp944
Vkernelarch-powerpc/config-arch-64
p945
aVkernelarch-powerpc/config-arch-64-be
p946
ass(Vimage
p947
g920
tp948
(dp949
Vsuggests
p950
Vmkvmlinuz
p951
sVinstall-stem
p952
Vvmlinux
p953
sVconfigs
p954
(lp955
ss(g156
g920
g124
tp956
(dp957
g159
(lp958
Vpowerpc64
p959
asg163
I01
ss(Vbase
p960
Vppc64el
p961
tp962
(dp963
g122
(lp964
g124
asVkernel-arch
p965
Vpowerpc
p966
ss(Vdescription
p967
g961
NVpowerpc64le
p968
tp969
(dp970
Vhardware
p971
VLittle-endian 64-bit PowerPC
p972
ss(Vbuild
p973
g961
tp974
(dp975
Vvdso
p976
I01
sVimage-file
p977
Vvmlinux
p978
ss(Vimage
p979
g961
tp980
(dp981
Vsuggests
p982
Vmkvmlinuz
p983
sVinstall-stem
p984
Vvmlinux
p985
sVconfigs
p986
(lp987
ss(Vimage
p988
g961
NVpowerpc64le
p989
tp990
(dp991
Vconfigs
p992
(lp993
Vkernelarch-powerpc/config-arch-64
p994
aVkernelarch-powerpc/config-arch-64-le
p995
ass(g156
g961
g124
tp996
(dp997
g159
(lp998
Vpowerpc64le
p999
asg163
I01
ss(Vbase
p1000
Vs390
p1001
tp1002
(dp1003
Vfeaturesets
p1004
(lp1005
sVkernel-arch
p1006
Vs390
p1007
ss(Vbase
p1008
Vs390x
p1009
tp1010
(dp1011
g122
(lp1012
g124
asVkernel-arch
p1013
Vs390
p1014
ss(Vdescription
p1015
g1009
NVs390x
p1016
tp1017
(dp1018
Vhardware
p1019
VIBM zSeries
p1020
ss(Vbuild
p1021
g1009
tp1022
(dp1023
Vvdso
p1024
I01
sVimage-file
p1025
Varch/s390/boot/image
p1026
ss(Vbuild
p1027
g1009
NVs390x
p1028
tp1029
(dp1030
Vdebug-info
p1031
I01
ss(Vrelations
p1032
g1009
tp1033
(dp1034
Vheaders%gcc-6
p1035
Vlinux-compiler-gcc-6-s390
p1036
ss(Vimage
p1037
g1009
tp1038
(dp1039
Vinstall-stem
p1040
Vvmlinuz
p1041
sVbootloaders
p1042
(lp1043
Vs390-tools
p1044
ass(g156
g1009
g124
tp1045
(dp1046
g159
(lp1047
Vs390x
p1048
asg163
I01
ss(Vbase
p1049
Vsh3
p1050
tp1051
(dp1052
Vfeaturesets
p1053
(lp1054
sVkernel-arch
p1055
Vsh
p1056
ss(Vbase
p1057
Vsh4
p1058
tp1059
(dp1060
g122
(lp1061
g124
asVkernel-arch
p1062
Vsh
p1063
ss(Vbuild
p1064
g1058
tp1065
(dp1066
Vsigned-modules
p1067
I00
sVimage-file
p1068
Varch/sh/boot/zImage
p1069
ss(Vdescription
p1070
g1058
NVsh7751r
p1071
tp1072
(dp1073
Vhardware
p1074
Vsh7751r
p1075
sVhardware-long
p1076
VRenesas SH7751R R2D plus board
p1077
ss(Vdescription
p1078
g1058
NVsh7785lcr
p1079
tp1080
(dp1081
Vhardware
p1082
Vsh7785lcr
p1083
sVhardware-long
p1084
VRenesas SH7785 reference board
p1085
ss(Vimage
p1086
g1058
tp1087
(dp1088
Vinstall-stem
p1089
Vvmlinuz
p1090
ss(Vimage
p1091
g1058
NVsh7785lcr
p1092
tp1093
(dp1094
Vrecommends
p1095
Vu-boot-tools
p1096
sVcheck-size
p1097
L4194304L
ss(g156
g1058
g124
tp1098
(dp1099
g159
(lp1100
Vsh7751r
p1101
aVsh7785lcr
p1102
asg163
I01
ss(Vbase
p1103
Vsparc
p1104
tp1105
(dp1106
Vfeaturesets
p1107
(lp1108
sVkernel-arch
p1109
Vsparc
p1110
ss(Vbase
p1111
Vsparc64
p1112
tp1113
(dp1114
g122
(lp1115
g124
asVkernel-arch
p1116
Vsparc
p1117
ss(Vbuild
p1118
g1112
tp1119
(dp1120
Vsigned-modules
p1121
I00
sVimage-file
p1122
Varch/sparc/boot/zImage
p1123
ss(Vimage
p1124
g1112
NVsparc64
p1125
tp1126
(dp1127
Vconfigs
p1128
(lp1129
Vkernelarch-sparc/config-up
p1130
ass(Vimage
p1131
g1112
NVsparc64-smp
p1132
tp1133
(dp1134
Vconfigs
p1135
(lp1136
Vkernelarch-sparc/config-smp
p1137
ass(Vimage
p1138
g1112
tp1139
(dp1140
Vsuggests
p1141
Vsilo, fdutils
p1142
sVinstall-stem
p1143
Vvmlinuz
p1144
sVconfigs
p1145
(lp1146
ss(Vdescription
p1147
g1112
NVsparc64-smp
p1148
tp1149
(dp1150
Vhardware
p1151
Vmultiprocessor 64-bit UltraSPARC
p1152
ss(Vdescription
p1153
g1112
NVsparc64
p1154
tp1155
(dp1156
Vhardware
p1157
Vuniprocessor 64-bit UltraSPARC
p1158
ss(g156
g1112
g124
tp1159
(dp1160
g159
(lp1161
Vsparc64
p1162
aVsparc64-smp
p1163
asg163
I01
ss(Vbase
p1164
Vtilegx
p1165
tp1166
(dp1167
Vfeaturesets
p1168
(lp1169
sVkernel-arch
p1170
Vtile
p1171
ss(Vbase
p1172
Vx32
p1173
tp1174
(dp1175
Vfeaturesets
p1176
(lp1177
sVkernel-arch
p1178
Vx86
p1179
ss(Vdescription
p1180
NVrt
p1181
tp1182
(dp1183
Vparts
p1184
(lp1185
Vrt
p1186
asVpart-long-rt
p1187
VThis kernel includes the PREEMPT_RT realtime patch set.
p1188
sVpart-short-rt
p1189
VPREEMPT_RT
p1190
ss(Vabi
p1191
Ng1181
tp1192
(dp1193
Vignore-changes
p1194
(lp1195
V*
p1196
ass(Vversion
p1197
tp1198
(dp1199
Vupstream
p1200
V4.9
p1201
sVsource
p1202
V4.9.30-1parrot30
p1203
sVabiname
p1204
V4.9.0-parrot30
p1205
sVabiname_base
p1206
V4.9.0
p1207
ss.