cdebian_linux.config
ConfigCore
p0
(tRp1
(Vabi
p2
tp3
(dp4
Vabiname
p5
V1parrot1
p6
sVignore-changes
p7
(lp8
V__cpuhp_*
p9
aVbpf_analyzer
p10
aVcxl_*
p11
aVdax_flush
p12
aVieee80211_nullfunc_get
p13
aVinet_add_protocol
p14
aVinet_del_protocol
p15
aViommu_device_*
p16
aVmm_iommu_*
p17
aVmv_mbus_*
p18
aVperf_*
p19
aVregister_cxl_calls
p20
aVregister_key_type
p21
aVunregister_cxl_calls
p22
aV*_hw_breakpoint
p23
aVmodule:drivers/crypto/ccp/*
p24
aVmodule:drivers/hv/*
p25
aVmodule:drivers/gpu/drm/sun4i/*
p26
aVmodule:drivers/iio/**
p27
aVmodule:drivers/misc/cxl/*
p28
aVmodule:drivers/mtd/nand/*
p29
aVmodule:drivers/net/ethernet/**
p30
aVmodule:drivers/net/wireless/**
p31
aVmodule:drivers/nvdimm/*
p32
aVmodule:drivers/power/supply/bq27xxx_battery
p33
aVmodule:drivers/scsi/cxgbi/*
p34
aVmodule:drivers/scsi/libiscs*
p35
aVmodule:drivers/scsi/qla2xxx/qla2xxx
p36
aVmodule:drivers/scsi/ufs/*
p37
aVmodule:drivers/target/**
p38
aVmodule:drivers/usb/chipidea/**
p39
aVmodule:drivers/usb/gadget/**
p40
aVmodule:drivers/usb/host/**
p41
aVmodule:drivers/usb/musb/**
p42
aVmodule:fs/nfs/**
p43
aVmodule:net/ceph/libceph
p44
aVmodule:net/l2tp/**
p45
aVmodule:net/rxrpc/rxrpc
p46
aVmodule:net/sctp/**
p47
aVmodule:sound/core/seq/**
p48
aVmodule:sound/firewire/snd-firewire-lib
p49
aVmodule:sound/pci/hda/*
p50
aVbtree_*
p51
aVvisitor*
p52
aVcan_rx_register
p53
aVip6_xmit
p54
aVmodule:net/dccp/dccp
p55
aVmodule:net/rds/rds
p56
aVdevfreq_*
p57
aVdevm_devfreq_*
p58
aVupdate_devfreq
p59
aVmodule:drivers/infiniband/**
p60
aVacpi_ec_add_query_handler
p61
aVacpi_ec_remove_query_handler
p62
aVfirst_ec
p63
aVdebugfs_create_automount
p64
aVmodule:drivers/iio/imu/inv_mpu6050/*
p65
aVdrm_crtc_accurate_vblank_count
p66
aVacpi_nfit_desc_init
p67
aVacpi_nfit_init
p68
aVloop_register_transfer
p69
aVxen_xlate_*
p70
aVnf_nat_masquerade_ipv4_register_notifier
p71
aVnf_nat_masquerade_ipv6_register_notifier
p72
aVmodule:drivers/scsi/hisi_sas/*
p73
aV__gfn_*
p74
aV__kvmhv_*
p75
aV__kvm_*
p76
aV__xive_vm_h_*
p77
aVgfn_*
p78
aVh_ipi_redirect
p79
aVhalt_poll_ns*
p80
aVkvm_*
p81
aVkvmhv_*
p82
aVkvmppc_*
p83
aVmark_page_dirty
p84
aVvcpu_*
p85
aVmodule:arch/powerpc/kvm/*
p86
aVmodule:arch/s390/kvm/*
p87
aVmodule:arch/x86/kvm/*
p88
ass(Vbase
p89
tp90
(dp91
Varches
p92
(lp93
Valpha
p94
aVamd64
p95
aVarm64
p96
aVarm64ilp32
p97
aVarmel
p98
aVarmhf
p99
aVhppa
p100
aVi386
p101
aVia64
p102
aVm68k
p103
aVmips
p104
aVmips64
p105
aVmips64el
p106
aVmips64r6
p107
aVmips64r6el
p108
aVmipsel
p109
aVmipsn32
p110
aVmipsn32el
p111
aVmipsn32r6
p112
aVmipsn32r6el
p113
aVmipsr6
p114
aVmipsr6el
p115
aVpowerpc
p116
aVppc64
p117
aVppc64el
p118
aVriscv64
p119
aVs390
p120
aVs390x
p121
aVsh3
p122
aVsh4
p123
aVsparc
p124
aVsparc64
p125
aVx32
p126
asVcompiler
p127
Vgcc-9
p128
sVfeaturesets
p129
(lp130
Vnone
p131
aVrt
p132
ass(Vbuild
p133
tp134
(dp135
Vdebug-info
p136
I01
sVsigned-code
p137
I00
ss(Vbase
p138
NVrt
p139
tp140
(dp141
Venabled
p142
I01
ss(Vdescription
p143
tp144
(dp145
Vpart-long-up
p146
VThis kernel is not suitable for SMP (multi-processor,\u000amulti-core or hyper-threaded) systems.
p147
ss(Vimage
p148
tp149
(dp150
Vinitramfs-generators
p151
(lp152
Vinitramfs-tools
p153
aVinitramfs-fallback
p154
asVrecommends
p155
(lp156
Vapparmor
p157
ass(Vrelations
p158
tp159
(dp160
Vgcc-9
p161
Vgcc-9 <!stage1 !cross !pkg.linux.nokernel>, gcc-9-@gnu-type-package@ <!stage1 cross !pkg.linux.nokernel>
p162
sVinitramfs-fallback
p163
Vlinux-initramfs-tool
p164
sVinitramfs-tools
p165
Vinitramfs-tools (>= 0.120+deb8u2)
p166
ss(Vbase
p167
Valpha
p168
tp169
(dp170
Vkernel-arch
p171
Valpha
p172
sVfeaturesets
p173
(lp174
Vnone
p175
ass(Vbuild
p176
g168
tp177
(dp178
Vimage-file
p179
Varch/alpha/boot/vmlinux.gz
p180
ss(Vimage
p181
g168
tp182
(dp183
Vsuggests
p184
(lp185
Vaboot
p186
aVfdutils
p187
asVinstall-stem
p188
Vvmlinuz
p189
ss(Vdescription
p190
g168
NValpha-generic
p191
tp192
(dp193
Vhardware
p194
VAlpha
p195
sVhardware-long
p196
VDEC Alpha systems with extended kernel start address (Wildfire, Titan, Marvel)
p197
ss(Vdescription
p198
g168
NValpha-smp
p199
tp200
(dp201
Vhardware
p202
VAlpha SMP
p203
sVhardware-long
p204
VDEC Alpha SMP systems with extended kernel start address (Wildfire, Titan, Marvel)
p205
ss(Vbase
p206
g168
g175
tp207
(dp208
Vflavours
p209
(lp210
Valpha-generic
p211
aValpha-smp
p212
asVimplicit-flavour
p213
I01
ss(Vbase
p214
Vamd64
p215
tp216
(dp217
Vfeaturesets
p218
(lp219
Vnone
p220
aVrt
p221
asVkernel-arch
p222
Vx86
p223
ss(Vbuild
p224
g215
tp225
(dp226
Vdebug-info
p227
I01
sVimage-file
p228
Varch/x86/boot/bzImage
p229
sVsigned-code
p230
I00
sVvdso
p231
I01
ss(Vimage
p232
g215
tp233
(dp234
Vbootloaders
p235
(lp236
Vgrub-pc
p237
aVgrub-efi-amd64
p238
aVextlinux
p239
asVinstall-stem
p240
Vvmlinuz
p241
sVbreaks
p242
(lp243
Vxserver-xorg-input-vmmouse (<< 1:13.0.99)
p244
ass(Vrelations
p245
g215
tp246
(dp247
Vheaders%gcc-9
p248
Vlinux-compiler-gcc-9-x86
p249
ss(Vdescription
p250
g215
NVamd64
p251
tp252
(dp253
Vhardware
p254
V64-bit PCs
p255
sVhardware-long
p256
VPCs with AMD64, Intel 64 or VIA Nano processors
p257
ss(Vdescription
p258
g215
NVcloud-amd64
p259
tp260
(dp261
Vhardware
p262
Vx86-64 cloud
p263
sVhardware-long
p264
VAmazon EC2, Google Compute Engine and Microsoft Azure cloud platforms
p265
ss(Vbase
p266
g215
Vnone
p267
tp268
(dp269
Vflavours
p270
(lp271
Vamd64
p272
aVcloud-amd64
p273
ass(Vbase
p274
g215
Vrt
p275
tp276
(dp277
Vflavours
p278
(lp279
Vamd64
p280
ass(Vbase
p281
Varm64
p282
tp283
(dp284
Vcross-compile-compat
p285
Varm-linux-gnueabihf-
p286
sVkernel-arch
p287
Varm64
p288
sVfeaturesets
p289
(lp290
Vnone
p291
aVrt
p292
ass(Vbuild
p293
g282
tp294
(dp295
Vdebug-info
p296
I01
sVimage-file
p297
Varch/arm64/boot/Image
p298
sVsigned-code
p299
I00
sVvdso
p300
I01
ss(Vimage
p301
g282
tp302
(dp303
Vinstall-stem
p304
Vvmlinuz
p305
sVbreaks
p306
(lp307
Vlibmozjs185-1.0
p308
aVlibmozjs-24-0 (<< 24.2.0-5.1~)
p309
ass(Vdescription
p310
g282
NVarm64
p311
tp312
(dp313
Vhardware
p314
V64-bit ARMv8 machines
p315
ss(Vimage
p316
g282
NVarm64
p317
tp318
(dp319
s(Vrelations
p320
g282
tp321
(dp322
Vgcc-9
p323
Vgcc-9 <!stage1 !cross !pkg.linux.nokernel>, gcc-9-aarch64-linux-gnu <!stage1 cross !pkg.linux.nokernel>, gcc-arm-linux-gnueabihf <!stage1 !pkg.linux.nokernel>
p324
sVheaders%gcc-9
p325
Vgcc-9
p326
ss(Vbase
p327
g282
Vnone
p328
tp329
(dp330
Vflavours
p331
(lp332
Varm64
p333
ass(Vbase
p334
g282
Vrt
p335
tp336
(dp337
Vflavours
p338
(lp339
Varm64
p340
ass(Vbase
p341
Varm64ilp32
p342
tp343
(dp344
Vkernel-arch
p345
Varm64
p346
sVfeaturesets
p347
(lp348
ss(Vbase
p349
Varmel
p350
tp351
(dp352
Vkernel-arch
p353
Varm
p354
sg173
(lp355
g175
ass(Vbuild
p356
g350
tp357
(dp358
Vimage-file
p359
Varch/arm/boot/zImage
p360
sVuncompressed-image-file
p361
Varch/arm/boot/Image
p362
ss(Vimage
p363
g350
tp364
(dp365
Vinstall-stem
p366
Vvmlinuz
p367
ss(Vrelations
p368
g350
tp369
(dp370
Vheaders%gcc-9
p371
Vlinux-compiler-gcc-9-arm
p372
ss(Vdescription
p373
g350
NVmarvell
p374
tp375
(dp376
Vhardware
p377
VMarvell Kirkwood/Orion
p378
sVhardware-long
p379
VMarvell Kirkwood and Orion based systems (https://wiki.debian.org/ArmEabiPort#Supported_hardware)
p380
ss(Vdescription
p381
g350
NVrpi
p382
tp383
(dp384
Vhardware
p385
VRaspberry Pi and Pi Zero
p386
sVhardware-long
p387
VRaspberry Pi, Raspberry Pi Zero based systems
p388
ss(Vimage
p389
g350
NVmarvell
p390
tp391
(dp392
Vrecommends
p393
(lp394
Vu-boot-tools
p395
asVcheck-size
p396
I2729712
sVcheck-size-with-dtb
p397
I01
sVcheck-uncompressed-size
p398
I7340032
sVbreaks
p399
(lp400
Vflash-kernel (<< 3.57~)
p401
ass(g206
g350
g175
tp402
(dp403
g209
(lp404
Vmarvell
p405
aVrpi
p406
asg213
I01
ss(Vbase
p407
Varmhf
p408
tp409
(dp410
Vfeaturesets
p411
(lp412
Vnone
p413
aVrt
p414
asVkernel-arch
p415
Varm
p416
ss(Vbuild
p417
g408
tp418
(dp419
Vimage-file
p420
Varch/arm/boot/zImage
p421
sVvdso
p422
I01
ss(Vimage
p423
g408
tp424
(dp425
Vinstall-stem
p426
Vvmlinuz
p427
ss(Vrelations
p428
g408
tp429
(dp430
Vheaders%gcc-9
p431
Vlinux-compiler-gcc-9-arm
p432
ss(Vdescription
p433
g408
NVarmmp
p434
tp435
(dp436
Vhardware
p437
VARMv7 multiplatform compatible SoCs
p438
sVhardware-long
p439
VARMv7 multiplatform kernel. See\u000ahttps://wiki.debian.org/DebianKernel/ARMMP for details of supported\u000aplatforms
p440
ss(Vdescription
p441
g408
NVarmmp-lpae
p442
tp443
(dp444
Vhardware
p445
VARMv7 multiplatform compatible SoCs supporting LPAE
p446
sVhardware-long
p447
VARMv7 multiplatform kernel supporting LPAE. See\u000ahttps://wiki.debian.org/DebianKernel/ARMMP for details of supported\u000aplatforms.
p448
ss(Vbase
p449
g408
Vnone
p450
tp451
(dp452
Vflavours
p453
(lp454
Varmmp
p455
aVarmmp-lpae
p456
ass(Vbase
p457
g408
Vrt
p458
tp459
(dp460
Vflavours
p461
(lp462
Varmmp
p463
ass(Vbase
p464
Vhppa
p465
tp466
(dp467
Vkernel-arch
p468
Vparisc
p469
sg173
(lp470
g175
ass(Vbuild
p471
g465
tp472
(dp473
Vimage-file
p474
Varch/parisc/boot/bzImage
p475
sVdebug-info
p476
I00
ss(Vimage
p477
g465
tp478
(dp479
Vsuggests
p480
(lp481
Vpalo
p482
asVinstall-stem
p483
Vvmlinuz
p484
ss(Vdescription
p485
g465
NVparisc
p486
tp487
(dp488
Vhardware
p489
V32-bit PA-RISC
p490
sVhardware-long
p491
VHP PA-RISC 32-bit systems with max 4 GB RAM
p492
ss(Vbase
p493
g465
NVparisc64
p494
tp495
(dp496
Vcflags
p497
V-fno-cse-follow-jumps
p498
sVoverride-host-type
p499
Vhppa64-linux-gnu
p500
ss(Vdescription
p501
g465
NVparisc64
p502
tp503
(dp504
Vhardware
p505
V64-bit PA-RISC
p506
sVhardware-long
p507
VHP PA-RISC 64-bit systems with support for more than 4 GB RAM
p508
ss(Vrelations
p509
g465
tp510
(dp511
Vgcc-9
p512
Vgcc-9 <!stage1 !cross !pkg.linux.nokernel>, gcc-9-hppa-linux-gnu <!stage1 cross !pkg.linux.nokernel>, binutils-hppa64-linux-gnu <!stage1 !pkg.linux.nokernel>, gcc-9-hppa64-linux-gnu <!stage1 !pkg.linux.nokernel>
p513
ss(g206
g465
g175
tp514
(dp515
g209
(lp516
Vparisc
p517
aVparisc64
p518
asg213
I01
ss(Vbase
p519
Vi386
p520
tp521
(dp522
Vfeaturesets
p523
(lp524
Vnone
p525
aVrt
p526
asVkernel-arch
p527
Vx86
p528
ss(Vbuild
p529
g520
tp530
(dp531
Vimage-file
p532
Varch/x86/boot/bzImage
p533
sVsigned-code
p534
I00
sVvdso
p535
I01
ss(Vdescription
p536
g520
tp537
(dp538
Vpart-long-pae
p539
VThis kernel requires PAE (Physical Address Extension).\u000aThis feature is supported by the Intel Pentium Pro/II/III/4/4M/D, Xeon,\u000aCore and Atom; AMD Geode NX, Athlon (K7), Duron, Opteron, Sempron,\u000aTurion or Phenom; Transmeta Efficeon; VIA C7; and some other processors.
p540
ss(Vimage
p541
g520
tp542
(dp543
Vbootloaders
p544
(lp545
Vgrub-pc
p546
aVgrub-efi-ia32
p547
aVextlinux
p548
asVinstall-stem
p549
Vvmlinuz
p550
sVbreaks
p551
(lp552
Vxserver-xorg-input-vmmouse (<< 1:13.0.99)
p553
ass(Vrelations
p554
g520
tp555
(dp556
Vheaders%gcc-9
p557
Vlinux-compiler-gcc-9-x86
p558
ss(Vdescription
p559
g520
NV686
p560
tp561
(dp562
Vhardware
p563
Volder PCs
p564
sVhardware-long
p565
VPCs with one or more processors not supporting PAE
p566
ss(Vbuild
p567
g520
NV686-pae
p568
tp569
(dp570
Vdebug-info
p571
I01
ss(Vdescription
p572
g520
NV686-pae
p573
tp574
(dp575
Vhardware
p576
Vmodern PCs
p577
sVhardware-long
p578
VPCs with one or more processors supporting PAE
p579
sVparts
p580
(lp581
Vpae
p582
ass(Vbase
p583
g520
Vnone
p584
tp585
(dp586
Vflavours
p587
(lp588
V686
p589
aV686-pae
p590
ass(Vbase
p591
g520
Vrt
p592
tp593
(dp594
Vflavours
p595
(lp596
V686-pae
p597
ass(Vbase
p598
Via64
p599
tp600
(dp601
Vkernel-arch
p602
Via64
p603
sg173
(lp604
g175
ass(Vbuild
p605
g599
tp606
(dp607
Vimage-file
p608
Vvmlinux.gz
p609
ss(Vimage
p610
g599
tp611
(dp612
Vbootloaders
p613
(lp614
Vgrub-efi-ia64
p615
asVinstall-stem
p616
Vvmlinuz
p617
ss(Vdescription
p618
g599
NVitanium
p619
tp620
(dp621
Vhardware
p622
VItanium (Merced)
p623
sVhardware-long
p624
Vsystems with original Itanium (Merced) processors
p625
ss(Vdescription
p626
g599
NVmckinley
p627
tp628
(dp629
Vhardware
p630
VItanium 2+
p631
sVhardware-long
p632
Vsystems with Itanium 2 or 9300/9500/9700-series processors
p633
ss(g206
g599
g175
tp634
(dp635
g209
(lp636
Vitanium
p637
aVmckinley
p638
asg213
I01
ss(Vbase
p639
Vm68k
p640
tp641
(dp642
Vcflags
p643
V-ffreestanding
p644
sVkernel-arch
p645
Vm68k
p646
sg173
(lp647
g175
ass(Vbuild
p648
g640
tp649
(dp650
Vimage-file
p651
Vvmlinux
p652
ss(Vimage
p653
g640
tp654
(dp655
Vsuggests
p656
(lp657
Vvmelilo
p658
aVfdutils
p659
asVinstall-stem
p660
Vvmlinux
p661
ss(Vdescription
p662
g640
NVm68k
p663
tp664
(dp665
Vhardware
p666
VMotorola MC68020+ family
p667
ss(g206
g640
g175
tp668
(dp669
g209
(lp670
Vm68k
p671
asg213
I01
ss(Vbase
p672
Vmips
p673
tp674
(dp675
Vkernel-arch
p676
Vmips
p677
sg173
(lp678
g175
ass(Vbuild
p679
g673
tp680
(dp681
Vimage-file
p682
Vvmlinuz
p683
ss(Vimage
p684
g673
tp685
(dp686
Vinstall-stem
p687
Vvmlinuz
p688
ss(Vdescription
p689
g673
NV4kc-malta
p690
tp691
(dp692
Vhardware
p693
VMIPS Malta
p694
sVhardware-long
p695
VMIPS Malta boards
p696
ss(Vimage
p697
g673
NV4kc-malta
p698
tp699
(dp700
Vconfigs
p701
(lp702
Vkernelarch-mips/config.malta
p703
aVkernelarch-mips/config.mips32r2
p704
ass(Vdescription
p705
g673
NV5kc-malta
p706
tp707
(dp708
Vhardware
p709
VMIPS Malta (64-bit)
p710
sVhardware-long
p711
VMIPS Malta boards (64-bit)
p712
ss(Vimage
p713
g673
NV5kc-malta
p714
tp715
(dp716
Vconfigs
p717
(lp718
Vkernelarch-mips/config.malta
p719
aVkernelarch-mips/config.mips64r2
p720
ass(Vdescription
p721
g673
NVocteon
p722
tp723
(dp724
Vhardware
p725
VOcteon
p726
sVhardware-long
p727
VCavium Networks Octeon
p728
ss(Vimage
p729
g673
NVocteon
p730
tp731
(dp732
Vimage-file
p733
Vvmlinux
p734
sVinstall-stem
p735
Vvmlinux
p736
sVconfigs
p737
(lp738
Vkernelarch-mips/config.octeon
p739
ass(g206
g673
g175
tp740
(dp741
g209
(lp742
V4kc-malta
p743
aV5kc-malta
p744
aVocteon
p745
asg213
I01
ss(Vbase
p746
Vmips64
p747
tp748
(dp749
Vkernel-arch
p750
Vmips
p751
sg173
(lp752
g175
ass(Vbuild
p753
g747
tp754
(dp755
Vimage-file
p756
Vvmlinuz
p757
ss(Vimage
p758
g747
tp759
(dp760
Vinstall-stem
p761
Vvmlinuz
p762
ss(Vdescription
p763
g747
NV5kc-malta
p764
tp765
(dp766
Vhardware
p767
VMIPS Malta
p768
sVhardware-long
p769
VMIPS Malta boards
p770
ss(Vimage
p771
g747
NV5kc-malta
p772
tp773
(dp774
Vconfigs
p775
(lp776
Vkernelarch-mips/config.malta
p777
aVkernelarch-mips/config.mips64r2
p778
ass(Vdescription
p779
g747
NVocteon
p780
tp781
(dp782
Vhardware
p783
VOcteon
p784
sVhardware-long
p785
VCavium Networks Octeon
p786
ss(Vimage
p787
g747
NVocteon
p788
tp789
(dp790
Vimage-file
p791
Vvmlinux
p792
sVinstall-stem
p793
Vvmlinux
p794
sVconfigs
p795
(lp796
Vkernelarch-mips/config.octeon
p797
ass(g206
g747
g175
tp798
(dp799
g209
(lp800
V5kc-malta
p801
aVocteon
p802
asg213
I01
ss(Vbase
p803
Vmips64el
p804
tp805
(dp806
Vkernel-arch
p807
Vmips
p808
sg173
(lp809
g175
ass(Vbuild
p810
g804
tp811
(dp812
Vimage-file
p813
Vvmlinuz
p814
ss(Vimage
p815
g804
tp816
(dp817
Vinstall-stem
p818
Vvmlinuz
p819
ss(Vdescription
p820
g804
NV5kc-malta
p821
tp822
(dp823
Vhardware
p824
VMIPS Malta
p825
sVhardware-long
p826
VMIPS Malta boards
p827
ss(Vimage
p828
g804
NV5kc-malta
p829
tp830
(dp831
Vconfigs
p832
(lp833
Vkernelarch-mips/config.malta
p834
aVkernelarch-mips/config.mips64r2
p835
ass(Vdescription
p836
g804
NVloongson-3
p837
tp838
(dp839
Vhardware
p840
VLoongson 3A/3B
p841
sVhardware-long
p842
VLoongson 3A or 3B based systems (e.g. from Loongson or Lemote)
p843
ss(Vimage
p844
g804
NVloongson-3
p845
tp846
(dp847
Vconfigs
p848
(lp849
Vkernelarch-mips/config.loongson-3
p850
ass(Vdescription
p851
g804
NVocteon
p852
tp853
(dp854
Vhardware
p855
VOcteon
p856
sVhardware-long
p857
VCavium Networks Octeon
p858
ss(Vimage
p859
g804
NVocteon
p860
tp861
(dp862
Vimage-file
p863
Vvmlinux
p864
sVinstall-stem
p865
Vvmlinux
p866
sVconfigs
p867
(lp868
Vkernelarch-mips/config.octeon
p869
ass(g206
g804
g175
tp870
(dp871
g209
(lp872
V5kc-malta
p873
aVloongson-3
p874
aVocteon
p875
asg213
I01
ss(Vbase
p876
Vmips64r6
p877
tp878
(dp879
Vkernel-arch
p880
Vmips
p881
sg173
(lp882
g175
ass(Vbuild
p883
g877
tp884
(dp885
Vimage-file
p886
Vvmlinux
p887
ss(Vimage
p888
g877
tp889
(dp890
Vinstall-stem
p891
Vvmlinux
p892
ss(Vdescription
p893
g877
NVmips64r6
p894
tp895
(dp896
Vhardware
p897
VMIPS R6 (64 bit, big endian)
p898
sVhardware-long
p899
VMIPS R6 (64 bit, big endian)
p900
ss(Vimage
p901
g877
NVmips64r6
p902
tp903
(dp904
Vconfigs
p905
(lp906
Vkernelarch-mips/config.boston
p907
aVkernelarch-mips/config.mips64r6
p908
ass(g206
g877
g175
tp909
(dp910
g209
(lp911
Vmips64r6
p912
asg213
I01
ss(Vbase
p913
Vmips64r6el
p914
tp915
(dp916
Vkernel-arch
p917
Vmips
p918
sg173
(lp919
g175
ass(Vbuild
p920
g914
tp921
(dp922
Vimage-file
p923
Vvmlinux
p924
ss(Vimage
p925
g914
tp926
(dp927
Vinstall-stem
p928
Vvmlinux
p929
ss(Vdescription
p930
g914
NVmips64r6el
p931
tp932
(dp933
Vhardware
p934
VMIPS R6 (64 bit, little endian)
p935
sVhardware-long
p936
VMIPS R6 (64 bit, little endian)
p937
ss(Vimage
p938
g914
NVmips64r6el
p939
tp940
(dp941
Vconfigs
p942
(lp943
Vkernelarch-mips/config.boston
p944
aVkernelarch-mips/config.mips64r6
p945
ass(g206
g914
g175
tp946
(dp947
g209
(lp948
Vmips64r6el
p949
asg213
I01
ss(Vbase
p950
Vmipsel
p951
tp952
(dp953
Vkernel-arch
p954
Vmips
p955
sg173
(lp956
g175
ass(Vbuild
p957
g951
tp958
(dp959
Vimage-file
p960
Vvmlinuz
p961
ss(Vimage
p962
g951
tp963
(dp964
Vinstall-stem
p965
Vvmlinuz
p966
ss(Vdescription
p967
g951
NV4kc-malta
p968
tp969
(dp970
Vhardware
p971
VMIPS Malta
p972
sVhardware-long
p973
VMIPS Malta boards
p974
ss(Vimage
p975
g951
NV4kc-malta
p976
tp977
(dp978
Vconfigs
p979
(lp980
Vkernelarch-mips/config.malta
p981
aVkernelarch-mips/config.mips32r2
p982
ass(Vdescription
p983
g951
NV5kc-malta
p984
tp985
(dp986
Vhardware
p987
VMIPS Malta (64-bit)
p988
sVhardware-long
p989
VMIPS Malta boards (64-bit)
p990
ss(Vimage
p991
g951
NV5kc-malta
p992
tp993
(dp994
Vconfigs
p995
(lp996
Vkernelarch-mips/config.malta
p997
aVkernelarch-mips/config.mips64r2
p998
ass(Vdescription
p999
g951
NVloongson-3
p1000
tp1001
(dp1002
Vhardware
p1003
VLoongson 3A/3B
p1004
sVhardware-long
p1005
VLoongson 3A or 3B based systems (e.g. from Loongson or Lemote)
p1006
ss(Vimage
p1007
g951
NVloongson-3
p1008
tp1009
(dp1010
Vconfigs
p1011
(lp1012
Vkernelarch-mips/config.loongson-3
p1013
ass(Vdescription
p1014
g951
NVocteon
p1015
tp1016
(dp1017
Vhardware
p1018
VOcteon
p1019
sVhardware-long
p1020
VCavium Networks Octeon
p1021
ss(Vimage
p1022
g951
NVocteon
p1023
tp1024
(dp1025
Vimage-file
p1026
Vvmlinux
p1027
sVinstall-stem
p1028
Vvmlinux
p1029
sVconfigs
p1030
(lp1031
Vkernelarch-mips/config.octeon
p1032
ass(g206
g951
g175
tp1033
(dp1034
g209
(lp1035
V4kc-malta
p1036
aV5kc-malta
p1037
aVloongson-3
p1038
aVocteon
p1039
asg213
I01
ss(Vbase
p1040
Vmipsn32
p1041
tp1042
(dp1043
Vkernel-arch
p1044
Vmips
p1045
sVfeaturesets
p1046
(lp1047
ss(Vbase
p1048
Vmipsn32el
p1049
tp1050
(dp1051
Vkernel-arch
p1052
Vmips
p1053
sVfeaturesets
p1054
(lp1055
ss(Vbase
p1056
Vmipsn32r6
p1057
tp1058
(dp1059
Vkernel-arch
p1060
Vmips
p1061
sVfeaturesets
p1062
(lp1063
ss(Vbase
p1064
Vmipsn32r6el
p1065
tp1066
(dp1067
Vkernel-arch
p1068
Vmips
p1069
sVfeaturesets
p1070
(lp1071
ss(Vbase
p1072
Vmipsr6
p1073
tp1074
(dp1075
Vkernel-arch
p1076
Vmips
p1077
sg173
(lp1078
g175
ass(Vbuild
p1079
g1073
tp1080
(dp1081
Vimage-file
p1082
Vvmlinux
p1083
ss(Vimage
p1084
g1073
tp1085
(dp1086
Vinstall-stem
p1087
Vvmlinux
p1088
ss(Vdescription
p1089
g1073
NVmips32r6
p1090
tp1091
(dp1092
Vhardware
p1093
VMIPS R6 (32 bit, big endian)
p1094
sVhardware-long
p1095
VMIPS R6 (32 bit, big endian)
p1096
ss(Vimage
p1097
g1073
NVmips32r6
p1098
tp1099
(dp1100
Vconfigs
p1101
(lp1102
Vkernelarch-mips/config.boston
p1103
aVkernelarch-mips/config.mips32r6
p1104
ass(Vdescription
p1105
g1073
NVmips64r6
p1106
tp1107
(dp1108
Vhardware
p1109
VMIPS R6 (64 bit, big endian)
p1110
sVhardware-long
p1111
VMIPS R6 (64 bit, big endian)
p1112
ss(Vimage
p1113
g1073
NVmips64r6
p1114
tp1115
(dp1116
Vconfigs
p1117
(lp1118
Vkernelarch-mips/config.boston
p1119
aVkernelarch-mips/config.mips64r6
p1120
ass(g206
g1073
g175
tp1121
(dp1122
g209
(lp1123
Vmips32r6
p1124
aVmips64r6
p1125
asg213
I01
ss(Vbase
p1126
Vmipsr6el
p1127
tp1128
(dp1129
Vkernel-arch
p1130
Vmips
p1131
sg173
(lp1132
g175
ass(Vbuild
p1133
g1127
tp1134
(dp1135
Vimage-file
p1136
Vvmlinux
p1137
ss(Vimage
p1138
g1127
tp1139
(dp1140
Vinstall-stem
p1141
Vvmlinux
p1142
ss(Vdescription
p1143
g1127
NVmips32r6el
p1144
tp1145
(dp1146
Vhardware
p1147
VMIPS R6 (32 bit, little endian)
p1148
sVhardware-long
p1149
VMIPS R6 (32 bit, little endian)
p1150
ss(Vimage
p1151
g1127
NVmips32r6el
p1152
tp1153
(dp1154
Vconfigs
p1155
(lp1156
Vkernelarch-mips/config.boston
p1157
aVkernelarch-mips/config.mips32r6
p1158
ass(Vdescription
p1159
g1127
NVmips64r6el
p1160
tp1161
(dp1162
Vhardware
p1163
VMIPS R6 (64 bit, little endian)
p1164
sVhardware-long
p1165
VMIPS R6 (64 bit, little endian)
p1166
ss(Vimage
p1167
g1127
NVmips64r6el
p1168
tp1169
(dp1170
Vconfigs
p1171
(lp1172
Vkernelarch-mips/config.boston
p1173
aVkernelarch-mips/config.mips64r6
p1174
ass(g206
g1127
g175
tp1175
(dp1176
g209
(lp1177
Vmips32r6el
p1178
aVmips64r6el
p1179
asg213
I01
ss(Vbase
p1180
Vpowerpc
p1181
tp1182
(dp1183
Vkernel-arch
p1184
Vpowerpc
p1185
sg173
(lp1186
g175
ass(Vbuild
p1187
g1181
tp1188
(dp1189
Vimage-file
p1190
Vvmlinux
p1191
sVvdso
p1192
I01
ss(Vimage
p1193
g1181
tp1194
(dp1195
Vconfigs
p1196
(lp1197
sVbootloaders
p1198
(lp1199
Vgrub-ieee1275
p1200
asVsuggests
p1201
(lp1202
Vmkvmlinuz
p1203
asVinstall-stem
p1204
Vvmlinux
p1205
ss(Vdescription
p1206
g1181
NVpowerpc
p1207
tp1208
(dp1209
Vhardware
p1210
Vuniprocessor 32-bit PowerPC
p1211
ss(Vdescription
p1212
g1181
NVpowerpc-smp
p1213
tp1214
(dp1215
Vhardware
p1216
Vmultiprocessor 32-bit PowerPC
p1217
ss(Vimage
p1218
g1181
NVpowerpc-smp
p1219
tp1220
(dp1221
Vconfigs
p1222
(lp1223
Vpowerpc/config.powerpc
p1224
aVpowerpc/config.powerpc-smp
p1225
ass(Vdescription
p1226
g1181
NVpowerpc64
p1227
tp1228
(dp1229
Vhardware
p1230
V64-bit PowerPC
p1231
ss(Vimage
p1232
g1181
NVpowerpc64
p1233
tp1234
(dp1235
Vconfigs
p1236
(lp1237
Vkernelarch-powerpc/config-arch-64
p1238
aVkernelarch-powerpc/config-arch-64-be
p1239
ass(g206
g1181
g175
tp1240
(dp1241
g209
(lp1242
Vpowerpc
p1243
aVpowerpc-smp
p1244
aVpowerpc64
p1245
asg213
I01
ss(Vbase
p1246
Vppc64
p1247
tp1248
(dp1249
Vkernel-arch
p1250
Vpowerpc
p1251
sg173
(lp1252
g175
ass(Vbuild
p1253
g1247
tp1254
(dp1255
Vimage-file
p1256
Vvmlinux
p1257
sVvdso
p1258
I01
ss(Vimage
p1259
g1247
tp1260
(dp1261
Vconfigs
p1262
(lp1263
sVbootloaders
p1264
(lp1265
Vgrub-ieee1275
p1266
asVsuggests
p1267
(lp1268
Vmkvmlinuz
p1269
asVinstall-stem
p1270
Vvmlinux
p1271
ss(Vdescription
p1272
g1247
NVpowerpc64
p1273
tp1274
(dp1275
Vhardware
p1276
V64-bit PowerPC
p1277
ss(Vimage
p1278
g1247
NVpowerpc64
p1279
tp1280
(dp1281
Vconfigs
p1282
(lp1283
Vkernelarch-powerpc/config-arch-64
p1284
aVkernelarch-powerpc/config-arch-64-be
p1285
ass(g206
g1247
g175
tp1286
(dp1287
g209
(lp1288
Vpowerpc64
p1289
asg213
I01
ss(Vbase
p1290
Vppc64el
p1291
tp1292
(dp1293
Vkernel-arch
p1294
Vpowerpc
p1295
sg173
(lp1296
g175
ass(Vbuild
p1297
g1291
tp1298
(dp1299
Vimage-file
p1300
Vvmlinux
p1301
sVvdso
p1302
I01
ss(Vimage
p1303
g1291
tp1304
(dp1305
Vconfigs
p1306
(lp1307
sVbootloaders
p1308
(lp1309
Vgrub-ieee1275
p1310
asVsuggests
p1311
(lp1312
Vmkvmlinuz
p1313
asVinstall-stem
p1314
Vvmlinux
p1315
ss(Vdescription
p1316
g1291
NVpowerpc64le
p1317
tp1318
(dp1319
Vhardware
p1320
VLittle-endian 64-bit PowerPC
p1321
ss(Vimage
p1322
g1291
NVpowerpc64le
p1323
tp1324
(dp1325
Vconfigs
p1326
(lp1327
Vkernelarch-powerpc/config-arch-64
p1328
aVkernelarch-powerpc/config-arch-64-le
p1329
ass(g206
g1291
g175
tp1330
(dp1331
g209
(lp1332
Vpowerpc64le
p1333
asg213
I01
ss(Vbase
p1334
Vriscv64
p1335
tp1336
(dp1337
Vkernel-arch
p1338
Vriscv
p1339
sVfeaturesets
p1340
(lp1341
Vnone
p1342
ass(Vbuild
p1343
g1335
tp1344
(dp1345
Vimage-file
p1346
Varch/riscv/boot/Image
p1347
sVvdso
p1348
I01
ss(Vimage
p1349
g1335
tp1350
(dp1351
Vinstall-stem
p1352
Vvmlinux
p1353
ss(Vdescription
p1354
g1335
NVriscv64
p1355
tp1356
(dp1357
Vhardware
p1358
V64-bit RISC-V platforms
p1359
sVhardware-long
p1360
V64-bit RISC-V platforms
p1361
ss(Vbase
p1362
g1335
Vnone
p1363
tp1364
(dp1365
Vflavours
p1366
(lp1367
Vriscv64
p1368
ass(Vbase
p1369
Vs390
p1370
tp1371
(dp1372
Vkernel-arch
p1373
Vs390
p1374
sVfeaturesets
p1375
(lp1376
ss(Vbase
p1377
Vs390x
p1378
tp1379
(dp1380
Vkernel-arch
p1381
Vs390
p1382
sg173
(lp1383
g175
ass(Vbuild
p1384
g1378
tp1385
(dp1386
Vimage-file
p1387
Varch/s390/boot/bzImage
p1388
sVvdso
p1389
I01
ss(Vimage
p1390
g1378
tp1391
(dp1392
Vbootloaders
p1393
(lp1394
Vs390-tools
p1395
asVinstall-stem
p1396
Vvmlinuz
p1397
ss(Vrelations
p1398
g1378
tp1399
(dp1400
Vheaders%gcc-9
p1401
Vlinux-compiler-gcc-9-s390
p1402
ss(Vbuild
p1403
g1378
NVs390x
p1404
tp1405
(dp1406
Vdebug-info
p1407
I01
ss(Vdescription
p1408
g1378
NVs390x
p1409
tp1410
(dp1411
Vhardware
p1412
VIBM zSeries
p1413
ss(g206
g1378
g175
tp1414
(dp1415
g209
(lp1416
Vs390x
p1417
asg213
I01
ss(Vbase
p1418
Vsh3
p1419
tp1420
(dp1421
Vkernel-arch
p1422
Vsh
p1423
sVfeaturesets
p1424
(lp1425
ss(Vbase
p1426
Vsh4
p1427
tp1428
(dp1429
Vkernel-arch
p1430
Vsh
p1431
sg173
(lp1432
g175
ass(Vbuild
p1433
g1427
tp1434
(dp1435
Vimage-file
p1436
Varch/sh/boot/zImage
p1437
ss(Vimage
p1438
g1427
tp1439
(dp1440
Vinstall-stem
p1441
Vvmlinuz
p1442
ss(Vdescription
p1443
g1427
NVsh7751r
p1444
tp1445
(dp1446
Vhardware
p1447
Vsh7751r
p1448
sVhardware-long
p1449
VRenesas SH7751R R2D plus board
p1450
ss(Vdescription
p1451
g1427
NVsh7785lcr
p1452
tp1453
(dp1454
Vhardware
p1455
Vsh7785lcr
p1456
sVhardware-long
p1457
VRenesas SH7785 reference board
p1458
ss(Vimage
p1459
g1427
NVsh7785lcr
p1460
tp1461
(dp1462
Vrecommends
p1463
(lp1464
Vu-boot-tools
p1465
asVcheck-size
p1466
I4194304
ss(g206
g1427
g175
tp1467
(dp1468
g209
(lp1469
Vsh7751r
p1470
aVsh7785lcr
p1471
asg213
I01
ss(Vbase
p1472
Vsparc
p1473
tp1474
(dp1475
Vkernel-arch
p1476
Vsparc
p1477
sVfeaturesets
p1478
(lp1479
ss(Vbase
p1480
Vsparc64
p1481
tp1482
(dp1483
Vkernel-arch
p1484
Vsparc
p1485
sg173
(lp1486
g175
ass(Vbuild
p1487
g1481
tp1488
(dp1489
Vimage-file
p1490
Vvmlinux
p1491
ss(Vimage
p1492
g1481
tp1493
(dp1494
Vconfigs
p1495
(lp1496
sVbootloaders
p1497
(lp1498
Vgrub-ieee1275
p1499
asVsuggests
p1500
(lp1501
Vfdutils
p1502
asVinstall-stem
p1503
Vvmlinux
p1504
ss(Vdescription
p1505
g1481
NVsparc64
p1506
tp1507
(dp1508
Vhardware
p1509
Vuniprocessor 64-bit UltraSPARC
p1510
ss(Vimage
p1511
g1481
NVsparc64
p1512
tp1513
(dp1514
Vconfigs
p1515
(lp1516
Vkernelarch-sparc/config-up
p1517
ass(Vdescription
p1518
g1481
NVsparc64-smp
p1519
tp1520
(dp1521
Vhardware
p1522
Vmultiprocessor 64-bit UltraSPARC
p1523
ss(Vimage
p1524
g1481
NVsparc64-smp
p1525
tp1526
(dp1527
Vconfigs
p1528
(lp1529
Vkernelarch-sparc/config-smp
p1530
ass(g206
g1481
g175
tp1531
(dp1532
g209
(lp1533
Vsparc64
p1534
aVsparc64-smp
p1535
asg213
I01
ss(Vbase
p1536
Vx32
p1537
tp1538
(dp1539
Vkernel-arch
p1540
Vx86
p1541
sVfeaturesets
p1542
(lp1543
ss(Vabi
p1544
NVrt
p1545
tp1546
(dp1547
Vignore-changes
p1548
(lp1549
V*
p1550
ass(Vdescription
p1551
Ng1545
tp1552
(dp1553
Vpart-long-rt
p1554
VThis kernel includes the PREEMPT_RT realtime patch set.
p1555
sVpart-short-rt
p1556
VPREEMPT_RT
p1557
sVparts
p1558
(lp1559
Vrt
p1560
ass(Vversion
p1561
tp1562
(dp1563
Vsource
p1564
V5.4.6-1parrot1
p1565
sVupstream
p1566
V5.4
p1567
sVabiname_base
p1568
V5.4.0
p1569
sVabiname
p1570
V5.4.0-1parrot1
p1571
ss.