cdebian_linux.config
ConfigCore
p0
(tRp1
(Vabi
p2
tp3
(dp4
Vabiname
p5
V2
p6
sVignore-changes
p7
(lp8
V__cpuhp_*
p9
aV__xive_vm_h_*
p10
aVbpf_analyzer
p11
aVcxl_*
p12
aVdax_flush
p13
aVieee80211_nullfunc_get
p14
aVinet_add_protocol
p15
aVinet_del_protocol
p16
aViommu_device_*
p17
aVkvm_async_pf_task_wait
p18
aVkvmppc_*
p19
aVmm_iommu_*
p20
aVmv_mbus_*
p21
aVperf_*
p22
aVregister_cxl_calls
p23
aVregister_key_type
p24
aVunregister_cxl_calls
p25
aV*_hw_breakpoint
p26
aVmodule:arch/x86/kvm/*
p27
aVmodule:drivers/crypto/ccp/*
p28
aVmodule:drivers/hv/*
p29
aVmodule:drivers/gpu/drm/sun4i/*
p30
aVmodule:drivers/iio/**
p31
aVmodule:drivers/misc/cxl/*
p32
aVmodule:drivers/mtd/nand/*
p33
aVmodule:drivers/net/ethernet/**
p34
aVmodule:drivers/net/wireless/**
p35
aVmodule:drivers/nvdimm/*
p36
aVmodule:drivers/power/supply/bq27xxx_battery
p37
aVmodule:drivers/scsi/cxgbi/*
p38
aVmodule:drivers/scsi/libiscs*
p39
aVmodule:drivers/scsi/qla2xxx/qla2xxx
p40
aVmodule:drivers/scsi/ufs/*
p41
aVmodule:drivers/target/**
p42
aVmodule:drivers/usb/chipidea/**
p43
aVmodule:drivers/usb/gadget/**
p44
aVmodule:drivers/usb/host/**
p45
aVmodule:drivers/usb/musb/**
p46
aVmodule:fs/nfs/**
p47
aVmodule:net/ceph/libceph
p48
aVmodule:net/l2tp/**
p49
aVmodule:net/rxrpc/rxrpc
p50
aVmodule:sound/core/seq/**
p51
aVmodule:sound/firewire/snd-firewire-lib
p52
aVmodule:sound/pci/hda/*
p53
aVbtree_*
p54
aVvisitor*
p55
aVcan_rx_register
p56
aVip6_xmit
p57
aVmodule:net/dccp/dccp
p58
aVmodule:net/rds/rds
p59
aVdevfreq_*
p60
aVdevm_devfreq_*
p61
aVupdate_devfreq
p62
aVmodule:drivers/infiniband/**
p63
aVacpi_ec_add_query_handler
p64
aVacpi_ec_remove_query_handler
p65
aVfirst_ec
p66
aVdebugfs_create_automount
p67
aVmodule:drivers/iio/imu/inv_mpu6050/*
p68
aVdrm_crtc_accurate_vblank_count
p69
aVacpi_nfit_desc_init
p70
aVacpi_nfit_init
p71
aVloop_register_transfer
p72
ass(Vbase
p73
tp74
(dp75
Varches
p76
(lp77
Valpha
p78
aVamd64
p79
aVarm64
p80
aVarm64ilp32
p81
aVarmel
p82
aVarmhf
p83
aVhppa
p84
aVi386
p85
aVia64
p86
aVm68k
p87
aVmips
p88
aVmips64
p89
aVmips64el
p90
aVmips64r6
p91
aVmips64r6el
p92
aVmipsel
p93
aVmipsn32
p94
aVmipsn32el
p95
aVmipsn32r6
p96
aVmipsn32r6el
p97
aVmipsr6
p98
aVmipsr6el
p99
aVpowerpc
p100
aVpowerpcspe
p101
aVppc64
p102
aVppc64el
p103
aVriscv64
p104
aVs390
p105
aVs390x
p106
aVsh3
p107
aVsh4
p108
aVsparc
p109
aVsparc64
p110
aVx32
p111
asVcompiler
p112
Vgcc-7
p113
sVfeaturesets
p114
(lp115
Vnone
p116
aVrt
p117
ass(Vbuild
p118
tp119
(dp120
Vdebug-info
p121
I01
sVsigned-code
p122
I00
ss(Vbase
p123
NVrt
p124
tp125
(dp126
Venabled
p127
I01
ss(Vdescription
p128
tp129
(dp130
Vpart-long-up
p131
VThis kernel is not suitable for SMP (multi-processor,\u000amulti-core or hyper-threaded) systems.
p132
ss(Vimage
p133
tp134
(dp135
Vinitramfs-generators
p136
(lp137
Vinitramfs-tools
p138
aVinitramfs-fallback
p139
asVrecommends
p140
Vapparmor
p141
ss(Vrelations
p142
tp143
(dp144
Vgcc-7
p145
Vgcc-7 <!stage1 !cross>, gcc-7-@gnu-type-package@ <!stage1 cross>
p146
sVinitramfs-fallback
p147
Vlinux-initramfs-tool
p148
sVinitramfs-tools
p149
Vinitramfs-tools (>= 0.120+deb8u2)
p150
ss(Vbase
p151
Valpha
p152
tp153
(dp154
Vkernel-arch
p155
Valpha
p156
sVfeaturesets
p157
(lp158
Vnone
p159
ass(Vbuild
p160
g152
tp161
(dp162
Vimage-file
p163
Varch/alpha/boot/vmlinux.gz
p164
ss(Vimage
p165
g152
tp166
(dp167
Vsuggests
p168
Vaboot, fdutils
p169
sVinstall-stem
p170
Vvmlinuz
p171
ss(Vdescription
p172
g152
NValpha-generic
p173
tp174
(dp175
Vhardware
p176
VAlpha
p177
sVhardware-long
p178
VDEC Alpha systems with extended kernel start address (Wildfire, Titan, Marvel)
p179
ss(Vdescription
p180
g152
NValpha-smp
p181
tp182
(dp183
Vhardware
p184
VAlpha SMP
p185
sVhardware-long
p186
VDEC Alpha SMP systems with extended kernel start address (Wildfire, Titan, Marvel)
p187
ss(Vbase
p188
g152
g159
tp189
(dp190
Vflavours
p191
(lp192
Valpha-generic
p193
aValpha-smp
p194
asVimplicit-flavour
p195
I01
ss(Vbase
p196
Vamd64
p197
tp198
(dp199
Vfeaturesets
p200
(lp201
Vnone
p202
aVrt
p203
asVkernel-arch
p204
Vx86
p205
ss(Vbuild
p206
g197
tp207
(dp208
Vdebug-info
p209
I01
sVimage-file
p210
Varch/x86/boot/bzImage
p211
sVvdso
p212
I01
ss(Vimage
p213
g197
tp214
(dp215
Vbootloaders
p216
(lp217
Vgrub-pc
p218
aVgrub-efi-amd64
p219
aVextlinux
p220
asVinstall-stem
p221
Vvmlinuz
p222
sVbreaks
p223
Vxserver-xorg-input-vmmouse (<< 1:13.0.99)
p224
ss(Vrelations
p225
g197
tp226
(dp227
Vgcc-7
p228
Vgcc-7 (>= 7.2.0-20~) <!stage1 !cross>, gcc-7-x86-64-linux-gnu (>= 7.2.0-20~) <!stage1 cross>
p229
sVheaders%gcc-7
p230
Vlinux-compiler-gcc-7-x86 (>= 4.14.17-1~)
p231
ss(Vdescription
p232
g197
NVamd64
p233
tp234
(dp235
Vhardware
p236
V64-bit PCs
p237
sVhardware-long
p238
VPCs with AMD64, Intel 64 or VIA Nano processors
p239
ss(Vdescription
p240
g197
NVcloud-amd64
p241
tp242
(dp243
Vhardware
p244
Vx86-64 cloud
p245
sVhardware-long
p246
VAmazon EC2, Google Compute Engine and Microsoft Azure cloud platforms
p247
ss(Vbase
p248
g197
Vnone
p249
tp250
(dp251
Vflavours
p252
(lp253
Vamd64
p254
aVcloud-amd64
p255
ass(Vbase
p256
g197
Vrt
p257
tp258
(dp259
Vflavours
p260
(lp261
Vamd64
p262
ass(Vbase
p263
Varm64
p264
tp265
(dp266
Vkernel-arch
p267
Varm64
p268
sVfeaturesets
p269
(lp270
Vnone
p271
aVrt
p272
ass(Vbuild
p273
g264
tp274
(dp275
Vdebug-info
p276
I01
sVimage-file
p277
Varch/arm64/boot/Image
p278
sVvdso
p279
I01
ss(Vimage
p280
g264
tp281
(dp282
Vinstall-stem
p283
Vvmlinuz
p284
sVbreaks
p285
Vlibmozjs185-1.0, libmozjs-24-0 (<< 24.2.0-5.1~)
p286
ss(Vdescription
p287
g264
NVarm64
p288
tp289
(dp290
Vhardware
p291
V64-bit ARMv8 machines
p292
ss(Vimage
p293
g264
NVarm64
p294
tp295
(dp296
s(Vbase
p297
g264
Vnone
p298
tp299
(dp300
Vflavours
p301
(lp302
Varm64
p303
ass(Vbase
p304
g264
Vrt
p305
tp306
(dp307
Vflavours
p308
(lp309
Varm64
p310
ass(Vbase
p311
Varm64ilp32
p312
tp313
(dp314
Vkernel-arch
p315
Varm64
p316
sVfeaturesets
p317
(lp318
ss(Vbase
p319
Varmel
p320
tp321
(dp322
Vkernel-arch
p323
Varm
p324
sg157
(lp325
g159
ass(Vbuild
p326
g320
tp327
(dp328
Vimage-file
p329
Varch/arm/boot/zImage
p330
sVuncompressed-image-file
p331
Varch/arm/boot/Image
p332
ss(Vimage
p333
g320
tp334
(dp335
Vinstall-stem
p336
Vvmlinuz
p337
ss(Vrelations
p338
g320
tp339
(dp340
Vheaders%gcc-7
p341
Vlinux-compiler-gcc-7-arm
p342
ss(Vdescription
p343
g320
NVmarvell
p344
tp345
(dp346
Vhardware
p347
VMarvell Kirkwood/Orion
p348
sVhardware-long
p349
VMarvell Kirkwood and Orion based systems (https://wiki.debian.org/ArmEabiPort#Supported_hardware)
p350
ss(Vimage
p351
g320
NVmarvell
p352
tp353
(dp354
Vrecommends
p355
Vu-boot-tools
p356
sVcheck-size
p357
L2097080L
sVcheck-size-with-dtb
p358
I01
sVcheck-uncompressed-size
p359
L7340032L
sVbreaks
p360
Vflash-kernel (<< 3.57~)
p361
ss(g188
g320
g159
tp362
(dp363
g191
(lp364
Vmarvell
p365
asg195
I01
ss(Vbase
p366
Varmhf
p367
tp368
(dp369
Vfeaturesets
p370
(lp371
Vnone
p372
aVrt
p373
asVkernel-arch
p374
Varm
p375
ss(Vbuild
p376
g367
tp377
(dp378
Vimage-file
p379
Varch/arm/boot/zImage
p380
sVvdso
p381
I01
ss(Vimage
p382
g367
tp383
(dp384
Vinstall-stem
p385
Vvmlinuz
p386
ss(Vrelations
p387
g367
tp388
(dp389
Vheaders%gcc-7
p390
Vlinux-compiler-gcc-7-arm
p391
ss(Vdescription
p392
g367
NVarmmp
p393
tp394
(dp395
Vhardware
p396
VARMv7 multiplatform compatible SoCs
p397
sVhardware-long
p398
VARMv7 multiplatform kernel. See\u000ahttps://wiki.debian.org/DebianKernel/ARMMP for details of supported\u000aplatforms
p399
ss(Vdescription
p400
g367
NVarmmp-lpae
p401
tp402
(dp403
Vhardware
p404
VARMv7 multiplatform compatible SoCs supporting LPAE
p405
sVhardware-long
p406
VARMv7 multiplatform kernel supporting LPAE. See\u000ahttps://wiki.debian.org/DebianKernel/ARMMP for details of supported\u000aplatforms.
p407
ss(Vbase
p408
g367
Vnone
p409
tp410
(dp411
Vflavours
p412
(lp413
Varmmp
p414
aVarmmp-lpae
p415
ass(Vbase
p416
g367
Vrt
p417
tp418
(dp419
Vflavours
p420
(lp421
Varmmp
p422
ass(Vbase
p423
Vhppa
p424
tp425
(dp426
Vkernel-arch
p427
Vparisc
p428
sg157
(lp429
g159
ass(Vbuild
p430
g424
tp431
(dp432
Vimage-file
p433
Varch/parisc/boot/bzImage
p434
sVdebug-info
p435
I00
ss(Vimage
p436
g424
tp437
(dp438
Vsuggests
p439
Vpalo
p440
sVinstall-stem
p441
Vvmlinuz
p442
ss(Vdescription
p443
g424
NVparisc
p444
tp445
(dp446
Vhardware
p447
V32-bit PA-RISC
p448
sVhardware-long
p449
VHP PA-RISC 32-bit systems with max 4 GB RAM
p450
ss(Vdescription
p451
g424
NVparisc-smp
p452
tp453
(dp454
Vhardware
p455
Vmultiprocessor 32-bit PA-RISC
p456
sVhardware-long
p457
VHP PA-RISC 32-bit SMP systems with max 4 GB RAM
p458
ss(Vbase
p459
g424
NVparisc64-smp
p460
tp461
(dp462
Vcflags
p463
V-fno-cse-follow-jumps
p464
sVoverride-host-type
p465
Vhppa64-linux-gnu
p466
ss(Vdescription
p467
g424
NVparisc64-smp
p468
tp469
(dp470
Vhardware
p471
Vmultiprocessor 64-bit PA-RISC
p472
sVhardware-long
p473
VHP PA-RISC 64-bit SMP systems with support for more than 4 GB RAM
p474
ss(Vrelations
p475
g424
tp476
(dp477
Vgcc-7
p478
Vgcc-7 <!stage1 !cross>, binutils-hppa64-linux-gnu <!stage1 !cross>, gcc-7-hppa64-linux-gnu <!stage1 !cross>, gcc-7-hppa-linux-gnu <!stage1 cross>, binutils-hppa64-linux-gnu <!stage1 cross>, gcc-7-hppa64-linux-gnu <!stage1 cross>
p479
ss(g188
g424
g159
tp480
(dp481
g191
(lp482
Vparisc
p483
aVparisc-smp
p484
aVparisc64-smp
p485
asg195
I01
ss(Vbase
p486
Vi386
p487
tp488
(dp489
Vfeaturesets
p490
(lp491
Vnone
p492
aVrt
p493
asVkernel-arch
p494
Vx86
p495
ss(Vbuild
p496
g487
tp497
(dp498
Vimage-file
p499
Varch/x86/boot/bzImage
p500
sVvdso
p501
I01
ss(Vdescription
p502
g487
tp503
(dp504
Vpart-long-pae
p505
VThis kernel requires PAE (Physical Address Extension).\u000aThis feature is supported by the Intel Pentium Pro/II/III/4/4M/D, Xeon,\u000aCore and Atom; AMD Geode NX, Athlon (K7), Duron, Opteron, Sempron,\u000aTurion or Phenom; Transmeta Efficeon; VIA C7; and some other processors.
p506
ss(Vimage
p507
g487
tp508
(dp509
Vbootloaders
p510
(lp511
Vgrub-pc
p512
aVextlinux
p513
asVinstall-stem
p514
Vvmlinuz
p515
sVbreaks
p516
Vxserver-xorg-input-vmmouse (<< 1:13.0.99)
p517
ss(Vrelations
p518
g487
tp519
(dp520
Vgcc-7
p521
Vgcc-7 (>= 7.2.0-20~) <!stage1 !cross>, gcc-7-i686-linux-gnu (>= 7.2.0-20~) <!stage1 cross>
p522
sVheaders%gcc-7
p523
Vlinux-compiler-gcc-7-x86 (>= 4.14.17-1~)
p524
ss(Vdescription
p525
g487
NV686
p526
tp527
(dp528
Vhardware
p529
Volder PCs
p530
sVhardware-long
p531
VPCs with one or more processors not supporting PAE
p532
ss(Vbuild
p533
g487
NV686-pae
p534
tp535
(dp536
Vdebug-info
p537
I01
ss(Vdescription
p538
g487
NV686-pae
p539
tp540
(dp541
Vhardware
p542
Vmodern PCs
p543
sVhardware-long
p544
VPCs with one or more processors supporting PAE
p545
sVparts
p546
(lp547
Vpae
p548
ass(Vbase
p549
g487
Vnone
p550
tp551
(dp552
Vflavours
p553
(lp554
V686
p555
aV686-pae
p556
ass(Vbase
p557
g487
Vrt
p558
tp559
(dp560
Vflavours
p561
(lp562
V686-pae
p563
ass(Vbase
p564
Via64
p565
tp566
(dp567
Vkernel-arch
p568
Via64
p569
sg157
(lp570
g159
ass(Vbuild
p571
g565
tp572
(dp573
Vimage-file
p574
Vvmlinux.gz
p575
ss(Vimage
p576
g565
tp577
(dp578
Vbootloaders
p579
(lp580
Velilo
p581
asVinstall-stem
p582
Vvmlinuz
p583
ss(Vdescription
p584
g565
NVitanium
p585
tp586
(dp587
Vhardware
p588
VItanium (Merced)
p589
sVhardware-long
p590
Vsystems with original Itanium (Merced) processors
p591
ss(Vdescription
p592
g565
NVmckinley
p593
tp594
(dp595
Vhardware
p596
VItanium 2+
p597
sVhardware-long
p598
Vsystems with Itanium 2 or 9300/9500/9700-series processors
p599
ss(g188
g565
g159
tp600
(dp601
g191
(lp602
Vitanium
p603
aVmckinley
p604
asg195
I01
ss(Vbase
p605
Vm68k
p606
tp607
(dp608
Vcflags
p609
V-ffreestanding
p610
sVkernel-arch
p611
Vm68k
p612
sg157
(lp613
g159
ass(Vbuild
p614
g606
tp615
(dp616
Vimage-file
p617
Vvmlinux
p618
ss(Vimage
p619
g606
tp620
(dp621
Vsuggests
p622
Vvmelilo, fdutils
p623
sVinstall-stem
p624
Vvmlinux
p625
ss(Vdescription
p626
g606
NVm68k
p627
tp628
(dp629
Vhardware
p630
VMotorola MC68020+ family
p631
ss(g188
g606
g159
tp632
(dp633
g191
(lp634
Vm68k
p635
asg195
I01
ss(Vbase
p636
Vmips
p637
tp638
(dp639
Vkernel-arch
p640
Vmips
p641
sg157
(lp642
g159
ass(Vbuild
p643
g637
tp644
(dp645
Vimage-file
p646
Vvmlinux
p647
ss(Vimage
p648
g637
tp649
(dp650
Vinstall-stem
p651
Vvmlinux
p652
ss(Vdescription
p653
g637
NV4kc-malta
p654
tp655
(dp656
Vhardware
p657
VMIPS Malta
p658
sVhardware-long
p659
VMIPS Malta boards
p660
ss(Vimage
p661
g637
NV4kc-malta
p662
tp663
(dp664
Vconfigs
p665
(lp666
Vkernelarch-mips/config.malta
p667
aVkernelarch-mips/config.mips32r2
p668
ass(Vdescription
p669
g637
NV5kc-malta
p670
tp671
(dp672
Vhardware
p673
VMIPS Malta (64-bit)
p674
sVhardware-long
p675
VMIPS Malta boards (64-bit)
p676
ss(Vimage
p677
g637
NV5kc-malta
p678
tp679
(dp680
Vconfigs
p681
(lp682
Vkernelarch-mips/config.malta
p683
aVkernelarch-mips/config.mips64r2
p684
ass(Vdescription
p685
g637
NVocteon
p686
tp687
(dp688
Vhardware
p689
VOcteon
p690
sVhardware-long
p691
VCavium Networks Octeon
p692
ss(Vimage
p693
g637
NVocteon
p694
tp695
(dp696
Vconfigs
p697
(lp698
Vkernelarch-mips/config.octeon
p699
ass(g188
g637
g159
tp700
(dp701
g191
(lp702
V4kc-malta
p703
aV5kc-malta
p704
aVocteon
p705
asg195
I01
ss(Vbase
p706
Vmips64
p707
tp708
(dp709
Vkernel-arch
p710
Vmips
p711
sg157
(lp712
g159
ass(Vbuild
p713
g707
tp714
(dp715
Vimage-file
p716
Vvmlinux
p717
ss(Vimage
p718
g707
tp719
(dp720
Vinstall-stem
p721
Vvmlinux
p722
ss(Vdescription
p723
g707
NV5kc-malta
p724
tp725
(dp726
Vhardware
p727
VMIPS Malta
p728
sVhardware-long
p729
VMIPS Malta boards
p730
ss(Vimage
p731
g707
NV5kc-malta
p732
tp733
(dp734
Vconfigs
p735
(lp736
Vkernelarch-mips/config.malta
p737
aVkernelarch-mips/config.mips64r2
p738
ass(Vdescription
p739
g707
NVocteon
p740
tp741
(dp742
Vhardware
p743
VOcteon
p744
sVhardware-long
p745
VCavium Networks Octeon
p746
ss(Vimage
p747
g707
NVocteon
p748
tp749
(dp750
Vconfigs
p751
(lp752
Vkernelarch-mips/config.octeon
p753
ass(g188
g707
g159
tp754
(dp755
g191
(lp756
V5kc-malta
p757
aVocteon
p758
asg195
I01
ss(Vbase
p759
Vmips64el
p760
tp761
(dp762
Vkernel-arch
p763
Vmips
p764
sg157
(lp765
g159
ass(Vbuild
p766
g760
tp767
(dp768
Vimage-file
p769
Vvmlinux
p770
ss(Vimage
p771
g760
tp772
(dp773
Vinstall-stem
p774
Vvmlinux
p775
ss(Vdescription
p776
g760
NV5kc-malta
p777
tp778
(dp779
Vhardware
p780
VMIPS Malta
p781
sVhardware-long
p782
VMIPS Malta boards
p783
ss(Vimage
p784
g760
NV5kc-malta
p785
tp786
(dp787
Vconfigs
p788
(lp789
Vkernelarch-mips/config.malta
p790
aVkernelarch-mips/config.mips64r2
p791
ass(Vdescription
p792
g760
NVloongson-3
p793
tp794
(dp795
Vhardware
p796
VLoongson 3A/3B
p797
sVhardware-long
p798
VLoongson 3A or 3B based systems (e.g. from Loongson or Lemote)
p799
ss(Vimage
p800
g760
NVloongson-3
p801
tp802
(dp803
Vconfigs
p804
(lp805
Vkernelarch-mips/config.loongson-3
p806
ass(Vdescription
p807
g760
NVocteon
p808
tp809
(dp810
Vhardware
p811
VOcteon
p812
sVhardware-long
p813
VCavium Networks Octeon
p814
ss(Vimage
p815
g760
NVocteon
p816
tp817
(dp818
Vconfigs
p819
(lp820
Vkernelarch-mips/config.octeon
p821
ass(g188
g760
g159
tp822
(dp823
g191
(lp824
V5kc-malta
p825
aVloongson-3
p826
aVocteon
p827
asg195
I01
ss(Vbase
p828
Vmips64r6
p829
tp830
(dp831
Vkernel-arch
p832
Vmips
p833
sg157
(lp834
g159
ass(Vbuild
p835
g829
tp836
(dp837
Vimage-file
p838
Vvmlinux
p839
ss(Vimage
p840
g829
tp841
(dp842
Vinstall-stem
p843
Vvmlinux
p844
ss(Vdescription
p845
g829
NVmips64r6
p846
tp847
(dp848
Vhardware
p849
VMIPS R6 (64 bit, big endian)
p850
sVhardware-long
p851
VMIPS R6 (64 bit, big endian)
p852
ss(Vimage
p853
g829
NVmips64r6
p854
tp855
(dp856
Vconfigs
p857
(lp858
Vkernelarch-mips/config.boston
p859
aVkernelarch-mips/config.mips64r6
p860
ass(g188
g829
g159
tp861
(dp862
g191
(lp863
Vmips64r6
p864
asg195
I01
ss(Vbase
p865
Vmips64r6el
p866
tp867
(dp868
Vkernel-arch
p869
Vmips
p870
sg157
(lp871
g159
ass(Vbuild
p872
g866
tp873
(dp874
Vimage-file
p875
Vvmlinux
p876
ss(Vimage
p877
g866
tp878
(dp879
Vinstall-stem
p880
Vvmlinux
p881
ss(Vdescription
p882
g866
NVmips64r6el
p883
tp884
(dp885
Vhardware
p886
VMIPS R6 (64 bit, little endian)
p887
sVhardware-long
p888
VMIPS R6 (64 bit, little endian)
p889
ss(Vimage
p890
g866
NVmips64r6el
p891
tp892
(dp893
Vconfigs
p894
(lp895
Vkernelarch-mips/config.boston
p896
aVkernelarch-mips/config.mips64r6
p897
ass(g188
g866
g159
tp898
(dp899
g191
(lp900
Vmips64r6el
p901
asg195
I01
ss(Vbase
p902
Vmipsel
p903
tp904
(dp905
Vkernel-arch
p906
Vmips
p907
sg157
(lp908
g159
ass(Vbuild
p909
g903
tp910
(dp911
Vimage-file
p912
Vvmlinux
p913
ss(Vimage
p914
g903
tp915
(dp916
Vinstall-stem
p917
Vvmlinux
p918
ss(Vdescription
p919
g903
NV4kc-malta
p920
tp921
(dp922
Vhardware
p923
VMIPS Malta
p924
sVhardware-long
p925
VMIPS Malta boards
p926
ss(Vimage
p927
g903
NV4kc-malta
p928
tp929
(dp930
Vconfigs
p931
(lp932
Vkernelarch-mips/config.malta
p933
aVkernelarch-mips/config.mips32r2
p934
ass(Vdescription
p935
g903
NV5kc-malta
p936
tp937
(dp938
Vhardware
p939
VMIPS Malta (64-bit)
p940
sVhardware-long
p941
VMIPS Malta boards (64-bit)
p942
ss(Vimage
p943
g903
NV5kc-malta
p944
tp945
(dp946
Vconfigs
p947
(lp948
Vkernelarch-mips/config.malta
p949
aVkernelarch-mips/config.mips64r2
p950
ass(Vdescription
p951
g903
NVloongson-3
p952
tp953
(dp954
Vhardware
p955
VLoongson 3A/3B
p956
sVhardware-long
p957
VLoongson 3A or 3B based systems (e.g. from Loongson or Lemote)
p958
ss(Vimage
p959
g903
NVloongson-3
p960
tp961
(dp962
Vconfigs
p963
(lp964
Vkernelarch-mips/config.loongson-3
p965
ass(Vdescription
p966
g903
NVocteon
p967
tp968
(dp969
Vhardware
p970
VOcteon
p971
sVhardware-long
p972
VCavium Networks Octeon
p973
ss(Vimage
p974
g903
NVocteon
p975
tp976
(dp977
Vconfigs
p978
(lp979
Vkernelarch-mips/config.octeon
p980
ass(g188
g903
g159
tp981
(dp982
g191
(lp983
V4kc-malta
p984
aV5kc-malta
p985
aVloongson-3
p986
aVocteon
p987
asg195
I01
ss(Vbase
p988
Vmipsn32
p989
tp990
(dp991
Vkernel-arch
p992
Vmips
p993
sVfeaturesets
p994
(lp995
ss(Vbase
p996
Vmipsn32el
p997
tp998
(dp999
Vkernel-arch
p1000
Vmips
p1001
sVfeaturesets
p1002
(lp1003
ss(Vbase
p1004
Vmipsn32r6
p1005
tp1006
(dp1007
Vkernel-arch
p1008
Vmips
p1009
sVfeaturesets
p1010
(lp1011
ss(Vbase
p1012
Vmipsn32r6el
p1013
tp1014
(dp1015
Vkernel-arch
p1016
Vmips
p1017
sVfeaturesets
p1018
(lp1019
ss(Vbase
p1020
Vmipsr6
p1021
tp1022
(dp1023
Vkernel-arch
p1024
Vmips
p1025
sg157
(lp1026
g159
ass(Vbuild
p1027
g1021
tp1028
(dp1029
Vimage-file
p1030
Vvmlinux
p1031
ss(Vimage
p1032
g1021
tp1033
(dp1034
Vinstall-stem
p1035
Vvmlinux
p1036
ss(Vdescription
p1037
g1021
NVmips32r6
p1038
tp1039
(dp1040
Vhardware
p1041
VMIPS R6 (32 bit, big endian)
p1042
sVhardware-long
p1043
VMIPS R6 (32 bit, big endian)
p1044
ss(Vimage
p1045
g1021
NVmips32r6
p1046
tp1047
(dp1048
Vconfigs
p1049
(lp1050
Vkernelarch-mips/config.boston
p1051
aVkernelarch-mips/config.mips32r6
p1052
ass(Vdescription
p1053
g1021
NVmips64r6
p1054
tp1055
(dp1056
Vhardware
p1057
VMIPS R6 (64 bit, big endian)
p1058
sVhardware-long
p1059
VMIPS R6 (64 bit, big endian)
p1060
ss(Vimage
p1061
g1021
NVmips64r6
p1062
tp1063
(dp1064
Vconfigs
p1065
(lp1066
Vkernelarch-mips/config.boston
p1067
aVkernelarch-mips/config.mips64r6
p1068
ass(g188
g1021
g159
tp1069
(dp1070
g191
(lp1071
Vmips32r6
p1072
aVmips64r6
p1073
asg195
I01
ss(Vbase
p1074
Vmipsr6el
p1075
tp1076
(dp1077
Vkernel-arch
p1078
Vmips
p1079
sg157
(lp1080
g159
ass(Vbuild
p1081
g1075
tp1082
(dp1083
Vimage-file
p1084
Vvmlinux
p1085
ss(Vimage
p1086
g1075
tp1087
(dp1088
Vinstall-stem
p1089
Vvmlinux
p1090
ss(Vdescription
p1091
g1075
NVmips32r6el
p1092
tp1093
(dp1094
Vhardware
p1095
VMIPS R6 (32 bit, little endian)
p1096
sVhardware-long
p1097
VMIPS R6 (32 bit, little endian)
p1098
ss(Vimage
p1099
g1075
NVmips32r6el
p1100
tp1101
(dp1102
Vconfigs
p1103
(lp1104
Vkernelarch-mips/config.boston
p1105
aVkernelarch-mips/config.mips32r6
p1106
ass(Vdescription
p1107
g1075
NVmips64r6el
p1108
tp1109
(dp1110
Vhardware
p1111
VMIPS R6 (64 bit, little endian)
p1112
sVhardware-long
p1113
VMIPS R6 (64 bit, little endian)
p1114
ss(Vimage
p1115
g1075
NVmips64r6el
p1116
tp1117
(dp1118
Vconfigs
p1119
(lp1120
Vkernelarch-mips/config.boston
p1121
aVkernelarch-mips/config.mips64r6
p1122
ass(g188
g1075
g159
tp1123
(dp1124
g191
(lp1125
Vmips32r6el
p1126
aVmips64r6el
p1127
asg195
I01
ss(Vbase
p1128
Vpowerpc
p1129
tp1130
(dp1131
Vkernel-arch
p1132
Vpowerpc
p1133
sg157
(lp1134
g159
ass(Vbuild
p1135
g1129
tp1136
(dp1137
Vimage-file
p1138
Vvmlinux
p1139
sVvdso
p1140
I01
ss(Vimage
p1141
g1129
tp1142
(dp1143
Vconfigs
p1144
(lp1145
sVsuggests
p1146
Vmkvmlinuz
p1147
sVinstall-stem
p1148
Vvmlinux
p1149
ss(Vdescription
p1150
g1129
NVpowerpc
p1151
tp1152
(dp1153
Vhardware
p1154
Vuniprocessor 32-bit PowerPC
p1155
ss(Vdescription
p1156
g1129
NVpowerpc-smp
p1157
tp1158
(dp1159
Vhardware
p1160
Vmultiprocessor 32-bit PowerPC
p1161
ss(Vimage
p1162
g1129
NVpowerpc-smp
p1163
tp1164
(dp1165
Vconfigs
p1166
(lp1167
Vpowerpc/config.powerpc
p1168
aVpowerpc/config.powerpc-smp
p1169
ass(Vdescription
p1170
g1129
NVpowerpc64
p1171
tp1172
(dp1173
Vhardware
p1174
V64-bit PowerPC
p1175
ss(Vimage
p1176
g1129
NVpowerpc64
p1177
tp1178
(dp1179
Vconfigs
p1180
(lp1181
Vkernelarch-powerpc/config-arch-64
p1182
aVkernelarch-powerpc/config-arch-64-be
p1183
ass(g188
g1129
g159
tp1184
(dp1185
g191
(lp1186
Vpowerpc
p1187
aVpowerpc-smp
p1188
aVpowerpc64
p1189
asg195
I01
ss(Vbase
p1190
Vpowerpcspe
p1191
tp1192
(dp1193
Vkernel-arch
p1194
Vpowerpc
p1195
sg157
(lp1196
g159
ass(Vbuild
p1197
g1191
tp1198
(dp1199
Vimage-file
p1200
Vvmlinux
p1201
sVvdso
p1202
I01
ss(Vimage
p1203
g1191
tp1204
(dp1205
Vsuggests
p1206
Vmkvmlinuz
p1207
sVinstall-stem
p1208
Vvmlinux
p1209
ss(Vdescription
p1210
g1191
tp1211
(dp1212
Vhardware
p1213
V32-bit PowerPC with SPE (instead of AltiVec) with SMP support
p1214
ss(g188
g1191
g159
tp1215
(dp1216
g191
(lp1217
Vpowerpcspe
p1218
asg195
I01
ss(Vbase
p1219
Vppc64
p1220
tp1221
(dp1222
Vkernel-arch
p1223
Vpowerpc
p1224
sg157
(lp1225
g159
ass(Vbuild
p1226
g1220
tp1227
(dp1228
Vimage-file
p1229
Vvmlinux
p1230
sVvdso
p1231
I01
ss(Vimage
p1232
g1220
tp1233
(dp1234
Vconfigs
p1235
(lp1236
sVsuggests
p1237
Vmkvmlinuz
p1238
sVinstall-stem
p1239
Vvmlinux
p1240
ss(Vdescription
p1241
g1220
NVpowerpc64
p1242
tp1243
(dp1244
Vhardware
p1245
V64-bit PowerPC
p1246
ss(Vimage
p1247
g1220
NVpowerpc64
p1248
tp1249
(dp1250
Vconfigs
p1251
(lp1252
Vkernelarch-powerpc/config-arch-64
p1253
aVkernelarch-powerpc/config-arch-64-be
p1254
ass(g188
g1220
g159
tp1255
(dp1256
g191
(lp1257
Vpowerpc64
p1258
asg195
I01
ss(Vbase
p1259
Vppc64el
p1260
tp1261
(dp1262
Vkernel-arch
p1263
Vpowerpc
p1264
sg157
(lp1265
g159
ass(Vbuild
p1266
g1260
tp1267
(dp1268
Vimage-file
p1269
Vvmlinux
p1270
sVvdso
p1271
I01
ss(Vimage
p1272
g1260
tp1273
(dp1274
Vconfigs
p1275
(lp1276
sVsuggests
p1277
Vmkvmlinuz
p1278
sVinstall-stem
p1279
Vvmlinux
p1280
ss(Vdescription
p1281
g1260
NVpowerpc64le
p1282
tp1283
(dp1284
Vhardware
p1285
VLittle-endian 64-bit PowerPC
p1286
ss(Vimage
p1287
g1260
NVpowerpc64le
p1288
tp1289
(dp1290
Vconfigs
p1291
(lp1292
Vkernelarch-powerpc/config-arch-64
p1293
aVkernelarch-powerpc/config-arch-64-le
p1294
ass(g188
g1260
g159
tp1295
(dp1296
g191
(lp1297
Vpowerpc64le
p1298
asg195
I01
ss(Vbase
p1299
Vriscv64
p1300
tp1301
(dp1302
Vkernel-arch
p1303
Vriscv
p1304
sVfeaturesets
p1305
(lp1306
ss(Vbase
p1307
Vs390
p1308
tp1309
(dp1310
Vkernel-arch
p1311
Vs390
p1312
sVfeaturesets
p1313
(lp1314
ss(Vbase
p1315
Vs390x
p1316
tp1317
(dp1318
Vkernel-arch
p1319
Vs390
p1320
sg157
(lp1321
g159
ass(Vbuild
p1322
g1316
tp1323
(dp1324
Vimage-file
p1325
Varch/s390/boot/image
p1326
sVvdso
p1327
I01
ss(Vimage
p1328
g1316
tp1329
(dp1330
Vbootloaders
p1331
(lp1332
Vs390-tools
p1333
asVinstall-stem
p1334
Vvmlinuz
p1335
ss(Vrelations
p1336
g1316
tp1337
(dp1338
Vheaders%gcc-7
p1339
Vlinux-compiler-gcc-7-s390
p1340
ss(Vbuild
p1341
g1316
NVs390x
p1342
tp1343
(dp1344
Vdebug-info
p1345
I01
ss(Vdescription
p1346
g1316
NVs390x
p1347
tp1348
(dp1349
Vhardware
p1350
VIBM zSeries
p1351
ss(g188
g1316
g159
tp1352
(dp1353
g191
(lp1354
Vs390x
p1355
asg195
I01
ss(Vbase
p1356
Vsh3
p1357
tp1358
(dp1359
Vkernel-arch
p1360
Vsh
p1361
sVfeaturesets
p1362
(lp1363
ss(Vbase
p1364
Vsh4
p1365
tp1366
(dp1367
Vkernel-arch
p1368
Vsh
p1369
sg157
(lp1370
g159
ass(Vbuild
p1371
g1365
tp1372
(dp1373
Vimage-file
p1374
Varch/sh/boot/zImage
p1375
ss(Vimage
p1376
g1365
tp1377
(dp1378
Vinstall-stem
p1379
Vvmlinuz
p1380
ss(Vdescription
p1381
g1365
NVsh7751r
p1382
tp1383
(dp1384
Vhardware
p1385
Vsh7751r
p1386
sVhardware-long
p1387
VRenesas SH7751R R2D plus board
p1388
ss(Vdescription
p1389
g1365
NVsh7785lcr
p1390
tp1391
(dp1392
Vhardware
p1393
Vsh7785lcr
p1394
sVhardware-long
p1395
VRenesas SH7785 reference board
p1396
ss(Vimage
p1397
g1365
NVsh7785lcr
p1398
tp1399
(dp1400
Vrecommends
p1401
Vu-boot-tools
p1402
sVcheck-size
p1403
L4194304L
ss(g188
g1365
g159
tp1404
(dp1405
g191
(lp1406
Vsh7751r
p1407
aVsh7785lcr
p1408
asg195
I01
ss(Vbase
p1409
Vsparc
p1410
tp1411
(dp1412
Vkernel-arch
p1413
Vsparc
p1414
sVfeaturesets
p1415
(lp1416
ss(Vbase
p1417
Vsparc64
p1418
tp1419
(dp1420
Vkernel-arch
p1421
Vsparc
p1422
sg157
(lp1423
g159
ass(Vbuild
p1424
g1418
tp1425
(dp1426
Vimage-file
p1427
Varch/sparc/boot/zImage
p1428
ss(Vimage
p1429
g1418
tp1430
(dp1431
Vconfigs
p1432
(lp1433
sVsuggests
p1434
Vsilo, fdutils
p1435
sVinstall-stem
p1436
Vvmlinuz
p1437
ss(Vdescription
p1438
g1418
NVsparc64
p1439
tp1440
(dp1441
Vhardware
p1442
Vuniprocessor 64-bit UltraSPARC
p1443
ss(Vimage
p1444
g1418
NVsparc64
p1445
tp1446
(dp1447
Vconfigs
p1448
(lp1449
Vkernelarch-sparc/config-up
p1450
ass(Vdescription
p1451
g1418
NVsparc64-smp
p1452
tp1453
(dp1454
Vhardware
p1455
Vmultiprocessor 64-bit UltraSPARC
p1456
ss(Vimage
p1457
g1418
NVsparc64-smp
p1458
tp1459
(dp1460
Vconfigs
p1461
(lp1462
Vkernelarch-sparc/config-smp
p1463
ass(g188
g1418
g159
tp1464
(dp1465
g191
(lp1466
Vsparc64
p1467
aVsparc64-smp
p1468
asg195
I01
ss(Vbase
p1469
Vx32
p1470
tp1471
(dp1472
Vkernel-arch
p1473
Vx86
p1474
sVfeaturesets
p1475
(lp1476
ss(Vabi
p1477
NVrt
p1478
tp1479
(dp1480
Vignore-changes
p1481
(lp1482
V*
p1483
ass(Vdescription
p1484
Ng1478
tp1485
(dp1486
Vpart-long-rt
p1487
VThis kernel includes the PREEMPT_RT realtime patch set.
p1488
sVpart-short-rt
p1489
VPREEMPT_RT
p1490
sVparts
p1491
(lp1492
Vrt
p1493
ass(Vversion
p1494
tp1495
(dp1496
Vsource
p1497
V4.18.10-1
p1498
sVupstream
p1499
V4.18
p1500
sVabiname_base
p1501
V4.18.0
p1502
sVabiname
p1503
V4.18.0-2
p1504
ss.