cdebian_linux.config
ConfigCore
p0
(tRp1
(Vabi
p2
tp3
(dp4
Vabiname
p5
Vparrot2
p6
sVignore-changes
p7
(lp8
V__cpuhp_*
p9
aV__xive_vm_h_*
p10
aVbpf_analyzer
p11
aVcxl_*
p12
aVdax_flush
p13
aVinet_add_protocol
p14
aVinet_del_protocol
p15
aViommu_device_*
p16
aVkvm_async_pf_task_wait
p17
aVkvmppc_*
p18
aVmm_iommu_*
p19
aVmv_mbus_*
p20
aVperf_*
p21
aVregister_cxl_calls
p22
aVregister_key_type
p23
aVunregister_cxl_calls
p24
aV*_hw_breakpoint
p25
aVmodule:arch/x86/kvm/*
p26
aVmodule:drivers/crypto/ccp/*
p27
aVmodule:drivers/hv/*
p28
aVmodule:drivers/iio/common/hid-sensors/*
p29
aVmodule:drivers/iio/common/st_sensors/**
p30
aVmodule:drivers/mtd/nand/*
p31
aVmodule:drivers/net/wireless/**
p32
aVmodule:drivers/nvdimm/*
p33
aVmodule:drivers/power/supply/bq27xxx_battery
p34
aVmodule:drivers/scsi/cxgbi/*
p35
aVmodule:drivers/scsi/libiscs*
p36
aVmodule:drivers/scsi/qla2xxx/qla2xxx
p37
aVmodule:drivers/scsi/ufs/*
p38
aVmodule:drivers/target/**
p39
aVmodule:drivers/usb/chipidea/**
p40
aVmodule:drivers/usb/gadget/**
p41
aVmodule:drivers/usb/host/**
p42
aVmodule:drivers/usb/musb/**
p43
aVmodule:fs/nfs/**
p44
aVmodule:net/ceph/libceph
p45
aVmodule:net/l2tp/**
p46
aVmodule:sound/core/seq/**
p47
aVmodule:sound/firewire/snd-firewire-lib
p48
aVbtree_*
p49
aVvisitor*
p50
aVcan_rx_register
p51
aVip6_xmit
p52
aVmodule:net/dccp/dccp
p53
aVmodule:net/rds/rds
p54
aVdevfreq_*
p55
aVdevm_devfreq_*
p56
aVupdate_devfreq
p57
aVmodule:drivers/infiniband/**
p58
aVacpi_ec_add_query_handler
p59
aVacpi_ec_remove_query_handler
p60
aVfirst_ec
p61
aVdebugfs_create_automount
p62
aVmodule:drivers/iio/imu/inv_mpu6050/*
p63
ass(Vbase
p64
tp65
(dp66
Varches
p67
(lp68
Valpha
p69
aVamd64
p70
aVarm64
p71
aVarm64ilp32
p72
aVarmel
p73
aVarmhf
p74
aVhppa
p75
aVi386
p76
aVm68k
p77
aVmips
p78
aVmips64
p79
aVmips64el
p80
aVmips64r6
p81
aVmips64r6el
p82
aVmipsel
p83
aVmipsn32
p84
aVmipsn32el
p85
aVmipsn32r6
p86
aVmipsn32r6el
p87
aVmipsr6
p88
aVmipsr6el
p89
aVpowerpc
p90
aVpowerpcspe
p91
aVppc64
p92
aVppc64el
p93
aVs390
p94
aVs390x
p95
aVsh3
p96
aVsh4
p97
aVsparc
p98
aVsparc64
p99
aVtilegx
p100
aVx32
p101
asVcompiler
p102
Vgcc-7
p103
sVfeaturesets
p104
(lp105
Vnone
p106
aVrt
p107
ass(Vbuild
p108
tp109
(dp110
Vdebug-info
p111
I01
sVsigned-modules
p112
I00
ss(Vbase
p113
NVrt
p114
tp115
(dp116
Venabled
p117
I01
ss(Vdescription
p118
tp119
(dp120
Vpart-long-up
p121
VThis kernel is not suitable for SMP (multi-processor,\u000amulti-core or hyper-threaded) systems.
p122
sVpart-long-xen
p123
VThis kernel also runs on a Xen hypervisor.\u000aIt supports both privileged (dom0) and unprivileged (domU) operation.
p124
ss(Vimage
p125
tp126
(dp127
Vinitramfs-generators
p128
(lp129
Vinitramfs-tools
p130
aVinitramfs-fallback
p131
asVrecommends
p132
Vapparmor
p133
ss(Vrelations
p134
tp135
(dp136
Vgcc-7
p137
Vgcc-7 <!stage1 !cross>, gcc-7-@gnu-type-package@ <!stage1 cross>
p138
sVinitramfs-fallback
p139
Vlinux-initramfs-tool
p140
sVinitramfs-tools
p141
Vinitramfs-tools (>= 0.120+deb8u2)
p142
ss(Vbase
p143
Valpha
p144
tp145
(dp146
Vkernel-arch
p147
Valpha
p148
sVfeaturesets
p149
(lp150
Vnone
p151
ass(Vbuild
p152
g144
tp153
(dp154
Vimage-file
p155
Varch/alpha/boot/vmlinux.gz
p156
sVsigned-modules
p157
I00
ss(Vimage
p158
g144
tp159
(dp160
Vsuggests
p161
Vaboot, fdutils
p162
sVinstall-stem
p163
Vvmlinuz
p164
ss(Vdescription
p165
g144
NValpha-generic
p166
tp167
(dp168
Vhardware
p169
VAlpha
p170
sVhardware-long
p171
VDEC Alpha systems with extended kernel start address (Wildfire, Titan, Marvel)
p172
ss(Vdescription
p173
g144
NValpha-smp
p174
tp175
(dp176
Vhardware
p177
VAlpha SMP
p178
sVhardware-long
p179
VDEC Alpha SMP systems with extended kernel start address (Wildfire, Titan, Marvel)
p180
ss(Vbase
p181
g144
g151
tp182
(dp183
Vflavours
p184
(lp185
Valpha-generic
p186
aValpha-smp
p187
asVimplicit-flavour
p188
I01
ss(Vbase
p189
Vamd64
p190
tp191
(dp192
Vfeaturesets
p193
(lp194
Vnone
p195
aVrt
p196
asVkernel-arch
p197
Vx86
p198
ss(Vbuild
p199
g190
tp200
(dp201
Vdebug-info
p202
I01
sVimage-file
p203
Varch/x86/boot/bzImage
p204
sVvdso
p205
I01
sVsigned-modules
p206
I00
ss(Vimage
p207
g190
tp208
(dp209
Vbootloaders
p210
(lp211
Vgrub-pc
p212
aVgrub-efi-amd64
p213
aVextlinux
p214
asVinstall-stem
p215
Vvmlinuz
p216
sVbreaks
p217
Vxserver-xorg-input-vmmouse (<< 1:13.0.99)
p218
ss(Vrelations
p219
g190
tp220
(dp221
Vheaders%gcc-7
p222
Vlinux-compiler-gcc-7-x86
p223
ss(Vdescription
p224
g190
NVamd64
p225
tp226
(dp227
Vhardware
p228
V64-bit PCs
p229
sVhardware-long
p230
VPCs with AMD64, Intel 64 or VIA Nano processors
p231
ss(Vbase
p232
g190
Vnone
p233
tp234
(dp235
Vflavours
p236
(lp237
Vamd64
p238
ass(Vdescription
p239
g190
g233
Vamd64
p240
tp241
(dp242
Vparts
p243
(lp244
Vxen
p245
ass(Vbase
p246
g190
Vrt
p247
tp248
(dp249
Vflavours
p250
(lp251
Vamd64
p252
ass(Vbase
p253
Varm64
p254
tp255
(dp256
Vkernel-arch
p257
Varm64
p258
sVfeaturesets
p259
(lp260
Vnone
p261
ass(Vbuild
p262
g254
tp263
(dp264
Vdebug-info
p265
I01
sVimage-file
p266
Varch/arm64/boot/Image
p267
sVvdso
p268
I01
sVsigned-modules
p269
I00
ss(Vimage
p270
g254
tp271
(dp272
Vinstall-stem
p273
Vvmlinuz
p274
sVbreaks
p275
Vlibmozjs185-1.0, libmozjs-24-0 (<< 24.2.0-5.1~)
p276
ss(Vdescription
p277
g254
NVarm64
p278
tp279
(dp280
Vhardware
p281
V64-bit ARMv8 machines
p282
ss(Vimage
p283
g254
NVarm64
p284
tp285
(dp286
s(Vbase
p287
g254
Vnone
p288
tp289
(dp290
Vflavours
p291
(lp292
Varm64
p293
ass(Vbase
p294
Varm64ilp32
p295
tp296
(dp297
Vkernel-arch
p298
Varm64
p299
sVfeaturesets
p300
(lp301
ss(Vbase
p302
Varmel
p303
tp304
(dp305
Vkernel-arch
p306
Varm
p307
sg149
(lp308
g151
ass(Vbuild
p309
g303
tp310
(dp311
Vimage-file
p312
Varch/arm/boot/zImage
p313
sVsigned-modules
p314
I00
sVuncompressed-image-file
p315
Varch/arm/boot/Image
p316
ss(Vimage
p317
g303
tp318
(dp319
Vinstall-stem
p320
Vvmlinuz
p321
ss(Vrelations
p322
g303
tp323
(dp324
Vheaders%gcc-7
p325
Vlinux-compiler-gcc-7-arm
p326
ss(Vdescription
p327
g303
NVmarvell
p328
tp329
(dp330
Vhardware
p331
VMarvell Kirkwood/Orion
p332
sVhardware-long
p333
VMarvell Kirkwood based systems (SheevaPlug, QNAP TS-119/TS-219, etc)\u000aand Orion 5181, 5182 and 5281 based systems (QNAP TS-109/TS-209, etc)
p334
ss(Vimage
p335
g303
NVmarvell
p336
tp337
(dp338
Vrecommends
p339
Vu-boot-tools
p340
sVcheck-size
p341
L2097080L
sVcheck-size-with-dtb
p342
I01
sVcheck-uncompressed-size
p343
L7340032L
sVbreaks
p344
Vflash-kernel (<< 3.57~)
p345
ss(g181
g303
g151
tp346
(dp347
g184
(lp348
Vmarvell
p349
asg188
I01
ss(Vbase
p350
Varmhf
p351
tp352
(dp353
Vkernel-arch
p354
Varm
p355
sg149
(lp356
g151
ass(Vbuild
p357
g351
tp358
(dp359
Vimage-file
p360
Varch/arm/boot/zImage
p361
sVvdso
p362
I01
sVsigned-modules
p363
I00
ss(Vimage
p364
g351
tp365
(dp366
Vinstall-stem
p367
Vvmlinuz
p368
ss(Vrelations
p369
g351
tp370
(dp371
Vheaders%gcc-7
p372
Vlinux-compiler-gcc-7-arm
p373
ss(Vdescription
p374
g351
NVarmmp
p375
tp376
(dp377
Vhardware
p378
VARMv7 multiplatform compatible SoCs
p379
sVhardware-long
p380
VARMv7 multiplatform kernel. See\u000ahttps://wiki.debian.org/DebianKernel/ARMMP for details of supported\u000aplatforms
p381
ss(Vdescription
p382
g351
NVarmmp-lpae
p383
tp384
(dp385
Vhardware
p386
VARMv7 multiplatform compatible SoCs supporting LPAE
p387
sVhardware-long
p388
VARMv7 multiplatform kernel supporting LPAE. See\u000ahttps://wiki.debian.org/DebianKernel/ARMMP for details of supported\u000aplatforms.
p389
ss(g181
g351
g151
tp390
(dp391
g184
(lp392
Varmmp
p393
aVarmmp-lpae
p394
asg188
I01
ss(Vbase
p395
Vhppa
p396
tp397
(dp398
Vkernel-arch
p399
Vparisc
p400
sg149
(lp401
g151
ass(Vbuild
p402
g396
tp403
(dp404
Vimage-file
p405
Vvmlinux
p406
sVsigned-modules
p407
I00
ss(Vimage
p408
g396
tp409
(dp410
Vsuggests
p411
Vpalo
p412
sVinstall-stem
p413
Vvmlinux
p414
ss(Vdescription
p415
g396
NVparisc
p416
tp417
(dp418
Vhardware
p419
V32-bit PA-RISC
p420
sVhardware-long
p421
VHP PA-RISC 32-bit systems with max 4 GB RAM
p422
ss(Vbase
p423
g396
NVparisc64-smp
p424
tp425
(dp426
Vcflags
p427
V-fno-cse-follow-jumps
p428
sVoverride-host-type
p429
Vhppa64-linux-gnu
p430
ss(Vdescription
p431
g396
NVparisc64-smp
p432
tp433
(dp434
Vhardware
p435
Vmultiprocessor 64-bit PA-RISC
p436
sVhardware-long
p437
VHP PA-RISC 64-bit SMP systems with support for more than 4 GB RAM
p438
ss(Vrelations
p439
g396
tp440
(dp441
Vgcc-7
p442
Vgcc-7 <!stage1 !cross>, binutils-hppa64-linux-gnu <!stage1 !cross>, gcc-7-hppa64-linux-gnu <!stage1 !cross>, gcc-7-hppa-linux-gnu <!stage1 cross>, binutils-hppa64-linux-gnu <!stage1 cross>, gcc-7-hppa64-linux-gnu <!stage1 cross>
p443
ss(g181
g396
g151
tp444
(dp445
g184
(lp446
Vparisc
p447
aVparisc64-smp
p448
asg188
I01
ss(Vbase
p449
Vi386
p450
tp451
(dp452
Vfeaturesets
p453
(lp454
Vnone
p455
aVrt
p456
asVkernel-arch
p457
Vx86
p458
ss(Vbuild
p459
g450
tp460
(dp461
Vimage-file
p462
Varch/x86/boot/bzImage
p463
sVvdso
p464
I01
sVsigned-modules
p465
I00
ss(Vdescription
p466
g450
tp467
(dp468
Vpart-long-pae
p469
VThis kernel requires PAE (Physical Address Extension).\u000aThis feature is supported by the Intel Pentium Pro/II/III/4/4M/D, Xeon,\u000aCore and Atom; AMD Geode NX, Athlon (K7), Duron, Opteron, Sempron,\u000aTurion or Phenom; Transmeta Efficeon; VIA C7; and some other processors.
p470
ss(Vimage
p471
g450
tp472
(dp473
Vbootloaders
p474
(lp475
Vgrub-pc
p476
aVextlinux
p477
asVinstall-stem
p478
Vvmlinuz
p479
sVbreaks
p480
Vxserver-xorg-input-vmmouse (<< 1:13.0.99)
p481
ss(Vrelations
p482
g450
tp483
(dp484
Vheaders%gcc-7
p485
Vlinux-compiler-gcc-7-x86
p486
ss(Vdescription
p487
g450
NV686
p488
tp489
(dp490
Vhardware
p491
Volder PCs
p492
sVhardware-long
p493
VPCs with one or more processors not supporting PAE
p494
ss(Vbuild
p495
g450
NV686-pae
p496
tp497
(dp498
Vdebug-info
p499
I01
ss(Vdescription
p500
g450
NV686-pae
p501
tp502
(dp503
Vhardware
p504
Vmodern PCs
p505
sVhardware-long
p506
VPCs with one or more processors supporting PAE
p507
sVparts
p508
(lp509
Vpae
p510
ass(Vbase
p511
g450
Vnone
p512
tp513
(dp514
Vflavours
p515
(lp516
V686
p517
aV686-pae
p518
ass(Vdescription
p519
g450
g512
V686-pae
p520
tp521
(dp522
Vparts
p523
(lp524
Vxen
p525
ass(Vbase
p526
g450
Vrt
p527
tp528
(dp529
Vflavours
p530
(lp531
V686-pae
p532
ass(Vbase
p533
Vm68k
p534
tp535
(dp536
Vcflags
p537
V-ffreestanding
p538
sVkernel-arch
p539
Vm68k
p540
sg149
(lp541
g151
ass(Vbuild
p542
g534
tp543
(dp544
Vimage-file
p545
Vvmlinux
p546
sVsigned-modules
p547
I00
ss(Vimage
p548
g534
tp549
(dp550
Vsuggests
p551
Vvmelilo, fdutils
p552
sVinstall-stem
p553
Vvmlinux
p554
ss(Vdescription
p555
g534
NVm68k
p556
tp557
(dp558
Vhardware
p559
VMotorola MC68020+ family
p560
ss(g181
g534
g151
tp561
(dp562
g184
(lp563
Vm68k
p564
asg188
I01
ss(Vbase
p565
Vmips
p566
tp567
(dp568
Vkernel-arch
p569
Vmips
p570
sg149
(lp571
g151
ass(Vbuild
p572
g566
tp573
(dp574
Vimage-file
p575
Vvmlinux
p576
sVsigned-modules
p577
I00
ss(Vimage
p578
g566
tp579
(dp580
Vinstall-stem
p581
Vvmlinux
p582
ss(Vdescription
p583
g566
NV4kc-malta
p584
tp585
(dp586
Vhardware
p587
VMIPS Malta
p588
sVhardware-long
p589
VMIPS Malta boards
p590
ss(Vimage
p591
g566
NV4kc-malta
p592
tp593
(dp594
Vconfigs
p595
(lp596
Vkernelarch-mips/config.malta
p597
aVkernelarch-mips/config.mips32r2
p598
ass(Vdescription
p599
g566
NV5kc-malta
p600
tp601
(dp602
Vhardware
p603
VMIPS Malta (64-bit)
p604
sVhardware-long
p605
VMIPS Malta boards (64-bit)
p606
ss(Vimage
p607
g566
NV5kc-malta
p608
tp609
(dp610
Vconfigs
p611
(lp612
Vkernelarch-mips/config.malta
p613
aVkernelarch-mips/config.mips64r2
p614
ass(Vdescription
p615
g566
NVocteon
p616
tp617
(dp618
Vhardware
p619
VOcteon
p620
sVhardware-long
p621
VCavium Networks Octeon
p622
ss(Vimage
p623
g566
NVocteon
p624
tp625
(dp626
Vconfigs
p627
(lp628
Vkernelarch-mips/config.octeon
p629
ass(g181
g566
g151
tp630
(dp631
g184
(lp632
V4kc-malta
p633
aV5kc-malta
p634
aVocteon
p635
asg188
I01
ss(Vbase
p636
Vmips64
p637
tp638
(dp639
Vkernel-arch
p640
Vmips
p641
sg149
(lp642
g151
ass(Vbuild
p643
g637
tp644
(dp645
Vimage-file
p646
Vvmlinux
p647
sVsigned-modules
p648
I00
ss(Vimage
p649
g637
tp650
(dp651
Vinstall-stem
p652
Vvmlinux
p653
ss(Vdescription
p654
g637
NV5kc-malta
p655
tp656
(dp657
Vhardware
p658
VMIPS Malta
p659
sVhardware-long
p660
VMIPS Malta boards
p661
ss(Vimage
p662
g637
NV5kc-malta
p663
tp664
(dp665
Vconfigs
p666
(lp667
Vkernelarch-mips/config.malta
p668
aVkernelarch-mips/config.mips64r2
p669
ass(Vdescription
p670
g637
NVocteon
p671
tp672
(dp673
Vhardware
p674
VOcteon
p675
sVhardware-long
p676
VCavium Networks Octeon
p677
ss(Vimage
p678
g637
NVocteon
p679
tp680
(dp681
Vconfigs
p682
(lp683
Vkernelarch-mips/config.octeon
p684
ass(g181
g637
g151
tp685
(dp686
g184
(lp687
V5kc-malta
p688
aVocteon
p689
asg188
I01
ss(Vbase
p690
Vmips64el
p691
tp692
(dp693
Vkernel-arch
p694
Vmips
p695
sg149
(lp696
g151
ass(Vbuild
p697
g691
tp698
(dp699
Vimage-file
p700
Vvmlinux
p701
sVsigned-modules
p702
I00
ss(Vimage
p703
g691
tp704
(dp705
Vinstall-stem
p706
Vvmlinux
p707
ss(Vdescription
p708
g691
NV5kc-malta
p709
tp710
(dp711
Vhardware
p712
VMIPS Malta
p713
sVhardware-long
p714
VMIPS Malta boards
p715
ss(Vimage
p716
g691
NV5kc-malta
p717
tp718
(dp719
Vconfigs
p720
(lp721
Vkernelarch-mips/config.malta
p722
aVkernelarch-mips/config.mips64r2
p723
ass(Vdescription
p724
g691
NVloongson-3
p725
tp726
(dp727
Vhardware
p728
VLoongson 3A/3B
p729
sVhardware-long
p730
VLoongson 3A or 3B based systems (e.g. from Loongson or Lemote)
p731
ss(Vimage
p732
g691
NVloongson-3
p733
tp734
(dp735
Vconfigs
p736
(lp737
Vkernelarch-mips/config.loongson-3
p738
ass(Vdescription
p739
g691
NVocteon
p740
tp741
(dp742
Vhardware
p743
VOcteon
p744
sVhardware-long
p745
VCavium Networks Octeon
p746
ss(Vimage
p747
g691
NVocteon
p748
tp749
(dp750
Vconfigs
p751
(lp752
Vkernelarch-mips/config.octeon
p753
ass(g181
g691
g151
tp754
(dp755
g184
(lp756
V5kc-malta
p757
aVloongson-3
p758
aVocteon
p759
asg188
I01
ss(Vbase
p760
Vmips64r6
p761
tp762
(dp763
Vkernel-arch
p764
Vmips
p765
sg149
(lp766
g151
ass(Vbuild
p767
g761
tp768
(dp769
Vimage-file
p770
Vvmlinux
p771
sVsigned-modules
p772
I00
ss(Vimage
p773
g761
tp774
(dp775
Vinstall-stem
p776
Vvmlinux
p777
ss(Vdescription
p778
g761
NVmips64r6
p779
tp780
(dp781
Vhardware
p782
VMIPS R6 (64 bit, big endian)
p783
sVhardware-long
p784
VMIPS R6 (64 bit, big endian)
p785
ss(Vimage
p786
g761
NVmips64r6
p787
tp788
(dp789
Vconfigs
p790
(lp791
Vkernelarch-mips/config.malta
p792
aVkernelarch-mips/config.mips64r6
p793
ass(g181
g761
g151
tp794
(dp795
g184
(lp796
Vmips64r6
p797
asg188
I01
ss(Vbase
p798
Vmips64r6el
p799
tp800
(dp801
Vkernel-arch
p802
Vmips
p803
sg149
(lp804
g151
ass(Vbuild
p805
g799
tp806
(dp807
Vimage-file
p808
Vvmlinux
p809
sVsigned-modules
p810
I00
ss(Vimage
p811
g799
tp812
(dp813
Vinstall-stem
p814
Vvmlinux
p815
ss(Vdescription
p816
g799
NVmips64r6el
p817
tp818
(dp819
Vhardware
p820
VMIPS R6 (64 bit, little endian)
p821
sVhardware-long
p822
VMIPS R6 (64 bit, little endian)
p823
ss(Vimage
p824
g799
NVmips64r6el
p825
tp826
(dp827
Vconfigs
p828
(lp829
Vkernelarch-mips/config.malta
p830
aVkernelarch-mips/config.mips64r6
p831
ass(g181
g799
g151
tp832
(dp833
g184
(lp834
Vmips64r6el
p835
asg188
I01
ss(Vbase
p836
Vmipsel
p837
tp838
(dp839
Vkernel-arch
p840
Vmips
p841
sg149
(lp842
g151
ass(Vbuild
p843
g837
tp844
(dp845
Vimage-file
p846
Vvmlinux
p847
sVsigned-modules
p848
I00
ss(Vimage
p849
g837
tp850
(dp851
Vinstall-stem
p852
Vvmlinux
p853
ss(Vdescription
p854
g837
NV4kc-malta
p855
tp856
(dp857
Vhardware
p858
VMIPS Malta
p859
sVhardware-long
p860
VMIPS Malta boards
p861
ss(Vimage
p862
g837
NV4kc-malta
p863
tp864
(dp865
Vconfigs
p866
(lp867
Vkernelarch-mips/config.malta
p868
aVkernelarch-mips/config.mips32r2
p869
ass(Vdescription
p870
g837
NV5kc-malta
p871
tp872
(dp873
Vhardware
p874
VMIPS Malta (64-bit)
p875
sVhardware-long
p876
VMIPS Malta boards (64-bit)
p877
ss(Vimage
p878
g837
NV5kc-malta
p879
tp880
(dp881
Vconfigs
p882
(lp883
Vkernelarch-mips/config.malta
p884
aVkernelarch-mips/config.mips64r2
p885
ass(Vdescription
p886
g837
NVloongson-3
p887
tp888
(dp889
Vhardware
p890
VLoongson 3A/3B
p891
sVhardware-long
p892
VLoongson 3A or 3B based systems (e.g. from Loongson or Lemote)
p893
ss(Vimage
p894
g837
NVloongson-3
p895
tp896
(dp897
Vconfigs
p898
(lp899
Vkernelarch-mips/config.loongson-3
p900
ass(Vdescription
p901
g837
NVocteon
p902
tp903
(dp904
Vhardware
p905
VOcteon
p906
sVhardware-long
p907
VCavium Networks Octeon
p908
ss(Vimage
p909
g837
NVocteon
p910
tp911
(dp912
Vconfigs
p913
(lp914
Vkernelarch-mips/config.octeon
p915
ass(g181
g837
g151
tp916
(dp917
g184
(lp918
V4kc-malta
p919
aV5kc-malta
p920
aVloongson-3
p921
aVocteon
p922
asg188
I01
ss(Vbase
p923
Vmipsn32
p924
tp925
(dp926
Vkernel-arch
p927
Vmips
p928
sVfeaturesets
p929
(lp930
ss(Vbase
p931
Vmipsn32el
p932
tp933
(dp934
Vkernel-arch
p935
Vmips
p936
sVfeaturesets
p937
(lp938
ss(Vbase
p939
Vmipsn32r6
p940
tp941
(dp942
Vkernel-arch
p943
Vmips
p944
sVfeaturesets
p945
(lp946
ss(Vbase
p947
Vmipsn32r6el
p948
tp949
(dp950
Vkernel-arch
p951
Vmips
p952
sVfeaturesets
p953
(lp954
ss(Vbase
p955
Vmipsr6
p956
tp957
(dp958
Vkernel-arch
p959
Vmips
p960
sg149
(lp961
g151
ass(Vbuild
p962
g956
tp963
(dp964
Vimage-file
p965
Vvmlinux
p966
sVsigned-modules
p967
I00
ss(Vimage
p968
g956
tp969
(dp970
Vinstall-stem
p971
Vvmlinux
p972
ss(Vdescription
p973
g956
NVmips32r6
p974
tp975
(dp976
Vhardware
p977
VMIPS R6 (32 bit, big endian)
p978
sVhardware-long
p979
VMIPS R6 (32 bit, big endian)
p980
ss(Vimage
p981
g956
NVmips32r6
p982
tp983
(dp984
Vconfigs
p985
(lp986
Vkernelarch-mips/config.malta
p987
aVkernelarch-mips/config.mips32r6
p988
ass(Vdescription
p989
g956
NVmips64r6
p990
tp991
(dp992
Vhardware
p993
VMIPS R6 (64 bit, big endian)
p994
sVhardware-long
p995
VMIPS R6 (64 bit, big endian)
p996
ss(Vimage
p997
g956
NVmips64r6
p998
tp999
(dp1000
Vconfigs
p1001
(lp1002
Vkernelarch-mips/config.malta
p1003
aVkernelarch-mips/config.mips64r6
p1004
ass(g181
g956
g151
tp1005
(dp1006
g184
(lp1007
Vmips32r6
p1008
aVmips64r6
p1009
asg188
I01
ss(Vbase
p1010
Vmipsr6el
p1011
tp1012
(dp1013
Vkernel-arch
p1014
Vmips
p1015
sg149
(lp1016
g151
ass(Vbuild
p1017
g1011
tp1018
(dp1019
Vimage-file
p1020
Vvmlinux
p1021
sVsigned-modules
p1022
I00
ss(Vimage
p1023
g1011
tp1024
(dp1025
Vinstall-stem
p1026
Vvmlinux
p1027
ss(Vdescription
p1028
g1011
NVmips32r6el
p1029
tp1030
(dp1031
Vhardware
p1032
VMIPS R6 (32 bit, little endian)
p1033
sVhardware-long
p1034
VMIPS R6 (32 bit, little endian)
p1035
ss(Vimage
p1036
g1011
NVmips32r6el
p1037
tp1038
(dp1039
Vconfigs
p1040
(lp1041
Vkernelarch-mips/config.malta
p1042
aVkernelarch-mips/config.mips32r6
p1043
ass(Vdescription
p1044
g1011
NVmips64r6el
p1045
tp1046
(dp1047
Vhardware
p1048
VMIPS R6 (64 bit, little endian)
p1049
sVhardware-long
p1050
VMIPS R6 (64 bit, little endian)
p1051
ss(Vimage
p1052
g1011
NVmips64r6el
p1053
tp1054
(dp1055
Vconfigs
p1056
(lp1057
Vkernelarch-mips/config.malta
p1058
aVkernelarch-mips/config.mips64r6
p1059
ass(g181
g1011
g151
tp1060
(dp1061
g184
(lp1062
Vmips32r6el
p1063
aVmips64r6el
p1064
asg188
I01
ss(Vbase
p1065
Vpowerpc
p1066
tp1067
(dp1068
Vkernel-arch
p1069
Vpowerpc
p1070
sg149
(lp1071
g151
ass(Vbuild
p1072
g1066
tp1073
(dp1074
Vimage-file
p1075
Vvmlinux
p1076
sVvdso
p1077
I01
ss(Vimage
p1078
g1066
tp1079
(dp1080
Vconfigs
p1081
(lp1082
sVsuggests
p1083
Vmkvmlinuz
p1084
sVinstall-stem
p1085
Vvmlinux
p1086
ss(Vdescription
p1087
g1066
NVpowerpc
p1088
tp1089
(dp1090
Vhardware
p1091
Vuniprocessor 32-bit PowerPC
p1092
ss(Vdescription
p1093
g1066
NVpowerpc-smp
p1094
tp1095
(dp1096
Vhardware
p1097
Vmultiprocessor 32-bit PowerPC
p1098
ss(Vimage
p1099
g1066
NVpowerpc-smp
p1100
tp1101
(dp1102
Vconfigs
p1103
(lp1104
Vpowerpc/config.powerpc
p1105
aVpowerpc/config.powerpc-smp
p1106
ass(Vdescription
p1107
g1066
NVpowerpc64
p1108
tp1109
(dp1110
Vhardware
p1111
V64-bit PowerPC
p1112
ss(Vimage
p1113
g1066
NVpowerpc64
p1114
tp1115
(dp1116
Vconfigs
p1117
(lp1118
Vkernelarch-powerpc/config-arch-64
p1119
aVkernelarch-powerpc/config-arch-64-be
p1120
ass(g181
g1066
g151
tp1121
(dp1122
g184
(lp1123
Vpowerpc
p1124
aVpowerpc-smp
p1125
aVpowerpc64
p1126
asg188
I01
ss(Vbase
p1127
Vpowerpcspe
p1128
tp1129
(dp1130
Vkernel-arch
p1131
Vpowerpc
p1132
sg149
(lp1133
g151
ass(Vbuild
p1134
g1128
tp1135
(dp1136
Vimage-file
p1137
Vvmlinux
p1138
sVsigned-modules
p1139
I00
sVvdso
p1140
I01
ss(Vimage
p1141
g1128
tp1142
(dp1143
Vsuggests
p1144
Vmkvmlinuz
p1145
sVinstall-stem
p1146
Vvmlinux
p1147
ss(Vdescription
p1148
g1128
tp1149
(dp1150
Vhardware
p1151
V32-bit PowerPC with SPE (instead of AltiVec) with SMP support
p1152
ss(g181
g1128
g151
tp1153
(dp1154
g184
(lp1155
Vpowerpcspe
p1156
asg188
I01
ss(Vbase
p1157
Vppc64
p1158
tp1159
(dp1160
Vkernel-arch
p1161
Vpowerpc
p1162
sg149
(lp1163
g151
ass(Vbuild
p1164
g1158
tp1165
(dp1166
Vimage-file
p1167
Vvmlinux
p1168
sVsigned-modules
p1169
I00
sVvdso
p1170
I01
ss(Vimage
p1171
g1158
tp1172
(dp1173
Vconfigs
p1174
(lp1175
sVsuggests
p1176
Vmkvmlinuz
p1177
sVinstall-stem
p1178
Vvmlinux
p1179
ss(Vdescription
p1180
g1158
NVpowerpc64
p1181
tp1182
(dp1183
Vhardware
p1184
V64-bit PowerPC
p1185
ss(Vimage
p1186
g1158
NVpowerpc64
p1187
tp1188
(dp1189
Vconfigs
p1190
(lp1191
Vkernelarch-powerpc/config-arch-64
p1192
aVkernelarch-powerpc/config-arch-64-be
p1193
ass(g181
g1158
g151
tp1194
(dp1195
g184
(lp1196
Vpowerpc64
p1197
asg188
I01
ss(Vbase
p1198
Vppc64el
p1199
tp1200
(dp1201
Vkernel-arch
p1202
Vpowerpc
p1203
sg149
(lp1204
g151
ass(Vbuild
p1205
g1199
tp1206
(dp1207
Vimage-file
p1208
Vvmlinux
p1209
sVvdso
p1210
I01
ss(Vimage
p1211
g1199
tp1212
(dp1213
Vconfigs
p1214
(lp1215
sVsuggests
p1216
Vmkvmlinuz
p1217
sVinstall-stem
p1218
Vvmlinux
p1219
ss(Vdescription
p1220
g1199
NVpowerpc64le
p1221
tp1222
(dp1223
Vhardware
p1224
VLittle-endian 64-bit PowerPC
p1225
ss(Vimage
p1226
g1199
NVpowerpc64le
p1227
tp1228
(dp1229
Vconfigs
p1230
(lp1231
Vkernelarch-powerpc/config-arch-64
p1232
aVkernelarch-powerpc/config-arch-64-le
p1233
ass(g181
g1199
g151
tp1234
(dp1235
g184
(lp1236
Vpowerpc64le
p1237
asg188
I01
ss(Vbase
p1238
Vs390
p1239
tp1240
(dp1241
Vkernel-arch
p1242
Vs390
p1243
sVfeaturesets
p1244
(lp1245
ss(Vbase
p1246
Vs390x
p1247
tp1248
(dp1249
Vkernel-arch
p1250
Vs390
p1251
sg149
(lp1252
g151
ass(Vbuild
p1253
g1247
tp1254
(dp1255
Vimage-file
p1256
Varch/s390/boot/image
p1257
sVvdso
p1258
I01
ss(Vimage
p1259
g1247
tp1260
(dp1261
Vbootloaders
p1262
(lp1263
Vs390-tools
p1264
asVinstall-stem
p1265
Vvmlinuz
p1266
ss(Vrelations
p1267
g1247
tp1268
(dp1269
Vheaders%gcc-7
p1270
Vlinux-compiler-gcc-7-s390
p1271
ss(Vbuild
p1272
g1247
NVs390x
p1273
tp1274
(dp1275
Vdebug-info
p1276
I01
ss(Vdescription
p1277
g1247
NVs390x
p1278
tp1279
(dp1280
Vhardware
p1281
VIBM zSeries
p1282
ss(g181
g1247
g151
tp1283
(dp1284
g184
(lp1285
Vs390x
p1286
asg188
I01
ss(Vbase
p1287
Vsh3
p1288
tp1289
(dp1290
Vkernel-arch
p1291
Vsh
p1292
sVfeaturesets
p1293
(lp1294
ss(Vbase
p1295
Vsh4
p1296
tp1297
(dp1298
Vkernel-arch
p1299
Vsh
p1300
sg149
(lp1301
g151
ass(Vbuild
p1302
g1296
tp1303
(dp1304
Vimage-file
p1305
Varch/sh/boot/zImage
p1306
sVsigned-modules
p1307
I00
ss(Vimage
p1308
g1296
tp1309
(dp1310
Vinstall-stem
p1311
Vvmlinuz
p1312
ss(Vdescription
p1313
g1296
NVsh7751r
p1314
tp1315
(dp1316
Vhardware
p1317
Vsh7751r
p1318
sVhardware-long
p1319
VRenesas SH7751R R2D plus board
p1320
ss(Vdescription
p1321
g1296
NVsh7785lcr
p1322
tp1323
(dp1324
Vhardware
p1325
Vsh7785lcr
p1326
sVhardware-long
p1327
VRenesas SH7785 reference board
p1328
ss(Vimage
p1329
g1296
NVsh7785lcr
p1330
tp1331
(dp1332
Vrecommends
p1333
Vu-boot-tools
p1334
sVcheck-size
p1335
L4194304L
ss(g181
g1296
g151
tp1336
(dp1337
g184
(lp1338
Vsh7751r
p1339
aVsh7785lcr
p1340
asg188
I01
ss(Vbase
p1341
Vsparc
p1342
tp1343
(dp1344
Vkernel-arch
p1345
Vsparc
p1346
sVfeaturesets
p1347
(lp1348
ss(Vbase
p1349
Vsparc64
p1350
tp1351
(dp1352
Vkernel-arch
p1353
Vsparc
p1354
sg149
(lp1355
g151
ass(Vbuild
p1356
g1350
tp1357
(dp1358
Vimage-file
p1359
Varch/sparc/boot/zImage
p1360
sVsigned-modules
p1361
I00
ss(Vimage
p1362
g1350
tp1363
(dp1364
Vconfigs
p1365
(lp1366
sVsuggests
p1367
Vsilo, fdutils
p1368
sVinstall-stem
p1369
Vvmlinuz
p1370
ss(Vdescription
p1371
g1350
NVsparc64
p1372
tp1373
(dp1374
Vhardware
p1375
Vuniprocessor 64-bit UltraSPARC
p1376
ss(Vimage
p1377
g1350
NVsparc64
p1378
tp1379
(dp1380
Vconfigs
p1381
(lp1382
Vkernelarch-sparc/config-up
p1383
ass(Vdescription
p1384
g1350
NVsparc64-smp
p1385
tp1386
(dp1387
Vhardware
p1388
Vmultiprocessor 64-bit UltraSPARC
p1389
ss(Vimage
p1390
g1350
NVsparc64-smp
p1391
tp1392
(dp1393
Vconfigs
p1394
(lp1395
Vkernelarch-sparc/config-smp
p1396
ass(g181
g1350
g151
tp1397
(dp1398
g184
(lp1399
Vsparc64
p1400
aVsparc64-smp
p1401
asg188
I01
ss(Vbase
p1402
Vtilegx
p1403
tp1404
(dp1405
Vkernel-arch
p1406
Vtile
p1407
sVfeaturesets
p1408
(lp1409
ss(Vbase
p1410
Vx32
p1411
tp1412
(dp1413
Vkernel-arch
p1414
Vx86
p1415
sVfeaturesets
p1416
(lp1417
ss(Vabi
p1418
NVrt
p1419
tp1420
(dp1421
Vignore-changes
p1422
(lp1423
V*
p1424
ass(Vdescription
p1425
Ng1419
tp1426
(dp1427
Vpart-long-rt
p1428
VThis kernel includes the PREEMPT_RT realtime patch set.
p1429
sVpart-short-rt
p1430
VPREEMPT_RT
p1431
sVparts
p1432
(lp1433
Vrt
p1434
ass(Vversion
p1435
tp1436
(dp1437
Vsource
p1438
V4.14.2-1parrot2
p1439
sVupstream
p1440
V4.14
p1441
sVabiname_base
p1442
V4.14.0
p1443
sVabiname
p1444
V4.14.0-parrot2
p1445
ss.