cdebian_linux.config
ConfigCore
p0
(tRp1
(Vabi
p2
tp3
(dp4
Vabiname
p5
Vparrot16
p6
sVignore-changes
p7
(lp8
V__cpuhp_*
p9
aV__xive_vm_h_*
p10
aVbpf_analyzer
p11
aVcxl_*
p12
aVdax_flush
p13
aVieee80211_nullfunc_get
p14
aVinet_add_protocol
p15
aVinet_del_protocol
p16
aViommu_device_*
p17
aVkvm_async_pf_task_wait
p18
aVkvmppc_*
p19
aVmm_iommu_*
p20
aVmv_mbus_*
p21
aVperf_*
p22
aVregister_cxl_calls
p23
aVregister_key_type
p24
aVunregister_cxl_calls
p25
aV*_hw_breakpoint
p26
aVmodule:arch/x86/kvm/*
p27
aVmodule:drivers/crypto/ccp/*
p28
aVmodule:drivers/hv/*
p29
aVmodule:drivers/iio/**
p30
aVmodule:drivers/misc/cxl/*
p31
aVmodule:drivers/mtd/nand/*
p32
aVmodule:drivers/net/wireless/**
p33
aVmodule:drivers/nvdimm/*
p34
aVmodule:drivers/power/supply/bq27xxx_battery
p35
aVmodule:drivers/scsi/cxgbi/*
p36
aVmodule:drivers/scsi/libiscs*
p37
aVmodule:drivers/scsi/qla2xxx/qla2xxx
p38
aVmodule:drivers/scsi/ufs/*
p39
aVmodule:drivers/target/**
p40
aVmodule:drivers/usb/chipidea/**
p41
aVmodule:drivers/usb/gadget/**
p42
aVmodule:drivers/usb/host/**
p43
aVmodule:drivers/usb/musb/**
p44
aVmodule:fs/nfs/**
p45
aVmodule:net/ceph/libceph
p46
aVmodule:net/l2tp/**
p47
aVmodule:net/rxrpc/rxrpc
p48
aVmodule:sound/core/seq/**
p49
aVmodule:sound/firewire/snd-firewire-lib
p50
aVbtree_*
p51
aVvisitor*
p52
aVcan_rx_register
p53
aVip6_xmit
p54
aVmodule:net/dccp/dccp
p55
aVmodule:net/rds/rds
p56
aVdevfreq_*
p57
aVdevm_devfreq_*
p58
aVupdate_devfreq
p59
aVmodule:drivers/infiniband/**
p60
aVacpi_ec_add_query_handler
p61
aVacpi_ec_remove_query_handler
p62
aVfirst_ec
p63
aVdebugfs_create_automount
p64
aVmodule:drivers/iio/imu/inv_mpu6050/*
p65
aVdrm_crtc_accurate_vblank_count
p66
ass(Vbase
p67
tp68
(dp69
Varches
p70
(lp71
Valpha
p72
aVamd64
p73
aVarm64
p74
aVarm64ilp32
p75
aVarmel
p76
aVarmhf
p77
aVhppa
p78
aVi386
p79
aVia64
p80
aVm68k
p81
aVmips
p82
aVmips64
p83
aVmips64el
p84
aVmips64r6
p85
aVmips64r6el
p86
aVmipsel
p87
aVmipsn32
p88
aVmipsn32el
p89
aVmipsn32r6
p90
aVmipsn32r6el
p91
aVmipsr6
p92
aVmipsr6el
p93
aVpowerpc
p94
aVpowerpcspe
p95
aVppc64
p96
aVppc64el
p97
aVs390
p98
aVs390x
p99
aVsh3
p100
aVsh4
p101
aVsparc
p102
aVsparc64
p103
aVtilegx
p104
aVx32
p105
asVcompiler
p106
Vgcc-7
p107
sVfeaturesets
p108
(lp109
Vnone
p110
aVrt
p111
ass(Vbuild
p112
tp113
(dp114
Vdebug-info
p115
I01
sVsigned-code
p116
I00
ss(Vbase
p117
NVrt
p118
tp119
(dp120
Venabled
p121
I01
ss(Vdescription
p122
tp123
(dp124
Vpart-long-up
p125
VThis kernel is not suitable for SMP (multi-processor,\u000amulti-core or hyper-threaded) systems.
p126
ss(Vimage
p127
tp128
(dp129
Vinitramfs-generators
p130
(lp131
Vinitramfs-tools
p132
aVinitramfs-fallback
p133
asVrecommends
p134
Vapparmor
p135
ss(Vrelations
p136
tp137
(dp138
Vgcc-7
p139
Vgcc-7 <!stage1 !cross>, gcc-7-@gnu-type-package@ <!stage1 cross>
p140
sVinitramfs-fallback
p141
Vlinux-initramfs-tool
p142
sVinitramfs-tools
p143
Vinitramfs-tools (>= 0.120+deb8u2)
p144
ss(Vbase
p145
Valpha
p146
tp147
(dp148
Vkernel-arch
p149
Valpha
p150
sVfeaturesets
p151
(lp152
Vnone
p153
ass(Vbuild
p154
g146
tp155
(dp156
Vimage-file
p157
Varch/alpha/boot/vmlinux.gz
p158
ss(Vimage
p159
g146
tp160
(dp161
Vsuggests
p162
Vaboot, fdutils
p163
sVinstall-stem
p164
Vvmlinuz
p165
ss(Vdescription
p166
g146
NValpha-generic
p167
tp168
(dp169
Vhardware
p170
VAlpha
p171
sVhardware-long
p172
VDEC Alpha systems with extended kernel start address (Wildfire, Titan, Marvel)
p173
ss(Vdescription
p174
g146
NValpha-smp
p175
tp176
(dp177
Vhardware
p178
VAlpha SMP
p179
sVhardware-long
p180
VDEC Alpha SMP systems with extended kernel start address (Wildfire, Titan, Marvel)
p181
ss(Vbase
p182
g146
g153
tp183
(dp184
Vflavours
p185
(lp186
Valpha-generic
p187
aValpha-smp
p188
asVimplicit-flavour
p189
I01
ss(Vbase
p190
Vamd64
p191
tp192
(dp193
Vfeaturesets
p194
(lp195
Vnone
p196
aVrt
p197
asVkernel-arch
p198
Vx86
p199
ss(Vbuild
p200
g191
tp201
(dp202
Vdebug-info
p203
I01
sVimage-file
p204
Varch/x86/boot/bzImage
p205
sVvdso
p206
I01
sVsigned-modules
p207
Vfalse
p208
ss(Vimage
p209
g191
tp210
(dp211
Vbootloaders
p212
(lp213
Vgrub-pc
p214
aVgrub-efi-amd64
p215
aVextlinux
p216
asVinstall-stem
p217
Vvmlinuz
p218
sVbreaks
p219
Vxserver-xorg-input-vmmouse (<< 1:13.0.99)
p220
ss(Vrelations
p221
g191
tp222
(dp223
Vgcc-7
p224
Vgcc-7 (>= 7.2.0-20~) <!stage1 !cross>, gcc-7-x86-64-linux-gnu (>= 7.2.0-20~) <!stage1 cross>
p225
sVheaders%gcc-7
p226
Vlinux-compiler-gcc-7-x86 (>= 4.14.17-1~)
p227
ss(Vdescription
p228
g191
NVamd64
p229
tp230
(dp231
Vhardware
p232
V64-bit PCs
p233
sVhardware-long
p234
VPCs with AMD64, Intel 64 or VIA Nano processors
p235
ss(Vdescription
p236
g191
NVcloud-amd64
p237
tp238
(dp239
Vhardware
p240
Vx86-64 cloud
p241
sVhardware-long
p242
VAmazon EC2, Google Compute Engine and Microsoft Azure cloud platforms
p243
ss(Vbase
p244
g191
Vnone
p245
tp246
(dp247
Vflavours
p248
(lp249
Vamd64
p250
aVcloud-amd64
p251
ass(Vbase
p252
g191
Vrt
p253
tp254
(dp255
Vflavours
p256
(lp257
Vamd64
p258
ass(Vbase
p259
Varm64
p260
tp261
(dp262
Vkernel-arch
p263
Varm64
p264
sVfeaturesets
p265
(lp266
Vnone
p267
ass(Vbuild
p268
g260
tp269
(dp270
Vdebug-info
p271
I01
sVimage-file
p272
Varch/arm64/boot/Image
p273
sVvdso
p274
I01
sVsigned-modules
p275
Vfalse
p276
ss(Vimage
p277
g260
tp278
(dp279
Vinstall-stem
p280
Vvmlinuz
p281
sVbreaks
p282
Vlibmozjs185-1.0, libmozjs-24-0 (<< 24.2.0-5.1~)
p283
ss(Vdescription
p284
g260
NVarm64
p285
tp286
(dp287
Vhardware
p288
V64-bit ARMv8 machines
p289
ss(Vimage
p290
g260
NVarm64
p291
tp292
(dp293
s(Vbase
p294
g260
Vnone
p295
tp296
(dp297
Vflavours
p298
(lp299
Varm64
p300
ass(Vbase
p301
Varm64ilp32
p302
tp303
(dp304
Vkernel-arch
p305
Varm64
p306
sVfeaturesets
p307
(lp308
ss(Vbase
p309
Varmel
p310
tp311
(dp312
Vkernel-arch
p313
Varm
p314
sg151
(lp315
g153
ass(Vbuild
p316
g310
tp317
(dp318
Vimage-file
p319
Varch/arm/boot/zImage
p320
sVuncompressed-image-file
p321
Varch/arm/boot/Image
p322
ss(Vimage
p323
g310
tp324
(dp325
Vinstall-stem
p326
Vvmlinuz
p327
ss(Vrelations
p328
g310
tp329
(dp330
Vheaders%gcc-7
p331
Vlinux-compiler-gcc-7-arm
p332
ss(Vdescription
p333
g310
NVmarvell
p334
tp335
(dp336
Vhardware
p337
VMarvell Kirkwood/Orion
p338
sVhardware-long
p339
VMarvell Kirkwood and Orion based systems (https://wiki.debian.org/ArmEabiPort#Supported_hardware)
p340
ss(Vimage
p341
g310
NVmarvell
p342
tp343
(dp344
Vrecommends
p345
Vu-boot-tools
p346
sVcheck-size
p347
L2097080L
sVcheck-size-with-dtb
p348
I01
sVcheck-uncompressed-size
p349
L7340032L
sVbreaks
p350
Vflash-kernel (<< 3.57~)
p351
ss(g182
g310
g153
tp352
(dp353
g185
(lp354
Vmarvell
p355
asg189
I01
ss(Vbase
p356
Varmhf
p357
tp358
(dp359
Vkernel-arch
p360
Varm
p361
sg151
(lp362
g153
ass(Vbuild
p363
g357
tp364
(dp365
Vimage-file
p366
Varch/arm/boot/zImage
p367
sVvdso
p368
I01
sVsigned-modules
p369
Vfalse
p370
ss(Vimage
p371
g357
tp372
(dp373
Vinstall-stem
p374
Vvmlinuz
p375
ss(Vrelations
p376
g357
tp377
(dp378
Vheaders%gcc-7
p379
Vlinux-compiler-gcc-7-arm
p380
ss(Vdescription
p381
g357
NVarmmp
p382
tp383
(dp384
Vhardware
p385
VARMv7 multiplatform compatible SoCs
p386
sVhardware-long
p387
VARMv7 multiplatform kernel. See\u000ahttps://wiki.debian.org/DebianKernel/ARMMP for details of supported\u000aplatforms
p388
ss(Vdescription
p389
g357
NVarmmp-lpae
p390
tp391
(dp392
Vhardware
p393
VARMv7 multiplatform compatible SoCs supporting LPAE
p394
sVhardware-long
p395
VARMv7 multiplatform kernel supporting LPAE. See\u000ahttps://wiki.debian.org/DebianKernel/ARMMP for details of supported\u000aplatforms.
p396
ss(g182
g357
g153
tp397
(dp398
g185
(lp399
Varmmp
p400
aVarmmp-lpae
p401
asg189
I01
ss(Vbase
p402
Vhppa
p403
tp404
(dp405
Vkernel-arch
p406
Vparisc
p407
sg151
(lp408
g153
ass(Vbuild
p409
g403
tp410
(dp411
Vimage-file
p412
Varch/parisc/boot/bzImage
p413
sVdebug-info
p414
I01
ss(Vimage
p415
g403
tp416
(dp417
Vsuggests
p418
Vpalo
p419
sVinstall-stem
p420
Vvmlinuz
p421
ss(Vdescription
p422
g403
NVparisc
p423
tp424
(dp425
Vhardware
p426
V32-bit PA-RISC
p427
sVhardware-long
p428
VHP PA-RISC 32-bit systems with max 4 GB RAM
p429
ss(Vdescription
p430
g403
NVparisc-smp
p431
tp432
(dp433
Vhardware
p434
Vmultiprocessor 32-bit PA-RISC
p435
sVhardware-long
p436
VHP PA-RISC 32-bit SMP systems with max 4 GB RAM
p437
ss(Vbase
p438
g403
NVparisc64-smp
p439
tp440
(dp441
Vcflags
p442
V-fno-cse-follow-jumps
p443
sVoverride-host-type
p444
Vhppa64-linux-gnu
p445
ss(Vdescription
p446
g403
NVparisc64-smp
p447
tp448
(dp449
Vhardware
p450
Vmultiprocessor 64-bit PA-RISC
p451
sVhardware-long
p452
VHP PA-RISC 64-bit SMP systems with support for more than 4 GB RAM
p453
ss(Vrelations
p454
g403
tp455
(dp456
Vgcc-7
p457
Vgcc-7 <!stage1 !cross>, binutils-hppa64-linux-gnu <!stage1 !cross>, gcc-7-hppa64-linux-gnu <!stage1 !cross>, gcc-7-hppa-linux-gnu <!stage1 cross>, binutils-hppa64-linux-gnu <!stage1 cross>, gcc-7-hppa64-linux-gnu <!stage1 cross>
p458
ss(g182
g403
g153
tp459
(dp460
g185
(lp461
Vparisc
p462
aVparisc-smp
p463
aVparisc64-smp
p464
asg189
I01
ss(Vbase
p465
Vi386
p466
tp467
(dp468
Vfeaturesets
p469
(lp470
Vnone
p471
aVrt
p472
asVkernel-arch
p473
Vx86
p474
ss(Vbuild
p475
g466
tp476
(dp477
Vimage-file
p478
Varch/x86/boot/bzImage
p479
sVvdso
p480
I01
sVsigned-modules
p481
Vfalse
p482
ss(Vdescription
p483
g466
tp484
(dp485
Vpart-long-pae
p486
VThis kernel requires PAE (Physical Address Extension).\u000aThis feature is supported by the Intel Pentium Pro/II/III/4/4M/D, Xeon,\u000aCore and Atom; AMD Geode NX, Athlon (K7), Duron, Opteron, Sempron,\u000aTurion or Phenom; Transmeta Efficeon; VIA C7; and some other processors.
p487
ss(Vimage
p488
g466
tp489
(dp490
Vbootloaders
p491
(lp492
Vgrub-pc
p493
aVextlinux
p494
asVinstall-stem
p495
Vvmlinuz
p496
sVbreaks
p497
Vxserver-xorg-input-vmmouse (<< 1:13.0.99)
p498
ss(Vrelations
p499
g466
tp500
(dp501
Vgcc-7
p502
Vgcc-7 (>= 7.2.0-20~) <!stage1 !cross>, gcc-7-i686-linux-gnu (>= 7.2.0-20~) <!stage1 cross>
p503
sVheaders%gcc-7
p504
Vlinux-compiler-gcc-7-x86 (>= 4.14.17-1~)
p505
ss(Vdescription
p506
g466
NV686
p507
tp508
(dp509
Vhardware
p510
Volder PCs
p511
sVhardware-long
p512
VPCs with one or more processors not supporting PAE
p513
ss(Vbuild
p514
g466
NV686-pae
p515
tp516
(dp517
Vdebug-info
p518
I01
ss(Vdescription
p519
g466
NV686-pae
p520
tp521
(dp522
Vhardware
p523
Vmodern PCs
p524
sVhardware-long
p525
VPCs with one or more processors supporting PAE
p526
sVparts
p527
(lp528
Vpae
p529
ass(Vbase
p530
g466
Vnone
p531
tp532
(dp533
Vflavours
p534
(lp535
V686
p536
aV686-pae
p537
ass(Vbase
p538
g466
Vrt
p539
tp540
(dp541
Vflavours
p542
(lp543
V686-pae
p544
ass(Vbase
p545
Via64
p546
tp547
(dp548
Vkernel-arch
p549
Via64
p550
sg151
(lp551
g153
ass(Vbuild
p552
g546
tp553
(dp554
Vimage-file
p555
Vvmlinux.gz
p556
ss(Vimage
p557
g546
tp558
(dp559
Vbootloaders
p560
(lp561
Velilo
p562
asVinstall-stem
p563
Vvmlinuz
p564
ss(Vdescription
p565
g546
NVitanium
p566
tp567
(dp568
Vhardware
p569
VItanium (Merced)
p570
sVhardware-long
p571
Vsystems with original Itanium (Merced) processors
p572
ss(Vdescription
p573
g546
NVmckinley
p574
tp575
(dp576
Vhardware
p577
VItanium 2+
p578
sVhardware-long
p579
Vsystems with Itanium 2 or 9300/9500/9700-series processors
p580
ss(g182
g546
g153
tp581
(dp582
g185
(lp583
Vitanium
p584
aVmckinley
p585
asg189
I01
ss(Vbase
p586
Vm68k
p587
tp588
(dp589
Vcflags
p590
V-ffreestanding
p591
sVkernel-arch
p592
Vm68k
p593
sg151
(lp594
g153
ass(Vbuild
p595
g587
tp596
(dp597
Vimage-file
p598
Vvmlinux
p599
ss(Vimage
p600
g587
tp601
(dp602
Vsuggests
p603
Vvmelilo, fdutils
p604
sVinstall-stem
p605
Vvmlinux
p606
ss(Vdescription
p607
g587
NVm68k
p608
tp609
(dp610
Vhardware
p611
VMotorola MC68020+ family
p612
ss(g182
g587
g153
tp613
(dp614
g185
(lp615
Vm68k
p616
asg189
I01
ss(Vbase
p617
Vmips
p618
tp619
(dp620
Vkernel-arch
p621
Vmips
p622
sg151
(lp623
g153
ass(Vbuild
p624
g618
tp625
(dp626
Vimage-file
p627
Vvmlinux
p628
ss(Vimage
p629
g618
tp630
(dp631
Vinstall-stem
p632
Vvmlinux
p633
ss(Vdescription
p634
g618
NV4kc-malta
p635
tp636
(dp637
Vhardware
p638
VMIPS Malta
p639
sVhardware-long
p640
VMIPS Malta boards
p641
ss(Vimage
p642
g618
NV4kc-malta
p643
tp644
(dp645
Vconfigs
p646
(lp647
Vkernelarch-mips/config.malta
p648
aVkernelarch-mips/config.mips32r2
p649
ass(Vdescription
p650
g618
NV5kc-malta
p651
tp652
(dp653
Vhardware
p654
VMIPS Malta (64-bit)
p655
sVhardware-long
p656
VMIPS Malta boards (64-bit)
p657
ss(Vimage
p658
g618
NV5kc-malta
p659
tp660
(dp661
Vconfigs
p662
(lp663
Vkernelarch-mips/config.malta
p664
aVkernelarch-mips/config.mips64r2
p665
ass(Vdescription
p666
g618
NVocteon
p667
tp668
(dp669
Vhardware
p670
VOcteon
p671
sVhardware-long
p672
VCavium Networks Octeon
p673
ss(Vimage
p674
g618
NVocteon
p675
tp676
(dp677
Vconfigs
p678
(lp679
Vkernelarch-mips/config.octeon
p680
ass(g182
g618
g153
tp681
(dp682
g185
(lp683
V4kc-malta
p684
aV5kc-malta
p685
aVocteon
p686
asg189
I01
ss(Vbase
p687
Vmips64
p688
tp689
(dp690
Vkernel-arch
p691
Vmips
p692
sg151
(lp693
g153
ass(Vbuild
p694
g688
tp695
(dp696
Vimage-file
p697
Vvmlinux
p698
ss(Vimage
p699
g688
tp700
(dp701
Vinstall-stem
p702
Vvmlinux
p703
ss(Vdescription
p704
g688
NV5kc-malta
p705
tp706
(dp707
Vhardware
p708
VMIPS Malta
p709
sVhardware-long
p710
VMIPS Malta boards
p711
ss(Vimage
p712
g688
NV5kc-malta
p713
tp714
(dp715
Vconfigs
p716
(lp717
Vkernelarch-mips/config.malta
p718
aVkernelarch-mips/config.mips64r2
p719
ass(Vdescription
p720
g688
NVocteon
p721
tp722
(dp723
Vhardware
p724
VOcteon
p725
sVhardware-long
p726
VCavium Networks Octeon
p727
ss(Vimage
p728
g688
NVocteon
p729
tp730
(dp731
Vconfigs
p732
(lp733
Vkernelarch-mips/config.octeon
p734
ass(g182
g688
g153
tp735
(dp736
g185
(lp737
V5kc-malta
p738
aVocteon
p739
asg189
I01
ss(Vbase
p740
Vmips64el
p741
tp742
(dp743
Vkernel-arch
p744
Vmips
p745
sg151
(lp746
g153
ass(Vbuild
p747
g741
tp748
(dp749
Vimage-file
p750
Vvmlinux
p751
ss(Vimage
p752
g741
tp753
(dp754
Vinstall-stem
p755
Vvmlinux
p756
ss(Vdescription
p757
g741
NV5kc-malta
p758
tp759
(dp760
Vhardware
p761
VMIPS Malta
p762
sVhardware-long
p763
VMIPS Malta boards
p764
ss(Vimage
p765
g741
NV5kc-malta
p766
tp767
(dp768
Vconfigs
p769
(lp770
Vkernelarch-mips/config.malta
p771
aVkernelarch-mips/config.mips64r2
p772
ass(Vdescription
p773
g741
NVloongson-3
p774
tp775
(dp776
Vhardware
p777
VLoongson 3A/3B
p778
sVhardware-long
p779
VLoongson 3A or 3B based systems (e.g. from Loongson or Lemote)
p780
ss(Vimage
p781
g741
NVloongson-3
p782
tp783
(dp784
Vconfigs
p785
(lp786
Vkernelarch-mips/config.loongson-3
p787
ass(Vdescription
p788
g741
NVocteon
p789
tp790
(dp791
Vhardware
p792
VOcteon
p793
sVhardware-long
p794
VCavium Networks Octeon
p795
ss(Vimage
p796
g741
NVocteon
p797
tp798
(dp799
Vconfigs
p800
(lp801
Vkernelarch-mips/config.octeon
p802
ass(g182
g741
g153
tp803
(dp804
g185
(lp805
V5kc-malta
p806
aVloongson-3
p807
aVocteon
p808
asg189
I01
ss(Vbase
p809
Vmips64r6
p810
tp811
(dp812
Vkernel-arch
p813
Vmips
p814
sg151
(lp815
g153
ass(Vbuild
p816
g810
tp817
(dp818
Vimage-file
p819
Vvmlinux
p820
ss(Vimage
p821
g810
tp822
(dp823
Vinstall-stem
p824
Vvmlinux
p825
ss(Vdescription
p826
g810
NVmips64r6
p827
tp828
(dp829
Vhardware
p830
VMIPS R6 (64 bit, big endian)
p831
sVhardware-long
p832
VMIPS R6 (64 bit, big endian)
p833
ss(Vimage
p834
g810
NVmips64r6
p835
tp836
(dp837
Vconfigs
p838
(lp839
Vkernelarch-mips/config.malta
p840
aVkernelarch-mips/config.mips64r6
p841
ass(g182
g810
g153
tp842
(dp843
g185
(lp844
Vmips64r6
p845
asg189
I01
ss(Vbase
p846
Vmips64r6el
p847
tp848
(dp849
Vkernel-arch
p850
Vmips
p851
sg151
(lp852
g153
ass(Vbuild
p853
g847
tp854
(dp855
Vimage-file
p856
Vvmlinux
p857
ss(Vimage
p858
g847
tp859
(dp860
Vinstall-stem
p861
Vvmlinux
p862
ss(Vdescription
p863
g847
NVmips64r6el
p864
tp865
(dp866
Vhardware
p867
VMIPS R6 (64 bit, little endian)
p868
sVhardware-long
p869
VMIPS R6 (64 bit, little endian)
p870
ss(Vimage
p871
g847
NVmips64r6el
p872
tp873
(dp874
Vconfigs
p875
(lp876
Vkernelarch-mips/config.malta
p877
aVkernelarch-mips/config.mips64r6
p878
ass(g182
g847
g153
tp879
(dp880
g185
(lp881
Vmips64r6el
p882
asg189
I01
ss(Vbase
p883
Vmipsel
p884
tp885
(dp886
Vkernel-arch
p887
Vmips
p888
sg151
(lp889
g153
ass(Vbuild
p890
g884
tp891
(dp892
Vimage-file
p893
Vvmlinux
p894
ss(Vimage
p895
g884
tp896
(dp897
Vinstall-stem
p898
Vvmlinux
p899
ss(Vdescription
p900
g884
NV4kc-malta
p901
tp902
(dp903
Vhardware
p904
VMIPS Malta
p905
sVhardware-long
p906
VMIPS Malta boards
p907
ss(Vimage
p908
g884
NV4kc-malta
p909
tp910
(dp911
Vconfigs
p912
(lp913
Vkernelarch-mips/config.malta
p914
aVkernelarch-mips/config.mips32r2
p915
ass(Vdescription
p916
g884
NV5kc-malta
p917
tp918
(dp919
Vhardware
p920
VMIPS Malta (64-bit)
p921
sVhardware-long
p922
VMIPS Malta boards (64-bit)
p923
ss(Vimage
p924
g884
NV5kc-malta
p925
tp926
(dp927
Vconfigs
p928
(lp929
Vkernelarch-mips/config.malta
p930
aVkernelarch-mips/config.mips64r2
p931
ass(Vdescription
p932
g884
NVloongson-3
p933
tp934
(dp935
Vhardware
p936
VLoongson 3A/3B
p937
sVhardware-long
p938
VLoongson 3A or 3B based systems (e.g. from Loongson or Lemote)
p939
ss(Vimage
p940
g884
NVloongson-3
p941
tp942
(dp943
Vconfigs
p944
(lp945
Vkernelarch-mips/config.loongson-3
p946
ass(Vdescription
p947
g884
NVocteon
p948
tp949
(dp950
Vhardware
p951
VOcteon
p952
sVhardware-long
p953
VCavium Networks Octeon
p954
ss(Vimage
p955
g884
NVocteon
p956
tp957
(dp958
Vconfigs
p959
(lp960
Vkernelarch-mips/config.octeon
p961
ass(g182
g884
g153
tp962
(dp963
g185
(lp964
V4kc-malta
p965
aV5kc-malta
p966
aVloongson-3
p967
aVocteon
p968
asg189
I01
ss(Vbase
p969
Vmipsn32
p970
tp971
(dp972
Vkernel-arch
p973
Vmips
p974
sVfeaturesets
p975
(lp976
ss(Vbase
p977
Vmipsn32el
p978
tp979
(dp980
Vkernel-arch
p981
Vmips
p982
sVfeaturesets
p983
(lp984
ss(Vbase
p985
Vmipsn32r6
p986
tp987
(dp988
Vkernel-arch
p989
Vmips
p990
sVfeaturesets
p991
(lp992
ss(Vbase
p993
Vmipsn32r6el
p994
tp995
(dp996
Vkernel-arch
p997
Vmips
p998
sVfeaturesets
p999
(lp1000
ss(Vbase
p1001
Vmipsr6
p1002
tp1003
(dp1004
Vkernel-arch
p1005
Vmips
p1006
sg151
(lp1007
g153
ass(Vbuild
p1008
g1002
tp1009
(dp1010
Vimage-file
p1011
Vvmlinux
p1012
ss(Vimage
p1013
g1002
tp1014
(dp1015
Vinstall-stem
p1016
Vvmlinux
p1017
ss(Vdescription
p1018
g1002
NVmips32r6
p1019
tp1020
(dp1021
Vhardware
p1022
VMIPS R6 (32 bit, big endian)
p1023
sVhardware-long
p1024
VMIPS R6 (32 bit, big endian)
p1025
ss(Vimage
p1026
g1002
NVmips32r6
p1027
tp1028
(dp1029
Vconfigs
p1030
(lp1031
Vkernelarch-mips/config.malta
p1032
aVkernelarch-mips/config.mips32r6
p1033
ass(Vdescription
p1034
g1002
NVmips64r6
p1035
tp1036
(dp1037
Vhardware
p1038
VMIPS R6 (64 bit, big endian)
p1039
sVhardware-long
p1040
VMIPS R6 (64 bit, big endian)
p1041
ss(Vimage
p1042
g1002
NVmips64r6
p1043
tp1044
(dp1045
Vconfigs
p1046
(lp1047
Vkernelarch-mips/config.malta
p1048
aVkernelarch-mips/config.mips64r6
p1049
ass(g182
g1002
g153
tp1050
(dp1051
g185
(lp1052
Vmips32r6
p1053
aVmips64r6
p1054
asg189
I01
ss(Vbase
p1055
Vmipsr6el
p1056
tp1057
(dp1058
Vkernel-arch
p1059
Vmips
p1060
sg151
(lp1061
g153
ass(Vbuild
p1062
g1056
tp1063
(dp1064
Vimage-file
p1065
Vvmlinux
p1066
ss(Vimage
p1067
g1056
tp1068
(dp1069
Vinstall-stem
p1070
Vvmlinux
p1071
ss(Vdescription
p1072
g1056
NVmips32r6el
p1073
tp1074
(dp1075
Vhardware
p1076
VMIPS R6 (32 bit, little endian)
p1077
sVhardware-long
p1078
VMIPS R6 (32 bit, little endian)
p1079
ss(Vimage
p1080
g1056
NVmips32r6el
p1081
tp1082
(dp1083
Vconfigs
p1084
(lp1085
Vkernelarch-mips/config.malta
p1086
aVkernelarch-mips/config.mips32r6
p1087
ass(Vdescription
p1088
g1056
NVmips64r6el
p1089
tp1090
(dp1091
Vhardware
p1092
VMIPS R6 (64 bit, little endian)
p1093
sVhardware-long
p1094
VMIPS R6 (64 bit, little endian)
p1095
ss(Vimage
p1096
g1056
NVmips64r6el
p1097
tp1098
(dp1099
Vconfigs
p1100
(lp1101
Vkernelarch-mips/config.malta
p1102
aVkernelarch-mips/config.mips64r6
p1103
ass(g182
g1056
g153
tp1104
(dp1105
g185
(lp1106
Vmips32r6el
p1107
aVmips64r6el
p1108
asg189
I01
ss(Vbase
p1109
Vpowerpc
p1110
tp1111
(dp1112
Vkernel-arch
p1113
Vpowerpc
p1114
sg151
(lp1115
g153
ass(Vbuild
p1116
g1110
tp1117
(dp1118
Vimage-file
p1119
Vvmlinux
p1120
sVvdso
p1121
I01
ss(Vimage
p1122
g1110
tp1123
(dp1124
Vconfigs
p1125
(lp1126
sVsuggests
p1127
Vmkvmlinuz
p1128
sVinstall-stem
p1129
Vvmlinux
p1130
ss(Vdescription
p1131
g1110
NVpowerpc
p1132
tp1133
(dp1134
Vhardware
p1135
Vuniprocessor 32-bit PowerPC
p1136
ss(Vdescription
p1137
g1110
NVpowerpc-smp
p1138
tp1139
(dp1140
Vhardware
p1141
Vmultiprocessor 32-bit PowerPC
p1142
ss(Vimage
p1143
g1110
NVpowerpc-smp
p1144
tp1145
(dp1146
Vconfigs
p1147
(lp1148
Vpowerpc/config.powerpc
p1149
aVpowerpc/config.powerpc-smp
p1150
ass(Vdescription
p1151
g1110
NVpowerpc64
p1152
tp1153
(dp1154
Vhardware
p1155
V64-bit PowerPC
p1156
ss(Vimage
p1157
g1110
NVpowerpc64
p1158
tp1159
(dp1160
Vconfigs
p1161
(lp1162
Vkernelarch-powerpc/config-arch-64
p1163
aVkernelarch-powerpc/config-arch-64-be
p1164
ass(g182
g1110
g153
tp1165
(dp1166
g185
(lp1167
Vpowerpc
p1168
aVpowerpc-smp
p1169
aVpowerpc64
p1170
asg189
I01
ss(Vbase
p1171
Vpowerpcspe
p1172
tp1173
(dp1174
Vkernel-arch
p1175
Vpowerpc
p1176
sg151
(lp1177
g153
ass(Vbuild
p1178
g1172
tp1179
(dp1180
Vimage-file
p1181
Vvmlinux
p1182
sVvdso
p1183
I01
ss(Vimage
p1184
g1172
tp1185
(dp1186
Vsuggests
p1187
Vmkvmlinuz
p1188
sVinstall-stem
p1189
Vvmlinux
p1190
ss(Vdescription
p1191
g1172
tp1192
(dp1193
Vhardware
p1194
V32-bit PowerPC with SPE (instead of AltiVec) with SMP support
p1195
ss(g182
g1172
g153
tp1196
(dp1197
g185
(lp1198
Vpowerpcspe
p1199
asg189
I01
ss(Vbase
p1200
Vppc64
p1201
tp1202
(dp1203
Vkernel-arch
p1204
Vpowerpc
p1205
sg151
(lp1206
g153
ass(Vbuild
p1207
g1201
tp1208
(dp1209
Vimage-file
p1210
Vvmlinux
p1211
sVvdso
p1212
I01
ss(Vimage
p1213
g1201
tp1214
(dp1215
Vconfigs
p1216
(lp1217
sVsuggests
p1218
Vmkvmlinuz
p1219
sVinstall-stem
p1220
Vvmlinux
p1221
ss(Vdescription
p1222
g1201
NVpowerpc64
p1223
tp1224
(dp1225
Vhardware
p1226
V64-bit PowerPC
p1227
ss(Vimage
p1228
g1201
NVpowerpc64
p1229
tp1230
(dp1231
Vconfigs
p1232
(lp1233
Vkernelarch-powerpc/config-arch-64
p1234
aVkernelarch-powerpc/config-arch-64-be
p1235
ass(g182
g1201
g153
tp1236
(dp1237
g185
(lp1238
Vpowerpc64
p1239
asg189
I01
ss(Vbase
p1240
Vppc64el
p1241
tp1242
(dp1243
Vkernel-arch
p1244
Vpowerpc
p1245
sg151
(lp1246
g153
ass(Vbuild
p1247
g1241
tp1248
(dp1249
Vimage-file
p1250
Vvmlinux
p1251
sVvdso
p1252
I01
ss(Vimage
p1253
g1241
tp1254
(dp1255
Vconfigs
p1256
(lp1257
sVsuggests
p1258
Vmkvmlinuz
p1259
sVinstall-stem
p1260
Vvmlinux
p1261
ss(Vdescription
p1262
g1241
NVpowerpc64le
p1263
tp1264
(dp1265
Vhardware
p1266
VLittle-endian 64-bit PowerPC
p1267
ss(Vimage
p1268
g1241
NVpowerpc64le
p1269
tp1270
(dp1271
Vconfigs
p1272
(lp1273
Vkernelarch-powerpc/config-arch-64
p1274
aVkernelarch-powerpc/config-arch-64-le
p1275
ass(g182
g1241
g153
tp1276
(dp1277
g185
(lp1278
Vpowerpc64le
p1279
asg189
I01
ss(Vbase
p1280
Vs390
p1281
tp1282
(dp1283
Vkernel-arch
p1284
Vs390
p1285
sVfeaturesets
p1286
(lp1287
ss(Vbase
p1288
Vs390x
p1289
tp1290
(dp1291
Vkernel-arch
p1292
Vs390
p1293
sg151
(lp1294
g153
ass(Vbuild
p1295
g1289
tp1296
(dp1297
Vimage-file
p1298
Varch/s390/boot/image
p1299
sVvdso
p1300
I01
ss(Vimage
p1301
g1289
tp1302
(dp1303
Vbootloaders
p1304
(lp1305
Vs390-tools
p1306
asVinstall-stem
p1307
Vvmlinuz
p1308
ss(Vrelations
p1309
g1289
tp1310
(dp1311
Vheaders%gcc-7
p1312
Vlinux-compiler-gcc-7-s390
p1313
ss(Vbuild
p1314
g1289
NVs390x
p1315
tp1316
(dp1317
Vdebug-info
p1318
I01
ss(Vdescription
p1319
g1289
NVs390x
p1320
tp1321
(dp1322
Vhardware
p1323
VIBM zSeries
p1324
ss(g182
g1289
g153
tp1325
(dp1326
g185
(lp1327
Vs390x
p1328
asg189
I01
ss(Vbase
p1329
Vsh3
p1330
tp1331
(dp1332
Vkernel-arch
p1333
Vsh
p1334
sVfeaturesets
p1335
(lp1336
ss(Vbase
p1337
Vsh4
p1338
tp1339
(dp1340
Vkernel-arch
p1341
Vsh
p1342
sg151
(lp1343
g153
ass(Vbuild
p1344
g1338
tp1345
(dp1346
Vimage-file
p1347
Varch/sh/boot/zImage
p1348
ss(Vimage
p1349
g1338
tp1350
(dp1351
Vinstall-stem
p1352
Vvmlinuz
p1353
ss(Vdescription
p1354
g1338
NVsh7751r
p1355
tp1356
(dp1357
Vhardware
p1358
Vsh7751r
p1359
sVhardware-long
p1360
VRenesas SH7751R R2D plus board
p1361
ss(Vdescription
p1362
g1338
NVsh7785lcr
p1363
tp1364
(dp1365
Vhardware
p1366
Vsh7785lcr
p1367
sVhardware-long
p1368
VRenesas SH7785 reference board
p1369
ss(Vimage
p1370
g1338
NVsh7785lcr
p1371
tp1372
(dp1373
Vrecommends
p1374
Vu-boot-tools
p1375
sVcheck-size
p1376
L4194304L
ss(g182
g1338
g153
tp1377
(dp1378
g185
(lp1379
Vsh7751r
p1380
aVsh7785lcr
p1381
asg189
I01
ss(Vbase
p1382
Vsparc
p1383
tp1384
(dp1385
Vkernel-arch
p1386
Vsparc
p1387
sVfeaturesets
p1388
(lp1389
ss(Vbase
p1390
Vsparc64
p1391
tp1392
(dp1393
Vkernel-arch
p1394
Vsparc
p1395
sg151
(lp1396
g153
ass(Vbuild
p1397
g1391
tp1398
(dp1399
Vimage-file
p1400
Varch/sparc/boot/zImage
p1401
ss(Vimage
p1402
g1391
tp1403
(dp1404
Vconfigs
p1405
(lp1406
sVsuggests
p1407
Vsilo, fdutils
p1408
sVinstall-stem
p1409
Vvmlinuz
p1410
ss(Vdescription
p1411
g1391
NVsparc64
p1412
tp1413
(dp1414
Vhardware
p1415
Vuniprocessor 64-bit UltraSPARC
p1416
ss(Vimage
p1417
g1391
NVsparc64
p1418
tp1419
(dp1420
Vconfigs
p1421
(lp1422
Vkernelarch-sparc/config-up
p1423
ass(Vdescription
p1424
g1391
NVsparc64-smp
p1425
tp1426
(dp1427
Vhardware
p1428
Vmultiprocessor 64-bit UltraSPARC
p1429
ss(Vimage
p1430
g1391
NVsparc64-smp
p1431
tp1432
(dp1433
Vconfigs
p1434
(lp1435
Vkernelarch-sparc/config-smp
p1436
ass(g182
g1391
g153
tp1437
(dp1438
g185
(lp1439
Vsparc64
p1440
aVsparc64-smp
p1441
asg189
I01
ss(Vbase
p1442
Vtilegx
p1443
tp1444
(dp1445
Vkernel-arch
p1446
Vtile
p1447
sVfeaturesets
p1448
(lp1449
ss(Vbase
p1450
Vx32
p1451
tp1452
(dp1453
Vkernel-arch
p1454
Vx86
p1455
sVfeaturesets
p1456
(lp1457
ss(Vabi
p1458
NVrt
p1459
tp1460
(dp1461
Vignore-changes
p1462
(lp1463
V*
p1464
ass(Vdescription
p1465
Ng1459
tp1466
(dp1467
Vpart-long-rt
p1468
VThis kernel includes the PREEMPT_RT realtime patch set.
p1469
sVpart-short-rt
p1470
VPREEMPT_RT
p1471
sVparts
p1472
(lp1473
Vrt
p1474
ass(Vversion
p1475
tp1476
(dp1477
Vsource
p1478
V4.16.16-2parrot16
p1479
sVupstream
p1480
V4.16
p1481
sVabiname_base
p1482
V4.16.0
p1483
sVabiname
p1484
V4.16.0-parrot16
p1485
ss.