cdebian_linux.config
ConfigCore
p0
(tRp1
(Vabi
p2
tp3
(dp4
Vabiname
p5
V8parrot1
p6
sVignore-changes
p7
(lp8
V__cpuhp_*
p9
aV__udp_gso_segment
p10
aVbpf_analyzer
p11
aVcxl_*
p12
aVdax_flush
p13
aVieee80211_nullfunc_get
p14
aVinet_add_protocol
p15
aVinet_del_protocol
p16
aViommu_device_*
p17
aVmm_iommu_*
p18
aVmv_mbus_*
p19
aVperf_*
p20
aVregister_cxl_calls
p21
aVregister_key_type
p22
aVunregister_cxl_calls
p23
aV*_hw_breakpoint
p24
aVmodule:drivers/crypto/ccp/*
p25
aVmodule:drivers/hv/*
p26
aVmodule:drivers/gpu/drm/sun4i/*
p27
aVmodule:drivers/iio/**
p28
aVmodule:drivers/misc/cxl/*
p29
aVmodule:drivers/misc/lis3lv02d/*
p30
aVmodule:drivers/mtd/nand/*
p31
aVmodule:drivers/net/ethernet/**
p32
aVmodule:drivers/net/wireless/**
p33
aVmodule:drivers/nvdimm/*
p34
aVmodule:drivers/nvme/**
p35
aVmodule:drivers/power/supply/bq27xxx_battery
p36
aVmodule:drivers/scsi/cxgbi/*
p37
aVmodule:drivers/scsi/libiscs*
p38
aVmodule:drivers/scsi/qla2xxx/qla2xxx
p39
aVmodule:drivers/scsi/ufs/*
p40
aVmodule:drivers/target/**
p41
aVmodule:drivers/usb/chipidea/**
p42
aVmodule:drivers/usb/gadget/**
p43
aVmodule:drivers/usb/host/**
p44
aVmodule:drivers/usb/musb/**
p45
aVmodule:fs/nfs/**
p46
aVmodule:net/ceph/libceph
p47
aVmodule:net/l2tp/**
p48
aVmodule:net/openvswitch/**
p49
aVmodule:net/rxrpc/rxrpc
p50
aVmodule:net/sctp/**
p51
aVmodule:sound/core/seq/**
p52
aVmodule:sound/firewire/snd-firewire-lib
p53
aVmodule:sound/pci/hda/*
p54
aVbtree_*
p55
aVvisitor*
p56
aVcan_rx_register
p57
aVip6_xmit
p58
aVmodule:net/dccp/dccp
p59
aVmodule:net/rds/rds
p60
aVdevfreq_*
p61
aVdevm_devfreq_*
p62
aVupdate_devfreq
p63
aVmodule:drivers/infiniband/**
p64
aVacpi_ec_add_query_handler
p65
aVacpi_ec_remove_query_handler
p66
aVfirst_ec
p67
aVdebugfs_create_automount
p68
aVmodule:drivers/iio/imu/inv_mpu6050/*
p69
aVdrm_crtc_accurate_vblank_count
p70
aVacpi_nfit_desc_init
p71
aVacpi_nfit_init
p72
aVloop_register_transfer
p73
aVxen_xlate_*
p74
aVnf_nat_masquerade_ipv4_register_notifier
p75
aVnf_nat_masquerade_ipv6_register_notifier
p76
aVdfltcc_*
p77
aVmodule:drivers/scsi/hisi_sas/*
p78
aV__gfn_*
p79
aV__kvmhv_*
p80
aV__kvm_*
p81
aV__xive_vm_h_*
p82
aVgfn_*
p83
aVh_ipi_redirect
p84
aVhalt_poll_ns*
p85
aVkvm_*
p86
aVkvmhv_*
p87
aVkvmppc_*
p88
aVmark_page_dirty
p89
aVvcpu_*
p90
aVmodule:arch/powerpc/kvm/*
p91
aVmodule:arch/s390/kvm/*
p92
aVmodule:arch/x86/kvm/*
p93
aVuv_info
p94
aVxhci_init_driver
p95
ass(Vbase
p96
tp97
(dp98
Varches
p99
(lp100
Valpha
p101
aVamd64
p102
aVarm64
p103
aVarm64ilp32
p104
aVarmel
p105
aVarmhf
p106
aVhppa
p107
aVi386
p108
aVia64
p109
aVm68k
p110
aVmips
p111
aVmips64
p112
aVmips64el
p113
aVmips64r6
p114
aVmips64r6el
p115
aVmipsel
p116
aVmipsn32
p117
aVmipsn32el
p118
aVmipsn32r6
p119
aVmipsn32r6el
p120
aVmipsr6
p121
aVmipsr6el
p122
aVpowerpc
p123
aVppc64
p124
aVppc64el
p125
aVriscv64
p126
aVs390
p127
aVs390x
p128
aVsh3
p129
aVsh4
p130
aVsparc
p131
aVsparc64
p132
aVx32
p133
asVcompiler
p134
Vgcc-10
p135
sVfeaturesets
p136
(lp137
Vnone
p138
aVrt
p139
ass(Vbuild
p140
tp141
(dp142
Vdebug-info
p143
I01
sVsigned-code
p144
I00
ss(Vbase
p145
NVrt
p146
tp147
(dp148
Venabled
p149
I01
ss(Vdescription
p150
tp151
(dp152
Vpart-long-up
p153
VThis kernel is not suitable for SMP (multi-processor,\u000amulti-core or hyper-threaded) systems.
p154
ss(Vimage
p155
tp156
(dp157
Vinitramfs-generators
p158
(lp159
Vinitramfs-tools
p160
aVinitramfs-fallback
p161
asVbreaks
p162
(lp163
Vfwupdate (<< 12-7)
p164
aVwireless-regdb (<< 2019.06.03-1~)
p165
asVrecommends
p166
(lp167
Vapparmor
p168
ass(Vrelations
p169
tp170
(dp171
Vgcc-10
p172
Vgcc-10 <!stage1 !cross !pkg.linux.nokernel>, gcc-10-@gnu-type-package@ <!stage1 cross !pkg.linux.nokernel>
p173
sVinitramfs-fallback
p174
Vlinux-initramfs-tool
p175
sVinitramfs-tools
p176
Vinitramfs-tools (>= 0.120+deb8u2)
p177
ss(Vbase
p178
Valpha
p179
tp180
(dp181
Vdefault-flavour
p182
Valpha-smp
p183
sVkernel-arch
p184
Valpha
p185
sVfeaturesets
p186
(lp187
Vnone
p188
ass(Vbuild
p189
g179
tp190
(dp191
Vimage-file
p192
Varch/alpha/boot/vmlinux.gz
p193
ss(Vimage
p194
g179
tp195
(dp196
Vsuggests
p197
(lp198
Vaboot
p199
aVfdutils
p200
asVinstall-stem
p201
Vvmlinuz
p202
ss(Vdescription
p203
g179
NValpha-generic
p204
tp205
(dp206
Vhardware
p207
VAlpha
p208
sVhardware-long
p209
VDEC Alpha systems with extended kernel start address (Wildfire, Titan, Marvel)
p210
ss(Vdescription
p211
g179
NValpha-smp
p212
tp213
(dp214
Vhardware
p215
VAlpha SMP
p216
sVhardware-long
p217
VDEC Alpha SMP systems with extended kernel start address (Wildfire, Titan, Marvel)
p218
ss(Vbase
p219
g179
g188
tp220
(dp221
Vflavours
p222
(lp223
Valpha-generic
p224
aValpha-smp
p225
asVimplicit-flavour
p226
I01
ss(Vbase
p227
Vamd64
p228
tp229
(dp230
Vfeaturesets
p231
(lp232
Vnone
p233
aVrt
p234
asVkernel-arch
p235
Vx86
p236
ss(Vbuild
p237
g228
tp238
(dp239
Vimage-file
p240
Varch/x86/boot/bzImage
p241
sVsigned-code
p242
I00
sVvdso
p243
I01
ss(Vimage
p244
g228
tp245
(dp246
Vbootloaders
p247
(lp248
Vgrub-pc
p249
aVgrub-efi-amd64
p250
aVextlinux
p251
asVinstall-stem
p252
Vvmlinuz
p253
sVbreaks
p254
(lp255
Vxserver-xorg-input-vmmouse (<< 1:13.0.99)
p256
ass(Vrelations
p257
g228
tp258
(dp259
Vheaders%gcc-10
p260
Vlinux-compiler-gcc-10-x86
p261
ss(Vdescription
p262
g228
NVamd64
p263
tp264
(dp265
Vhardware
p266
V64-bit PCs
p267
sVhardware-long
p268
VPCs with AMD64, Intel 64 or VIA Nano processors
p269
ss(Vdescription
p270
g228
NVcloud-amd64
p271
tp272
(dp273
Vhardware
p274
Vx86-64 cloud
p275
sVhardware-long
p276
Vcloud platforms including Amazon EC2, Microsoft Azure, and Google Compute Engine
p277
ss(Vbase
p278
g228
Vnone
p279
tp280
(dp281
Vflavours
p282
(lp283
Vamd64
p284
aVcloud-amd64
p285
asVdefault-flavour
p286
Vamd64
p287
ss(Vimage
p288
g228
g279
Vcloud-amd64
p289
tp290
(dp291
Vconfigs
p292
(lp293
Vconfig.cloud
p294
aVamd64/config.cloud-amd64
p295
ass(Vbase
p296
g228
Vrt
p297
tp298
(dp299
Vflavours
p300
(lp301
Vamd64
p302
ass(Vbase
p303
Varm64
p304
tp305
(dp306
Vcross-compile-compat
p307
Varm-linux-gnueabihf-
p308
sVkernel-arch
p309
Varm64
p310
sVfeaturesets
p311
(lp312
Vnone
p313
aVrt
p314
ass(Vbuild
p315
g304
tp316
(dp317
Vimage-file
p318
Varch/arm64/boot/Image
p319
sVsigned-code
p320
I00
sVvdso
p321
I01
ss(Vimage
p322
g304
tp323
(dp324
Vinstall-stem
p325
Vvmlinuz
p326
sVbreaks
p327
(lp328
Vlibmozjs185-1.0
p329
aVlibmozjs-24-0 (<< 24.2.0-5.1~)
p330
ass(Vdescription
p331
g304
NVarm64
p332
tp333
(dp334
Vhardware
p335
V64-bit ARMv8 machines
p336
ss(Vdescription
p337
g304
NVcloud-arm64
p338
tp339
(dp340
Vhardware
p341
Varm64 cloud
p342
sVhardware-long
p343
Vcloud platforms supporting arm64 virtual machines
p344
ss(Vimage
p345
g304
NVarm64
p346
tp347
(dp348
s(Vrelations
p349
g304
tp350
(dp351
Vgcc-10
p352
Vgcc-10 <!stage1 !cross !pkg.linux.nokernel>, gcc-10-aarch64-linux-gnu <!stage1 cross !pkg.linux.nokernel>, gcc-arm-linux-gnueabihf <!stage1 !pkg.linux.nokernel>
p353
sVheaders%gcc-10
p354
Vgcc-10
p355
ss(Vbase
p356
g304
Vnone
p357
tp358
(dp359
Vflavours
p360
(lp361
Varm64
p362
aVcloud-arm64
p363
asVdefault-flavour
p364
Varm64
p365
ss(Vimage
p366
g304
g357
Vcloud-arm64
p367
tp368
(dp369
Vconfigs
p370
(lp371
Vconfig.cloud
p372
aVarm64/config.cloud-arm64
p373
ass(Vbase
p374
g304
Vrt
p375
tp376
(dp377
Vflavours
p378
(lp379
Varm64
p380
ass(Vbase
p381
Varm64ilp32
p382
tp383
(dp384
Vkernel-arch
p385
Varm64
p386
sVfeaturesets
p387
(lp388
ss(Vbase
p389
Varmel
p390
tp391
(dp392
Vkernel-arch
p393
Varm
p394
sg186
(lp395
g188
ass(Vbuild
p396
g390
tp397
(dp398
Vimage-file
p399
Varch/arm/boot/zImage
p400
sVuncompressed-image-file
p401
Varch/arm/boot/Image
p402
ss(Vimage
p403
g390
tp404
(dp405
Vinstall-stem
p406
Vvmlinuz
p407
ss(Vrelations
p408
g390
tp409
(dp410
Vheaders%gcc-10
p411
Vlinux-compiler-gcc-10-arm
p412
ss(Vdescription
p413
g390
NVmarvell
p414
tp415
(dp416
Vhardware
p417
VMarvell Kirkwood/Orion
p418
sVhardware-long
p419
VMarvell Kirkwood and Orion based systems (https://wiki.debian.org/ArmEabiPort#Supported_hardware)
p420
ss(Vdescription
p421
g390
NVrpi
p422
tp423
(dp424
Vhardware
p425
VRaspberry Pi and Pi Zero
p426
sVhardware-long
p427
VRaspberry Pi, Raspberry Pi Zero based systems
p428
ss(Vimage
p429
g390
NVmarvell
p430
tp431
(dp432
Vrecommends
p433
(lp434
Vu-boot-tools
p435
asVcheck-size
p436
I2729712
sVcheck-size-with-dtb
p437
I01
sVbreaks
p438
(lp439
Vflash-kernel (<< 3.57~)
p440
ass(g219
g390
g188
tp441
(dp442
g222
(lp443
Vmarvell
p444
aVrpi
p445
asg226
I01
ss(Vbase
p446
Varmhf
p447
tp448
(dp449
Vfeaturesets
p450
(lp451
Vnone
p452
aVrt
p453
asVkernel-arch
p454
Varm
p455
ss(Vbuild
p456
g447
tp457
(dp458
Vimage-file
p459
Varch/arm/boot/zImage
p460
sVvdso
p461
I01
ss(Vimage
p462
g447
tp463
(dp464
Vinstall-stem
p465
Vvmlinuz
p466
ss(Vrelations
p467
g447
tp468
(dp469
Vheaders%gcc-10
p470
Vlinux-compiler-gcc-10-arm
p471
ss(Vdescription
p472
g447
NVarmmp
p473
tp474
(dp475
Vhardware
p476
VARMv7 multiplatform compatible SoCs
p477
sVhardware-long
p478
VARMv7 multiplatform kernel. See\u000ahttps://wiki.debian.org/DebianKernel/ARMMP for details of supported\u000aplatforms
p479
ss(Vdescription
p480
g447
NVarmmp-lpae
p481
tp482
(dp483
Vhardware
p484
VARMv7 multiplatform compatible SoCs supporting LPAE
p485
sVhardware-long
p486
VARMv7 multiplatform kernel supporting LPAE. See\u000ahttps://wiki.debian.org/DebianKernel/ARMMP for details of supported\u000aplatforms.
p487
ss(Vbase
p488
g447
Vnone
p489
tp490
(dp491
Vflavours
p492
(lp493
Varmmp
p494
aVarmmp-lpae
p495
asVdefault-flavour
p496
Varmmp
p497
ss(Vbase
p498
g447
Vrt
p499
tp500
(dp501
Vflavours
p502
(lp503
Varmmp
p504
ass(Vbase
p505
Vhppa
p506
tp507
(dp508
Vdefault-flavour
p509
Vparisc
p510
sVkernel-arch
p511
Vparisc
p512
sg186
(lp513
g188
ass(Vbuild
p514
g506
tp515
(dp516
Vimage-file
p517
Varch/parisc/boot/bzImage
p518
sVdebug-info
p519
I00
ss(Vimage
p520
g506
tp521
(dp522
Vsuggests
p523
(lp524
Vpalo
p525
asVinstall-stem
p526
Vvmlinuz
p527
ss(Vdescription
p528
g506
NVparisc
p529
tp530
(dp531
Vhardware
p532
V32-bit PA-RISC
p533
sVhardware-long
p534
VHP PA-RISC 32-bit systems with max 4 GB RAM
p535
ss(Vbase
p536
g506
NVparisc64
p537
tp538
(dp539
Vcflags
p540
V-fno-cse-follow-jumps
p541
sVoverride-host-type
p542
Vhppa64-linux-gnu
p543
ss(Vdescription
p544
g506
NVparisc64
p545
tp546
(dp547
Vhardware
p548
V64-bit PA-RISC
p549
sVhardware-long
p550
VHP PA-RISC 64-bit systems with support for more than 4 GB RAM
p551
ss(Vrelations
p552
g506
tp553
(dp554
Vgcc-10
p555
Vgcc-10 <!stage1 !cross !pkg.linux.nokernel>, gcc-10-hppa-linux-gnu <!stage1 cross !pkg.linux.nokernel>, binutils-hppa64-linux-gnu <!stage1 !pkg.linux.nokernel>, gcc-10-hppa64-linux-gnu <!stage1 !pkg.linux.nokernel>
p556
ss(g219
g506
g188
tp557
(dp558
g222
(lp559
Vparisc
p560
aVparisc64
p561
asg226
I01
ss(Vbase
p562
Vi386
p563
tp564
(dp565
Vfeaturesets
p566
(lp567
Vnone
p568
aVrt
p569
asVkernel-arch
p570
Vx86
p571
ss(Vbuild
p572
g563
tp573
(dp574
Vimage-file
p575
Varch/x86/boot/bzImage
p576
sVsigned-code
p577
I00
sVvdso
p578
I01
ss(Vdescription
p579
g563
tp580
(dp581
Vpart-long-pae
p582
VThis kernel requires PAE (Physical Address Extension).\u000aThis feature is supported by the Intel Pentium Pro/II/III/4/4M/D, Xeon,\u000aCore and Atom; AMD Geode NX, Athlon (K7), Duron, Opteron, Sempron,\u000aTurion or Phenom; Transmeta Efficeon; VIA C7; and some other processors.
p583
ss(Vimage
p584
g563
tp585
(dp586
Vbootloaders
p587
(lp588
Vgrub-pc
p589
aVgrub-efi-ia32
p590
aVextlinux
p591
asVinstall-stem
p592
Vvmlinuz
p593
sVbreaks
p594
(lp595
Vxserver-xorg-input-vmmouse (<< 1:13.0.99)
p596
ass(Vrelations
p597
g563
tp598
(dp599
Vheaders%gcc-10
p600
Vlinux-compiler-gcc-10-x86
p601
ss(Vdescription
p602
g563
NV686
p603
tp604
(dp605
Vhardware
p606
Volder PCs
p607
sVhardware-long
p608
VPCs with one or more processors not supporting PAE
p609
ss(Vdescription
p610
g563
NV686-pae
p611
tp612
(dp613
Vhardware
p614
Vmodern PCs
p615
sVhardware-long
p616
VPCs with one or more processors supporting PAE
p617
sVparts
p618
(lp619
Vpae
p620
ass(Vbase
p621
g563
Vnone
p622
tp623
(dp624
Vflavours
p625
(lp626
V686
p627
aV686-pae
p628
asVdefault-flavour
p629
V686-pae
p630
ss(Vbase
p631
g563
Vrt
p632
tp633
(dp634
Vflavours
p635
(lp636
V686-pae
p637
ass(Vbase
p638
Via64
p639
tp640
(dp641
Vdefault-flavour
p642
Vitanium
p643
sVkernel-arch
p644
Via64
p645
sg186
(lp646
g188
ass(Vbuild
p647
g639
tp648
(dp649
Vimage-file
p650
Vvmlinux.gz
p651
ss(Vimage
p652
g639
tp653
(dp654
Vbootloaders
p655
(lp656
Vgrub-efi-ia64
p657
asVinstall-stem
p658
Vvmlinuz
p659
ss(Vdescription
p660
g639
NVitanium
p661
tp662
(dp663
Vhardware
p664
VItanium (Merced)
p665
sVhardware-long
p666
Vsystems with original Itanium (Merced) processors
p667
ss(Vdescription
p668
g639
NVmckinley
p669
tp670
(dp671
Vhardware
p672
VItanium 2+
p673
sVhardware-long
p674
Vsystems with Itanium 2 or 9300/9500/9700-series processors
p675
ss(g219
g639
g188
tp676
(dp677
g222
(lp678
Vitanium
p679
aVmckinley
p680
asg226
I01
ss(Vbase
p681
Vm68k
p682
tp683
(dp684
Vcflags
p685
V-ffreestanding
p686
sVdefault-flavour
p687
Vm68k
p688
sVkernel-arch
p689
Vm68k
p690
sg186
(lp691
g188
ass(Vbuild
p692
g682
tp693
(dp694
Vimage-file
p695
Vvmlinux
p696
ss(Vimage
p697
g682
tp698
(dp699
Vsuggests
p700
(lp701
Vvmelilo
p702
aVfdutils
p703
asVinstall-stem
p704
Vvmlinux
p705
ss(Vdescription
p706
g682
NVm68k
p707
tp708
(dp709
Vhardware
p710
VMotorola MC68020+ family
p711
ss(g219
g682
g188
tp712
(dp713
g222
(lp714
Vm68k
p715
asg226
I01
ss(Vbase
p716
Vmips
p717
tp718
(dp719
Vkernel-arch
p720
Vmips
p721
sg186
(lp722
g188
ass(Vbuild
p723
g717
tp724
(dp725
Vimage-file
p726
Vvmlinuz
p727
ss(Vimage
p728
g717
tp729
(dp730
Vinstall-stem
p731
Vvmlinuz
p732
ss(Vdescription
p733
g717
NV4kc-malta
p734
tp735
(dp736
Vhardware
p737
VMIPS Malta
p738
sVhardware-long
p739
VMIPS Malta boards
p740
ss(Vimage
p741
g717
NV4kc-malta
p742
tp743
(dp744
Vconfigs
p745
(lp746
Vkernelarch-mips/config.malta
p747
aVkernelarch-mips/config.mips32r2
p748
ass(Vdescription
p749
g717
NV5kc-malta
p750
tp751
(dp752
Vhardware
p753
VMIPS Malta (64-bit)
p754
sVhardware-long
p755
VMIPS Malta boards (64-bit)
p756
ss(Vimage
p757
g717
NV5kc-malta
p758
tp759
(dp760
Vconfigs
p761
(lp762
Vkernelarch-mips/config.malta
p763
aVkernelarch-mips/config.mips64r2
p764
ass(Vdescription
p765
g717
NVocteon
p766
tp767
(dp768
Vhardware
p769
VOcteon
p770
sVhardware-long
p771
VCavium Networks Octeon
p772
ss(Vbuild
p773
g717
NVocteon
p774
tp775
(dp776
Vimage-file
p777
Vvmlinux
p778
ss(Vimage
p779
g717
NVocteon
p780
tp781
(dp782
Vinstall-stem
p783
Vvmlinux
p784
sVconfigs
p785
(lp786
Vkernelarch-mips/config.octeon
p787
ass(g219
g717
g188
tp788
(dp789
g222
(lp790
V4kc-malta
p791
aV5kc-malta
p792
aVocteon
p793
asg226
I01
ss(Vbase
p794
Vmips64
p795
tp796
(dp797
Vkernel-arch
p798
Vmips
p799
sg186
(lp800
g188
ass(Vbuild
p801
g795
tp802
(dp803
Vimage-file
p804
Vvmlinuz
p805
ss(Vimage
p806
g795
tp807
(dp808
Vinstall-stem
p809
Vvmlinuz
p810
ss(Vdescription
p811
g795
NV5kc-malta
p812
tp813
(dp814
Vhardware
p815
VMIPS Malta
p816
sVhardware-long
p817
VMIPS Malta boards
p818
ss(Vimage
p819
g795
NV5kc-malta
p820
tp821
(dp822
Vconfigs
p823
(lp824
Vkernelarch-mips/config.malta
p825
aVkernelarch-mips/config.mips64r2
p826
ass(Vdescription
p827
g795
NVocteon
p828
tp829
(dp830
Vhardware
p831
VOcteon
p832
sVhardware-long
p833
VCavium Networks Octeon
p834
ss(Vbuild
p835
g795
NVocteon
p836
tp837
(dp838
Vimage-file
p839
Vvmlinux
p840
ss(Vimage
p841
g795
NVocteon
p842
tp843
(dp844
Vinstall-stem
p845
Vvmlinux
p846
sVconfigs
p847
(lp848
Vkernelarch-mips/config.octeon
p849
ass(g219
g795
g188
tp850
(dp851
g222
(lp852
V5kc-malta
p853
aVocteon
p854
asg226
I01
ss(Vbase
p855
Vmips64el
p856
tp857
(dp858
Vkernel-arch
p859
Vmips
p860
sg186
(lp861
g188
ass(Vbuild
p862
g856
tp863
(dp864
Vimage-file
p865
Vvmlinuz
p866
ss(Vimage
p867
g856
tp868
(dp869
Vinstall-stem
p870
Vvmlinuz
p871
ss(Vdescription
p872
g856
NV5kc-malta
p873
tp874
(dp875
Vhardware
p876
VMIPS Malta
p877
sVhardware-long
p878
VMIPS Malta boards
p879
ss(Vimage
p880
g856
NV5kc-malta
p881
tp882
(dp883
Vconfigs
p884
(lp885
Vkernelarch-mips/config.malta
p886
aVkernelarch-mips/config.mips64r2
p887
ass(Vdescription
p888
g856
NVloongson-3
p889
tp890
(dp891
Vhardware
p892
VLoongson 3A/3B
p893
sVhardware-long
p894
VLoongson 3A or 3B based systems (e.g. from Loongson or Lemote)
p895
ss(Vimage
p896
g856
NVloongson-3
p897
tp898
(dp899
Vconfigs
p900
(lp901
Vkernelarch-mips/config.loongson-3
p902
ass(Vdescription
p903
g856
NVocteon
p904
tp905
(dp906
Vhardware
p907
VOcteon
p908
sVhardware-long
p909
VCavium Networks Octeon
p910
ss(Vbuild
p911
g856
NVocteon
p912
tp913
(dp914
Vimage-file
p915
Vvmlinux
p916
ss(Vimage
p917
g856
NVocteon
p918
tp919
(dp920
Vinstall-stem
p921
Vvmlinux
p922
sVconfigs
p923
(lp924
Vkernelarch-mips/config.octeon
p925
ass(g219
g856
g188
tp926
(dp927
g222
(lp928
V5kc-malta
p929
aVloongson-3
p930
aVocteon
p931
asg226
I01
ss(Vbase
p932
Vmips64r6
p933
tp934
(dp935
Vdefault-flavour
p936
Vmips64r6
p937
sVkernel-arch
p938
Vmips
p939
sg186
(lp940
g188
ass(Vbuild
p941
g933
tp942
(dp943
Vimage-file
p944
Vvmlinux
p945
ss(Vimage
p946
g933
tp947
(dp948
Vinstall-stem
p949
Vvmlinux
p950
ss(Vdescription
p951
g933
NVmips64r6
p952
tp953
(dp954
Vhardware
p955
VMIPS R6 (64 bit, big endian)
p956
sVhardware-long
p957
VMIPS R6 (64 bit, big endian)
p958
ss(Vimage
p959
g933
NVmips64r6
p960
tp961
(dp962
Vconfigs
p963
(lp964
Vkernelarch-mips/config.boston
p965
aVkernelarch-mips/config.mips64r6
p966
ass(g219
g933
g188
tp967
(dp968
g222
(lp969
Vmips64r6
p970
asg226
I01
ss(Vbase
p971
Vmips64r6el
p972
tp973
(dp974
Vdefault-flavour
p975
Vmips64r6el
p976
sVkernel-arch
p977
Vmips
p978
sg186
(lp979
g188
ass(Vbuild
p980
g972
tp981
(dp982
Vimage-file
p983
Vvmlinux
p984
ss(Vimage
p985
g972
tp986
(dp987
Vinstall-stem
p988
Vvmlinux
p989
ss(Vdescription
p990
g972
NVmips64r6el
p991
tp992
(dp993
Vhardware
p994
VMIPS R6 (64 bit, little endian)
p995
sVhardware-long
p996
VMIPS R6 (64 bit, little endian)
p997
ss(Vimage
p998
g972
NVmips64r6el
p999
tp1000
(dp1001
Vconfigs
p1002
(lp1003
Vkernelarch-mips/config.boston
p1004
aVkernelarch-mips/config.mips64r6
p1005
ass(g219
g972
g188
tp1006
(dp1007
g222
(lp1008
Vmips64r6el
p1009
asg226
I01
ss(Vbase
p1010
Vmipsel
p1011
tp1012
(dp1013
Vkernel-arch
p1014
Vmips
p1015
sg186
(lp1016
g188
ass(Vbuild
p1017
g1011
tp1018
(dp1019
Vimage-file
p1020
Vvmlinuz
p1021
ss(Vimage
p1022
g1011
tp1023
(dp1024
Vinstall-stem
p1025
Vvmlinuz
p1026
ss(Vdescription
p1027
g1011
NV4kc-malta
p1028
tp1029
(dp1030
Vhardware
p1031
VMIPS Malta
p1032
sVhardware-long
p1033
VMIPS Malta boards
p1034
ss(Vimage
p1035
g1011
NV4kc-malta
p1036
tp1037
(dp1038
Vconfigs
p1039
(lp1040
Vkernelarch-mips/config.malta
p1041
aVkernelarch-mips/config.mips32r2
p1042
ass(Vdescription
p1043
g1011
NV5kc-malta
p1044
tp1045
(dp1046
Vhardware
p1047
VMIPS Malta (64-bit)
p1048
sVhardware-long
p1049
VMIPS Malta boards (64-bit)
p1050
ss(Vimage
p1051
g1011
NV5kc-malta
p1052
tp1053
(dp1054
Vconfigs
p1055
(lp1056
Vkernelarch-mips/config.malta
p1057
aVkernelarch-mips/config.mips64r2
p1058
ass(Vdescription
p1059
g1011
NVloongson-3
p1060
tp1061
(dp1062
Vhardware
p1063
VLoongson 3A/3B
p1064
sVhardware-long
p1065
VLoongson 3A or 3B based systems (e.g. from Loongson or Lemote)
p1066
ss(Vimage
p1067
g1011
NVloongson-3
p1068
tp1069
(dp1070
Vconfigs
p1071
(lp1072
Vkernelarch-mips/config.loongson-3
p1073
ass(Vdescription
p1074
g1011
NVocteon
p1075
tp1076
(dp1077
Vhardware
p1078
VOcteon
p1079
sVhardware-long
p1080
VCavium Networks Octeon
p1081
ss(Vbuild
p1082
g1011
NVocteon
p1083
tp1084
(dp1085
Vimage-file
p1086
Vvmlinux
p1087
ss(Vimage
p1088
g1011
NVocteon
p1089
tp1090
(dp1091
Vinstall-stem
p1092
Vvmlinux
p1093
sVconfigs
p1094
(lp1095
Vkernelarch-mips/config.octeon
p1096
ass(g219
g1011
g188
tp1097
(dp1098
g222
(lp1099
V4kc-malta
p1100
aV5kc-malta
p1101
aVloongson-3
p1102
aVocteon
p1103
asg226
I01
ss(Vbase
p1104
Vmipsn32
p1105
tp1106
(dp1107
Vkernel-arch
p1108
Vmips
p1109
sVfeaturesets
p1110
(lp1111
ss(Vbase
p1112
Vmipsn32el
p1113
tp1114
(dp1115
Vkernel-arch
p1116
Vmips
p1117
sVfeaturesets
p1118
(lp1119
ss(Vbase
p1120
Vmipsn32r6
p1121
tp1122
(dp1123
Vkernel-arch
p1124
Vmips
p1125
sVfeaturesets
p1126
(lp1127
ss(Vbase
p1128
Vmipsn32r6el
p1129
tp1130
(dp1131
Vkernel-arch
p1132
Vmips
p1133
sVfeaturesets
p1134
(lp1135
ss(Vbase
p1136
Vmipsr6
p1137
tp1138
(dp1139
Vdefault-flavour
p1140
Vmips32r6
p1141
sVkernel-arch
p1142
Vmips
p1143
sg186
(lp1144
g188
ass(Vbuild
p1145
g1137
tp1146
(dp1147
Vimage-file
p1148
Vvmlinux
p1149
ss(Vimage
p1150
g1137
tp1151
(dp1152
Vinstall-stem
p1153
Vvmlinux
p1154
ss(Vdescription
p1155
g1137
NVmips32r6
p1156
tp1157
(dp1158
Vhardware
p1159
VMIPS R6 (32 bit, big endian)
p1160
sVhardware-long
p1161
VMIPS R6 (32 bit, big endian)
p1162
ss(Vimage
p1163
g1137
NVmips32r6
p1164
tp1165
(dp1166
Vconfigs
p1167
(lp1168
Vkernelarch-mips/config.boston
p1169
aVkernelarch-mips/config.mips32r6
p1170
ass(Vdescription
p1171
g1137
NVmips64r6
p1172
tp1173
(dp1174
Vhardware
p1175
VMIPS R6 (64 bit, big endian)
p1176
sVhardware-long
p1177
VMIPS R6 (64 bit, big endian)
p1178
ss(Vimage
p1179
g1137
NVmips64r6
p1180
tp1181
(dp1182
Vconfigs
p1183
(lp1184
Vkernelarch-mips/config.boston
p1185
aVkernelarch-mips/config.mips64r6
p1186
ass(g219
g1137
g188
tp1187
(dp1188
g222
(lp1189
Vmips32r6
p1190
aVmips64r6
p1191
asg226
I01
ss(Vbase
p1192
Vmipsr6el
p1193
tp1194
(dp1195
Vdefault-flavour
p1196
Vmips32r6el
p1197
sVkernel-arch
p1198
Vmips
p1199
sg186
(lp1200
g188
ass(Vbuild
p1201
g1193
tp1202
(dp1203
Vimage-file
p1204
Vvmlinux
p1205
ss(Vimage
p1206
g1193
tp1207
(dp1208
Vinstall-stem
p1209
Vvmlinux
p1210
ss(Vdescription
p1211
g1193
NVmips32r6el
p1212
tp1213
(dp1214
Vhardware
p1215
VMIPS R6 (32 bit, little endian)
p1216
sVhardware-long
p1217
VMIPS R6 (32 bit, little endian)
p1218
ss(Vimage
p1219
g1193
NVmips32r6el
p1220
tp1221
(dp1222
Vconfigs
p1223
(lp1224
Vkernelarch-mips/config.boston
p1225
aVkernelarch-mips/config.mips32r6
p1226
ass(Vdescription
p1227
g1193
NVmips64r6el
p1228
tp1229
(dp1230
Vhardware
p1231
VMIPS R6 (64 bit, little endian)
p1232
sVhardware-long
p1233
VMIPS R6 (64 bit, little endian)
p1234
ss(Vimage
p1235
g1193
NVmips64r6el
p1236
tp1237
(dp1238
Vconfigs
p1239
(lp1240
Vkernelarch-mips/config.boston
p1241
aVkernelarch-mips/config.mips64r6
p1242
ass(g219
g1193
g188
tp1243
(dp1244
g222
(lp1245
Vmips32r6el
p1246
aVmips64r6el
p1247
asg226
I01
ss(Vbase
p1248
Vpowerpc
p1249
tp1250
(dp1251
Vkernel-arch
p1252
Vpowerpc
p1253
sg186
(lp1254
g188
ass(Vbuild
p1255
g1249
tp1256
(dp1257
Vimage-file
p1258
Vvmlinux
p1259
sVvdso
p1260
I01
ss(Vimage
p1261
g1249
tp1262
(dp1263
Vconfigs
p1264
(lp1265
sVbootloaders
p1266
(lp1267
Vgrub-ieee1275
p1268
asVsuggests
p1269
(lp1270
Vmkvmlinuz
p1271
asVinstall-stem
p1272
Vvmlinux
p1273
ss(Vdescription
p1274
g1249
NVpowerpc
p1275
tp1276
(dp1277
Vhardware
p1278
Vuniprocessor 32-bit PowerPC
p1279
ss(Vdescription
p1280
g1249
NVpowerpc-smp
p1281
tp1282
(dp1283
Vhardware
p1284
Vmultiprocessor 32-bit PowerPC
p1285
ss(Vimage
p1286
g1249
NVpowerpc-smp
p1287
tp1288
(dp1289
Vconfigs
p1290
(lp1291
Vpowerpc/config.powerpc
p1292
aVpowerpc/config.powerpc-smp
p1293
ass(Vdescription
p1294
g1249
NVpowerpc64
p1295
tp1296
(dp1297
Vhardware
p1298
V64-bit PowerPC
p1299
ss(Vimage
p1300
g1249
NVpowerpc64
p1301
tp1302
(dp1303
Vconfigs
p1304
(lp1305
Vkernelarch-powerpc/config-arch-64
p1306
aVkernelarch-powerpc/config-arch-64-be
p1307
ass(g219
g1249
g188
tp1308
(dp1309
g222
(lp1310
Vpowerpc
p1311
aVpowerpc-smp
p1312
aVpowerpc64
p1313
asg226
I01
ss(Vbase
p1314
Vppc64
p1315
tp1316
(dp1317
Vdefault-flavour
p1318
Vpowerpc64
p1319
sVkernel-arch
p1320
Vpowerpc
p1321
sg186
(lp1322
g188
ass(Vbuild
p1323
g1315
tp1324
(dp1325
Vimage-file
p1326
Vvmlinux
p1327
sVvdso
p1328
I01
ss(Vimage
p1329
g1315
tp1330
(dp1331
Vconfigs
p1332
(lp1333
sVbootloaders
p1334
(lp1335
Vgrub-ieee1275
p1336
asVsuggests
p1337
(lp1338
Vmkvmlinuz
p1339
asVinstall-stem
p1340
Vvmlinux
p1341
ss(Vdescription
p1342
g1315
NVpowerpc64
p1343
tp1344
(dp1345
Vhardware
p1346
V64-bit PowerPC
p1347
ss(Vimage
p1348
g1315
NVpowerpc64
p1349
tp1350
(dp1351
Vconfigs
p1352
(lp1353
Vkernelarch-powerpc/config-arch-64
p1354
aVkernelarch-powerpc/config-arch-64-be
p1355
ass(g219
g1315
g188
tp1356
(dp1357
g222
(lp1358
Vpowerpc64
p1359
asg226
I01
ss(Vbase
p1360
Vppc64el
p1361
tp1362
(dp1363
Vdefault-flavour
p1364
Vpowerpc64le
p1365
sVkernel-arch
p1366
Vpowerpc
p1367
sg186
(lp1368
g188
ass(Vbuild
p1369
g1361
tp1370
(dp1371
Vimage-file
p1372
Vvmlinux
p1373
sVvdso
p1374
I01
ss(Vimage
p1375
g1361
tp1376
(dp1377
Vconfigs
p1378
(lp1379
sVbootloaders
p1380
(lp1381
Vgrub-ieee1275
p1382
asVsuggests
p1383
(lp1384
Vmkvmlinuz
p1385
asVinstall-stem
p1386
Vvmlinux
p1387
ss(Vdescription
p1388
g1361
NVpowerpc64le
p1389
tp1390
(dp1391
Vhardware
p1392
VLittle-endian 64-bit PowerPC
p1393
ss(Vimage
p1394
g1361
NVpowerpc64le
p1395
tp1396
(dp1397
Vconfigs
p1398
(lp1399
Vkernelarch-powerpc/config-arch-64
p1400
aVkernelarch-powerpc/config-arch-64-le
p1401
ass(g219
g1361
g188
tp1402
(dp1403
g222
(lp1404
Vpowerpc64le
p1405
asg226
I01
ss(Vbase
p1406
Vriscv64
p1407
tp1408
(dp1409
Vkernel-arch
p1410
Vriscv
p1411
sVfeaturesets
p1412
(lp1413
Vnone
p1414
ass(Vbuild
p1415
g1407
tp1416
(dp1417
Vimage-file
p1418
Varch/riscv/boot/Image
p1419
sVvdso
p1420
I01
ss(Vimage
p1421
g1407
tp1422
(dp1423
Vinstall-stem
p1424
Vvmlinux
p1425
ss(Vdescription
p1426
g1407
NVriscv64
p1427
tp1428
(dp1429
Vhardware
p1430
V64-bit RISC-V platforms
p1431
sVhardware-long
p1432
V64-bit RISC-V platforms
p1433
ss(Vbase
p1434
g1407
Vnone
p1435
tp1436
(dp1437
Vflavours
p1438
(lp1439
Vriscv64
p1440
asVdefault-flavour
p1441
Vriscv64
p1442
ss(Vbase
p1443
Vs390
p1444
tp1445
(dp1446
Vkernel-arch
p1447
Vs390
p1448
sVfeaturesets
p1449
(lp1450
ss(Vbase
p1451
Vs390x
p1452
tp1453
(dp1454
Vdefault-flavour
p1455
Vs390x
p1456
sVkernel-arch
p1457
Vs390
p1458
sg186
(lp1459
g188
ass(Vbuild
p1460
g1452
tp1461
(dp1462
Vimage-file
p1463
Varch/s390/boot/bzImage
p1464
sVvdso
p1465
I01
ss(Vimage
p1466
g1452
tp1467
(dp1468
Vbootloaders
p1469
(lp1470
Vs390-tools
p1471
asVinstall-stem
p1472
Vvmlinuz
p1473
ss(Vrelations
p1474
g1452
tp1475
(dp1476
Vheaders%gcc-10
p1477
Vlinux-compiler-gcc-10-s390
p1478
ss(Vdescription
p1479
g1452
NVs390x
p1480
tp1481
(dp1482
Vhardware
p1483
VIBM zSeries
p1484
ss(g219
g1452
g188
tp1485
(dp1486
g222
(lp1487
Vs390x
p1488
asg226
I01
ss(Vbase
p1489
Vsh3
p1490
tp1491
(dp1492
Vkernel-arch
p1493
Vsh
p1494
sVfeaturesets
p1495
(lp1496
ss(Vbase
p1497
Vsh4
p1498
tp1499
(dp1500
Vkernel-arch
p1501
Vsh
p1502
sg186
(lp1503
g188
ass(Vbuild
p1504
g1498
tp1505
(dp1506
Vimage-file
p1507
Varch/sh/boot/zImage
p1508
ss(Vimage
p1509
g1498
tp1510
(dp1511
Vinstall-stem
p1512
Vvmlinuz
p1513
ss(Vdescription
p1514
g1498
NVsh7751r
p1515
tp1516
(dp1517
Vhardware
p1518
Vsh7751r
p1519
sVhardware-long
p1520
VRenesas SH7751R R2D plus board
p1521
ss(Vdescription
p1522
g1498
NVsh7785lcr
p1523
tp1524
(dp1525
Vhardware
p1526
Vsh7785lcr
p1527
sVhardware-long
p1528
VRenesas SH7785 reference board
p1529
ss(Vimage
p1530
g1498
NVsh7785lcr
p1531
tp1532
(dp1533
Vrecommends
p1534
(lp1535
Vu-boot-tools
p1536
asVcheck-size
p1537
I4194304
ss(g219
g1498
g188
tp1538
(dp1539
g222
(lp1540
Vsh7751r
p1541
aVsh7785lcr
p1542
asg226
I01
ss(Vbase
p1543
Vsparc
p1544
tp1545
(dp1546
Vkernel-arch
p1547
Vsparc
p1548
sVfeaturesets
p1549
(lp1550
ss(Vbase
p1551
Vsparc64
p1552
tp1553
(dp1554
Vdefault-flavour
p1555
Vsparc64-smp
p1556
sVkernel-arch
p1557
Vsparc
p1558
sg186
(lp1559
g188
ass(Vbuild
p1560
g1552
tp1561
(dp1562
Vimage-file
p1563
Vvmlinux
p1564
ss(Vimage
p1565
g1552
tp1566
(dp1567
Vconfigs
p1568
(lp1569
sVbootloaders
p1570
(lp1571
Vgrub-ieee1275
p1572
asVsuggests
p1573
(lp1574
Vfdutils
p1575
asVinstall-stem
p1576
Vvmlinux
p1577
ss(Vdescription
p1578
g1552
NVsparc64
p1579
tp1580
(dp1581
Vhardware
p1582
Vuniprocessor 64-bit UltraSPARC
p1583
ss(Vimage
p1584
g1552
NVsparc64
p1585
tp1586
(dp1587
Vconfigs
p1588
(lp1589
Vkernelarch-sparc/config-up
p1590
ass(Vdescription
p1591
g1552
NVsparc64-smp
p1592
tp1593
(dp1594
Vhardware
p1595
Vmultiprocessor 64-bit UltraSPARC
p1596
ss(Vimage
p1597
g1552
NVsparc64-smp
p1598
tp1599
(dp1600
Vconfigs
p1601
(lp1602
Vkernelarch-sparc/config-smp
p1603
ass(g219
g1552
g188
tp1604
(dp1605
g222
(lp1606
Vsparc64
p1607
aVsparc64-smp
p1608
asg226
I01
ss(Vbase
p1609
Vx32
p1610
tp1611
(dp1612
Vkernel-arch
p1613
Vx86
p1614
sVfeaturesets
p1615
(lp1616
ss(Vabi
p1617
NVrt
p1618
tp1619
(dp1620
Vignore-changes
p1621
(lp1622
V*
p1623
ass(Vdescription
p1624
Ng1618
tp1625
(dp1626
Vpart-long-rt
p1627
VThis kernel includes the PREEMPT_RT realtime patch set.
p1628
sVpart-short-rt
p1629
VPREEMPT_RT
p1630
sVparts
p1631
(lp1632
Vrt
p1633
ass(Vversion
p1634
tp1635
(dp1636
Vsource
p1637
V5.10.46-8parrot1
p1638
sVupstream
p1639
V5.10
p1640
sVabiname_base
p1641
V5.10.0
p1642
sVabiname
p1643
V5.10.0-8parrot1
p1644
ss.