cdebian_linux.config
ConfigCore
p0
(tRp1
(Vbase
p2
tp3
(dp4
Varches
p5
(lp6
Valpha
p7
aVamd64
p8
aVarm64
p9
aVarm64ilp32
p10
aVarmel
p11
aVarmhf
p12
aVhppa
p13
aVi386
p14
aVm68k
p15
aVmips
p16
aVmips64
p17
aVmips64el
p18
aVmips64r6
p19
aVmips64r6el
p20
aVmipsel
p21
aVmipsn32
p22
aVmipsn32el
p23
aVmipsn32r6
p24
aVmipsn32r6el
p25
aVmipsr6
p26
aVmipsr6el
p27
aVpowerpc
p28
aVpowerpcspe
p29
aVppc64
p30
aVppc64el
p31
aVs390
p32
aVs390x
p33
aVsh3
p34
aVsh4
p35
aVsparc
p36
aVsparc64
p37
aVtilegx
p38
aVx32
p39
asVfeaturesets
p40
(lp41
Vnone
p42
aVrt
p43
asVcompiler
p44
Vgcc-6
p45
ss(Vbuild
p46
tp47
(dp48
Vsigned-modules
p49
I00
sVdebug-info
p50
I01
ss(Vbase
p51
NVrt
p52
tp53
(dp54
Venabled
p55
I00
ss(Vdescription
p56
tp57
(dp58
Vpart-long-up
p59
VThis kernel is not suitable for SMP (multi-processor,\u000amulti-core or hyper-threaded) systems.
p60
sVpart-long-xen
p61
VThis kernel also runs on a Xen hypervisor.\u000aIt supports both privileged (dom0) and unprivileged (domU) operation.
p62
ss(Vrelations
p63
tp64
(dp65
Vinitramfs-tools
p66
Vinitramfs-tools (>= 0.120+deb8u2)
p67
sVgcc-6
p68
Vgcc-6 <!stage1 !cross>, gcc-6-@gnu-type-package@ <!stage1 cross>
p69
sVinitramfs-fallback
p70
Vlinux-initramfs-tool
p71
ss(Vimage
p72
tp73
(dp74
Vinitramfs-generators
p75
(lp76
Vinitramfs-tools
p77
aVinitramfs-fallback
p78
ass(Vabi
p79
tp80
(dp81
Vabiname
p82
Vparrot10
p83
sVignore-changes
p84
(lp85
V__cpuhp_*
p86
aVbpf_analyzer
p87
aVcxl_*
p88
aVdax_flush
p89
aVinet_add_protocol
p90
aVinet_del_protocol
p91
aViommu_device_*
p92
aVkvm_async_pf_task_wait
p93
aVmm_iommu_*
p94
aVmv_mbus_*
p95
aVperf_*
p96
aVregister_cxl_calls
p97
aVregister_key_type
p98
aVunregister_cxl_calls
p99
aV*_hw_breakpoint
p100
aVmodule:arch/x86/kvm/*
p101
aVmodule:drivers/crypto/ccp/*
p102
aVmodule:drivers/hv/*
p103
aVmodule:drivers/iio/common/hid-sensors/*
p104
aVmodule:drivers/iio/common/st_sensors/**
p105
aVmodule:drivers/mtd/nand/*
p106
aVmodule:drivers/net/wireless/**
p107
aVmodule:drivers/nvdimm/*
p108
aVmodule:drivers/power/supply/bq27xxx_battery
p109
aVmodule:drivers/scsi/cxgbi/*
p110
aVmodule:drivers/scsi/libiscs*
p111
aVmodule:drivers/scsi/qla2xxx/qla2xxx
p112
aVmodule:drivers/scsi/ufs/*
p113
aVmodule:drivers/target/**
p114
aVmodule:drivers/usb/chipidea/**
p115
aVmodule:drivers/usb/gadget/**
p116
aVmodule:drivers/usb/host/**
p117
aVmodule:drivers/usb/musb/**
p118
aVmodule:fs/nfs/**
p119
aVmodule:net/ceph/libceph
p120
aVmodule:net/l2tp/**
p121
aVmodule:sound/core/seq/**
p122
aVmodule:sound/firewire/snd-firewire-lib
p123
aVbtree_*
p124
aVvisitor*
p125
aVcan_rx_register
p126
aVip6_xmit
p127
aVmodule:net/dccp/dccp
p128
aVmodule:net/rds/rds
p129
aVdevfreq_*
p130
aVdevm_devfreq_*
p131
aVupdate_devfreq
p132
aVmodule:drivers/infiniband/**
p133
aVacpi_ec_add_query_handler
p134
aVacpi_ec_remove_query_handler
p135
aVfirst_ec
p136
aVdebugfs_create_automount
p137
aVmodule:drivers/iio/imu/inv_mpu6050/*
p138
ass(Vbase
p139
Valpha
p140
tp141
(dp142
Vfeaturesets
p143
(lp144
Vnone
p145
asVkernel-arch
p146
Valpha
p147
ss(Vdescription
p148
g140
NValpha-smp
p149
tp150
(dp151
Vhardware
p152
VAlpha SMP
p153
sVhardware-long
p154
VDEC Alpha SMP systems with extended kernel start address (Wildfire, Titan, Marvel)
p155
ss(Vbuild
p156
g140
tp157
(dp158
Vsigned-modules
p159
I00
sVimage-file
p160
Varch/alpha/boot/vmlinux.gz
p161
ss(Vdescription
p162
g140
NValpha-generic
p163
tp164
(dp165
Vhardware
p166
VAlpha
p167
sVhardware-long
p168
VDEC Alpha systems with extended kernel start address (Wildfire, Titan, Marvel)
p169
ss(Vimage
p170
g140
tp171
(dp172
Vsuggests
p173
Vaboot, fdutils
p174
sVinstall-stem
p175
Vvmlinuz
p176
ss(Vbase
p177
g140
g145
tp178
(dp179
Vflavours
p180
(lp181
Valpha-generic
p182
aValpha-smp
p183
asVimplicit-flavour
p184
I01
ss(Vbase
p185
Vamd64
p186
tp187
(dp188
Vfeaturesets
p189
(lp190
Vnone
p191
aVrt
p192
asVkernel-arch
p193
Vx86
p194
ss(Vdescription
p195
g186
NVamd64
p196
tp197
(dp198
Vhardware
p199
V64-bit PCs
p200
sVhardware-long
p201
VPCs with AMD64, Intel 64 or VIA Nano processors
p202
ss(Vbuild
p203
g186
tp204
(dp205
Vvdso
p206
I01
sVimage-file
p207
Varch/x86/boot/bzImage
p208
sVdebug-info
p209
I01
sVsigned-modules
p210
I00
ss(Vrelations
p211
g186
tp212
(dp213
Vheaders%gcc-6
p214
Vlinux-compiler-gcc-6-x86
p215
ss(Vimage
p216
g186
tp217
(dp218
Vbreaks
p219
Vxserver-xorg-input-vmmouse (<< 1:13.0.99)
p220
sVinstall-stem
p221
Vvmlinuz
p222
sVbootloaders
p223
(lp224
Vgrub-pc
p225
aVgrub-efi-amd64
p226
aVextlinux
p227
ass(Vbase
p228
g186
Vnone
p229
tp230
(dp231
Vflavours
p232
(lp233
Vamd64
p234
ass(Vdescription
p235
g186
g229
Vamd64
p236
tp237
(dp238
Vparts
p239
(lp240
Vxen
p241
ass(Vbase
p242
g186
Vrt
p243
tp244
(dp245
Vflavours
p246
(lp247
Vamd64
p248
ass(Vbase
p249
Varm64
p250
tp251
(dp252
Vfeaturesets
p253
(lp254
Vnone
p255
asVkernel-arch
p256
Varm64
p257
ss(Vdescription
p258
g250
NVarm64
p259
tp260
(dp261
Vhardware
p262
V64-bit ARMv8 machines
p263
ss(Vbuild
p264
g250
tp265
(dp266
Vvdso
p267
I01
sVimage-file
p268
Varch/arm64/boot/Image
p269
sVdebug-info
p270
I01
sVsigned-modules
p271
I00
ss(Vimage
p272
g250
NVarm64
p273
tp274
(dp275
s(Vimage
p276
g250
tp277
(dp278
Vbreaks
p279
Vlibmozjs185-1.0, libmozjs-24-0 (<< 24.2.0-5.1~)
p280
sVinstall-stem
p281
Vvmlinuz
p282
ss(Vbase
p283
g250
Vnone
p284
tp285
(dp286
Vflavours
p287
(lp288
Varm64
p289
ass(Vbase
p290
Varm64ilp32
p291
tp292
(dp293
Vfeaturesets
p294
(lp295
sVkernel-arch
p296
Varm64
p297
ss(Vbase
p298
Varmel
p299
tp300
(dp301
g143
(lp302
g145
asVkernel-arch
p303
Varm
p304
ss(Vbuild
p305
g299
tp306
(dp307
Vsigned-modules
p308
I00
sVimage-file
p309
Varch/arm/boot/zImage
p310
sVuncompressed-image-file
p311
Varch/arm/boot/Image
p312
ss(Vimage
p313
g299
NVmarvell
p314
tp315
(dp316
Vrecommends
p317
Vu-boot-tools
p318
sVbreaks
p319
Vflash-kernel (<< 3.57~)
p320
sVcheck-size-with-dtb
p321
I01
sVcheck-size
p322
L2097080L
sVcheck-uncompressed-size
p323
L7340032L
ss(Vdescription
p324
g299
NVmarvell
p325
tp326
(dp327
Vhardware
p328
VMarvell Kirkwood/Orion
p329
sVhardware-long
p330
VMarvell Kirkwood based systems (SheevaPlug, QNAP TS-119/TS-219, etc)\u000aand Orion 5181, 5182 and 5281 based systems (QNAP TS-109/TS-209, etc)
p331
ss(Vrelations
p332
g299
tp333
(dp334
Vheaders%gcc-6
p335
Vlinux-compiler-gcc-6-arm
p336
ss(Vabi
p337
g299
tp338
(dp339
Vignore-changes
p340
(lp341
Vselinux_is_enabled
p342
ass(Vimage
p343
g299
tp344
(dp345
Vinstall-stem
p346
Vvmlinuz
p347
ss(g177
g299
g145
tp348
(dp349
g180
(lp350
Vmarvell
p351
asg184
I01
ss(Vbase
p352
Varmhf
p353
tp354
(dp355
g143
(lp356
g145
asVkernel-arch
p357
Varm
p358
ss(Vdescription
p359
g353
NVarmmp
p360
tp361
(dp362
Vhardware
p363
VARMv7 multiplatform compatible SoCs
p364
sVhardware-long
p365
VARMv7 multiplatform kernel. See\u000ahttps://wiki.debian.org/DebianKernel/ARMMP for details of supported\u000aplatforms
p366
ss(Vbuild
p367
g353
tp368
(dp369
Vvdso
p370
I01
sVimage-file
p371
Varch/arm/boot/zImage
p372
sVsigned-modules
p373
I00
ss(Vdescription
p374
g353
NVarmmp-lpae
p375
tp376
(dp377
Vhardware
p378
VARMv7 multiplatform compatible SoCs supporting LPAE
p379
sVhardware-long
p380
VARMv7 multiplatform kernel supporting LPAE. See\u000ahttps://wiki.debian.org/DebianKernel/ARMMP for details of supported\u000aplatforms.
p381
ss(Vrelations
p382
g353
tp383
(dp384
Vheaders%gcc-6
p385
Vlinux-compiler-gcc-6-arm
p386
ss(Vimage
p387
g353
tp388
(dp389
Vinstall-stem
p390
Vvmlinuz
p391
ss(g177
g353
g145
tp392
(dp393
g180
(lp394
Varmmp
p395
aVarmmp-lpae
p396
asg184
I01
ss(Vbase
p397
Vhppa
p398
tp399
(dp400
g143
(lp401
g145
asVkernel-arch
p402
Vparisc
p403
ss(Vbuild
p404
g398
tp405
(dp406
Vsigned-modules
p407
I00
sVimage-file
p408
Vvmlinux
p409
ss(Vdescription
p410
g398
NVparisc64-smp
p411
tp412
(dp413
Vhardware
p414
Vmultiprocessor 64-bit PA-RISC
p415
sVhardware-long
p416
VHP PA-RISC 64-bit SMP systems with support for more than 4 GB RAM
p417
ss(Vbase
p418
g398
NVparisc64-smp
p419
tp420
(dp421
Vcflags
p422
V-fno-cse-follow-jumps
p423
sVoverride-host-type
p424
Vhppa64-linux-gnu
p425
ss(Vrelations
p426
g398
tp427
(dp428
Vgcc-6
p429
Vgcc-6 <!stage1 !cross>, binutils-hppa64-linux-gnu <!stage1 !cross>, gcc-6-hppa64-linux-gnu <!stage1 !cross>, gcc-6-hppa-linux-gnu <!stage1 cross>, binutils-hppa64-linux-gnu <!stage1 cross>, gcc-6-hppa64-linux-gnu <!stage1 cross>
p430
ss(Vdescription
p431
g398
NVparisc
p432
tp433
(dp434
Vhardware
p435
V32-bit PA-RISC
p436
sVhardware-long
p437
VHP PA-RISC 32-bit systems with max 4 GB RAM
p438
ss(Vimage
p439
g398
tp440
(dp441
Vsuggests
p442
Vpalo
p443
sVinstall-stem
p444
Vvmlinux
p445
ss(g177
g398
g145
tp446
(dp447
g180
(lp448
Vparisc
p449
aVparisc64-smp
p450
asg184
I01
ss(Vbase
p451
Vi386
p452
tp453
(dp454
Vfeaturesets
p455
(lp456
Vnone
p457
aVrt
p458
asVkernel-arch
p459
Vx86
p460
ss(Vbuild
p461
g452
tp462
(dp463
Vvdso
p464
I01
sVimage-file
p465
Varch/x86/boot/bzImage
p466
sVsigned-modules
p467
I00
ss(Vdescription
p468
g452
NV686-pae
p469
tp470
(dp471
Vhardware
p472
Vmodern PCs
p473
sVhardware-long
p474
VPCs with one or more processors supporting PAE
p475
sVparts
p476
(lp477
Vpae
p478
ass(Vdescription
p479
g452
tp480
(dp481
Vpart-long-pae
p482
VThis kernel requires PAE (Physical Address Extension).\u000aThis feature is supported by the Intel Pentium Pro/II/III/4/4M/D, Xeon,\u000aCore and Atom; AMD Geode NX, Athlon (K7), Duron, Opteron, Sempron,\u000aTurion or Phenom; Transmeta Efficeon; VIA C7; and some other processors.
p483
ss(Vbuild
p484
g452
NV686-pae
p485
tp486
(dp487
Vdebug-info
p488
I01
ss(Vdescription
p489
g452
NV686
p490
tp491
(dp492
Vhardware
p493
Volder PCs
p494
sVhardware-long
p495
VPCs with one or more processors not supporting PAE
p496
ss(Vrelations
p497
g452
tp498
(dp499
Vheaders%gcc-6
p500
Vlinux-compiler-gcc-6-x86
p501
ss(Vimage
p502
g452
tp503
(dp504
Vbreaks
p505
Vxserver-xorg-input-vmmouse (<< 1:13.0.99)
p506
sVinstall-stem
p507
Vvmlinuz
p508
sVbootloaders
p509
(lp510
Vgrub-pc
p511
aVextlinux
p512
ass(Vbase
p513
g452
Vnone
p514
tp515
(dp516
Vflavours
p517
(lp518
V686
p519
aV686-pae
p520
ass(Vdescription
p521
g452
g514
V686-pae
p522
tp523
(dp524
Vparts
p525
(lp526
Vxen
p527
ass(Vbase
p528
g452
Vrt
p529
tp530
(dp531
Vflavours
p532
(lp533
V686-pae
p534
ass(Vbase
p535
Vm68k
p536
tp537
(dp538
Vcflags
p539
V-ffreestanding
p540
sg143
(lp541
g145
asVkernel-arch
p542
Vm68k
p543
ss(Vbuild
p544
g536
tp545
(dp546
Vsigned-modules
p547
I00
sVimage-file
p548
Vvmlinux.gz
p549
ss(Vdescription
p550
g536
NVm68k
p551
tp552
(dp553
Vhardware
p554
VMotorola MC68020+ family
p555
ss(Vimage
p556
g536
tp557
(dp558
Vsuggests
p559
Vvmelilo, fdutils
p560
sVinstall-stem
p561
Vvmlinuz
p562
ss(g177
g536
g145
tp563
(dp564
g180
(lp565
Vm68k
p566
asg184
I01
ss(Vbase
p567
Vmips
p568
tp569
(dp570
g143
(lp571
g145
asVkernel-arch
p572
Vmips
p573
ss(Vbuild
p574
g568
tp575
(dp576
Vsigned-modules
p577
I00
sVimage-file
p578
Vvmlinux
p579
ss(Vimage
p580
g568
NV4kc-malta
p581
tp582
(dp583
Vconfigs
p584
(lp585
Vkernelarch-mips/config.malta
p586
aVkernelarch-mips/config.mips32r2
p587
ass(Vimage
p588
g568
NV5kc-malta
p589
tp590
(dp591
Vconfigs
p592
(lp593
Vkernelarch-mips/config.malta
p594
aVkernelarch-mips/config.mips64r2
p595
ass(Vdescription
p596
g568
NVocteon
p597
tp598
(dp599
Vhardware
p600
VOcteon
p601
sVhardware-long
p602
VCavium Networks Octeon
p603
ss(Vimage
p604
g568
NVocteon
p605
tp606
(dp607
Vconfigs
p608
(lp609
Vkernelarch-mips/config.octeon
p610
ass(Vimage
p611
g568
tp612
(dp613
Vinstall-stem
p614
Vvmlinux
p615
ss(Vdescription
p616
g568
NV5kc-malta
p617
tp618
(dp619
Vhardware
p620
VMIPS Malta (64-bit)
p621
sVhardware-long
p622
VMIPS Malta boards (64-bit)
p623
ss(Vdescription
p624
g568
NV4kc-malta
p625
tp626
(dp627
Vhardware
p628
VMIPS Malta
p629
sVhardware-long
p630
VMIPS Malta boards
p631
ss(g177
g568
g145
tp632
(dp633
g180
(lp634
V4kc-malta
p635
aV5kc-malta
p636
aVocteon
p637
asg184
I01
ss(Vbase
p638
Vmips64
p639
tp640
(dp641
g143
(lp642
g145
asVkernel-arch
p643
Vmips
p644
ss(Vbuild
p645
g639
tp646
(dp647
Vsigned-modules
p648
I00
sVimage-file
p649
Vvmlinux
p650
ss(Vimage
p651
g639
NV5kc-malta
p652
tp653
(dp654
Vconfigs
p655
(lp656
Vkernelarch-mips/config.malta
p657
aVkernelarch-mips/config.mips64r2
p658
ass(Vdescription
p659
g639
NVocteon
p660
tp661
(dp662
Vhardware
p663
VOcteon
p664
sVhardware-long
p665
VCavium Networks Octeon
p666
ss(Vimage
p667
g639
tp668
(dp669
Vinstall-stem
p670
Vvmlinux
p671
ss(Vdescription
p672
g639
NV5kc-malta
p673
tp674
(dp675
Vhardware
p676
VMIPS Malta
p677
sVhardware-long
p678
VMIPS Malta boards
p679
ss(Vimage
p680
g639
NVocteon
p681
tp682
(dp683
Vconfigs
p684
(lp685
Vkernelarch-mips/config.octeon
p686
ass(g177
g639
g145
tp687
(dp688
g180
(lp689
V5kc-malta
p690
aVocteon
p691
asg184
I01
ss(Vbase
p692
Vmips64el
p693
tp694
(dp695
g143
(lp696
g145
asVkernel-arch
p697
Vmips
p698
ss(Vimage
p699
g693
NVloongson-3
p700
tp701
(dp702
Vconfigs
p703
(lp704
Vkernelarch-mips/config.loongson-3
p705
ass(Vbuild
p706
g693
tp707
(dp708
Vsigned-modules
p709
I00
sVimage-file
p710
Vvmlinux
p711
ss(Vimage
p712
g693
NV5kc-malta
p713
tp714
(dp715
Vconfigs
p716
(lp717
Vkernelarch-mips/config.malta
p718
aVkernelarch-mips/config.mips64r2
p719
ass(Vdescription
p720
g693
NVocteon
p721
tp722
(dp723
Vhardware
p724
VOcteon
p725
sVhardware-long
p726
VCavium Networks Octeon
p727
ss(Vdescription
p728
g693
NVloongson-3
p729
tp730
(dp731
Vhardware
p732
VLoongson 3A/3B
p733
sVhardware-long
p734
VLoongson 3A or 3B based systems (e.g. from Loongson or Lemote)
p735
ss(Vimage
p736
g693
tp737
(dp738
Vinstall-stem
p739
Vvmlinux
p740
ss(Vdescription
p741
g693
NV5kc-malta
p742
tp743
(dp744
Vhardware
p745
VMIPS Malta
p746
sVhardware-long
p747
VMIPS Malta boards
p748
ss(Vimage
p749
g693
NVocteon
p750
tp751
(dp752
Vconfigs
p753
(lp754
Vkernelarch-mips/config.octeon
p755
ass(g177
g693
g145
tp756
(dp757
g180
(lp758
V5kc-malta
p759
aVloongson-3
p760
aVocteon
p761
asg184
I01
ss(Vbase
p762
Vmips64r6
p763
tp764
(dp765
g143
(lp766
g145
asVkernel-arch
p767
Vmips
p768
ss(Vbuild
p769
g763
tp770
(dp771
Vsigned-modules
p772
I00
sVimage-file
p773
Vvmlinux
p774
ss(Vimage
p775
g763
tp776
(dp777
Vinstall-stem
p778
Vvmlinux
p779
ss(Vimage
p780
g763
NVmips64r6
p781
tp782
(dp783
Vconfigs
p784
(lp785
Vkernelarch-mips/config.malta
p786
aVkernelarch-mips/config.mips64r6
p787
ass(Vdescription
p788
g763
NVmips64r6
p789
tp790
(dp791
Vhardware
p792
VMIPS R6 (64 bit, big endian)
p793
sVhardware-long
p794
VMIPS R6 (64 bit, big endian)
p795
ss(g177
g763
g145
tp796
(dp797
g180
(lp798
Vmips64r6
p799
asg184
I01
ss(Vbase
p800
Vmips64r6el
p801
tp802
(dp803
g143
(lp804
g145
asVkernel-arch
p805
Vmips
p806
ss(Vimage
p807
g801
NVmips64r6el
p808
tp809
(dp810
Vconfigs
p811
(lp812
Vkernelarch-mips/config.malta
p813
aVkernelarch-mips/config.mips64r6
p814
ass(Vbuild
p815
g801
tp816
(dp817
Vsigned-modules
p818
I00
sVimage-file
p819
Vvmlinux
p820
ss(Vdescription
p821
g801
NVmips64r6el
p822
tp823
(dp824
Vhardware
p825
VMIPS R6 (64 bit, little endian)
p826
sVhardware-long
p827
VMIPS R6 (64 bit, little endian)
p828
ss(Vimage
p829
g801
tp830
(dp831
Vinstall-stem
p832
Vvmlinux
p833
ss(g177
g801
g145
tp834
(dp835
g180
(lp836
Vmips64r6el
p837
asg184
I01
ss(Vbase
p838
Vmipsel
p839
tp840
(dp841
g143
(lp842
g145
asVkernel-arch
p843
Vmips
p844
ss(Vimage
p845
g839
NVloongson-3
p846
tp847
(dp848
Vconfigs
p849
(lp850
Vkernelarch-mips/config.loongson-3
p851
ass(Vbuild
p852
g839
tp853
(dp854
Vsigned-modules
p855
I00
sVimage-file
p856
Vvmlinux
p857
ss(Vimage
p858
g839
NV4kc-malta
p859
tp860
(dp861
Vconfigs
p862
(lp863
Vkernelarch-mips/config.malta
p864
aVkernelarch-mips/config.mips32r2
p865
ass(Vimage
p866
g839
NV5kc-malta
p867
tp868
(dp869
Vconfigs
p870
(lp871
Vkernelarch-mips/config.malta
p872
aVkernelarch-mips/config.mips64r2
p873
ass(Vdescription
p874
g839
NVocteon
p875
tp876
(dp877
Vhardware
p878
VOcteon
p879
sVhardware-long
p880
VCavium Networks Octeon
p881
ss(Vdescription
p882
g839
NVloongson-3
p883
tp884
(dp885
Vhardware
p886
VLoongson 3A/3B
p887
sVhardware-long
p888
VLoongson 3A or 3B based systems (e.g. from Loongson or Lemote)
p889
ss(Vimage
p890
g839
NVocteon
p891
tp892
(dp893
Vconfigs
p894
(lp895
Vkernelarch-mips/config.octeon
p896
ass(Vimage
p897
g839
tp898
(dp899
Vinstall-stem
p900
Vvmlinux
p901
ss(Vdescription
p902
g839
NV5kc-malta
p903
tp904
(dp905
Vhardware
p906
VMIPS Malta (64-bit)
p907
sVhardware-long
p908
VMIPS Malta boards (64-bit)
p909
ss(Vdescription
p910
g839
NV4kc-malta
p911
tp912
(dp913
Vhardware
p914
VMIPS Malta
p915
sVhardware-long
p916
VMIPS Malta boards
p917
ss(g177
g839
g145
tp918
(dp919
g180
(lp920
V4kc-malta
p921
aV5kc-malta
p922
aVloongson-3
p923
aVocteon
p924
asg184
I01
ss(Vbase
p925
Vmipsn32
p926
tp927
(dp928
Vfeaturesets
p929
(lp930
sVkernel-arch
p931
Vmips
p932
ss(Vbase
p933
Vmipsn32el
p934
tp935
(dp936
Vfeaturesets
p937
(lp938
sVkernel-arch
p939
Vmips
p940
ss(Vbase
p941
Vmipsn32r6
p942
tp943
(dp944
Vfeaturesets
p945
(lp946
sVkernel-arch
p947
Vmips
p948
ss(Vbase
p949
Vmipsn32r6el
p950
tp951
(dp952
Vfeaturesets
p953
(lp954
sVkernel-arch
p955
Vmips
p956
ss(Vbase
p957
Vmipsr6
p958
tp959
(dp960
g143
(lp961
g145
asVkernel-arch
p962
Vmips
p963
ss(Vbuild
p964
g958
tp965
(dp966
Vsigned-modules
p967
I00
sVimage-file
p968
Vvmlinux
p969
ss(Vdescription
p970
g958
NVmips32r6
p971
tp972
(dp973
Vhardware
p974
VMIPS R6 (32 bit, big endian)
p975
sVhardware-long
p976
VMIPS R6 (32 bit, big endian)
p977
ss(Vdescription
p978
g958
NVmips64r6
p979
tp980
(dp981
Vhardware
p982
VMIPS R6 (64 bit, big endian)
p983
sVhardware-long
p984
VMIPS R6 (64 bit, big endian)
p985
ss(Vimage
p986
g958
NVmips64r6
p987
tp988
(dp989
Vconfigs
p990
(lp991
Vkernelarch-mips/config.malta
p992
aVkernelarch-mips/config.mips64r6
p993
ass(Vimage
p994
g958
tp995
(dp996
Vinstall-stem
p997
Vvmlinux
p998
ss(Vimage
p999
g958
NVmips32r6
p1000
tp1001
(dp1002
Vconfigs
p1003
(lp1004
Vkernelarch-mips/config.malta
p1005
aVkernelarch-mips/config.mips32r6
p1006
ass(g177
g958
g145
tp1007
(dp1008
g180
(lp1009
Vmips32r6
p1010
aVmips64r6
p1011
asg184
I01
ss(Vbase
p1012
Vmipsr6el
p1013
tp1014
(dp1015
g143
(lp1016
g145
asVkernel-arch
p1017
Vmips
p1018
ss(Vimage
p1019
g1013
NVmips32r6el
p1020
tp1021
(dp1022
Vconfigs
p1023
(lp1024
Vkernelarch-mips/config.malta
p1025
aVkernelarch-mips/config.mips32r6
p1026
ass(Vdescription
p1027
g1013
NVmips64r6el
p1028
tp1029
(dp1030
Vhardware
p1031
VMIPS R6 (64 bit, little endian)
p1032
sVhardware-long
p1033
VMIPS R6 (64 bit, little endian)
p1034
ss(Vdescription
p1035
g1013
NVmips32r6el
p1036
tp1037
(dp1038
Vhardware
p1039
VMIPS R6 (32 bit, little endian)
p1040
sVhardware-long
p1041
VMIPS R6 (32 bit, little endian)
p1042
ss(Vimage
p1043
g1013
NVmips64r6el
p1044
tp1045
(dp1046
Vconfigs
p1047
(lp1048
Vkernelarch-mips/config.malta
p1049
aVkernelarch-mips/config.mips64r6
p1050
ass(Vbuild
p1051
g1013
tp1052
(dp1053
Vsigned-modules
p1054
I00
sVimage-file
p1055
Vvmlinux
p1056
ss(Vimage
p1057
g1013
tp1058
(dp1059
Vinstall-stem
p1060
Vvmlinux
p1061
ss(g177
g1013
g145
tp1062
(dp1063
g180
(lp1064
Vmips32r6el
p1065
aVmips64r6el
p1066
asg184
I01
ss(Vbase
p1067
Vpowerpc
p1068
tp1069
(dp1070
g143
(lp1071
g145
asVkernel-arch
p1072
Vpowerpc
p1073
ss(Vdescription
p1074
g1068
NVpowerpc64
p1075
tp1076
(dp1077
Vhardware
p1078
V64-bit PowerPC
p1079
ss(Vbuild
p1080
g1068
tp1081
(dp1082
Vvdso
p1083
I01
sVimage-file
p1084
Vvmlinux
p1085
ss(Vimage
p1086
g1068
NVpowerpc-smp
p1087
tp1088
(dp1089
Vconfigs
p1090
(lp1091
Vpowerpc/config.powerpc
p1092
aVpowerpc/config.powerpc-smp
p1093
ass(Vdescription
p1094
g1068
NVpowerpc
p1095
tp1096
(dp1097
Vhardware
p1098
Vuniprocessor 32-bit PowerPC
p1099
ss(Vimage
p1100
g1068
NVpowerpc64
p1101
tp1102
(dp1103
Vconfigs
p1104
(lp1105
Vkernelarch-powerpc/config-arch-64
p1106
aVkernelarch-powerpc/config-arch-64-be
p1107
ass(Vdescription
p1108
g1068
NVpowerpc-smp
p1109
tp1110
(dp1111
Vhardware
p1112
Vmultiprocessor 32-bit PowerPC
p1113
ss(Vimage
p1114
g1068
tp1115
(dp1116
Vsuggests
p1117
Vmkvmlinuz
p1118
sVinstall-stem
p1119
Vvmlinux
p1120
sVconfigs
p1121
(lp1122
ss(g177
g1068
g145
tp1123
(dp1124
g180
(lp1125
Vpowerpc
p1126
aVpowerpc-smp
p1127
aVpowerpc64
p1128
asg184
I01
ss(Vbase
p1129
Vpowerpcspe
p1130
tp1131
(dp1132
g143
(lp1133
g145
asVkernel-arch
p1134
Vpowerpc
p1135
ss(Vbuild
p1136
g1130
tp1137
(dp1138
Vsigned-modules
p1139
I00
sVimage-file
p1140
Vvmlinux
p1141
sVvdso
p1142
I01
ss(Vimage
p1143
g1130
tp1144
(dp1145
Vsuggests
p1146
Vmkvmlinuz
p1147
sVinstall-stem
p1148
Vvmlinux
p1149
ss(Vdescription
p1150
g1130
tp1151
(dp1152
Vhardware
p1153
V32-bit PowerPC with SPE (instead of AltiVec) with SMP support
p1154
ss(g177
g1130
g145
tp1155
(dp1156
g180
(lp1157
Vpowerpcspe
p1158
asg184
I01
ss(Vbase
p1159
Vppc64
p1160
tp1161
(dp1162
g143
(lp1163
g145
asVkernel-arch
p1164
Vpowerpc
p1165
ss(Vdescription
p1166
g1160
NVpowerpc64
p1167
tp1168
(dp1169
Vhardware
p1170
V64-bit PowerPC
p1171
ss(Vbuild
p1172
g1160
tp1173
(dp1174
Vsigned-modules
p1175
I00
sVimage-file
p1176
Vvmlinux
p1177
sVvdso
p1178
I01
ss(Vimage
p1179
g1160
NVpowerpc64
p1180
tp1181
(dp1182
Vconfigs
p1183
(lp1184
Vkernelarch-powerpc/config-arch-64
p1185
aVkernelarch-powerpc/config-arch-64-be
p1186
ass(Vimage
p1187
g1160
tp1188
(dp1189
Vsuggests
p1190
Vmkvmlinuz
p1191
sVinstall-stem
p1192
Vvmlinux
p1193
sVconfigs
p1194
(lp1195
ss(g177
g1160
g145
tp1196
(dp1197
g180
(lp1198
Vpowerpc64
p1199
asg184
I01
ss(Vbase
p1200
Vppc64el
p1201
tp1202
(dp1203
g143
(lp1204
g145
asVkernel-arch
p1205
Vpowerpc
p1206
ss(Vdescription
p1207
g1201
NVpowerpc64le
p1208
tp1209
(dp1210
Vhardware
p1211
VLittle-endian 64-bit PowerPC
p1212
ss(Vbuild
p1213
g1201
tp1214
(dp1215
Vvdso
p1216
I01
sVimage-file
p1217
Vvmlinux
p1218
ss(Vimage
p1219
g1201
tp1220
(dp1221
Vsuggests
p1222
Vmkvmlinuz
p1223
sVinstall-stem
p1224
Vvmlinux
p1225
sVconfigs
p1226
(lp1227
ss(Vimage
p1228
g1201
NVpowerpc64le
p1229
tp1230
(dp1231
Vconfigs
p1232
(lp1233
Vkernelarch-powerpc/config-arch-64
p1234
aVkernelarch-powerpc/config-arch-64-le
p1235
ass(g177
g1201
g145
tp1236
(dp1237
g180
(lp1238
Vpowerpc64le
p1239
asg184
I01
ss(Vbase
p1240
Vs390
p1241
tp1242
(dp1243
Vfeaturesets
p1244
(lp1245
sVkernel-arch
p1246
Vs390
p1247
ss(Vbase
p1248
Vs390x
p1249
tp1250
(dp1251
g143
(lp1252
g145
asVkernel-arch
p1253
Vs390
p1254
ss(Vdescription
p1255
g1249
NVs390x
p1256
tp1257
(dp1258
Vhardware
p1259
VIBM zSeries
p1260
ss(Vbuild
p1261
g1249
tp1262
(dp1263
Vvdso
p1264
I01
sVimage-file
p1265
Varch/s390/boot/image
p1266
ss(Vbuild
p1267
g1249
NVs390x
p1268
tp1269
(dp1270
Vdebug-info
p1271
I01
ss(Vrelations
p1272
g1249
tp1273
(dp1274
Vheaders%gcc-6
p1275
Vlinux-compiler-gcc-6-s390
p1276
ss(Vimage
p1277
g1249
tp1278
(dp1279
Vinstall-stem
p1280
Vvmlinuz
p1281
sVbootloaders
p1282
(lp1283
Vs390-tools
p1284
ass(g177
g1249
g145
tp1285
(dp1286
g180
(lp1287
Vs390x
p1288
asg184
I01
ss(Vbase
p1289
Vsh3
p1290
tp1291
(dp1292
Vfeaturesets
p1293
(lp1294
sVkernel-arch
p1295
Vsh
p1296
ss(Vbase
p1297
Vsh4
p1298
tp1299
(dp1300
g143
(lp1301
g145
asVkernel-arch
p1302
Vsh
p1303
ss(Vbuild
p1304
g1298
tp1305
(dp1306
Vsigned-modules
p1307
I00
sVimage-file
p1308
Varch/sh/boot/zImage
p1309
ss(Vdescription
p1310
g1298
NVsh7751r
p1311
tp1312
(dp1313
Vhardware
p1314
Vsh7751r
p1315
sVhardware-long
p1316
VRenesas SH7751R R2D plus board
p1317
ss(Vdescription
p1318
g1298
NVsh7785lcr
p1319
tp1320
(dp1321
Vhardware
p1322
Vsh7785lcr
p1323
sVhardware-long
p1324
VRenesas SH7785 reference board
p1325
ss(Vimage
p1326
g1298
tp1327
(dp1328
Vinstall-stem
p1329
Vvmlinuz
p1330
ss(Vimage
p1331
g1298
NVsh7785lcr
p1332
tp1333
(dp1334
Vrecommends
p1335
Vu-boot-tools
p1336
sVcheck-size
p1337
L4194304L
ss(g177
g1298
g145
tp1338
(dp1339
g180
(lp1340
Vsh7751r
p1341
aVsh7785lcr
p1342
asg184
I01
ss(Vbase
p1343
Vsparc
p1344
tp1345
(dp1346
Vfeaturesets
p1347
(lp1348
sVkernel-arch
p1349
Vsparc
p1350
ss(Vbase
p1351
Vsparc64
p1352
tp1353
(dp1354
g143
(lp1355
g145
asVkernel-arch
p1356
Vsparc
p1357
ss(Vbuild
p1358
g1352
tp1359
(dp1360
Vsigned-modules
p1361
I00
sVimage-file
p1362
Varch/sparc/boot/zImage
p1363
ss(Vimage
p1364
g1352
NVsparc64
p1365
tp1366
(dp1367
Vconfigs
p1368
(lp1369
Vkernelarch-sparc/config-up
p1370
ass(Vimage
p1371
g1352
NVsparc64-smp
p1372
tp1373
(dp1374
Vconfigs
p1375
(lp1376
Vkernelarch-sparc/config-smp
p1377
ass(Vimage
p1378
g1352
tp1379
(dp1380
Vsuggests
p1381
Vsilo, fdutils
p1382
sVinstall-stem
p1383
Vvmlinuz
p1384
sVconfigs
p1385
(lp1386
ss(Vdescription
p1387
g1352
NVsparc64-smp
p1388
tp1389
(dp1390
Vhardware
p1391
Vmultiprocessor 64-bit UltraSPARC
p1392
ss(Vdescription
p1393
g1352
NVsparc64
p1394
tp1395
(dp1396
Vhardware
p1397
Vuniprocessor 64-bit UltraSPARC
p1398
ss(g177
g1352
g145
tp1399
(dp1400
g180
(lp1401
Vsparc64
p1402
aVsparc64-smp
p1403
asg184
I01
ss(Vbase
p1404
Vtilegx
p1405
tp1406
(dp1407
Vfeaturesets
p1408
(lp1409
sVkernel-arch
p1410
Vtile
p1411
ss(Vbase
p1412
Vx32
p1413
tp1414
(dp1415
Vfeaturesets
p1416
(lp1417
sVkernel-arch
p1418
Vx86
p1419
ss(Vdescription
p1420
NVrt
p1421
tp1422
(dp1423
Vparts
p1424
(lp1425
Vrt
p1426
asVpart-long-rt
p1427
VThis kernel includes the PREEMPT_RT realtime patch set.
p1428
sVpart-short-rt
p1429
VPREEMPT_RT
p1430
ss(Vabi
p1431
Ng1421
tp1432
(dp1433
Vignore-changes
p1434
(lp1435
V*
p1436
ass(Vversion
p1437
tp1438
(dp1439
Vupstream
p1440
V4.13
p1441
sVsource
p1442
V4.13.10-1parrot10
p1443
sVabiname
p1444
V4.13.0-parrot10
p1445
sVabiname_base
p1446
V4.13.0
p1447
ss.