cdebian_linux.config
ConfigCore
p0
(tRp1
(Vabi
p2
tp3
(dp4
Vabiname
p5
Vparrot1-20t
p6
sVignore-changes
p7
(lp8
V__cpuhp_*
p9
aV__xive_vm_h_*
p10
aVbpf_analyzer
p11
aVcxl_*
p12
aVdax_flush
p13
aVieee80211_nullfunc_get
p14
aVinet_add_protocol
p15
aVinet_del_protocol
p16
aViommu_device_*
p17
aVkvm_async_pf_task_wait
p18
aVkvmppc_*
p19
aVmm_iommu_*
p20
aVmv_mbus_*
p21
aVperf_*
p22
aVregister_cxl_calls
p23
aVregister_key_type
p24
aVunregister_cxl_calls
p25
aV*_hw_breakpoint
p26
aVmodule:arch/x86/kvm/*
p27
aVmodule:drivers/crypto/ccp/*
p28
aVmodule:drivers/hv/*
p29
aVmodule:drivers/gpu/drm/sun4i/*
p30
aVmodule:drivers/iio/**
p31
aVmodule:drivers/misc/cxl/*
p32
aVmodule:drivers/mtd/nand/*
p33
aVmodule:drivers/net/ethernet/**
p34
aVmodule:drivers/net/wireless/**
p35
aVmodule:drivers/nvdimm/*
p36
aVmodule:drivers/power/supply/bq27xxx_battery
p37
aVmodule:drivers/scsi/cxgbi/*
p38
aVmodule:drivers/scsi/libiscs*
p39
aVmodule:drivers/scsi/qla2xxx/qla2xxx
p40
aVmodule:drivers/scsi/ufs/*
p41
aVmodule:drivers/target/**
p42
aVmodule:drivers/usb/chipidea/**
p43
aVmodule:drivers/usb/gadget/**
p44
aVmodule:drivers/usb/host/**
p45
aVmodule:drivers/usb/musb/**
p46
aVmodule:fs/nfs/**
p47
aVmodule:net/ceph/libceph
p48
aVmodule:net/l2tp/**
p49
aVmodule:net/rxrpc/rxrpc
p50
aVmodule:net/sctp/**
p51
aVmodule:sound/core/seq/**
p52
aVmodule:sound/firewire/snd-firewire-lib
p53
aVmodule:sound/pci/hda/*
p54
aVbtree_*
p55
aVvisitor*
p56
aVcan_rx_register
p57
aVip6_xmit
p58
aVmodule:net/dccp/dccp
p59
aVmodule:net/rds/rds
p60
aVdevfreq_*
p61
aVdevm_devfreq_*
p62
aVupdate_devfreq
p63
aVmodule:drivers/infiniband/**
p64
aVacpi_ec_add_query_handler
p65
aVacpi_ec_remove_query_handler
p66
aVfirst_ec
p67
aVdebugfs_create_automount
p68
aVmodule:drivers/iio/imu/inv_mpu6050/*
p69
aVdrm_crtc_accurate_vblank_count
p70
aVacpi_nfit_desc_init
p71
aVacpi_nfit_init
p72
aVloop_register_transfer
p73
aVxen_xlate_*
p74
aVnf_nat_masquerade_ipv4_register_notifier
p75
aVnf_nat_masquerade_ipv6_register_notifier
p76
ass(Vbase
p77
tp78
(dp79
Varches
p80
(lp81
Valpha
p82
aVamd64
p83
aVarm64
p84
aVarm64ilp32
p85
aVarmel
p86
aVarmhf
p87
aVhppa
p88
aVi386
p89
aVia64
p90
aVm68k
p91
aVmips
p92
aVmips64
p93
aVmips64el
p94
aVmips64r6
p95
aVmips64r6el
p96
aVmipsel
p97
aVmipsn32
p98
aVmipsn32el
p99
aVmipsn32r6
p100
aVmipsn32r6el
p101
aVmipsr6
p102
aVmipsr6el
p103
aVpowerpc
p104
aVpowerpcspe
p105
aVppc64
p106
aVppc64el
p107
aVriscv64
p108
aVs390
p109
aVs390x
p110
aVsh3
p111
aVsh4
p112
aVsparc
p113
aVsparc64
p114
aVx32
p115
asVcompiler
p116
Vgcc-8
p117
sVfeaturesets
p118
(lp119
Vnone
p120
aVrt
p121
ass(Vbuild
p122
tp123
(dp124
Vdebug-info
p125
I01
sVsigned-code
p126
I00
ss(Vbase
p127
NVrt
p128
tp129
(dp130
Venabled
p131
I01
ss(Vdescription
p132
tp133
(dp134
Vpart-long-up
p135
VThis kernel is not suitable for SMP (multi-processor,\u000amulti-core or hyper-threaded) systems.
p136
ss(Vimage
p137
tp138
(dp139
Vinitramfs-generators
p140
(lp141
Vinitramfs-tools
p142
aVinitramfs-fallback
p143
asVrecommends
p144
Vapparmor
p145
ss(Vrelations
p146
tp147
(dp148
Vgcc-8
p149
Vgcc-8 <!stage1 !cross !pkg.linux.nokernel>, gcc-8-@gnu-type-package@ <!stage1 cross !pkg.linux.nokernel>
p150
sVinitramfs-fallback
p151
Vlinux-initramfs-tool
p152
sVinitramfs-tools
p153
Vinitramfs-tools (>= 0.120+deb8u2)
p154
ss(Vbase
p155
Valpha
p156
tp157
(dp158
Vkernel-arch
p159
Valpha
p160
sVfeaturesets
p161
(lp162
Vnone
p163
ass(Vbuild
p164
g156
tp165
(dp166
Vimage-file
p167
Varch/alpha/boot/vmlinux.gz
p168
ss(Vimage
p169
g156
tp170
(dp171
Vsuggests
p172
Vaboot, fdutils
p173
sVinstall-stem
p174
Vvmlinuz
p175
ss(Vdescription
p176
g156
NValpha-generic
p177
tp178
(dp179
Vhardware
p180
VAlpha
p181
sVhardware-long
p182
VDEC Alpha systems with extended kernel start address (Wildfire, Titan, Marvel)
p183
ss(Vdescription
p184
g156
NValpha-smp
p185
tp186
(dp187
Vhardware
p188
VAlpha SMP
p189
sVhardware-long
p190
VDEC Alpha SMP systems with extended kernel start address (Wildfire, Titan, Marvel)
p191
ss(Vbase
p192
g156
g163
tp193
(dp194
Vflavours
p195
(lp196
Valpha-generic
p197
aValpha-smp
p198
asVimplicit-flavour
p199
I01
ss(Vbase
p200
Vamd64
p201
tp202
(dp203
Vfeaturesets
p204
(lp205
Vnone
p206
aVrt
p207
asVkernel-arch
p208
Vx86
p209
ss(Vbuild
p210
g201
tp211
(dp212
Vdebug-info
p213
I01
sVimage-file
p214
Varch/x86/boot/bzImage
p215
sVsigned-code
p216
I00
sVvdso
p217
I01
ss(Vimage
p218
g201
tp219
(dp220
Vbootloaders
p221
(lp222
Vgrub-pc
p223
aVgrub-efi-amd64
p224
aVextlinux
p225
asVinstall-stem
p226
Vvmlinuz
p227
sVbreaks
p228
Vxserver-xorg-input-vmmouse (<< 1:13.0.99)
p229
ss(Vrelations
p230
g201
tp231
(dp232
Vgcc-8
p233
Vgcc-8 (>= 8-20180123-1~) <!stage1 !cross !pkg.linux.nokernel>, gcc-8-x86-64-linux-gnu (>= 8-20180123-1~) <!stage1 cross !pkg.linux.nokernel>
p234
sVheaders%gcc-8
p235
Vlinux-compiler-gcc-8-x86
p236
ss(Vdescription
p237
g201
NVamd64
p238
tp239
(dp240
Vhardware
p241
V64-bit PCs
p242
sVhardware-long
p243
VPCs with AMD64, Intel 64 or VIA Nano processors
p244
ss(Vdescription
p245
g201
NVcloud-amd64
p246
tp247
(dp248
Vhardware
p249
Vx86-64 cloud
p250
sVhardware-long
p251
VAmazon EC2, Google Compute Engine and Microsoft Azure cloud platforms
p252
ss(Vbase
p253
g201
Vnone
p254
tp255
(dp256
Vflavours
p257
(lp258
Vamd64
p259
aVcloud-amd64
p260
ass(Vbase
p261
g201
Vrt
p262
tp263
(dp264
Vflavours
p265
(lp266
Vamd64
p267
ass(Vbase
p268
Varm64
p269
tp270
(dp271
Vkernel-arch
p272
Varm64
p273
sVfeaturesets
p274
(lp275
Vnone
p276
aVrt
p277
ass(Vbuild
p278
g269
tp279
(dp280
Vdebug-info
p281
I01
sVimage-file
p282
Varch/arm64/boot/Image
p283
sVsigned-code
p284
I00
sVvdso
p285
I01
ss(Vimage
p286
g269
tp287
(dp288
Vinstall-stem
p289
Vvmlinuz
p290
sVbreaks
p291
Vlibmozjs185-1.0, libmozjs-24-0 (<< 24.2.0-5.1~)
p292
ss(Vdescription
p293
g269
NVarm64
p294
tp295
(dp296
Vhardware
p297
V64-bit ARMv8 machines
p298
ss(Vimage
p299
g269
NVarm64
p300
tp301
(dp302
s(Vbase
p303
g269
Vnone
p304
tp305
(dp306
Vflavours
p307
(lp308
Varm64
p309
ass(Vbase
p310
g269
Vrt
p311
tp312
(dp313
Vflavours
p314
(lp315
Varm64
p316
ass(Vbase
p317
Varm64ilp32
p318
tp319
(dp320
Vkernel-arch
p321
Varm64
p322
sVfeaturesets
p323
(lp324
ss(Vbase
p325
Varmel
p326
tp327
(dp328
Vkernel-arch
p329
Varm
p330
sg161
(lp331
g163
ass(Vbuild
p332
g326
tp333
(dp334
Vimage-file
p335
Varch/arm/boot/zImage
p336
sVuncompressed-image-file
p337
Varch/arm/boot/Image
p338
sVsigned-code
p339
I00
ss(Vimage
p340
g326
tp341
(dp342
Vinstall-stem
p343
Vvmlinuz
p344
ss(Vrelations
p345
g326
tp346
(dp347
Vheaders%gcc-8
p348
Vlinux-compiler-gcc-8-arm
p349
ss(Vdescription
p350
g326
NVmarvell
p351
tp352
(dp353
Vhardware
p354
VMarvell Kirkwood/Orion
p355
sVhardware-long
p356
VMarvell Kirkwood and Orion based systems (https://wiki.debian.org/ArmEabiPort#Supported_hardware)
p357
ss(Vimage
p358
g326
NVmarvell
p359
tp360
(dp361
Vrecommends
p362
Vu-boot-tools
p363
sVcheck-size
p364
I2097080
sVcheck-size-with-dtb
p365
I01
sVcheck-uncompressed-size
p366
I7340032
sVbreaks
p367
Vflash-kernel (<< 3.57~)
p368
ss(g192
g326
g163
tp369
(dp370
g195
(lp371
Vmarvell
p372
asg199
I01
ss(Vbase
p373
Varmhf
p374
tp375
(dp376
Vfeaturesets
p377
(lp378
Vnone
p379
aVrt
p380
asVkernel-arch
p381
Varm
p382
ss(Vbuild
p383
g374
tp384
(dp385
Vimage-file
p386
Varch/arm/boot/zImage
p387
sVvdso
p388
I01
sVsigned-code
p389
I00
ss(Vimage
p390
g374
tp391
(dp392
Vinstall-stem
p393
Vvmlinuz
p394
ss(Vrelations
p395
g374
tp396
(dp397
Vheaders%gcc-8
p398
Vlinux-compiler-gcc-8-arm
p399
ss(Vdescription
p400
g374
NVarmmp
p401
tp402
(dp403
Vhardware
p404
VARMv7 multiplatform compatible SoCs
p405
sVhardware-long
p406
VARMv7 multiplatform kernel. See\u000ahttps://wiki.debian.org/DebianKernel/ARMMP for details of supported\u000aplatforms
p407
ss(Vdescription
p408
g374
NVarmmp-lpae
p409
tp410
(dp411
Vhardware
p412
VARMv7 multiplatform compatible SoCs supporting LPAE
p413
sVhardware-long
p414
VARMv7 multiplatform kernel supporting LPAE. See\u000ahttps://wiki.debian.org/DebianKernel/ARMMP for details of supported\u000aplatforms.
p415
ss(Vbase
p416
g374
Vnone
p417
tp418
(dp419
Vflavours
p420
(lp421
Varmmp
p422
aVarmmp-lpae
p423
ass(Vbase
p424
g374
Vrt
p425
tp426
(dp427
Vflavours
p428
(lp429
Varmmp
p430
ass(Vbase
p431
Vhppa
p432
tp433
(dp434
Vkernel-arch
p435
Vparisc
p436
sg161
(lp437
g163
ass(Vbuild
p438
g432
tp439
(dp440
Vimage-file
p441
Varch/parisc/boot/bzImage
p442
sVdebug-info
p443
I00
ss(Vimage
p444
g432
tp445
(dp446
Vsuggests
p447
Vpalo
p448
sVinstall-stem
p449
Vvmlinuz
p450
ss(Vdescription
p451
g432
NVparisc
p452
tp453
(dp454
Vhardware
p455
V32-bit PA-RISC
p456
sVhardware-long
p457
VHP PA-RISC 32-bit systems with max 4 GB RAM
p458
ss(Vdescription
p459
g432
NVparisc-smp
p460
tp461
(dp462
Vhardware
p463
Vmultiprocessor 32-bit PA-RISC
p464
sVhardware-long
p465
VHP PA-RISC 32-bit SMP systems with max 4 GB RAM
p466
ss(Vbase
p467
g432
NVparisc64-smp
p468
tp469
(dp470
Vcflags
p471
V-fno-cse-follow-jumps
p472
sVoverride-host-type
p473
Vhppa64-linux-gnu
p474
ss(Vdescription
p475
g432
NVparisc64-smp
p476
tp477
(dp478
Vhardware
p479
Vmultiprocessor 64-bit PA-RISC
p480
sVhardware-long
p481
VHP PA-RISC 64-bit SMP systems with support for more than 4 GB RAM
p482
ss(Vrelations
p483
g432
tp484
(dp485
Vgcc-8
p486
Vgcc-8 <!stage1 !cross !pkg.linux.nokernel>, gcc-8-hppa-linux-gnu <!stage1 cross !pkg.linux.nokernel>, binutils-hppa64-linux-gnu <!stage1 !pkg.linux.nokernel>, gcc-8-hppa64-linux-gnu <!stage1 !pkg.linux.nokernel>
p487
ss(g192
g432
g163
tp488
(dp489
g195
(lp490
Vparisc
p491
aVparisc-smp
p492
aVparisc64-smp
p493
asg199
I01
ss(Vbase
p494
Vi386
p495
tp496
(dp497
Vfeaturesets
p498
(lp499
Vnone
p500
aVrt
p501
asVkernel-arch
p502
Vx86
p503
ss(Vbuild
p504
g495
tp505
(dp506
Vimage-file
p507
Varch/x86/boot/bzImage
p508
sVsigned-code
p509
I00
sVvdso
p510
I01
ss(Vdescription
p511
g495
tp512
(dp513
Vpart-long-pae
p514
VThis kernel requires PAE (Physical Address Extension).\u000aThis feature is supported by the Intel Pentium Pro/II/III/4/4M/D, Xeon,\u000aCore and Atom; AMD Geode NX, Athlon (K7), Duron, Opteron, Sempron,\u000aTurion or Phenom; Transmeta Efficeon; VIA C7; and some other processors.
p515
ss(Vimage
p516
g495
tp517
(dp518
Vbootloaders
p519
(lp520
Vgrub-pc
p521
aVextlinux
p522
asVinstall-stem
p523
Vvmlinuz
p524
sVbreaks
p525
Vxserver-xorg-input-vmmouse (<< 1:13.0.99)
p526
ss(Vrelations
p527
g495
tp528
(dp529
Vgcc-8
p530
Vgcc-8 (>= 8-20180123-1~) <!stage1 !cross !pkg.linux.nokernel>, gcc-8-i686-linux-gnu (>= 8-20180123-1~) <!stage1 cross !pkg.linux.nokernel>
p531
sVheaders%gcc-8
p532
Vlinux-compiler-gcc-8-x86
p533
ss(Vdescription
p534
g495
NV686
p535
tp536
(dp537
Vhardware
p538
Volder PCs
p539
sVhardware-long
p540
VPCs with one or more processors not supporting PAE
p541
ss(Vbuild
p542
g495
NV686-pae
p543
tp544
(dp545
Vdebug-info
p546
I01
ss(Vdescription
p547
g495
NV686-pae
p548
tp549
(dp550
Vhardware
p551
Vmodern PCs
p552
sVhardware-long
p553
VPCs with one or more processors supporting PAE
p554
sVparts
p555
(lp556
Vpae
p557
ass(Vbase
p558
g495
Vnone
p559
tp560
(dp561
Vflavours
p562
(lp563
V686
p564
aV686-pae
p565
ass(Vbase
p566
g495
Vrt
p567
tp568
(dp569
Vflavours
p570
(lp571
V686-pae
p572
ass(Vbase
p573
Via64
p574
tp575
(dp576
Vkernel-arch
p577
Via64
p578
sg161
(lp579
g163
ass(Vbuild
p580
g574
tp581
(dp582
Vimage-file
p583
Vvmlinux.gz
p584
ss(Vimage
p585
g574
tp586
(dp587
Vbootloaders
p588
(lp589
Velilo
p590
asVinstall-stem
p591
Vvmlinuz
p592
ss(Vdescription
p593
g574
NVitanium
p594
tp595
(dp596
Vhardware
p597
VItanium (Merced)
p598
sVhardware-long
p599
Vsystems with original Itanium (Merced) processors
p600
ss(Vdescription
p601
g574
NVmckinley
p602
tp603
(dp604
Vhardware
p605
VItanium 2+
p606
sVhardware-long
p607
Vsystems with Itanium 2 or 9300/9500/9700-series processors
p608
ss(g192
g574
g163
tp609
(dp610
g195
(lp611
Vitanium
p612
aVmckinley
p613
asg199
I01
ss(Vbase
p614
Vm68k
p615
tp616
(dp617
Vcflags
p618
V-ffreestanding
p619
sVkernel-arch
p620
Vm68k
p621
sg161
(lp622
g163
ass(Vbuild
p623
g615
tp624
(dp625
Vimage-file
p626
Vvmlinux
p627
ss(Vimage
p628
g615
tp629
(dp630
Vsuggests
p631
Vvmelilo, fdutils
p632
sVinstall-stem
p633
Vvmlinux
p634
ss(Vdescription
p635
g615
NVm68k
p636
tp637
(dp638
Vhardware
p639
VMotorola MC68020+ family
p640
ss(g192
g615
g163
tp641
(dp642
g195
(lp643
Vm68k
p644
asg199
I01
ss(Vbase
p645
Vmips
p646
tp647
(dp648
Vkernel-arch
p649
Vmips
p650
sg161
(lp651
g163
ass(Vbuild
p652
g646
tp653
(dp654
Vimage-file
p655
Vvmlinux
p656
ss(Vimage
p657
g646
tp658
(dp659
Vinstall-stem
p660
Vvmlinux
p661
ss(Vdescription
p662
g646
NV4kc-malta
p663
tp664
(dp665
Vhardware
p666
VMIPS Malta
p667
sVhardware-long
p668
VMIPS Malta boards
p669
ss(Vimage
p670
g646
NV4kc-malta
p671
tp672
(dp673
Vconfigs
p674
(lp675
Vkernelarch-mips/config.malta
p676
aVkernelarch-mips/config.mips32r2
p677
ass(Vdescription
p678
g646
NV5kc-malta
p679
tp680
(dp681
Vhardware
p682
VMIPS Malta (64-bit)
p683
sVhardware-long
p684
VMIPS Malta boards (64-bit)
p685
ss(Vimage
p686
g646
NV5kc-malta
p687
tp688
(dp689
Vconfigs
p690
(lp691
Vkernelarch-mips/config.malta
p692
aVkernelarch-mips/config.mips64r2
p693
ass(Vdescription
p694
g646
NVocteon
p695
tp696
(dp697
Vhardware
p698
VOcteon
p699
sVhardware-long
p700
VCavium Networks Octeon
p701
ss(Vimage
p702
g646
NVocteon
p703
tp704
(dp705
Vconfigs
p706
(lp707
Vkernelarch-mips/config.octeon
p708
ass(g192
g646
g163
tp709
(dp710
g195
(lp711
V4kc-malta
p712
aV5kc-malta
p713
aVocteon
p714
asg199
I01
ss(Vbase
p715
Vmips64
p716
tp717
(dp718
Vkernel-arch
p719
Vmips
p720
sg161
(lp721
g163
ass(Vbuild
p722
g716
tp723
(dp724
Vimage-file
p725
Vvmlinux
p726
ss(Vimage
p727
g716
tp728
(dp729
Vinstall-stem
p730
Vvmlinux
p731
ss(Vdescription
p732
g716
NV5kc-malta
p733
tp734
(dp735
Vhardware
p736
VMIPS Malta
p737
sVhardware-long
p738
VMIPS Malta boards
p739
ss(Vimage
p740
g716
NV5kc-malta
p741
tp742
(dp743
Vconfigs
p744
(lp745
Vkernelarch-mips/config.malta
p746
aVkernelarch-mips/config.mips64r2
p747
ass(Vdescription
p748
g716
NVocteon
p749
tp750
(dp751
Vhardware
p752
VOcteon
p753
sVhardware-long
p754
VCavium Networks Octeon
p755
ss(Vimage
p756
g716
NVocteon
p757
tp758
(dp759
Vconfigs
p760
(lp761
Vkernelarch-mips/config.octeon
p762
ass(g192
g716
g163
tp763
(dp764
g195
(lp765
V5kc-malta
p766
aVocteon
p767
asg199
I01
ss(Vbase
p768
Vmips64el
p769
tp770
(dp771
Vkernel-arch
p772
Vmips
p773
sg161
(lp774
g163
ass(Vbuild
p775
g769
tp776
(dp777
Vimage-file
p778
Vvmlinux
p779
ss(Vimage
p780
g769
tp781
(dp782
Vinstall-stem
p783
Vvmlinux
p784
ss(Vdescription
p785
g769
NV5kc-malta
p786
tp787
(dp788
Vhardware
p789
VMIPS Malta
p790
sVhardware-long
p791
VMIPS Malta boards
p792
ss(Vimage
p793
g769
NV5kc-malta
p794
tp795
(dp796
Vconfigs
p797
(lp798
Vkernelarch-mips/config.malta
p799
aVkernelarch-mips/config.mips64r2
p800
ass(Vdescription
p801
g769
NVloongson-3
p802
tp803
(dp804
Vhardware
p805
VLoongson 3A/3B
p806
sVhardware-long
p807
VLoongson 3A or 3B based systems (e.g. from Loongson or Lemote)
p808
ss(Vimage
p809
g769
NVloongson-3
p810
tp811
(dp812
Vconfigs
p813
(lp814
Vkernelarch-mips/config.loongson-3
p815
ass(Vdescription
p816
g769
NVocteon
p817
tp818
(dp819
Vhardware
p820
VOcteon
p821
sVhardware-long
p822
VCavium Networks Octeon
p823
ss(Vimage
p824
g769
NVocteon
p825
tp826
(dp827
Vconfigs
p828
(lp829
Vkernelarch-mips/config.octeon
p830
ass(g192
g769
g163
tp831
(dp832
g195
(lp833
V5kc-malta
p834
aVloongson-3
p835
aVocteon
p836
asg199
I01
ss(Vbase
p837
Vmips64r6
p838
tp839
(dp840
Vkernel-arch
p841
Vmips
p842
sg161
(lp843
g163
ass(Vbuild
p844
g838
tp845
(dp846
Vimage-file
p847
Vvmlinux
p848
ss(Vimage
p849
g838
tp850
(dp851
Vinstall-stem
p852
Vvmlinux
p853
ss(Vdescription
p854
g838
NVmips64r6
p855
tp856
(dp857
Vhardware
p858
VMIPS R6 (64 bit, big endian)
p859
sVhardware-long
p860
VMIPS R6 (64 bit, big endian)
p861
ss(Vimage
p862
g838
NVmips64r6
p863
tp864
(dp865
Vconfigs
p866
(lp867
Vkernelarch-mips/config.boston
p868
aVkernelarch-mips/config.mips64r6
p869
ass(g192
g838
g163
tp870
(dp871
g195
(lp872
Vmips64r6
p873
asg199
I01
ss(Vbase
p874
Vmips64r6el
p875
tp876
(dp877
Vkernel-arch
p878
Vmips
p879
sg161
(lp880
g163
ass(Vbuild
p881
g875
tp882
(dp883
Vimage-file
p884
Vvmlinux
p885
ss(Vimage
p886
g875
tp887
(dp888
Vinstall-stem
p889
Vvmlinux
p890
ss(Vdescription
p891
g875
NVmips64r6el
p892
tp893
(dp894
Vhardware
p895
VMIPS R6 (64 bit, little endian)
p896
sVhardware-long
p897
VMIPS R6 (64 bit, little endian)
p898
ss(Vimage
p899
g875
NVmips64r6el
p900
tp901
(dp902
Vconfigs
p903
(lp904
Vkernelarch-mips/config.boston
p905
aVkernelarch-mips/config.mips64r6
p906
ass(g192
g875
g163
tp907
(dp908
g195
(lp909
Vmips64r6el
p910
asg199
I01
ss(Vbase
p911
Vmipsel
p912
tp913
(dp914
Vkernel-arch
p915
Vmips
p916
sg161
(lp917
g163
ass(Vbuild
p918
g912
tp919
(dp920
Vimage-file
p921
Vvmlinux
p922
ss(Vimage
p923
g912
tp924
(dp925
Vinstall-stem
p926
Vvmlinux
p927
ss(Vdescription
p928
g912
NV4kc-malta
p929
tp930
(dp931
Vhardware
p932
VMIPS Malta
p933
sVhardware-long
p934
VMIPS Malta boards
p935
ss(Vimage
p936
g912
NV4kc-malta
p937
tp938
(dp939
Vconfigs
p940
(lp941
Vkernelarch-mips/config.malta
p942
aVkernelarch-mips/config.mips32r2
p943
ass(Vdescription
p944
g912
NV5kc-malta
p945
tp946
(dp947
Vhardware
p948
VMIPS Malta (64-bit)
p949
sVhardware-long
p950
VMIPS Malta boards (64-bit)
p951
ss(Vimage
p952
g912
NV5kc-malta
p953
tp954
(dp955
Vconfigs
p956
(lp957
Vkernelarch-mips/config.malta
p958
aVkernelarch-mips/config.mips64r2
p959
ass(Vdescription
p960
g912
NVloongson-3
p961
tp962
(dp963
Vhardware
p964
VLoongson 3A/3B
p965
sVhardware-long
p966
VLoongson 3A or 3B based systems (e.g. from Loongson or Lemote)
p967
ss(Vimage
p968
g912
NVloongson-3
p969
tp970
(dp971
Vconfigs
p972
(lp973
Vkernelarch-mips/config.loongson-3
p974
ass(Vdescription
p975
g912
NVocteon
p976
tp977
(dp978
Vhardware
p979
VOcteon
p980
sVhardware-long
p981
VCavium Networks Octeon
p982
ss(Vimage
p983
g912
NVocteon
p984
tp985
(dp986
Vconfigs
p987
(lp988
Vkernelarch-mips/config.octeon
p989
ass(g192
g912
g163
tp990
(dp991
g195
(lp992
V4kc-malta
p993
aV5kc-malta
p994
aVloongson-3
p995
aVocteon
p996
asg199
I01
ss(Vbase
p997
Vmipsn32
p998
tp999
(dp1000
Vkernel-arch
p1001
Vmips
p1002
sVfeaturesets
p1003
(lp1004
ss(Vbase
p1005
Vmipsn32el
p1006
tp1007
(dp1008
Vkernel-arch
p1009
Vmips
p1010
sVfeaturesets
p1011
(lp1012
ss(Vbase
p1013
Vmipsn32r6
p1014
tp1015
(dp1016
Vkernel-arch
p1017
Vmips
p1018
sVfeaturesets
p1019
(lp1020
ss(Vbase
p1021
Vmipsn32r6el
p1022
tp1023
(dp1024
Vkernel-arch
p1025
Vmips
p1026
sVfeaturesets
p1027
(lp1028
ss(Vbase
p1029
Vmipsr6
p1030
tp1031
(dp1032
Vkernel-arch
p1033
Vmips
p1034
sg161
(lp1035
g163
ass(Vbuild
p1036
g1030
tp1037
(dp1038
Vimage-file
p1039
Vvmlinux
p1040
ss(Vimage
p1041
g1030
tp1042
(dp1043
Vinstall-stem
p1044
Vvmlinux
p1045
ss(Vdescription
p1046
g1030
NVmips32r6
p1047
tp1048
(dp1049
Vhardware
p1050
VMIPS R6 (32 bit, big endian)
p1051
sVhardware-long
p1052
VMIPS R6 (32 bit, big endian)
p1053
ss(Vimage
p1054
g1030
NVmips32r6
p1055
tp1056
(dp1057
Vconfigs
p1058
(lp1059
Vkernelarch-mips/config.boston
p1060
aVkernelarch-mips/config.mips32r6
p1061
ass(Vdescription
p1062
g1030
NVmips64r6
p1063
tp1064
(dp1065
Vhardware
p1066
VMIPS R6 (64 bit, big endian)
p1067
sVhardware-long
p1068
VMIPS R6 (64 bit, big endian)
p1069
ss(Vimage
p1070
g1030
NVmips64r6
p1071
tp1072
(dp1073
Vconfigs
p1074
(lp1075
Vkernelarch-mips/config.boston
p1076
aVkernelarch-mips/config.mips64r6
p1077
ass(g192
g1030
g163
tp1078
(dp1079
g195
(lp1080
Vmips32r6
p1081
aVmips64r6
p1082
asg199
I01
ss(Vbase
p1083
Vmipsr6el
p1084
tp1085
(dp1086
Vkernel-arch
p1087
Vmips
p1088
sg161
(lp1089
g163
ass(Vbuild
p1090
g1084
tp1091
(dp1092
Vimage-file
p1093
Vvmlinux
p1094
ss(Vimage
p1095
g1084
tp1096
(dp1097
Vinstall-stem
p1098
Vvmlinux
p1099
ss(Vdescription
p1100
g1084
NVmips32r6el
p1101
tp1102
(dp1103
Vhardware
p1104
VMIPS R6 (32 bit, little endian)
p1105
sVhardware-long
p1106
VMIPS R6 (32 bit, little endian)
p1107
ss(Vimage
p1108
g1084
NVmips32r6el
p1109
tp1110
(dp1111
Vconfigs
p1112
(lp1113
Vkernelarch-mips/config.boston
p1114
aVkernelarch-mips/config.mips32r6
p1115
ass(Vdescription
p1116
g1084
NVmips64r6el
p1117
tp1118
(dp1119
Vhardware
p1120
VMIPS R6 (64 bit, little endian)
p1121
sVhardware-long
p1122
VMIPS R6 (64 bit, little endian)
p1123
ss(Vimage
p1124
g1084
NVmips64r6el
p1125
tp1126
(dp1127
Vconfigs
p1128
(lp1129
Vkernelarch-mips/config.boston
p1130
aVkernelarch-mips/config.mips64r6
p1131
ass(g192
g1084
g163
tp1132
(dp1133
g195
(lp1134
Vmips32r6el
p1135
aVmips64r6el
p1136
asg199
I01
ss(Vbase
p1137
Vpowerpc
p1138
tp1139
(dp1140
Vkernel-arch
p1141
Vpowerpc
p1142
sg161
(lp1143
g163
ass(Vbuild
p1144
g1138
tp1145
(dp1146
Vimage-file
p1147
Vvmlinux
p1148
sVvdso
p1149
I01
ss(Vimage
p1150
g1138
tp1151
(dp1152
Vconfigs
p1153
(lp1154
sVsuggests
p1155
Vmkvmlinuz
p1156
sVinstall-stem
p1157
Vvmlinux
p1158
ss(Vdescription
p1159
g1138
NVpowerpc
p1160
tp1161
(dp1162
Vhardware
p1163
Vuniprocessor 32-bit PowerPC
p1164
ss(Vdescription
p1165
g1138
NVpowerpc-smp
p1166
tp1167
(dp1168
Vhardware
p1169
Vmultiprocessor 32-bit PowerPC
p1170
ss(Vimage
p1171
g1138
NVpowerpc-smp
p1172
tp1173
(dp1174
Vconfigs
p1175
(lp1176
Vpowerpc/config.powerpc
p1177
aVpowerpc/config.powerpc-smp
p1178
ass(Vdescription
p1179
g1138
NVpowerpc64
p1180
tp1181
(dp1182
Vhardware
p1183
V64-bit PowerPC
p1184
ss(Vimage
p1185
g1138
NVpowerpc64
p1186
tp1187
(dp1188
Vconfigs
p1189
(lp1190
Vkernelarch-powerpc/config-arch-64
p1191
aVkernelarch-powerpc/config-arch-64-be
p1192
ass(g192
g1138
g163
tp1193
(dp1194
g195
(lp1195
Vpowerpc
p1196
aVpowerpc-smp
p1197
aVpowerpc64
p1198
asg199
I01
ss(Vbase
p1199
Vpowerpcspe
p1200
tp1201
(dp1202
Vkernel-arch
p1203
Vpowerpc
p1204
sg161
(lp1205
g163
ass(Vbuild
p1206
g1200
tp1207
(dp1208
Vimage-file
p1209
Vvmlinux
p1210
sVvdso
p1211
I01
ss(Vimage
p1212
g1200
tp1213
(dp1214
Vsuggests
p1215
Vmkvmlinuz
p1216
sVinstall-stem
p1217
Vvmlinux
p1218
ss(Vdescription
p1219
g1200
tp1220
(dp1221
Vhardware
p1222
V32-bit PowerPC with SPE (instead of AltiVec) with SMP support
p1223
ss(g192
g1200
g163
tp1224
(dp1225
g195
(lp1226
Vpowerpcspe
p1227
asg199
I01
ss(Vbase
p1228
Vppc64
p1229
tp1230
(dp1231
Vkernel-arch
p1232
Vpowerpc
p1233
sg161
(lp1234
g163
ass(Vbuild
p1235
g1229
tp1236
(dp1237
Vimage-file
p1238
Vvmlinux
p1239
sVvdso
p1240
I01
ss(Vimage
p1241
g1229
tp1242
(dp1243
Vconfigs
p1244
(lp1245
sVsuggests
p1246
Vmkvmlinuz
p1247
sVinstall-stem
p1248
Vvmlinux
p1249
ss(Vdescription
p1250
g1229
NVpowerpc64
p1251
tp1252
(dp1253
Vhardware
p1254
V64-bit PowerPC
p1255
ss(Vimage
p1256
g1229
NVpowerpc64
p1257
tp1258
(dp1259
Vconfigs
p1260
(lp1261
Vkernelarch-powerpc/config-arch-64
p1262
aVkernelarch-powerpc/config-arch-64-be
p1263
ass(g192
g1229
g163
tp1264
(dp1265
g195
(lp1266
Vpowerpc64
p1267
asg199
I01
ss(Vbase
p1268
Vppc64el
p1269
tp1270
(dp1271
Vkernel-arch
p1272
Vpowerpc
p1273
sg161
(lp1274
g163
ass(Vbuild
p1275
g1269
tp1276
(dp1277
Vimage-file
p1278
Vvmlinux
p1279
sVvdso
p1280
I01
ss(Vimage
p1281
g1269
tp1282
(dp1283
Vconfigs
p1284
(lp1285
sVsuggests
p1286
Vmkvmlinuz
p1287
sVinstall-stem
p1288
Vvmlinux
p1289
ss(Vdescription
p1290
g1269
NVpowerpc64le
p1291
tp1292
(dp1293
Vhardware
p1294
VLittle-endian 64-bit PowerPC
p1295
ss(Vimage
p1296
g1269
NVpowerpc64le
p1297
tp1298
(dp1299
Vconfigs
p1300
(lp1301
Vkernelarch-powerpc/config-arch-64
p1302
aVkernelarch-powerpc/config-arch-64-le
p1303
ass(g192
g1269
g163
tp1304
(dp1305
g195
(lp1306
Vpowerpc64le
p1307
asg199
I01
ss(Vbase
p1308
Vriscv64
p1309
tp1310
(dp1311
Vkernel-arch
p1312
Vriscv
p1313
sVfeaturesets
p1314
(lp1315
Vnone
p1316
ass(Vbuild
p1317
g1309
tp1318
(dp1319
Vimage-file
p1320
Vvmlinux
p1321
ss(Vimage
p1322
g1309
tp1323
(dp1324
Vinstall-stem
p1325
Vvmlinux
p1326
ss(Vdescription
p1327
g1309
NVriscv64
p1328
tp1329
(dp1330
Vhardware
p1331
V64-bit RISC-V platforms
p1332
sVhardware-long
p1333
V64-bit RISC-V platforms
p1334
ss(Vbase
p1335
g1309
Vnone
p1336
tp1337
(dp1338
Vflavours
p1339
(lp1340
Vriscv64
p1341
ass(Vbase
p1342
Vs390
p1343
tp1344
(dp1345
Vkernel-arch
p1346
Vs390
p1347
sVfeaturesets
p1348
(lp1349
ss(Vbase
p1350
Vs390x
p1351
tp1352
(dp1353
Vkernel-arch
p1354
Vs390
p1355
sg161
(lp1356
g163
ass(Vbuild
p1357
g1351
tp1358
(dp1359
Vimage-file
p1360
Varch/s390/boot/bzImage
p1361
sVvdso
p1362
I01
ss(Vimage
p1363
g1351
tp1364
(dp1365
Vbootloaders
p1366
(lp1367
Vs390-tools
p1368
asVinstall-stem
p1369
Vvmlinuz
p1370
ss(Vrelations
p1371
g1351
tp1372
(dp1373
Vheaders%gcc-8
p1374
Vlinux-compiler-gcc-8-s390
p1375
ss(Vbuild
p1376
g1351
NVs390x
p1377
tp1378
(dp1379
Vdebug-info
p1380
I01
ss(Vdescription
p1381
g1351
NVs390x
p1382
tp1383
(dp1384
Vhardware
p1385
VIBM zSeries
p1386
ss(g192
g1351
g163
tp1387
(dp1388
g195
(lp1389
Vs390x
p1390
asg199
I01
ss(Vbase
p1391
Vsh3
p1392
tp1393
(dp1394
Vkernel-arch
p1395
Vsh
p1396
sVfeaturesets
p1397
(lp1398
ss(Vbase
p1399
Vsh4
p1400
tp1401
(dp1402
Vkernel-arch
p1403
Vsh
p1404
sg161
(lp1405
g163
ass(Vbuild
p1406
g1400
tp1407
(dp1408
Vimage-file
p1409
Varch/sh/boot/zImage
p1410
ss(Vimage
p1411
g1400
tp1412
(dp1413
Vinstall-stem
p1414
Vvmlinuz
p1415
ss(Vdescription
p1416
g1400
NVsh7751r
p1417
tp1418
(dp1419
Vhardware
p1420
Vsh7751r
p1421
sVhardware-long
p1422
VRenesas SH7751R R2D plus board
p1423
ss(Vdescription
p1424
g1400
NVsh7785lcr
p1425
tp1426
(dp1427
Vhardware
p1428
Vsh7785lcr
p1429
sVhardware-long
p1430
VRenesas SH7785 reference board
p1431
ss(Vimage
p1432
g1400
NVsh7785lcr
p1433
tp1434
(dp1435
Vrecommends
p1436
Vu-boot-tools
p1437
sVcheck-size
p1438
I4194304
ss(g192
g1400
g163
tp1439
(dp1440
g195
(lp1441
Vsh7751r
p1442
aVsh7785lcr
p1443
asg199
I01
ss(Vbase
p1444
Vsparc
p1445
tp1446
(dp1447
Vkernel-arch
p1448
Vsparc
p1449
sVfeaturesets
p1450
(lp1451
ss(Vbase
p1452
Vsparc64
p1453
tp1454
(dp1455
Vkernel-arch
p1456
Vsparc
p1457
sg161
(lp1458
g163
ass(Vbuild
p1459
g1453
tp1460
(dp1461
Vimage-file
p1462
Varch/sparc/boot/zImage
p1463
ss(Vimage
p1464
g1453
tp1465
(dp1466
Vconfigs
p1467
(lp1468
sVsuggests
p1469
Vsilo, fdutils
p1470
sVinstall-stem
p1471
Vvmlinuz
p1472
ss(Vdescription
p1473
g1453
NVsparc64
p1474
tp1475
(dp1476
Vhardware
p1477
Vuniprocessor 64-bit UltraSPARC
p1478
ss(Vimage
p1479
g1453
NVsparc64
p1480
tp1481
(dp1482
Vconfigs
p1483
(lp1484
Vkernelarch-sparc/config-up
p1485
ass(Vdescription
p1486
g1453
NVsparc64-smp
p1487
tp1488
(dp1489
Vhardware
p1490
Vmultiprocessor 64-bit UltraSPARC
p1491
ss(Vimage
p1492
g1453
NVsparc64-smp
p1493
tp1494
(dp1495
Vconfigs
p1496
(lp1497
Vkernelarch-sparc/config-smp
p1498
ass(g192
g1453
g163
tp1499
(dp1500
g195
(lp1501
Vsparc64
p1502
aVsparc64-smp
p1503
asg199
I01
ss(Vbase
p1504
Vx32
p1505
tp1506
(dp1507
Vkernel-arch
p1508
Vx86
p1509
sVfeaturesets
p1510
(lp1511
ss(Vabi
p1512
NVrt
p1513
tp1514
(dp1515
Vignore-changes
p1516
(lp1517
V*
p1518
ass(Vdescription
p1519
Ng1513
tp1520
(dp1521
Vpart-long-rt
p1522
VThis kernel includes the PREEMPT_RT realtime patch set.
p1523
sVpart-short-rt
p1524
VPREEMPT_RT
p1525
sVparts
p1526
(lp1527
Vrt
p1528
ass(Vversion
p1529
tp1530
(dp1531
Vsource
p1532
V4.19.20-2parrot1.20t
p1533
sVupstream
p1534
V4.19
p1535
sVabiname_base
p1536
V4.19.0
p1537
sVabiname
p1538
V4.19.0-parrot1-20t
p1539
ss.