cdebian_linux.config
ConfigCore
p0
(tRp1
(Vabi
p2
tp3
(dp4
Vabiname
p5
V3
p6
sVignore-changes
p7
(lp8
V__cpuhp_*
p9
aV__xive_vm_h_*
p10
aVbpf_analyzer
p11
aVcxl_*
p12
aVdax_flush
p13
aVinet_add_protocol
p14
aVinet_del_protocol
p15
aViommu_device_*
p16
aVkvm_async_pf_task_wait
p17
aVkvmppc_*
p18
aVmm_iommu_*
p19
aVmv_mbus_*
p20
aVperf_*
p21
aVregister_cxl_calls
p22
aVregister_key_type
p23
aVunregister_cxl_calls
p24
aV*_hw_breakpoint
p25
aVmodule:arch/x86/kvm/*
p26
aVmodule:drivers/crypto/ccp/*
p27
aVmodule:drivers/hv/*
p28
aVmodule:drivers/iio/common/hid-sensors/*
p29
aVmodule:drivers/iio/common/st_sensors/**
p30
aVmodule:drivers/mtd/nand/*
p31
aVmodule:drivers/net/wireless/**
p32
aVmodule:drivers/nvdimm/*
p33
aVmodule:drivers/power/supply/bq27xxx_battery
p34
aVmodule:drivers/scsi/cxgbi/*
p35
aVmodule:drivers/scsi/libiscs*
p36
aVmodule:drivers/scsi/qla2xxx/qla2xxx
p37
aVmodule:drivers/scsi/ufs/*
p38
aVmodule:drivers/target/**
p39
aVmodule:drivers/usb/chipidea/**
p40
aVmodule:drivers/usb/gadget/**
p41
aVmodule:drivers/usb/host/**
p42
aVmodule:drivers/usb/musb/**
p43
aVmodule:fs/nfs/**
p44
aVmodule:net/ceph/libceph
p45
aVmodule:net/l2tp/**
p46
aVmodule:sound/core/seq/**
p47
aVmodule:sound/firewire/snd-firewire-lib
p48
aVbtree_*
p49
aVvisitor*
p50
aVcan_rx_register
p51
aVip6_xmit
p52
aVmodule:net/dccp/dccp
p53
aVmodule:net/rds/rds
p54
aVdevfreq_*
p55
aVdevm_devfreq_*
p56
aVupdate_devfreq
p57
aVmodule:drivers/infiniband/**
p58
aVacpi_ec_add_query_handler
p59
aVacpi_ec_remove_query_handler
p60
aVfirst_ec
p61
aVdebugfs_create_automount
p62
aVmodule:drivers/iio/imu/inv_mpu6050/*
p63
ass(Vbase
p64
tp65
(dp66
Varches
p67
(lp68
Valpha
p69
aVamd64
p70
aVarm64
p71
aVarm64ilp32
p72
aVarmel
p73
aVarmhf
p74
aVhppa
p75
aVi386
p76
aVm68k
p77
aVmips
p78
aVmips64
p79
aVmips64el
p80
aVmips64r6
p81
aVmips64r6el
p82
aVmipsel
p83
aVmipsn32
p84
aVmipsn32el
p85
aVmipsn32r6
p86
aVmipsn32r6el
p87
aVmipsr6
p88
aVmipsr6el
p89
aVpowerpc
p90
aVpowerpcspe
p91
aVppc64
p92
aVppc64el
p93
aVs390
p94
aVs390x
p95
aVsh3
p96
aVsh4
p97
aVsparc
p98
aVsparc64
p99
aVtilegx
p100
aVx32
p101
asVcompiler
p102
Vgcc-7
p103
sVfeaturesets
p104
(lp105
Vnone
p106
aVrt
p107
ass(Vbuild
p108
tp109
(dp110
Vdebug-info
p111
I01
sVsigned-modules
p112
I00
ss(Vbase
p113
NVrt
p114
tp115
(dp116
Venabled
p117
I01
ss(Vdescription
p118
tp119
(dp120
Vpart-long-up
p121
VThis kernel is not suitable for SMP (multi-processor,\u000amulti-core or hyper-threaded) systems.
p122
sVpart-long-xen
p123
VThis kernel also runs on a Xen hypervisor.\u000aIt supports both privileged (dom0) and unprivileged (domU) operation.
p124
ss(Vimage
p125
tp126
(dp127
Vinitramfs-generators
p128
(lp129
Vinitramfs-tools
p130
aVinitramfs-fallback
p131
asVrecommends
p132
Vapparmor
p133
ss(Vrelations
p134
tp135
(dp136
Vgcc-7
p137
Vgcc-7 <!stage1 !cross>, gcc-7-@gnu-type-package@ <!stage1 cross>
p138
sVinitramfs-fallback
p139
Vlinux-initramfs-tool
p140
sVinitramfs-tools
p141
Vinitramfs-tools (>= 0.120+deb8u2)
p142
ss(Vbase
p143
Valpha
p144
tp145
(dp146
Vkernel-arch
p147
Valpha
p148
sVfeaturesets
p149
(lp150
Vnone
p151
ass(Vbuild
p152
g144
tp153
(dp154
Vimage-file
p155
Varch/alpha/boot/vmlinux.gz
p156
sVsigned-modules
p157
I00
ss(Vimage
p158
g144
tp159
(dp160
Vsuggests
p161
Vaboot, fdutils
p162
sVinstall-stem
p163
Vvmlinuz
p164
ss(Vdescription
p165
g144
NValpha-generic
p166
tp167
(dp168
Vhardware
p169
VAlpha
p170
sVhardware-long
p171
VDEC Alpha systems with extended kernel start address (Wildfire, Titan, Marvel)
p172
ss(Vdescription
p173
g144
NValpha-smp
p174
tp175
(dp176
Vhardware
p177
VAlpha SMP
p178
sVhardware-long
p179
VDEC Alpha SMP systems with extended kernel start address (Wildfire, Titan, Marvel)
p180
ss(Vbase
p181
g144
g151
tp182
(dp183
Vflavours
p184
(lp185
Valpha-generic
p186
aValpha-smp
p187
asVimplicit-flavour
p188
I01
ss(Vbase
p189
Vamd64
p190
tp191
(dp192
Vfeaturesets
p193
(lp194
Vnone
p195
aVrt
p196
asVkernel-arch
p197
Vx86
p198
ss(Vbuild
p199
g190
tp200
(dp201
Vdebug-info
p202
I01
sVimage-file
p203
Varch/x86/boot/bzImage
p204
sVvdso
p205
I01
ss(Vimage
p206
g190
tp207
(dp208
Vbootloaders
p209
(lp210
Vgrub-pc
p211
aVgrub-efi-amd64
p212
aVextlinux
p213
asVinstall-stem
p214
Vvmlinuz
p215
sVbreaks
p216
Vxserver-xorg-input-vmmouse (<< 1:13.0.99)
p217
ss(Vrelations
p218
g190
tp219
(dp220
Vheaders%gcc-7
p221
Vlinux-compiler-gcc-7-x86
p222
ss(Vdescription
p223
g190
NVamd64
p224
tp225
(dp226
Vhardware
p227
V64-bit PCs
p228
sVhardware-long
p229
VPCs with AMD64, Intel 64 or VIA Nano processors
p230
ss(Vbase
p231
g190
Vnone
p232
tp233
(dp234
Vflavours
p235
(lp236
Vamd64
p237
ass(Vdescription
p238
g190
g232
Vamd64
p239
tp240
(dp241
Vparts
p242
(lp243
Vxen
p244
ass(Vbase
p245
g190
Vrt
p246
tp247
(dp248
Vflavours
p249
(lp250
Vamd64
p251
ass(Vbase
p252
Varm64
p253
tp254
(dp255
Vkernel-arch
p256
Varm64
p257
sVfeaturesets
p258
(lp259
Vnone
p260
ass(Vbuild
p261
g253
tp262
(dp263
Vdebug-info
p264
I01
sVimage-file
p265
Varch/arm64/boot/Image
p266
sVvdso
p267
I01
ss(Vimage
p268
g253
tp269
(dp270
Vinstall-stem
p271
Vvmlinuz
p272
sVbreaks
p273
Vlibmozjs185-1.0, libmozjs-24-0 (<< 24.2.0-5.1~)
p274
ss(Vdescription
p275
g253
NVarm64
p276
tp277
(dp278
Vhardware
p279
V64-bit ARMv8 machines
p280
ss(Vimage
p281
g253
NVarm64
p282
tp283
(dp284
s(Vbase
p285
g253
Vnone
p286
tp287
(dp288
Vflavours
p289
(lp290
Varm64
p291
ass(Vbase
p292
Varm64ilp32
p293
tp294
(dp295
Vkernel-arch
p296
Varm64
p297
sVfeaturesets
p298
(lp299
ss(Vbase
p300
Varmel
p301
tp302
(dp303
Vkernel-arch
p304
Varm
p305
sg149
(lp306
g151
ass(Vbuild
p307
g301
tp308
(dp309
Vimage-file
p310
Varch/arm/boot/zImage
p311
sVsigned-modules
p312
I00
sVuncompressed-image-file
p313
Varch/arm/boot/Image
p314
ss(Vimage
p315
g301
tp316
(dp317
Vinstall-stem
p318
Vvmlinuz
p319
ss(Vrelations
p320
g301
tp321
(dp322
Vheaders%gcc-7
p323
Vlinux-compiler-gcc-7-arm
p324
ss(Vdescription
p325
g301
NVmarvell
p326
tp327
(dp328
Vhardware
p329
VMarvell Kirkwood/Orion
p330
sVhardware-long
p331
VMarvell Kirkwood based systems (SheevaPlug, QNAP TS-119/TS-219, etc)\u000aand Orion 5181, 5182 and 5281 based systems (QNAP TS-109/TS-209, etc)
p332
ss(Vimage
p333
g301
NVmarvell
p334
tp335
(dp336
Vrecommends
p337
Vu-boot-tools
p338
sVcheck-size
p339
L2097080L
sVcheck-size-with-dtb
p340
I01
sVcheck-uncompressed-size
p341
L7340032L
sVbreaks
p342
Vflash-kernel (<< 3.57~)
p343
ss(g181
g301
g151
tp344
(dp345
g184
(lp346
Vmarvell
p347
asg188
I01
ss(Vbase
p348
Varmhf
p349
tp350
(dp351
Vkernel-arch
p352
Varm
p353
sg149
(lp354
g151
ass(Vbuild
p355
g349
tp356
(dp357
Vimage-file
p358
Varch/arm/boot/zImage
p359
sVvdso
p360
I01
ss(Vimage
p361
g349
tp362
(dp363
Vinstall-stem
p364
Vvmlinuz
p365
ss(Vrelations
p366
g349
tp367
(dp368
Vheaders%gcc-7
p369
Vlinux-compiler-gcc-7-arm
p370
ss(Vdescription
p371
g349
NVarmmp
p372
tp373
(dp374
Vhardware
p375
VARMv7 multiplatform compatible SoCs
p376
sVhardware-long
p377
VARMv7 multiplatform kernel. See\u000ahttps://wiki.debian.org/DebianKernel/ARMMP for details of supported\u000aplatforms
p378
ss(Vdescription
p379
g349
NVarmmp-lpae
p380
tp381
(dp382
Vhardware
p383
VARMv7 multiplatform compatible SoCs supporting LPAE
p384
sVhardware-long
p385
VARMv7 multiplatform kernel supporting LPAE. See\u000ahttps://wiki.debian.org/DebianKernel/ARMMP for details of supported\u000aplatforms.
p386
ss(g181
g349
g151
tp387
(dp388
g184
(lp389
Varmmp
p390
aVarmmp-lpae
p391
asg188
I01
ss(Vbase
p392
Vhppa
p393
tp394
(dp395
Vkernel-arch
p396
Vparisc
p397
sg149
(lp398
g151
ass(Vbuild
p399
g393
tp400
(dp401
Vimage-file
p402
Vvmlinux
p403
sVsigned-modules
p404
I00
ss(Vimage
p405
g393
tp406
(dp407
Vsuggests
p408
Vpalo
p409
sVinstall-stem
p410
Vvmlinux
p411
ss(Vdescription
p412
g393
NVparisc
p413
tp414
(dp415
Vhardware
p416
V32-bit PA-RISC
p417
sVhardware-long
p418
VHP PA-RISC 32-bit systems with max 4 GB RAM
p419
ss(Vbase
p420
g393
NVparisc64-smp
p421
tp422
(dp423
Vcflags
p424
V-fno-cse-follow-jumps
p425
sVoverride-host-type
p426
Vhppa64-linux-gnu
p427
ss(Vdescription
p428
g393
NVparisc64-smp
p429
tp430
(dp431
Vhardware
p432
Vmultiprocessor 64-bit PA-RISC
p433
sVhardware-long
p434
VHP PA-RISC 64-bit SMP systems with support for more than 4 GB RAM
p435
ss(Vrelations
p436
g393
tp437
(dp438
Vgcc-7
p439
Vgcc-7 <!stage1 !cross>, binutils-hppa64-linux-gnu <!stage1 !cross>, gcc-7-hppa64-linux-gnu <!stage1 !cross>, gcc-7-hppa-linux-gnu <!stage1 cross>, binutils-hppa64-linux-gnu <!stage1 cross>, gcc-7-hppa64-linux-gnu <!stage1 cross>
p440
ss(g181
g393
g151
tp441
(dp442
g184
(lp443
Vparisc
p444
aVparisc64-smp
p445
asg188
I01
ss(Vbase
p446
Vi386
p447
tp448
(dp449
Vfeaturesets
p450
(lp451
Vnone
p452
aVrt
p453
asVkernel-arch
p454
Vx86
p455
ss(Vbuild
p456
g447
tp457
(dp458
Vimage-file
p459
Varch/x86/boot/bzImage
p460
sVvdso
p461
I01
ss(Vdescription
p462
g447
tp463
(dp464
Vpart-long-pae
p465
VThis kernel requires PAE (Physical Address Extension).\u000aThis feature is supported by the Intel Pentium Pro/II/III/4/4M/D, Xeon,\u000aCore and Atom; AMD Geode NX, Athlon (K7), Duron, Opteron, Sempron,\u000aTurion or Phenom; Transmeta Efficeon; VIA C7; and some other processors.
p466
ss(Vimage
p467
g447
tp468
(dp469
Vbootloaders
p470
(lp471
Vgrub-pc
p472
aVextlinux
p473
asVinstall-stem
p474
Vvmlinuz
p475
sVbreaks
p476
Vxserver-xorg-input-vmmouse (<< 1:13.0.99)
p477
ss(Vrelations
p478
g447
tp479
(dp480
Vheaders%gcc-7
p481
Vlinux-compiler-gcc-7-x86
p482
ss(Vdescription
p483
g447
NV686
p484
tp485
(dp486
Vhardware
p487
Volder PCs
p488
sVhardware-long
p489
VPCs with one or more processors not supporting PAE
p490
ss(Vbuild
p491
g447
NV686-pae
p492
tp493
(dp494
Vdebug-info
p495
I01
ss(Vdescription
p496
g447
NV686-pae
p497
tp498
(dp499
Vhardware
p500
Vmodern PCs
p501
sVhardware-long
p502
VPCs with one or more processors supporting PAE
p503
sVparts
p504
(lp505
Vpae
p506
ass(Vbase
p507
g447
Vnone
p508
tp509
(dp510
Vflavours
p511
(lp512
V686
p513
aV686-pae
p514
ass(Vdescription
p515
g447
g508
V686-pae
p516
tp517
(dp518
Vparts
p519
(lp520
Vxen
p521
ass(Vbase
p522
g447
Vrt
p523
tp524
(dp525
Vflavours
p526
(lp527
V686-pae
p528
ass(Vbase
p529
Vm68k
p530
tp531
(dp532
Vcflags
p533
V-ffreestanding
p534
sVkernel-arch
p535
Vm68k
p536
sg149
(lp537
g151
ass(Vbuild
p538
g530
tp539
(dp540
Vimage-file
p541
Vvmlinux
p542
sVsigned-modules
p543
I00
ss(Vimage
p544
g530
tp545
(dp546
Vsuggests
p547
Vvmelilo, fdutils
p548
sVinstall-stem
p549
Vvmlinux
p550
ss(Vdescription
p551
g530
NVm68k
p552
tp553
(dp554
Vhardware
p555
VMotorola MC68020+ family
p556
ss(g181
g530
g151
tp557
(dp558
g184
(lp559
Vm68k
p560
asg188
I01
ss(Vbase
p561
Vmips
p562
tp563
(dp564
Vkernel-arch
p565
Vmips
p566
sg149
(lp567
g151
ass(Vbuild
p568
g562
tp569
(dp570
Vimage-file
p571
Vvmlinux
p572
sVsigned-modules
p573
I00
ss(Vimage
p574
g562
tp575
(dp576
Vinstall-stem
p577
Vvmlinux
p578
ss(Vdescription
p579
g562
NV4kc-malta
p580
tp581
(dp582
Vhardware
p583
VMIPS Malta
p584
sVhardware-long
p585
VMIPS Malta boards
p586
ss(Vimage
p587
g562
NV4kc-malta
p588
tp589
(dp590
Vconfigs
p591
(lp592
Vkernelarch-mips/config.malta
p593
aVkernelarch-mips/config.mips32r2
p594
ass(Vdescription
p595
g562
NV5kc-malta
p596
tp597
(dp598
Vhardware
p599
VMIPS Malta (64-bit)
p600
sVhardware-long
p601
VMIPS Malta boards (64-bit)
p602
ss(Vimage
p603
g562
NV5kc-malta
p604
tp605
(dp606
Vconfigs
p607
(lp608
Vkernelarch-mips/config.malta
p609
aVkernelarch-mips/config.mips64r2
p610
ass(Vdescription
p611
g562
NVocteon
p612
tp613
(dp614
Vhardware
p615
VOcteon
p616
sVhardware-long
p617
VCavium Networks Octeon
p618
ss(Vimage
p619
g562
NVocteon
p620
tp621
(dp622
Vconfigs
p623
(lp624
Vkernelarch-mips/config.octeon
p625
ass(g181
g562
g151
tp626
(dp627
g184
(lp628
V4kc-malta
p629
aV5kc-malta
p630
aVocteon
p631
asg188
I01
ss(Vbase
p632
Vmips64
p633
tp634
(dp635
Vkernel-arch
p636
Vmips
p637
sg149
(lp638
g151
ass(Vbuild
p639
g633
tp640
(dp641
Vimage-file
p642
Vvmlinux
p643
sVsigned-modules
p644
I00
ss(Vimage
p645
g633
tp646
(dp647
Vinstall-stem
p648
Vvmlinux
p649
ss(Vdescription
p650
g633
NV5kc-malta
p651
tp652
(dp653
Vhardware
p654
VMIPS Malta
p655
sVhardware-long
p656
VMIPS Malta boards
p657
ss(Vimage
p658
g633
NV5kc-malta
p659
tp660
(dp661
Vconfigs
p662
(lp663
Vkernelarch-mips/config.malta
p664
aVkernelarch-mips/config.mips64r2
p665
ass(Vdescription
p666
g633
NVocteon
p667
tp668
(dp669
Vhardware
p670
VOcteon
p671
sVhardware-long
p672
VCavium Networks Octeon
p673
ss(Vimage
p674
g633
NVocteon
p675
tp676
(dp677
Vconfigs
p678
(lp679
Vkernelarch-mips/config.octeon
p680
ass(g181
g633
g151
tp681
(dp682
g184
(lp683
V5kc-malta
p684
aVocteon
p685
asg188
I01
ss(Vbase
p686
Vmips64el
p687
tp688
(dp689
Vkernel-arch
p690
Vmips
p691
sg149
(lp692
g151
ass(Vbuild
p693
g687
tp694
(dp695
Vimage-file
p696
Vvmlinux
p697
sVsigned-modules
p698
I00
ss(Vimage
p699
g687
tp700
(dp701
Vinstall-stem
p702
Vvmlinux
p703
ss(Vdescription
p704
g687
NV5kc-malta
p705
tp706
(dp707
Vhardware
p708
VMIPS Malta
p709
sVhardware-long
p710
VMIPS Malta boards
p711
ss(Vimage
p712
g687
NV5kc-malta
p713
tp714
(dp715
Vconfigs
p716
(lp717
Vkernelarch-mips/config.malta
p718
aVkernelarch-mips/config.mips64r2
p719
ass(Vdescription
p720
g687
NVloongson-3
p721
tp722
(dp723
Vhardware
p724
VLoongson 3A/3B
p725
sVhardware-long
p726
VLoongson 3A or 3B based systems (e.g. from Loongson or Lemote)
p727
ss(Vimage
p728
g687
NVloongson-3
p729
tp730
(dp731
Vconfigs
p732
(lp733
Vkernelarch-mips/config.loongson-3
p734
ass(Vdescription
p735
g687
NVocteon
p736
tp737
(dp738
Vhardware
p739
VOcteon
p740
sVhardware-long
p741
VCavium Networks Octeon
p742
ss(Vimage
p743
g687
NVocteon
p744
tp745
(dp746
Vconfigs
p747
(lp748
Vkernelarch-mips/config.octeon
p749
ass(g181
g687
g151
tp750
(dp751
g184
(lp752
V5kc-malta
p753
aVloongson-3
p754
aVocteon
p755
asg188
I01
ss(Vbase
p756
Vmips64r6
p757
tp758
(dp759
Vkernel-arch
p760
Vmips
p761
sg149
(lp762
g151
ass(Vbuild
p763
g757
tp764
(dp765
Vimage-file
p766
Vvmlinux
p767
sVsigned-modules
p768
I00
ss(Vimage
p769
g757
tp770
(dp771
Vinstall-stem
p772
Vvmlinux
p773
ss(Vdescription
p774
g757
NVmips64r6
p775
tp776
(dp777
Vhardware
p778
VMIPS R6 (64 bit, big endian)
p779
sVhardware-long
p780
VMIPS R6 (64 bit, big endian)
p781
ss(Vimage
p782
g757
NVmips64r6
p783
tp784
(dp785
Vconfigs
p786
(lp787
Vkernelarch-mips/config.malta
p788
aVkernelarch-mips/config.mips64r6
p789
ass(g181
g757
g151
tp790
(dp791
g184
(lp792
Vmips64r6
p793
asg188
I01
ss(Vbase
p794
Vmips64r6el
p795
tp796
(dp797
Vkernel-arch
p798
Vmips
p799
sg149
(lp800
g151
ass(Vbuild
p801
g795
tp802
(dp803
Vimage-file
p804
Vvmlinux
p805
sVsigned-modules
p806
I00
ss(Vimage
p807
g795
tp808
(dp809
Vinstall-stem
p810
Vvmlinux
p811
ss(Vdescription
p812
g795
NVmips64r6el
p813
tp814
(dp815
Vhardware
p816
VMIPS R6 (64 bit, little endian)
p817
sVhardware-long
p818
VMIPS R6 (64 bit, little endian)
p819
ss(Vimage
p820
g795
NVmips64r6el
p821
tp822
(dp823
Vconfigs
p824
(lp825
Vkernelarch-mips/config.malta
p826
aVkernelarch-mips/config.mips64r6
p827
ass(g181
g795
g151
tp828
(dp829
g184
(lp830
Vmips64r6el
p831
asg188
I01
ss(Vbase
p832
Vmipsel
p833
tp834
(dp835
Vkernel-arch
p836
Vmips
p837
sg149
(lp838
g151
ass(Vbuild
p839
g833
tp840
(dp841
Vimage-file
p842
Vvmlinux
p843
sVsigned-modules
p844
I00
ss(Vimage
p845
g833
tp846
(dp847
Vinstall-stem
p848
Vvmlinux
p849
ss(Vdescription
p850
g833
NV4kc-malta
p851
tp852
(dp853
Vhardware
p854
VMIPS Malta
p855
sVhardware-long
p856
VMIPS Malta boards
p857
ss(Vimage
p858
g833
NV4kc-malta
p859
tp860
(dp861
Vconfigs
p862
(lp863
Vkernelarch-mips/config.malta
p864
aVkernelarch-mips/config.mips32r2
p865
ass(Vdescription
p866
g833
NV5kc-malta
p867
tp868
(dp869
Vhardware
p870
VMIPS Malta (64-bit)
p871
sVhardware-long
p872
VMIPS Malta boards (64-bit)
p873
ss(Vimage
p874
g833
NV5kc-malta
p875
tp876
(dp877
Vconfigs
p878
(lp879
Vkernelarch-mips/config.malta
p880
aVkernelarch-mips/config.mips64r2
p881
ass(Vdescription
p882
g833
NVloongson-3
p883
tp884
(dp885
Vhardware
p886
VLoongson 3A/3B
p887
sVhardware-long
p888
VLoongson 3A or 3B based systems (e.g. from Loongson or Lemote)
p889
ss(Vimage
p890
g833
NVloongson-3
p891
tp892
(dp893
Vconfigs
p894
(lp895
Vkernelarch-mips/config.loongson-3
p896
ass(Vdescription
p897
g833
NVocteon
p898
tp899
(dp900
Vhardware
p901
VOcteon
p902
sVhardware-long
p903
VCavium Networks Octeon
p904
ss(Vimage
p905
g833
NVocteon
p906
tp907
(dp908
Vconfigs
p909
(lp910
Vkernelarch-mips/config.octeon
p911
ass(g181
g833
g151
tp912
(dp913
g184
(lp914
V4kc-malta
p915
aV5kc-malta
p916
aVloongson-3
p917
aVocteon
p918
asg188
I01
ss(Vbase
p919
Vmipsn32
p920
tp921
(dp922
Vkernel-arch
p923
Vmips
p924
sVfeaturesets
p925
(lp926
ss(Vbase
p927
Vmipsn32el
p928
tp929
(dp930
Vkernel-arch
p931
Vmips
p932
sVfeaturesets
p933
(lp934
ss(Vbase
p935
Vmipsn32r6
p936
tp937
(dp938
Vkernel-arch
p939
Vmips
p940
sVfeaturesets
p941
(lp942
ss(Vbase
p943
Vmipsn32r6el
p944
tp945
(dp946
Vkernel-arch
p947
Vmips
p948
sVfeaturesets
p949
(lp950
ss(Vbase
p951
Vmipsr6
p952
tp953
(dp954
Vkernel-arch
p955
Vmips
p956
sg149
(lp957
g151
ass(Vbuild
p958
g952
tp959
(dp960
Vimage-file
p961
Vvmlinux
p962
sVsigned-modules
p963
I00
ss(Vimage
p964
g952
tp965
(dp966
Vinstall-stem
p967
Vvmlinux
p968
ss(Vdescription
p969
g952
NVmips32r6
p970
tp971
(dp972
Vhardware
p973
VMIPS R6 (32 bit, big endian)
p974
sVhardware-long
p975
VMIPS R6 (32 bit, big endian)
p976
ss(Vimage
p977
g952
NVmips32r6
p978
tp979
(dp980
Vconfigs
p981
(lp982
Vkernelarch-mips/config.malta
p983
aVkernelarch-mips/config.mips32r6
p984
ass(Vdescription
p985
g952
NVmips64r6
p986
tp987
(dp988
Vhardware
p989
VMIPS R6 (64 bit, big endian)
p990
sVhardware-long
p991
VMIPS R6 (64 bit, big endian)
p992
ss(Vimage
p993
g952
NVmips64r6
p994
tp995
(dp996
Vconfigs
p997
(lp998
Vkernelarch-mips/config.malta
p999
aVkernelarch-mips/config.mips64r6
p1000
ass(g181
g952
g151
tp1001
(dp1002
g184
(lp1003
Vmips32r6
p1004
aVmips64r6
p1005
asg188
I01
ss(Vbase
p1006
Vmipsr6el
p1007
tp1008
(dp1009
Vkernel-arch
p1010
Vmips
p1011
sg149
(lp1012
g151
ass(Vbuild
p1013
g1007
tp1014
(dp1015
Vimage-file
p1016
Vvmlinux
p1017
sVsigned-modules
p1018
I00
ss(Vimage
p1019
g1007
tp1020
(dp1021
Vinstall-stem
p1022
Vvmlinux
p1023
ss(Vdescription
p1024
g1007
NVmips32r6el
p1025
tp1026
(dp1027
Vhardware
p1028
VMIPS R6 (32 bit, little endian)
p1029
sVhardware-long
p1030
VMIPS R6 (32 bit, little endian)
p1031
ss(Vimage
p1032
g1007
NVmips32r6el
p1033
tp1034
(dp1035
Vconfigs
p1036
(lp1037
Vkernelarch-mips/config.malta
p1038
aVkernelarch-mips/config.mips32r6
p1039
ass(Vdescription
p1040
g1007
NVmips64r6el
p1041
tp1042
(dp1043
Vhardware
p1044
VMIPS R6 (64 bit, little endian)
p1045
sVhardware-long
p1046
VMIPS R6 (64 bit, little endian)
p1047
ss(Vimage
p1048
g1007
NVmips64r6el
p1049
tp1050
(dp1051
Vconfigs
p1052
(lp1053
Vkernelarch-mips/config.malta
p1054
aVkernelarch-mips/config.mips64r6
p1055
ass(g181
g1007
g151
tp1056
(dp1057
g184
(lp1058
Vmips32r6el
p1059
aVmips64r6el
p1060
asg188
I01
ss(Vbase
p1061
Vpowerpc
p1062
tp1063
(dp1064
Vkernel-arch
p1065
Vpowerpc
p1066
sg149
(lp1067
g151
ass(Vbuild
p1068
g1062
tp1069
(dp1070
Vimage-file
p1071
Vvmlinux
p1072
sVvdso
p1073
I01
ss(Vimage
p1074
g1062
tp1075
(dp1076
Vconfigs
p1077
(lp1078
sVsuggests
p1079
Vmkvmlinuz
p1080
sVinstall-stem
p1081
Vvmlinux
p1082
ss(Vdescription
p1083
g1062
NVpowerpc
p1084
tp1085
(dp1086
Vhardware
p1087
Vuniprocessor 32-bit PowerPC
p1088
ss(Vdescription
p1089
g1062
NVpowerpc-smp
p1090
tp1091
(dp1092
Vhardware
p1093
Vmultiprocessor 32-bit PowerPC
p1094
ss(Vimage
p1095
g1062
NVpowerpc-smp
p1096
tp1097
(dp1098
Vconfigs
p1099
(lp1100
Vpowerpc/config.powerpc
p1101
aVpowerpc/config.powerpc-smp
p1102
ass(Vdescription
p1103
g1062
NVpowerpc64
p1104
tp1105
(dp1106
Vhardware
p1107
V64-bit PowerPC
p1108
ss(Vimage
p1109
g1062
NVpowerpc64
p1110
tp1111
(dp1112
Vconfigs
p1113
(lp1114
Vkernelarch-powerpc/config-arch-64
p1115
aVkernelarch-powerpc/config-arch-64-be
p1116
ass(g181
g1062
g151
tp1117
(dp1118
g184
(lp1119
Vpowerpc
p1120
aVpowerpc-smp
p1121
aVpowerpc64
p1122
asg188
I01
ss(Vbase
p1123
Vpowerpcspe
p1124
tp1125
(dp1126
Vkernel-arch
p1127
Vpowerpc
p1128
sg149
(lp1129
g151
ass(Vbuild
p1130
g1124
tp1131
(dp1132
Vimage-file
p1133
Vvmlinux
p1134
sVsigned-modules
p1135
I00
sVvdso
p1136
I01
ss(Vimage
p1137
g1124
tp1138
(dp1139
Vsuggests
p1140
Vmkvmlinuz
p1141
sVinstall-stem
p1142
Vvmlinux
p1143
ss(Vdescription
p1144
g1124
tp1145
(dp1146
Vhardware
p1147
V32-bit PowerPC with SPE (instead of AltiVec) with SMP support
p1148
ss(g181
g1124
g151
tp1149
(dp1150
g184
(lp1151
Vpowerpcspe
p1152
asg188
I01
ss(Vbase
p1153
Vppc64
p1154
tp1155
(dp1156
Vkernel-arch
p1157
Vpowerpc
p1158
sg149
(lp1159
g151
ass(Vbuild
p1160
g1154
tp1161
(dp1162
Vimage-file
p1163
Vvmlinux
p1164
sVsigned-modules
p1165
I00
sVvdso
p1166
I01
ss(Vimage
p1167
g1154
tp1168
(dp1169
Vconfigs
p1170
(lp1171
sVsuggests
p1172
Vmkvmlinuz
p1173
sVinstall-stem
p1174
Vvmlinux
p1175
ss(Vdescription
p1176
g1154
NVpowerpc64
p1177
tp1178
(dp1179
Vhardware
p1180
V64-bit PowerPC
p1181
ss(Vimage
p1182
g1154
NVpowerpc64
p1183
tp1184
(dp1185
Vconfigs
p1186
(lp1187
Vkernelarch-powerpc/config-arch-64
p1188
aVkernelarch-powerpc/config-arch-64-be
p1189
ass(g181
g1154
g151
tp1190
(dp1191
g184
(lp1192
Vpowerpc64
p1193
asg188
I01
ss(Vbase
p1194
Vppc64el
p1195
tp1196
(dp1197
Vkernel-arch
p1198
Vpowerpc
p1199
sg149
(lp1200
g151
ass(Vbuild
p1201
g1195
tp1202
(dp1203
Vimage-file
p1204
Vvmlinux
p1205
sVvdso
p1206
I01
ss(Vimage
p1207
g1195
tp1208
(dp1209
Vconfigs
p1210
(lp1211
sVsuggests
p1212
Vmkvmlinuz
p1213
sVinstall-stem
p1214
Vvmlinux
p1215
ss(Vdescription
p1216
g1195
NVpowerpc64le
p1217
tp1218
(dp1219
Vhardware
p1220
VLittle-endian 64-bit PowerPC
p1221
ss(Vimage
p1222
g1195
NVpowerpc64le
p1223
tp1224
(dp1225
Vconfigs
p1226
(lp1227
Vkernelarch-powerpc/config-arch-64
p1228
aVkernelarch-powerpc/config-arch-64-le
p1229
ass(g181
g1195
g151
tp1230
(dp1231
g184
(lp1232
Vpowerpc64le
p1233
asg188
I01
ss(Vbase
p1234
Vs390
p1235
tp1236
(dp1237
Vkernel-arch
p1238
Vs390
p1239
sVfeaturesets
p1240
(lp1241
ss(Vbase
p1242
Vs390x
p1243
tp1244
(dp1245
Vkernel-arch
p1246
Vs390
p1247
sg149
(lp1248
g151
ass(Vbuild
p1249
g1243
tp1250
(dp1251
Vimage-file
p1252
Varch/s390/boot/image
p1253
sVvdso
p1254
I01
ss(Vimage
p1255
g1243
tp1256
(dp1257
Vbootloaders
p1258
(lp1259
Vs390-tools
p1260
asVinstall-stem
p1261
Vvmlinuz
p1262
ss(Vrelations
p1263
g1243
tp1264
(dp1265
Vheaders%gcc-7
p1266
Vlinux-compiler-gcc-7-s390
p1267
ss(Vbuild
p1268
g1243
NVs390x
p1269
tp1270
(dp1271
Vdebug-info
p1272
I01
ss(Vdescription
p1273
g1243
NVs390x
p1274
tp1275
(dp1276
Vhardware
p1277
VIBM zSeries
p1278
ss(g181
g1243
g151
tp1279
(dp1280
g184
(lp1281
Vs390x
p1282
asg188
I01
ss(Vbase
p1283
Vsh3
p1284
tp1285
(dp1286
Vkernel-arch
p1287
Vsh
p1288
sVfeaturesets
p1289
(lp1290
ss(Vbase
p1291
Vsh4
p1292
tp1293
(dp1294
Vkernel-arch
p1295
Vsh
p1296
sg149
(lp1297
g151
ass(Vbuild
p1298
g1292
tp1299
(dp1300
Vimage-file
p1301
Varch/sh/boot/zImage
p1302
sVsigned-modules
p1303
I00
ss(Vimage
p1304
g1292
tp1305
(dp1306
Vinstall-stem
p1307
Vvmlinuz
p1308
ss(Vdescription
p1309
g1292
NVsh7751r
p1310
tp1311
(dp1312
Vhardware
p1313
Vsh7751r
p1314
sVhardware-long
p1315
VRenesas SH7751R R2D plus board
p1316
ss(Vdescription
p1317
g1292
NVsh7785lcr
p1318
tp1319
(dp1320
Vhardware
p1321
Vsh7785lcr
p1322
sVhardware-long
p1323
VRenesas SH7785 reference board
p1324
ss(Vimage
p1325
g1292
NVsh7785lcr
p1326
tp1327
(dp1328
Vrecommends
p1329
Vu-boot-tools
p1330
sVcheck-size
p1331
L4194304L
ss(g181
g1292
g151
tp1332
(dp1333
g184
(lp1334
Vsh7751r
p1335
aVsh7785lcr
p1336
asg188
I01
ss(Vbase
p1337
Vsparc
p1338
tp1339
(dp1340
Vkernel-arch
p1341
Vsparc
p1342
sVfeaturesets
p1343
(lp1344
ss(Vbase
p1345
Vsparc64
p1346
tp1347
(dp1348
Vkernel-arch
p1349
Vsparc
p1350
sg149
(lp1351
g151
ass(Vbuild
p1352
g1346
tp1353
(dp1354
Vimage-file
p1355
Varch/sparc/boot/zImage
p1356
sVsigned-modules
p1357
I00
ss(Vimage
p1358
g1346
tp1359
(dp1360
Vconfigs
p1361
(lp1362
sVsuggests
p1363
Vsilo, fdutils
p1364
sVinstall-stem
p1365
Vvmlinuz
p1366
ss(Vdescription
p1367
g1346
NVsparc64
p1368
tp1369
(dp1370
Vhardware
p1371
Vuniprocessor 64-bit UltraSPARC
p1372
ss(Vimage
p1373
g1346
NVsparc64
p1374
tp1375
(dp1376
Vconfigs
p1377
(lp1378
Vkernelarch-sparc/config-up
p1379
ass(Vdescription
p1380
g1346
NVsparc64-smp
p1381
tp1382
(dp1383
Vhardware
p1384
Vmultiprocessor 64-bit UltraSPARC
p1385
ss(Vimage
p1386
g1346
NVsparc64-smp
p1387
tp1388
(dp1389
Vconfigs
p1390
(lp1391
Vkernelarch-sparc/config-smp
p1392
ass(g181
g1346
g151
tp1393
(dp1394
g184
(lp1395
Vsparc64
p1396
aVsparc64-smp
p1397
asg188
I01
ss(Vbase
p1398
Vtilegx
p1399
tp1400
(dp1401
Vkernel-arch
p1402
Vtile
p1403
sVfeaturesets
p1404
(lp1405
ss(Vbase
p1406
Vx32
p1407
tp1408
(dp1409
Vkernel-arch
p1410
Vx86
p1411
sVfeaturesets
p1412
(lp1413
ss(Vabi
p1414
NVrt
p1415
tp1416
(dp1417
Vignore-changes
p1418
(lp1419
V*
p1420
ass(Vdescription
p1421
Ng1415
tp1422
(dp1423
Vpart-long-rt
p1424
VThis kernel includes the PREEMPT_RT realtime patch set.
p1425
sVpart-short-rt
p1426
VPREEMPT_RT
p1427
sVparts
p1428
(lp1429
Vrt
p1430
ass(Vversion
p1431
tp1432
(dp1433
Vsource
p1434
V4.14.13-1
p1435
sVupstream
p1436
V4.14
p1437
sVabiname_base
p1438
V4.14.0
p1439
sVabiname
p1440
V4.14.0-3
p1441
ss.