ccopy_reg
_reconstructor
p0
(cdebian_linux.config
ConfigCore
p1
c__builtin__
dict
p2
(dp3
(Vbase
p4
Vmipsel
p5
Vnone
p6
tp7
(dp8
Vimplicit-flavour
p9
I01
sVflavours
p10
(lp11
V4kc-malta
p12
aV5kc-malta
p13
aVloongson-3
p14
aVocteon
p15
ass(Vimage
p16
Vhppa
p17
tp18
(dp19
Vinstall-stem
p20
Vvmlinux
p21
sVsuggests
p22
Vpalo
p23
ss(Vrelations
p24
tp25
(dp26
Vinitramfs-fallback
p27
Vlinux-initramfs-tool
p28
sVgcc-5
p29
Vgcc-5 <!stage1 !cross>, gcc-5-@gnu-type-package@:native <!stage1 cross>
p30
sVinitramfs-tools
p31
Vinitramfs-tools (>= 0.110~)
p32
ss(Vdescription
p33
Vm68k
p34
NVm68k
p35
tp36
(dp37
Vhardware
p38
VMotorola MC68020+ family
p39
ss(Vbase
p40
Vppc64el
p41
tp42
(dp43
Vfeaturesets
p44
(lp45
g6
asVkernel-arch
p46
Vpowerpc
p47
ss(Vimage
p48
Vpowerpc
p49
NVpowerpc-smp
p50
tp51
(dp52
Vconfigs
p53
(lp54
Vpowerpc/config.powerpc
p55
aVpowerpc/config.powerpc-smp
p56
ass(Vdescription
p57
Varmel
p58
NVmarvell
p59
tp60
(dp61
Vhardware
p62
VMarvell Kirkwood/Orion
p63
sVhardware-long
p64
VMarvell Kirkwood based systems (SheevaPlug, QNAP TS-119/TS-219, etc)\u000aand Orion 5181, 5182 and 5281 based systems (QNAP TS-109/TS-209, etc)
p65
ss(g4
g41
g6
tp66
(dp67
g9
I01
sg10
(lp68
Vpowerpc64le
p69
ass(Vimage
p70
g49
NVpowerpc64
p71
tp72
(dp73
Vconfigs
p74
(lp75
Vkernelarch-powerpc/config-arch-64
p76
aVkernelarch-powerpc/config-arch-64-be
p77
ass(Vdescription
p78
Vi386
p79
Vnone
p80
V686-pae
p81
tp82
(dp83
Vparts
p84
(lp85
Vxen
p86
ass(Vrelations
p87
g79
tp88
(dp89
Vheaders%gcc-5
p90
Vlinux-compiler-gcc-5-x86
p91
ss(g4
Valpha
p92
g6
tp93
(dp94
g9
I01
sg10
(lp95
Valpha-generic
p96
aValpha-smp
p97
ass(Vimage
p98
Vmips64
p99
NV5kc-malta
p100
tp101
(dp102
Vconfigs
p103
(lp104
Vkernelarch-mips/config.malta
p105
aVkernelarch-mips/config.mips64r2
p106
ass(Vdescription
p107
Vmips
p108
NVocteon
p109
tp110
(dp111
Vhardware
p112
VOcteon
p113
sVhardware-long
p114
VCavium Networks Octeon
p115
ss(Vimage
p116
Varmhf
p117
tp118
(dp119
Vinstall-stem
p120
Vvmlinuz
p121
ss(Vbuild
p122
Vsparc64
p123
tp124
(dp125
Vsigned-modules
p126
I00
sVimage-file
p127
Varch/sparc/boot/zImage
p128
ss(Vimage
p129
g108
tp130
(dp131
Vinstall-stem
p132
Vvmlinux
p133
ss(Vversion
p134
tp135
(dp136
Vupstream
p137
V4.8
p138
sVabiname
p139
V4.8.0-parrot
p140
sVsource
p141
V4.8.11-2parrot1
p142
sVabiname_base
p143
V4.8.0
p144
ss(Vbase
p145
g108
tp146
(dp147
g44
(lp148
g6
asVkernel-arch
p149
Vmips
p150
ss(Vbase
p151
g79
Vrt
p152
tp153
(dp154
Vflavours
p155
(lp156
V686-pae
p157
ass(Vbase
p158
NVrt
p159
tp160
(dp161
Venabled
p162
I01
ss(Vabi
p163
NVrt
p164
tp165
(dp166
Vignore-changes
p167
(lp168
V*
p169
ass(Vimage
p170
Vppc64
p171
tp172
(dp173
Vinstall-stem
p174
Vvmlinux
p175
sVconfigs
p176
(lp177
sVsuggests
p178
Vmkvmlinuz
p179
ss(Vbase
p180
g5
tp181
(dp182
g44
(lp183
g6
asVkernel-arch
p184
Vmips
p185
ss(Vdescription
p186
g171
NVpowerpc64
p187
tp188
(dp189
Vhardware
p190
V64-bit PowerPC
p191
ss(Vbuild
p192
g79
NV686-pae
p193
tp194
(dp195
Vdebug-info
p196
I01
ss(Vdescription
p197
Ng164
tp198
(dp199
Vpart-long-rt
p200
VThis kernel includes the PREEMPT_RT realtime patch set.
p201
sVpart-short-rt
p202
VPREEMPT_RT
p203
sVparts
p204
(lp205
Vrt
p206
ass(Vimage
p207
g41
tp208
(dp209
Vinstall-stem
p210
Vvmlinux
p211
sVconfigs
p212
(lp213
sVsuggests
p214
Vmkvmlinuz
p215
ss(Vbuild
p216
g99
tp217
(dp218
Vsigned-modules
p219
I00
sVimage-file
p220
Vvmlinux
p221
ss(Vdescription
p222
g99
NV5kc-malta
p223
tp224
(dp225
Vhardware
p226
VMIPS Malta
p227
sVhardware-long
p228
VMIPS Malta boards
p229
ss(Vbase
p230
g34
tp231
(dp232
g44
(lp233
g6
asVkernel-arch
p234
Vm68k
p235
sVcflags
p236
V-ffreestanding
p237
ss(Vimage
p238
g79
tp239
(dp240
Vbootloaders
p241
(lp242
Vgrub-pc
p243
aVextlinux
p244
asVinstall-stem
p245
Vvmlinuz
p246
sVbreaks
p247
Vxserver-xorg-input-vmmouse (<< 1:13.0.99)
p248
ss(Vbase
p249
g17
NVparisc64-smp
p250
tp251
(dp252
Voverride-host-type
p253
Vhppa64-linux-gnu
p254
sVcflags
p255
V-fno-cse-follow-jumps
p256
ss(Vbase
p257
Vsh4
p258
tp259
(dp260
g44
(lp261
g6
asVkernel-arch
p262
Vsh
p263
ss(Vbuild
p264
Vamd64
p265
tp266
(dp267
Vvdso
p268
I01
sVsigned-modules
p269
I00
sVdebug-info
p270
I01
sVimage-file
p271
Varch/x86/boot/bzImage
p272
ss(Vdescription
p273
g108
NV4kc-malta
p274
tp275
(dp276
Vhardware
p277
VMIPS Malta
p278
sVhardware-long
p279
VMIPS Malta boards
p280
ss(Vbase
p281
Vor1k
p282
tp283
(dp284
Vfeaturesets
p285
(lp286
sVkernel-arch
p287
Vopenrisc
p288
ss(Vbuild
p289
g92
tp290
(dp291
Vsigned-modules
p292
I00
sVimage-file
p293
Varch/alpha/boot/vmlinux.gz
p294
ss(Vimage
p295
g34
tp296
(dp297
Vinstall-stem
p298
Vvmlinuz
p299
sVsuggests
p300
Vvmelilo, fdutils
p301
ss(Vbase
p302
g58
tp303
(dp304
g44
(lp305
g6
asVkernel-arch
p306
Varm
p307
ss(Vbase
p308
g123
tp309
(dp310
g44
(lp311
g6
asVkernel-arch
p312
Vsparc
p313
ss(Vrelations
p314
g117
tp315
(dp316
Vheaders%gcc-5
p317
Vlinux-compiler-gcc-5-arm
p318
ss(Vbuild
p319
g117
tp320
(dp321
Vvdso
p322
I01
sVsigned-modules
p323
I00
sVimage-file
p324
Varch/arm/boot/zImage
p325
ss(g4
g99
g6
tp326
(dp327
g9
I01
sg10
(lp328
V5kc-malta
p329
aVocteon
p330
ass(Vimage
p331
Varm64
p332
tp333
(dp334
Vinstall-stem
p335
Vvmlinuz
p336
ss(g4
Vs390x
p337
g6
tp338
(dp339
g9
I01
sg10
(lp340
Vs390x
p341
ass(Vbuild
p342
g5
tp343
(dp344
Vsigned-modules
p345
I00
sVimage-file
p346
Vvmlinux
p347
ss(Vdescription
p348
g332
NVarm64
p349
tp350
(dp351
Vhardware
p352
V64-bit ARMv8 machines
p353
ss(Vbuild
p354
g41
tp355
(dp356
Vvdso
p357
I01
sVimage-file
p358
Vvmlinux
p359
ss(Vbuild
p360
g337
NVs390x
p361
tp362
(dp363
Vdebug-info
p364
I01
ss(Vdescription
p365
tp366
(dp367
Vpart-long-xen
p368
VThis kernel also runs on a Xen hypervisor.\u000aIt supports both privileged (dom0) and unprivileged (domU) operation.
p369
sVpart-long-up
p370
VThis kernel is not suitable for SMP (multi-processor,\u000amulti-core or hyper-threaded) systems.
p371
ss(Vimage
p372
g108
NVocteon
p373
tp374
(dp375
Vconfigs
p376
(lp377
Vkernelarch-mips/config.octeon
p378
ass(Vbase
p379
g79
tp380
(dp381
Vfeaturesets
p382
(lp383
Vnone
p384
aVrt
p385
asVkernel-arch
p386
Vx86
p387
ss(Vdescription
p388
g123
NVsparc64
p389
tp390
(dp391
Vhardware
p392
Vuniprocessor 64-bit UltraSPARC
p393
ss(g4
g108
g6
tp394
(dp395
g9
I01
sg10
(lp396
V4kc-malta
p397
aV5kc-malta
p398
aVocteon
p399
ass(Vxen
p400
g265
Vnone
p401
Vamd64
p402
tp403
(dp404
Vflavours
p405
(lp406
Vamd64
p407
ass(Vdescription
p408
g337
NVs390x
p409
tp410
(dp411
Vhardware
p412
VIBM zSeries
p413
ss(Vdescription
p414
g258
NVsh7751r
p415
tp416
(dp417
Vhardware
p418
Vsh7751r
p419
sVhardware-long
p420
VRenesas SH7751R R2D plus board
p421
ss(Vdescription
p422
g5
NV4kc-malta
p423
tp424
(dp425
Vhardware
p426
VMIPS Malta
p427
sVhardware-long
p428
VMIPS Malta boards
p429
ss(g4
g58
g6
tp430
(dp431
g9
I01
sg10
(lp432
Vmarvell
p433
aVversatile
p434
ass(Vbase
p435
Vmipsn32el
p436
tp437
(dp438
Vfeaturesets
p439
(lp440
sVkernel-arch
p441
Vmips
p442
ss(Vbase
p443
Vtilegx
p444
tp445
(dp446
Vfeaturesets
p447
(lp448
sVkernel-arch
p449
Vtile
p450
ss(Vdescription
p451
g58
NVversatile
p452
tp453
(dp454
Vhardware
p455
VVersatile
p456
sVhardware-long
p457
VVersatile systems (PB, AB, Qemu)
p458
ss(Vbuild
p459
g108
tp460
(dp461
Vsigned-modules
p462
I00
sVimage-file
p463
Vvmlinux
p464
ss(Vbuild
p465
g258
tp466
(dp467
Vsigned-modules
p468
I00
sVimage-file
p469
Varch/sh/boot/zImage
p470
ss(g4
Vpowerpcspe
p471
g6
tp472
(dp473
g9
I01
sg10
(lp474
Vpowerpcspe
p475
ass(Vimage
p476
g5
NVocteon
p477
tp478
(dp479
Vconfigs
p480
(lp481
Vkernelarch-mips/config.octeon
p482
ass(Vimage
p483
Vmips64el
p484
tp485
(dp486
Vinstall-stem
p487
Vvmlinux
p488
ss(Vbuild
p489
g471
tp490
(dp491
Vsigned-modules
p492
I00
sVvdso
p493
I01
sVimage-file
p494
Vvmlinux
p495
ss(Vbase
p496
g117
tp497
(dp498
g44
(lp499
g6
asVkernel-arch
p500
Varm
p501
ss(Vdescription
p502
g49
NVpowerpc64
p503
tp504
(dp505
Vhardware
p506
V64-bit PowerPC
p507
ss(Vdescription
p508
g484
NVloongson-3
p509
tp510
(dp511
Vhardware
p512
VLoongson 3A/3B
p513
sVhardware-long
p514
VLoongson 3A or 3B based systems (e.g. from Loongson or Lemote)
p515
ss(Vimage
p516
g99
NVocteon
p517
tp518
(dp519
Vconfigs
p520
(lp521
Vkernelarch-mips/config.octeon
p522
ass(Vbase
p523
g265
tp524
(dp525
Vfeaturesets
p526
(lp527
Vnone
p528
aVrt
p529
asVkernel-arch
p530
Vx86
p531
ss(Vdescription
p532
g265
NVamd64
p533
tp534
(dp535
Vhardware
p536
V64-bit PCs
p537
sVhardware-long
p538
VPCs with AMD64, Intel 64 or VIA Nano processors
p539
ss(Vbuild
p540
g17
tp541
(dp542
Vsigned-modules
p543
I00
sVimage-file
p544
Vvmlinux
p545
ss(Vbuild
p546
g34
tp547
(dp548
Vsigned-modules
p549
I00
sVimage-file
p550
Vvmlinux.gz
p551
ss(Vdescription
p552
g79
tp553
(dp554
Vpart-long-pae
p555
VThis kernel requires PAE (Physical Address Extension).\u000aThis feature is supported by the Intel Pentium Pro/II/III/4/4M/D, Xeon,\u000aCore and Atom; AMD Geode NX, Athlon (K7), Duron, Opteron, Sempron,\u000aTurion or Phenom; Transmeta Efficeon; VIA C7; and some other processors.
p556
ss(Vimage
p557
g123
NVsparc64
p558
tp559
(dp560
Vconfigs
p561
(lp562
Vkernelarch-sparc/config-up
p563
ass(Vbuild
p564
g49
tp565
(dp566
Vvdso
p567
I01
sVimage-file
p568
Vvmlinux
p569
ss(Vimage
p570
g108
NV5kc-malta
p571
tp572
(dp573
Vconfigs
p574
(lp575
Vkernelarch-mips/config.malta
p576
aVkernelarch-mips/config.mips64r2
p577
ass(Vimage
p578
g471
tp579
(dp580
Vinstall-stem
p581
Vvmlinux
p582
sVsuggests
p583
Vmkvmlinuz
p584
ss(Vdescription
p585
g92
NValpha-generic
p586
tp587
(dp588
Vhardware
p589
VAlpha
p590
sVhardware-long
p591
VDEC Alpha systems with extended kernel start address (Wildfire, Titan, Marvel)
p592
ss(Vdescription
p593
g92
NValpha-smp
p594
tp595
(dp596
Vhardware
p597
VAlpha SMP
p598
sVhardware-long
p599
VDEC Alpha SMP systems with extended kernel start address (Wildfire, Titan, Marvel)
p600
ss(Vimage
p601
g58
tp602
(dp603
Vinstall-stem
p604
Vvmlinuz
p605
ss(Vdescription
p606
g99
NVocteon
p607
tp608
(dp609
Vhardware
p610
VOcteon
p611
sVhardware-long
p612
VCavium Networks Octeon
p613
ss(Vdescription
p614
g79
NV686
p615
tp616
(dp617
Vhardware
p618
Volder PCs
p619
sVhardware-long
p620
VPCs with one or more processors not supporting PAE
p621
ss(Vimage
p622
g484
NVocteon
p623
tp624
(dp625
Vconfigs
p626
(lp627
Vkernelarch-mips/config.octeon
p628
ass(g4
g258
g6
tp629
(dp630
g9
I01
sg10
(lp631
Vsh7751r
p632
aVsh7785lcr
p633
ass(Vbase
p634
tp635
(dp636
Vfeaturesets
p637
(lp638
Vnone
p639
aVrt
p640
asVcompiler
p641
Vgcc-5
p642
sVarches
p643
(lp644
Valpha
p645
aVamd64
p646
aVarm64
p647
aVarmel
p648
aVarmhf
p649
aVhppa
p650
aVi386
p651
aVm68k
p652
aVmips
p653
aVmipsel
p654
aVmipsn32
p655
aVmipsn32el
p656
aVmips64
p657
aVmips64el
p658
aVor1k
p659
aVpowerpc
p660
aVpowerpcspe
p661
aVppc64
p662
aVppc64el
p663
aVs390
p664
aVs390x
p665
aVsh4
p666
aVsparc
p667
aVsparc64
p668
aVtilegx
p669
aVx32
p670
ass(Vbase
p671
g265
Vrt
p672
tp673
(dp674
Vflavours
p675
(lp676
Vamd64
p677
ass(Vdescription
p678
g17
NVparisc
p679
tp680
(dp681
Vhardware
p682
V32-bit PA-RISC
p683
sVhardware-long
p684
VHP PA-RISC 32-bit systems with max 4 GB RAM
p685
ss(g4
g117
g6
tp686
(dp687
g9
I01
sg10
(lp688
Varmmp
p689
aVarmmp-lpae
p690
ass(Vimage
p691
g258
tp692
(dp693
Vinstall-stem
p694
Vvmlinuz
p695
ss(Vdescription
p696
g123
NVsparc64-smp
p697
tp698
(dp699
Vhardware
p700
Vmultiprocessor 64-bit UltraSPARC
p701
ss(Vdescription
p702
g49
NVpowerpc
p703
tp704
(dp705
Vhardware
p706
Vuniprocessor 32-bit PowerPC
p707
ss(Vrelations
p708
g265
tp709
(dp710
Vheaders%gcc-5
p711
Vlinux-compiler-gcc-5-x86
p712
ss(Vdescription
p713
g5
NVocteon
p714
tp715
(dp716
Vhardware
p717
VOcteon
p718
sVhardware-long
p719
VCavium Networks Octeon
p720
ss(g4
g49
g6
tp721
(dp722
g9
I01
sg10
(lp723
Vpowerpc
p724
aVpowerpc-smp
p725
aVpowerpc64
p726
ass(Vbase
p727
g471
tp728
(dp729
g44
(lp730
g6
asVkernel-arch
p731
Vpowerpc
p732
ss(Vimage
p733
g92
tp734
(dp735
Vinstall-stem
p736
Vvmlinuz
p737
sVsuggests
p738
Vaboot, fdutils
p739
ss(Vbuild
p740
g79
tp741
(dp742
Vvdso
p743
I01
sVsigned-modules
p744
I00
sVimage-file
p745
Varch/x86/boot/bzImage
p746
ss(Vimage
p747
g171
NVpowerpc64
p748
tp749
(dp750
Vconfigs
p751
(lp752
Vkernelarch-powerpc/config-arch-64
p753
aVkernelarch-powerpc/config-arch-64-be
p754
ass(Vbase
p755
Vsparc
p756
tp757
(dp758
Vfeaturesets
p759
(lp760
sVkernel-arch
p761
Vsparc
p762
ss(Vdescription
p763
g5
NVloongson-3
p764
tp765
(dp766
Vhardware
p767
VLoongson 3A/3B
p768
sVhardware-long
p769
VLoongson 3A or 3B based systems (e.g. from Loongson or Lemote)
p770
ss(Vimage
p771
g337
tp772
(dp773
Vbootloaders
p774
(lp775
Vs390-tools
p776
asVinstall-stem
p777
Vvmlinuz
p778
ss(Vimage
p779
g5
tp780
(dp781
Vinstall-stem
p782
Vvmlinux
p783
ss(Vimage
p784
g5
NVloongson-3
p785
tp786
(dp787
Vconfigs
p788
(lp789
Vkernelarch-mips/config.loongson-3
p790
ass(Vdescription
p791
g17
NVparisc64-smp
p792
tp793
(dp794
Vhardware
p795
Vmultiprocessor 64-bit PA-RISC
p796
sVhardware-long
p797
VHP PA-RISC 64-bit SMP systems with support for more than 4 GB RAM
p798
ss(Vimage
p799
g265
tp800
(dp801
Vbootloaders
p802
(lp803
Vgrub-pc
p804
aVgrub-efi-amd64
p805
aVextlinux
p806
asVinstall-stem
p807
Vvmlinuz
p808
sVbreaks
p809
Vxserver-xorg-input-vmmouse (<< 1:13.0.99)
p810
ss(Vbase
p811
g171
tp812
(dp813
g44
(lp814
g6
asVkernel-arch
p815
Vpowerpc
p816
ss(Vbase
p817
g337
tp818
(dp819
g44
(lp820
g6
asVkernel-arch
p821
Vs390
p822
ss(Vrelations
p823
g58
tp824
(dp825
Vheaders%gcc-5
p826
Vlinux-compiler-gcc-5-arm
p827
ss(g4
g484
g6
tp828
(dp829
g9
I01
sg10
(lp830
V5kc-malta
p831
aVloongson-3
p832
aVocteon
p833
ass(Vdescription
p834
g108
NV5kc-malta
p835
tp836
(dp837
Vhardware
p838
VMIPS Malta (64-bit)
p839
sVhardware-long
p840
VMIPS Malta boards (64-bit)
p841
ss(Vbase
p842
Vs390
p843
tp844
(dp845
Vfeaturesets
p846
(lp847
sVkernel-arch
p848
Vs390
p849
ss(Vimage
p850
g484
NVloongson-3
p851
tp852
(dp853
Vconfigs
p854
(lp855
Vkernelarch-mips/config.loongson-3
p856
ass(Vbase
p857
g265
g401
tp858
(dp859
Vflavours
p860
(lp861
Vamd64
p862
ass(Vbase
p863
g332
Vnone
p864
tp865
(dp866
Vflavours
p867
(lp868
Varm64
p869
ass(Vimage
p870
g58
NVmarvell
p871
tp872
(dp873
Vcheck-size-with-dtb
p874
I01
sVrecommends
p875
Vu-boot-tools
p876
sVcheck-size
p877
L2097080L
sVbreaks
p878
Vflash-kernel (<< 3.57~)
p879
ss(Vbase
p880
g79
g80
tp881
(dp882
Vflavours
p883
(lp884
V686
p885
aV686-pae
p886
ass(Vimage
p887
g108
NV4kc-malta
p888
tp889
(dp890
Vconfigs
p891
(lp892
Vkernelarch-mips/config.malta
p893
aVkernelarch-mips/config.mips32r2
p894
ass(g4
g34
g6
tp895
(dp896
g9
I01
sg10
(lp897
Vm68k
p898
ass(Vimage
p899
g332
NVarm64
p900
tp901
(dp902
s(Vbase
p903
g484
tp904
(dp905
g44
(lp906
g6
asVkernel-arch
p907
Vmips
p908
ss(Vdescription
p909
g258
NVsh7785lcr
p910
tp911
(dp912
Vhardware
p913
Vsh7785lcr
p914
sVhardware-long
p915
VRenesas SH7785 reference board
p916
ss(Vbase
p917
g17
tp918
(dp919
g44
(lp920
g6
asVkernel-arch
p921
Vparisc
p922
ss(Vimage
p923
g5
NV5kc-malta
p924
tp925
(dp926
Vconfigs
p927
(lp928
Vkernelarch-mips/config.malta
p929
aVkernelarch-mips/config.mips64r2
p930
ass(g4
g17
g6
tp931
(dp932
g9
I01
sg10
(lp933
Vparisc
p934
aVparisc64-smp
p935
ass(Vbase
p936
g332
tp937
(dp938
Vfeaturesets
p939
(lp940
Vnone
p941
asVkernel-arch
p942
Varm64
p943
ss(Vbuild
p944
tp945
(dp946
Vsigned-modules
p947
I01
sVdebug-info
p948
I01
ss(Vbase
p949
g49
tp950
(dp951
g44
(lp952
g6
asVkernel-arch
p953
Vpowerpc
p954
ss(g4
g123
g6
tp955
(dp956
g9
I01
sg10
(lp957
Vsparc64
p958
aVsparc64-smp
p959
ass(Vbuild
p960
g171
tp961
(dp962
Vsigned-modules
p963
I00
sVvdso
p964
I01
sVimage-file
p965
Vvmlinux
p966
ss(Vimage
p967
g99
tp968
(dp969
Vinstall-stem
p970
Vvmlinux
p971
ss(Vbuild
p972
g332
tp973
(dp974
Vvdso
p975
I01
sVsigned-modules
p976
I00
sVdebug-info
p977
I01
sVimage-file
p978
Varch/arm64/boot/Image
p979
ss(Vdescription
p980
g49
NVpowerpc-smp
p981
tp982
(dp983
Vhardware
p984
Vmultiprocessor 32-bit PowerPC
p985
ss(Vdescription
p986
g484
NVocteon
p987
tp988
(dp989
Vhardware
p990
VOcteon
p991
sVhardware-long
p992
VCavium Networks Octeon
p993
ss(Vimage
p994
g484
NV5kc-malta
p995
tp996
(dp997
Vconfigs
p998
(lp999
Vkernelarch-mips/config.malta
p1000
aVkernelarch-mips/config.mips64r2
p1001
ass(Vimage
p1002
tp1003
(dp1004
Vinitramfs-generators
p1005
(lp1006
Vinitramfs-tools
p1007
aVinitramfs-fallback
p1008
ass(Vabi
p1009
tp1010
(dp1011
Vabiname
p1012
Vparrot
p1013
ss(g4
g171
g6
tp1014
(dp1015
g9
I01
sg10
(lp1016
Vpowerpc64
p1017
ass(Vdescription
p1018
g265
g401
Vamd64
p1019
tp1020
(dp1021
Vparts
p1022
(lp1023
Vxen
p1024
ass(Vdescription
p1025
g471
tp1026
(dp1027
Vhardware
p1028
V32-bit PowerPC with SPE (instead of AltiVec) with SMP support
p1029
ss(Vdescription
p1030
g41
NVpowerpc64le
p1031
tp1032
(dp1033
Vhardware
p1034
VLittle-endian 64-bit PowerPC
p1035
ss(Vbuild
p1036
g337
tp1037
(dp1038
Vvdso
p1039
I01
sVimage-file
p1040
Varch/s390/boot/image
p1041
ss(Vimage
p1042
g5
NV4kc-malta
p1043
tp1044
(dp1045
Vconfigs
p1046
(lp1047
Vkernelarch-mips/config.malta
p1048
aVkernelarch-mips/config.mips32r2
p1049
ass(Vbase
p1050
g92
tp1051
(dp1052
g44
(lp1053
g6
asVkernel-arch
p1054
Valpha
p1055
ss(Vdescription
p1056
g117
NVarmmp
p1057
tp1058
(dp1059
Vhardware
p1060
VARMv7 multiplatform compatible SoCs
p1061
sVhardware-long
p1062
VARMv7 multiplatform kernel. See\u000ahttps://wiki.debian.org/DebianKernel/ARMMP for details of supported\u000aplatforms
p1063
ss(Vbase
p1064
Vx32
p1065
tp1066
(dp1067
Vfeaturesets
p1068
(lp1069
sVkernel-arch
p1070
Vx86
p1071
ss(Vimage
p1072
g123
tp1073
(dp1074
Vinstall-stem
p1075
Vvmlinuz
p1076
sVconfigs
p1077
(lp1078
sVsuggests
p1079
Vsilo, fdutils
p1080
ss(Vdescription
p1081
g79
NV686-pae
p1082
tp1083
(dp1084
Vhardware
p1085
Vmodern PCs
p1086
sVhardware-long
p1087
VPCs with one or more processors supporting PAE
p1088
sVparts
p1089
(lp1090
Vpae
p1091
ass(Vimage
p1092
g258
NVsh7785lcr
p1093
tp1094
(dp1095
Vrecommends
p1096
Vu-boot-tools
p1097
sVcheck-size
p1098
L4194304L
ss(Vdescription
p1099
g5
NV5kc-malta
p1100
tp1101
(dp1102
Vhardware
p1103
VMIPS Malta (64-bit)
p1104
sVhardware-long
p1105
VMIPS Malta boards (64-bit)
p1106
ss(Vbase
p1107
g99
tp1108
(dp1109
g44
(lp1110
g6
asVkernel-arch
p1111
Vmips
p1112
ss(Vbase
p1113
Vmipsn32
p1114
tp1115
(dp1116
Vfeaturesets
p1117
(lp1118
sVkernel-arch
p1119
Vmips
p1120
ss(Vimage
p1121
g123
NVsparc64-smp
p1122
tp1123
(dp1124
Vconfigs
p1125
(lp1126
Vkernelarch-sparc/config-smp
p1127
ass(Vbuild
p1128
g58
tp1129
(dp1130
Vsigned-modules
p1131
I00
sVimage-file
p1132
Varch/arm/boot/zImage
p1133
ss(Vimage
p1134
g41
NVpowerpc64le
p1135
tp1136
(dp1137
Vconfigs
p1138
(lp1139
Vkernelarch-powerpc/config-arch-64
p1140
aVkernelarch-powerpc/config-arch-64-le
p1141
ass(Vdescription
p1142
g117
NVarmmp-lpae
p1143
tp1144
(dp1145
Vhardware
p1146
VARMv7 multiplatform compatible SoCs supporting LPAE
p1147
sVhardware-long
p1148
VARMv7 multiplatform kernel supporting LPAE. See\u000ahttps://wiki.debian.org/DebianKernel/ARMMP for details of supported\u000aplatforms.
p1149
ss(Vimage
p1150
g49
tp1151
(dp1152
Vinstall-stem
p1153
Vvmlinux
p1154
sVconfigs
p1155
(lp1156
sVsuggests
p1157
Vmkvmlinuz
p1158
ss(Vbuild
p1159
g484
tp1160
(dp1161
Vsigned-modules
p1162
I00
sVimage-file
p1163
Vvmlinux
p1164
ss(Vdescription
p1165
g484
NV5kc-malta
p1166
tp1167
(dp1168
Vhardware
p1169
VMIPS Malta
p1170
sVhardware-long
p1171
VMIPS Malta boards
p1172
ss(Vrelations
p1173
g17
tp1174
(dp1175
Vgcc-5
p1176
Vgcc-5 <!stage1 !cross>, binutils-hppa64-linux-gnu <!stage1 !cross>, gcc-5-hppa64-linux-gnu <!stage1 !cross>, gcc-5-hppa-linux-gnu:native <!stage1 cross>, binutils-hppa64-linux-gnu:native <!stage1 cross>, gcc-5-hppa64-linux-gnu:native <!stage1 cross>
p1177
ss(Vrelations
p1178
g337
tp1179
(dp1180
Vheaders%gcc-5
p1181
Vlinux-compiler-gcc-5-s390
p1182
sstp1183
Rp1184
.