cdebian_linux.config
ConfigCore
p0
(tRp1
(Vabi
p2
tp3
(dp4
Vabiname
p5
V3parrot1
p6
sVignore-changes
p7
(lp8
V__cpuhp_*
p9
aVbpf_analyzer
p10
aVcxl_*
p11
aVdax_flush
p12
aVieee80211_nullfunc_get
p13
aVinet_add_protocol
p14
aVinet_del_protocol
p15
aViommu_device_*
p16
aVmm_iommu_*
p17
aVmv_mbus_*
p18
aVperf_*
p19
aVregister_cxl_calls
p20
aVregister_key_type
p21
aVunregister_cxl_calls
p22
aV*_hw_breakpoint
p23
aVmodule:drivers/crypto/ccp/*
p24
aVmodule:drivers/hv/*
p25
aVmodule:drivers/gpu/drm/sun4i/*
p26
aVmodule:drivers/iio/**
p27
aVmodule:drivers/misc/cxl/*
p28
aVmodule:drivers/mtd/nand/*
p29
aVmodule:drivers/net/ethernet/**
p30
aVmodule:drivers/net/wireless/**
p31
aVmodule:drivers/nvdimm/*
p32
aVmodule:drivers/nvme/**
p33
aVmodule:drivers/power/supply/bq27xxx_battery
p34
aVmodule:drivers/scsi/cxgbi/*
p35
aVmodule:drivers/scsi/libiscs*
p36
aVmodule:drivers/scsi/qla2xxx/qla2xxx
p37
aVmodule:drivers/scsi/ufs/*
p38
aVmodule:drivers/target/**
p39
aVmodule:drivers/usb/chipidea/**
p40
aVmodule:drivers/usb/gadget/**
p41
aVmodule:drivers/usb/host/**
p42
aVmodule:drivers/usb/musb/**
p43
aVmodule:fs/nfs/**
p44
aVmodule:net/ceph/libceph
p45
aVmodule:net/l2tp/**
p46
aVmodule:net/rxrpc/rxrpc
p47
aVmodule:net/sctp/**
p48
aVmodule:sound/core/seq/**
p49
aVmodule:sound/firewire/snd-firewire-lib
p50
aVmodule:sound/pci/hda/*
p51
aVbtree_*
p52
aVvisitor*
p53
aVcan_rx_register
p54
aVip6_xmit
p55
aVmodule:net/dccp/dccp
p56
aVmodule:net/rds/rds
p57
aVdevfreq_*
p58
aVdevm_devfreq_*
p59
aVupdate_devfreq
p60
aVmodule:drivers/infiniband/**
p61
aVacpi_ec_add_query_handler
p62
aVacpi_ec_remove_query_handler
p63
aVfirst_ec
p64
aVdebugfs_create_automount
p65
aVmodule:drivers/iio/imu/inv_mpu6050/*
p66
aVdrm_crtc_accurate_vblank_count
p67
aVacpi_nfit_desc_init
p68
aVacpi_nfit_init
p69
aVloop_register_transfer
p70
aVxen_xlate_*
p71
aVnf_nat_masquerade_ipv4_register_notifier
p72
aVnf_nat_masquerade_ipv6_register_notifier
p73
aVmodule:drivers/scsi/hisi_sas/*
p74
aV__gfn_*
p75
aV__kvmhv_*
p76
aV__kvm_*
p77
aV__xive_vm_h_*
p78
aVgfn_*
p79
aVh_ipi_redirect
p80
aVhalt_poll_ns*
p81
aVkvm_*
p82
aVkvmhv_*
p83
aVkvmppc_*
p84
aVmark_page_dirty
p85
aVvcpu_*
p86
aVmodule:arch/powerpc/kvm/*
p87
aVmodule:arch/s390/kvm/*
p88
aVmodule:arch/x86/kvm/*
p89
ass(Vbase
p90
tp91
(dp92
Varches
p93
(lp94
Valpha
p95
aVamd64
p96
aVarm64
p97
aVarm64ilp32
p98
aVarmel
p99
aVarmhf
p100
aVhppa
p101
aVi386
p102
aVia64
p103
aVm68k
p104
aVmips
p105
aVmips64
p106
aVmips64el
p107
aVmips64r6
p108
aVmips64r6el
p109
aVmipsel
p110
aVmipsn32
p111
aVmipsn32el
p112
aVmipsn32r6
p113
aVmipsn32r6el
p114
aVmipsr6
p115
aVmipsr6el
p116
aVpowerpc
p117
aVppc64
p118
aVppc64el
p119
aVriscv64
p120
aVs390
p121
aVs390x
p122
aVsh3
p123
aVsh4
p124
aVsparc
p125
aVsparc64
p126
aVx32
p127
asVcompiler
p128
Vgcc-9
p129
sVfeaturesets
p130
(lp131
Vnone
p132
aVrt
p133
ass(Vbuild
p134
tp135
(dp136
Vdebug-info
p137
I01
sVsigned-code
p138
I00
ss(Vbase
p139
NVrt
p140
tp141
(dp142
Venabled
p143
I01
ss(Vdescription
p144
tp145
(dp146
Vpart-long-up
p147
VThis kernel is not suitable for SMP (multi-processor,\u000amulti-core or hyper-threaded) systems.
p148
ss(Vimage
p149
tp150
(dp151
Vinitramfs-generators
p152
(lp153
Vinitramfs-tools
p154
aVinitramfs-fallback
p155
asVrecommends
p156
(lp157
Vapparmor
p158
ass(Vrelations
p159
tp160
(dp161
Vgcc-9
p162
Vgcc-9 <!stage1 !cross !pkg.linux.nokernel>, gcc-9-@gnu-type-package@ <!stage1 cross !pkg.linux.nokernel>
p163
sVinitramfs-fallback
p164
Vlinux-initramfs-tool
p165
sVinitramfs-tools
p166
Vinitramfs-tools (>= 0.120+deb8u2)
p167
ss(Vbase
p168
Valpha
p169
tp170
(dp171
Vkernel-arch
p172
Valpha
p173
sVfeaturesets
p174
(lp175
Vnone
p176
ass(Vbuild
p177
g169
tp178
(dp179
Vimage-file
p180
Varch/alpha/boot/vmlinux.gz
p181
ss(Vimage
p182
g169
tp183
(dp184
Vsuggests
p185
(lp186
Vaboot
p187
aVfdutils
p188
asVinstall-stem
p189
Vvmlinuz
p190
ss(Vdescription
p191
g169
NValpha-generic
p192
tp193
(dp194
Vhardware
p195
VAlpha
p196
sVhardware-long
p197
VDEC Alpha systems with extended kernel start address (Wildfire, Titan, Marvel)
p198
ss(Vdescription
p199
g169
NValpha-smp
p200
tp201
(dp202
Vhardware
p203
VAlpha SMP
p204
sVhardware-long
p205
VDEC Alpha SMP systems with extended kernel start address (Wildfire, Titan, Marvel)
p206
ss(Vbase
p207
g169
g176
tp208
(dp209
Vflavours
p210
(lp211
Valpha-generic
p212
aValpha-smp
p213
asVimplicit-flavour
p214
I01
ss(Vbase
p215
Vamd64
p216
tp217
(dp218
Vfeaturesets
p219
(lp220
Vnone
p221
aVrt
p222
asVkernel-arch
p223
Vx86
p224
ss(Vbuild
p225
g216
tp226
(dp227
Vdebug-info
p228
I01
sVimage-file
p229
Varch/x86/boot/bzImage
p230
sVsigned-code
p231
I00
sVvdso
p232
I01
ss(Vimage
p233
g216
tp234
(dp235
Vbootloaders
p236
(lp237
Vgrub-pc
p238
aVgrub-efi-amd64
p239
aVextlinux
p240
asVinstall-stem
p241
Vvmlinuz
p242
sVbreaks
p243
(lp244
Vxserver-xorg-input-vmmouse (<< 1:13.0.99)
p245
ass(Vrelations
p246
g216
tp247
(dp248
Vheaders%gcc-9
p249
Vlinux-compiler-gcc-9-x86
p250
ss(Vdescription
p251
g216
NVamd64
p252
tp253
(dp254
Vhardware
p255
V64-bit PCs
p256
sVhardware-long
p257
VPCs with AMD64, Intel 64 or VIA Nano processors
p258
ss(Vdescription
p259
g216
NVcloud-amd64
p260
tp261
(dp262
Vhardware
p263
Vx86-64 cloud
p264
sVhardware-long
p265
VAmazon EC2, Google Compute Engine and Microsoft Azure cloud platforms
p266
ss(Vbase
p267
g216
Vnone
p268
tp269
(dp270
Vflavours
p271
(lp272
Vamd64
p273
aVcloud-amd64
p274
ass(Vbase
p275
g216
Vrt
p276
tp277
(dp278
Vflavours
p279
(lp280
Vamd64
p281
ass(Vbase
p282
Varm64
p283
tp284
(dp285
Vcross-compile-compat
p286
Varm-linux-gnueabihf-
p287
sVkernel-arch
p288
Varm64
p289
sVfeaturesets
p290
(lp291
Vnone
p292
aVrt
p293
ass(Vbuild
p294
g283
tp295
(dp296
Vdebug-info
p297
I01
sVimage-file
p298
Varch/arm64/boot/Image
p299
sVsigned-code
p300
I00
sVvdso
p301
I01
ss(Vimage
p302
g283
tp303
(dp304
Vinstall-stem
p305
Vvmlinuz
p306
sVbreaks
p307
(lp308
Vlibmozjs185-1.0
p309
aVlibmozjs-24-0 (<< 24.2.0-5.1~)
p310
ass(Vdescription
p311
g283
NVarm64
p312
tp313
(dp314
Vhardware
p315
V64-bit ARMv8 machines
p316
ss(Vimage
p317
g283
NVarm64
p318
tp319
(dp320
s(Vrelations
p321
g283
tp322
(dp323
Vgcc-9
p324
Vgcc-9 <!stage1 !cross !pkg.linux.nokernel>, gcc-9-aarch64-linux-gnu <!stage1 cross !pkg.linux.nokernel>, gcc-arm-linux-gnueabihf <!stage1 !pkg.linux.nokernel>
p325
sVheaders%gcc-9
p326
Vgcc-9
p327
ss(Vbase
p328
g283
Vnone
p329
tp330
(dp331
Vflavours
p332
(lp333
Varm64
p334
ass(Vbase
p335
g283
Vrt
p336
tp337
(dp338
Vflavours
p339
(lp340
Varm64
p341
ass(Vbase
p342
Varm64ilp32
p343
tp344
(dp345
Vkernel-arch
p346
Varm64
p347
sVfeaturesets
p348
(lp349
ss(Vbase
p350
Varmel
p351
tp352
(dp353
Vkernel-arch
p354
Varm
p355
sg174
(lp356
g176
ass(Vbuild
p357
g351
tp358
(dp359
Vimage-file
p360
Varch/arm/boot/zImage
p361
sVuncompressed-image-file
p362
Varch/arm/boot/Image
p363
ss(Vimage
p364
g351
tp365
(dp366
Vinstall-stem
p367
Vvmlinuz
p368
ss(Vrelations
p369
g351
tp370
(dp371
Vheaders%gcc-9
p372
Vlinux-compiler-gcc-9-arm
p373
ss(Vdescription
p374
g351
NVmarvell
p375
tp376
(dp377
Vhardware
p378
VMarvell Kirkwood/Orion
p379
sVhardware-long
p380
VMarvell Kirkwood and Orion based systems (https://wiki.debian.org/ArmEabiPort#Supported_hardware)
p381
ss(Vdescription
p382
g351
NVrpi
p383
tp384
(dp385
Vhardware
p386
VRaspberry Pi and Pi Zero
p387
sVhardware-long
p388
VRaspberry Pi, Raspberry Pi Zero based systems
p389
ss(Vimage
p390
g351
NVmarvell
p391
tp392
(dp393
Vrecommends
p394
(lp395
Vu-boot-tools
p396
asVcheck-size
p397
I2729712
sVcheck-size-with-dtb
p398
I01
sVcheck-uncompressed-size
p399
I7340032
sVbreaks
p400
(lp401
Vflash-kernel (<< 3.57~)
p402
ass(g207
g351
g176
tp403
(dp404
g210
(lp405
Vmarvell
p406
aVrpi
p407
asg214
I01
ss(Vbase
p408
Varmhf
p409
tp410
(dp411
Vfeaturesets
p412
(lp413
Vnone
p414
aVrt
p415
asVkernel-arch
p416
Varm
p417
ss(Vbuild
p418
g409
tp419
(dp420
Vimage-file
p421
Varch/arm/boot/zImage
p422
sVvdso
p423
I01
ss(Vimage
p424
g409
tp425
(dp426
Vinstall-stem
p427
Vvmlinuz
p428
ss(Vrelations
p429
g409
tp430
(dp431
Vheaders%gcc-9
p432
Vlinux-compiler-gcc-9-arm
p433
ss(Vdescription
p434
g409
NVarmmp
p435
tp436
(dp437
Vhardware
p438
VARMv7 multiplatform compatible SoCs
p439
sVhardware-long
p440
VARMv7 multiplatform kernel. See\u000ahttps://wiki.debian.org/DebianKernel/ARMMP for details of supported\u000aplatforms
p441
ss(Vdescription
p442
g409
NVarmmp-lpae
p443
tp444
(dp445
Vhardware
p446
VARMv7 multiplatform compatible SoCs supporting LPAE
p447
sVhardware-long
p448
VARMv7 multiplatform kernel supporting LPAE. See\u000ahttps://wiki.debian.org/DebianKernel/ARMMP for details of supported\u000aplatforms.
p449
ss(Vbase
p450
g409
Vnone
p451
tp452
(dp453
Vflavours
p454
(lp455
Varmmp
p456
aVarmmp-lpae
p457
ass(Vbase
p458
g409
Vrt
p459
tp460
(dp461
Vflavours
p462
(lp463
Varmmp
p464
ass(Vbase
p465
Vhppa
p466
tp467
(dp468
Vkernel-arch
p469
Vparisc
p470
sg174
(lp471
g176
ass(Vbuild
p472
g466
tp473
(dp474
Vimage-file
p475
Varch/parisc/boot/bzImage
p476
sVdebug-info
p477
I00
ss(Vimage
p478
g466
tp479
(dp480
Vsuggests
p481
(lp482
Vpalo
p483
asVinstall-stem
p484
Vvmlinuz
p485
ss(Vdescription
p486
g466
NVparisc
p487
tp488
(dp489
Vhardware
p490
V32-bit PA-RISC
p491
sVhardware-long
p492
VHP PA-RISC 32-bit systems with max 4 GB RAM
p493
ss(Vbase
p494
g466
NVparisc64
p495
tp496
(dp497
Vcflags
p498
V-fno-cse-follow-jumps
p499
sVoverride-host-type
p500
Vhppa64-linux-gnu
p501
ss(Vdescription
p502
g466
NVparisc64
p503
tp504
(dp505
Vhardware
p506
V64-bit PA-RISC
p507
sVhardware-long
p508
VHP PA-RISC 64-bit systems with support for more than 4 GB RAM
p509
ss(Vrelations
p510
g466
tp511
(dp512
Vgcc-9
p513
Vgcc-9 <!stage1 !cross !pkg.linux.nokernel>, gcc-9-hppa-linux-gnu <!stage1 cross !pkg.linux.nokernel>, binutils-hppa64-linux-gnu <!stage1 !pkg.linux.nokernel>, gcc-9-hppa64-linux-gnu <!stage1 !pkg.linux.nokernel>
p514
ss(g207
g466
g176
tp515
(dp516
g210
(lp517
Vparisc
p518
aVparisc64
p519
asg214
I01
ss(Vbase
p520
Vi386
p521
tp522
(dp523
Vfeaturesets
p524
(lp525
Vnone
p526
aVrt
p527
asVkernel-arch
p528
Vx86
p529
ss(Vbuild
p530
g521
tp531
(dp532
Vimage-file
p533
Varch/x86/boot/bzImage
p534
sVsigned-code
p535
I00
sVvdso
p536
I01
ss(Vdescription
p537
g521
tp538
(dp539
Vpart-long-pae
p540
VThis kernel requires PAE (Physical Address Extension).\u000aThis feature is supported by the Intel Pentium Pro/II/III/4/4M/D, Xeon,\u000aCore and Atom; AMD Geode NX, Athlon (K7), Duron, Opteron, Sempron,\u000aTurion or Phenom; Transmeta Efficeon; VIA C7; and some other processors.
p541
ss(Vimage
p542
g521
tp543
(dp544
Vbootloaders
p545
(lp546
Vgrub-pc
p547
aVgrub-efi-ia32
p548
aVextlinux
p549
asVinstall-stem
p550
Vvmlinuz
p551
sVbreaks
p552
(lp553
Vxserver-xorg-input-vmmouse (<< 1:13.0.99)
p554
ass(Vrelations
p555
g521
tp556
(dp557
Vheaders%gcc-9
p558
Vlinux-compiler-gcc-9-x86
p559
ss(Vdescription
p560
g521
NV686
p561
tp562
(dp563
Vhardware
p564
Volder PCs
p565
sVhardware-long
p566
VPCs with one or more processors not supporting PAE
p567
ss(Vbuild
p568
g521
NV686-pae
p569
tp570
(dp571
Vdebug-info
p572
I01
ss(Vdescription
p573
g521
NV686-pae
p574
tp575
(dp576
Vhardware
p577
Vmodern PCs
p578
sVhardware-long
p579
VPCs with one or more processors supporting PAE
p580
sVparts
p581
(lp582
Vpae
p583
ass(Vbase
p584
g521
Vnone
p585
tp586
(dp587
Vflavours
p588
(lp589
V686
p590
aV686-pae
p591
ass(Vbase
p592
g521
Vrt
p593
tp594
(dp595
Vflavours
p596
(lp597
V686-pae
p598
ass(Vbase
p599
Via64
p600
tp601
(dp602
Vkernel-arch
p603
Via64
p604
sg174
(lp605
g176
ass(Vbuild
p606
g600
tp607
(dp608
Vimage-file
p609
Vvmlinux.gz
p610
ss(Vimage
p611
g600
tp612
(dp613
Vbootloaders
p614
(lp615
Vgrub-efi-ia64
p616
asVinstall-stem
p617
Vvmlinuz
p618
ss(Vdescription
p619
g600
NVitanium
p620
tp621
(dp622
Vhardware
p623
VItanium (Merced)
p624
sVhardware-long
p625
Vsystems with original Itanium (Merced) processors
p626
ss(Vdescription
p627
g600
NVmckinley
p628
tp629
(dp630
Vhardware
p631
VItanium 2+
p632
sVhardware-long
p633
Vsystems with Itanium 2 or 9300/9500/9700-series processors
p634
ss(g207
g600
g176
tp635
(dp636
g210
(lp637
Vitanium
p638
aVmckinley
p639
asg214
I01
ss(Vbase
p640
Vm68k
p641
tp642
(dp643
Vcflags
p644
V-ffreestanding
p645
sVkernel-arch
p646
Vm68k
p647
sg174
(lp648
g176
ass(Vbuild
p649
g641
tp650
(dp651
Vimage-file
p652
Vvmlinux
p653
ss(Vimage
p654
g641
tp655
(dp656
Vsuggests
p657
(lp658
Vvmelilo
p659
aVfdutils
p660
asVinstall-stem
p661
Vvmlinux
p662
ss(Vdescription
p663
g641
NVm68k
p664
tp665
(dp666
Vhardware
p667
VMotorola MC68020+ family
p668
ss(g207
g641
g176
tp669
(dp670
g210
(lp671
Vm68k
p672
asg214
I01
ss(Vbase
p673
Vmips
p674
tp675
(dp676
Vkernel-arch
p677
Vmips
p678
sg174
(lp679
g176
ass(Vbuild
p680
g674
tp681
(dp682
Vimage-file
p683
Vvmlinuz
p684
ss(Vimage
p685
g674
tp686
(dp687
Vinstall-stem
p688
Vvmlinuz
p689
ss(Vdescription
p690
g674
NV4kc-malta
p691
tp692
(dp693
Vhardware
p694
VMIPS Malta
p695
sVhardware-long
p696
VMIPS Malta boards
p697
ss(Vimage
p698
g674
NV4kc-malta
p699
tp700
(dp701
Vconfigs
p702
(lp703
Vkernelarch-mips/config.malta
p704
aVkernelarch-mips/config.mips32r2
p705
ass(Vdescription
p706
g674
NV5kc-malta
p707
tp708
(dp709
Vhardware
p710
VMIPS Malta (64-bit)
p711
sVhardware-long
p712
VMIPS Malta boards (64-bit)
p713
ss(Vimage
p714
g674
NV5kc-malta
p715
tp716
(dp717
Vconfigs
p718
(lp719
Vkernelarch-mips/config.malta
p720
aVkernelarch-mips/config.mips64r2
p721
ass(Vdescription
p722
g674
NVocteon
p723
tp724
(dp725
Vhardware
p726
VOcteon
p727
sVhardware-long
p728
VCavium Networks Octeon
p729
ss(Vbuild
p730
g674
NVocteon
p731
tp732
(dp733
Vimage-file
p734
Vvmlinux
p735
ss(Vimage
p736
g674
NVocteon
p737
tp738
(dp739
Vinstall-stem
p740
Vvmlinux
p741
sVconfigs
p742
(lp743
Vkernelarch-mips/config.octeon
p744
ass(g207
g674
g176
tp745
(dp746
g210
(lp747
V4kc-malta
p748
aV5kc-malta
p749
aVocteon
p750
asg214
I01
ss(Vbase
p751
Vmips64
p752
tp753
(dp754
Vkernel-arch
p755
Vmips
p756
sg174
(lp757
g176
ass(Vbuild
p758
g752
tp759
(dp760
Vimage-file
p761
Vvmlinuz
p762
ss(Vimage
p763
g752
tp764
(dp765
Vinstall-stem
p766
Vvmlinuz
p767
ss(Vdescription
p768
g752
NV5kc-malta
p769
tp770
(dp771
Vhardware
p772
VMIPS Malta
p773
sVhardware-long
p774
VMIPS Malta boards
p775
ss(Vimage
p776
g752
NV5kc-malta
p777
tp778
(dp779
Vconfigs
p780
(lp781
Vkernelarch-mips/config.malta
p782
aVkernelarch-mips/config.mips64r2
p783
ass(Vdescription
p784
g752
NVocteon
p785
tp786
(dp787
Vhardware
p788
VOcteon
p789
sVhardware-long
p790
VCavium Networks Octeon
p791
ss(Vbuild
p792
g752
NVocteon
p793
tp794
(dp795
Vimage-file
p796
Vvmlinux
p797
ss(Vimage
p798
g752
NVocteon
p799
tp800
(dp801
Vinstall-stem
p802
Vvmlinux
p803
sVconfigs
p804
(lp805
Vkernelarch-mips/config.octeon
p806
ass(g207
g752
g176
tp807
(dp808
g210
(lp809
V5kc-malta
p810
aVocteon
p811
asg214
I01
ss(Vbase
p812
Vmips64el
p813
tp814
(dp815
Vkernel-arch
p816
Vmips
p817
sg174
(lp818
g176
ass(Vbuild
p819
g813
tp820
(dp821
Vimage-file
p822
Vvmlinuz
p823
ss(Vimage
p824
g813
tp825
(dp826
Vinstall-stem
p827
Vvmlinuz
p828
ss(Vdescription
p829
g813
NV5kc-malta
p830
tp831
(dp832
Vhardware
p833
VMIPS Malta
p834
sVhardware-long
p835
VMIPS Malta boards
p836
ss(Vimage
p837
g813
NV5kc-malta
p838
tp839
(dp840
Vconfigs
p841
(lp842
Vkernelarch-mips/config.malta
p843
aVkernelarch-mips/config.mips64r2
p844
ass(Vdescription
p845
g813
NVloongson-3
p846
tp847
(dp848
Vhardware
p849
VLoongson 3A/3B
p850
sVhardware-long
p851
VLoongson 3A or 3B based systems (e.g. from Loongson or Lemote)
p852
ss(Vimage
p853
g813
NVloongson-3
p854
tp855
(dp856
Vconfigs
p857
(lp858
Vkernelarch-mips/config.loongson-3
p859
ass(Vdescription
p860
g813
NVocteon
p861
tp862
(dp863
Vhardware
p864
VOcteon
p865
sVhardware-long
p866
VCavium Networks Octeon
p867
ss(Vbuild
p868
g813
NVocteon
p869
tp870
(dp871
Vimage-file
p872
Vvmlinux
p873
ss(Vimage
p874
g813
NVocteon
p875
tp876
(dp877
Vinstall-stem
p878
Vvmlinux
p879
sVconfigs
p880
(lp881
Vkernelarch-mips/config.octeon
p882
ass(g207
g813
g176
tp883
(dp884
g210
(lp885
V5kc-malta
p886
aVloongson-3
p887
aVocteon
p888
asg214
I01
ss(Vbase
p889
Vmips64r6
p890
tp891
(dp892
Vkernel-arch
p893
Vmips
p894
sg174
(lp895
g176
ass(Vbuild
p896
g890
tp897
(dp898
Vimage-file
p899
Vvmlinux
p900
ss(Vimage
p901
g890
tp902
(dp903
Vinstall-stem
p904
Vvmlinux
p905
ss(Vdescription
p906
g890
NVmips64r6
p907
tp908
(dp909
Vhardware
p910
VMIPS R6 (64 bit, big endian)
p911
sVhardware-long
p912
VMIPS R6 (64 bit, big endian)
p913
ss(Vimage
p914
g890
NVmips64r6
p915
tp916
(dp917
Vconfigs
p918
(lp919
Vkernelarch-mips/config.boston
p920
aVkernelarch-mips/config.mips64r6
p921
ass(g207
g890
g176
tp922
(dp923
g210
(lp924
Vmips64r6
p925
asg214
I01
ss(Vbase
p926
Vmips64r6el
p927
tp928
(dp929
Vkernel-arch
p930
Vmips
p931
sg174
(lp932
g176
ass(Vbuild
p933
g927
tp934
(dp935
Vimage-file
p936
Vvmlinux
p937
ss(Vimage
p938
g927
tp939
(dp940
Vinstall-stem
p941
Vvmlinux
p942
ss(Vdescription
p943
g927
NVmips64r6el
p944
tp945
(dp946
Vhardware
p947
VMIPS R6 (64 bit, little endian)
p948
sVhardware-long
p949
VMIPS R6 (64 bit, little endian)
p950
ss(Vimage
p951
g927
NVmips64r6el
p952
tp953
(dp954
Vconfigs
p955
(lp956
Vkernelarch-mips/config.boston
p957
aVkernelarch-mips/config.mips64r6
p958
ass(g207
g927
g176
tp959
(dp960
g210
(lp961
Vmips64r6el
p962
asg214
I01
ss(Vbase
p963
Vmipsel
p964
tp965
(dp966
Vkernel-arch
p967
Vmips
p968
sg174
(lp969
g176
ass(Vbuild
p970
g964
tp971
(dp972
Vimage-file
p973
Vvmlinuz
p974
ss(Vimage
p975
g964
tp976
(dp977
Vinstall-stem
p978
Vvmlinuz
p979
ss(Vdescription
p980
g964
NV4kc-malta
p981
tp982
(dp983
Vhardware
p984
VMIPS Malta
p985
sVhardware-long
p986
VMIPS Malta boards
p987
ss(Vimage
p988
g964
NV4kc-malta
p989
tp990
(dp991
Vconfigs
p992
(lp993
Vkernelarch-mips/config.malta
p994
aVkernelarch-mips/config.mips32r2
p995
ass(Vdescription
p996
g964
NV5kc-malta
p997
tp998
(dp999
Vhardware
p1000
VMIPS Malta (64-bit)
p1001
sVhardware-long
p1002
VMIPS Malta boards (64-bit)
p1003
ss(Vimage
p1004
g964
NV5kc-malta
p1005
tp1006
(dp1007
Vconfigs
p1008
(lp1009
Vkernelarch-mips/config.malta
p1010
aVkernelarch-mips/config.mips64r2
p1011
ass(Vdescription
p1012
g964
NVloongson-3
p1013
tp1014
(dp1015
Vhardware
p1016
VLoongson 3A/3B
p1017
sVhardware-long
p1018
VLoongson 3A or 3B based systems (e.g. from Loongson or Lemote)
p1019
ss(Vimage
p1020
g964
NVloongson-3
p1021
tp1022
(dp1023
Vconfigs
p1024
(lp1025
Vkernelarch-mips/config.loongson-3
p1026
ass(Vdescription
p1027
g964
NVocteon
p1028
tp1029
(dp1030
Vhardware
p1031
VOcteon
p1032
sVhardware-long
p1033
VCavium Networks Octeon
p1034
ss(Vbuild
p1035
g964
NVocteon
p1036
tp1037
(dp1038
Vimage-file
p1039
Vvmlinux
p1040
ss(Vimage
p1041
g964
NVocteon
p1042
tp1043
(dp1044
Vinstall-stem
p1045
Vvmlinux
p1046
sVconfigs
p1047
(lp1048
Vkernelarch-mips/config.octeon
p1049
ass(g207
g964
g176
tp1050
(dp1051
g210
(lp1052
V4kc-malta
p1053
aV5kc-malta
p1054
aVloongson-3
p1055
aVocteon
p1056
asg214
I01
ss(Vbase
p1057
Vmipsn32
p1058
tp1059
(dp1060
Vkernel-arch
p1061
Vmips
p1062
sVfeaturesets
p1063
(lp1064
ss(Vbase
p1065
Vmipsn32el
p1066
tp1067
(dp1068
Vkernel-arch
p1069
Vmips
p1070
sVfeaturesets
p1071
(lp1072
ss(Vbase
p1073
Vmipsn32r6
p1074
tp1075
(dp1076
Vkernel-arch
p1077
Vmips
p1078
sVfeaturesets
p1079
(lp1080
ss(Vbase
p1081
Vmipsn32r6el
p1082
tp1083
(dp1084
Vkernel-arch
p1085
Vmips
p1086
sVfeaturesets
p1087
(lp1088
ss(Vbase
p1089
Vmipsr6
p1090
tp1091
(dp1092
Vkernel-arch
p1093
Vmips
p1094
sg174
(lp1095
g176
ass(Vbuild
p1096
g1090
tp1097
(dp1098
Vimage-file
p1099
Vvmlinux
p1100
ss(Vimage
p1101
g1090
tp1102
(dp1103
Vinstall-stem
p1104
Vvmlinux
p1105
ss(Vdescription
p1106
g1090
NVmips32r6
p1107
tp1108
(dp1109
Vhardware
p1110
VMIPS R6 (32 bit, big endian)
p1111
sVhardware-long
p1112
VMIPS R6 (32 bit, big endian)
p1113
ss(Vimage
p1114
g1090
NVmips32r6
p1115
tp1116
(dp1117
Vconfigs
p1118
(lp1119
Vkernelarch-mips/config.boston
p1120
aVkernelarch-mips/config.mips32r6
p1121
ass(Vdescription
p1122
g1090
NVmips64r6
p1123
tp1124
(dp1125
Vhardware
p1126
VMIPS R6 (64 bit, big endian)
p1127
sVhardware-long
p1128
VMIPS R6 (64 bit, big endian)
p1129
ss(Vimage
p1130
g1090
NVmips64r6
p1131
tp1132
(dp1133
Vconfigs
p1134
(lp1135
Vkernelarch-mips/config.boston
p1136
aVkernelarch-mips/config.mips64r6
p1137
ass(g207
g1090
g176
tp1138
(dp1139
g210
(lp1140
Vmips32r6
p1141
aVmips64r6
p1142
asg214
I01
ss(Vbase
p1143
Vmipsr6el
p1144
tp1145
(dp1146
Vkernel-arch
p1147
Vmips
p1148
sg174
(lp1149
g176
ass(Vbuild
p1150
g1144
tp1151
(dp1152
Vimage-file
p1153
Vvmlinux
p1154
ss(Vimage
p1155
g1144
tp1156
(dp1157
Vinstall-stem
p1158
Vvmlinux
p1159
ss(Vdescription
p1160
g1144
NVmips32r6el
p1161
tp1162
(dp1163
Vhardware
p1164
VMIPS R6 (32 bit, little endian)
p1165
sVhardware-long
p1166
VMIPS R6 (32 bit, little endian)
p1167
ss(Vimage
p1168
g1144
NVmips32r6el
p1169
tp1170
(dp1171
Vconfigs
p1172
(lp1173
Vkernelarch-mips/config.boston
p1174
aVkernelarch-mips/config.mips32r6
p1175
ass(Vdescription
p1176
g1144
NVmips64r6el
p1177
tp1178
(dp1179
Vhardware
p1180
VMIPS R6 (64 bit, little endian)
p1181
sVhardware-long
p1182
VMIPS R6 (64 bit, little endian)
p1183
ss(Vimage
p1184
g1144
NVmips64r6el
p1185
tp1186
(dp1187
Vconfigs
p1188
(lp1189
Vkernelarch-mips/config.boston
p1190
aVkernelarch-mips/config.mips64r6
p1191
ass(g207
g1144
g176
tp1192
(dp1193
g210
(lp1194
Vmips32r6el
p1195
aVmips64r6el
p1196
asg214
I01
ss(Vbase
p1197
Vpowerpc
p1198
tp1199
(dp1200
Vkernel-arch
p1201
Vpowerpc
p1202
sg174
(lp1203
g176
ass(Vbuild
p1204
g1198
tp1205
(dp1206
Vimage-file
p1207
Vvmlinux
p1208
sVvdso
p1209
I01
ss(Vimage
p1210
g1198
tp1211
(dp1212
Vconfigs
p1213
(lp1214
sVbootloaders
p1215
(lp1216
Vgrub-ieee1275
p1217
asVsuggests
p1218
(lp1219
Vmkvmlinuz
p1220
asVinstall-stem
p1221
Vvmlinux
p1222
ss(Vdescription
p1223
g1198
NVpowerpc
p1224
tp1225
(dp1226
Vhardware
p1227
Vuniprocessor 32-bit PowerPC
p1228
ss(Vdescription
p1229
g1198
NVpowerpc-smp
p1230
tp1231
(dp1232
Vhardware
p1233
Vmultiprocessor 32-bit PowerPC
p1234
ss(Vimage
p1235
g1198
NVpowerpc-smp
p1236
tp1237
(dp1238
Vconfigs
p1239
(lp1240
Vpowerpc/config.powerpc
p1241
aVpowerpc/config.powerpc-smp
p1242
ass(Vdescription
p1243
g1198
NVpowerpc64
p1244
tp1245
(dp1246
Vhardware
p1247
V64-bit PowerPC
p1248
ss(Vimage
p1249
g1198
NVpowerpc64
p1250
tp1251
(dp1252
Vconfigs
p1253
(lp1254
Vkernelarch-powerpc/config-arch-64
p1255
aVkernelarch-powerpc/config-arch-64-be
p1256
ass(g207
g1198
g176
tp1257
(dp1258
g210
(lp1259
Vpowerpc
p1260
aVpowerpc-smp
p1261
aVpowerpc64
p1262
asg214
I01
ss(Vbase
p1263
Vppc64
p1264
tp1265
(dp1266
Vkernel-arch
p1267
Vpowerpc
p1268
sg174
(lp1269
g176
ass(Vbuild
p1270
g1264
tp1271
(dp1272
Vimage-file
p1273
Vvmlinux
p1274
sVvdso
p1275
I01
ss(Vimage
p1276
g1264
tp1277
(dp1278
Vconfigs
p1279
(lp1280
sVbootloaders
p1281
(lp1282
Vgrub-ieee1275
p1283
asVsuggests
p1284
(lp1285
Vmkvmlinuz
p1286
asVinstall-stem
p1287
Vvmlinux
p1288
ss(Vdescription
p1289
g1264
NVpowerpc64
p1290
tp1291
(dp1292
Vhardware
p1293
V64-bit PowerPC
p1294
ss(Vimage
p1295
g1264
NVpowerpc64
p1296
tp1297
(dp1298
Vconfigs
p1299
(lp1300
Vkernelarch-powerpc/config-arch-64
p1301
aVkernelarch-powerpc/config-arch-64-be
p1302
ass(g207
g1264
g176
tp1303
(dp1304
g210
(lp1305
Vpowerpc64
p1306
asg214
I01
ss(Vbase
p1307
Vppc64el
p1308
tp1309
(dp1310
Vkernel-arch
p1311
Vpowerpc
p1312
sg174
(lp1313
g176
ass(Vbuild
p1314
g1308
tp1315
(dp1316
Vimage-file
p1317
Vvmlinux
p1318
sVvdso
p1319
I01
ss(Vimage
p1320
g1308
tp1321
(dp1322
Vconfigs
p1323
(lp1324
sVbootloaders
p1325
(lp1326
Vgrub-ieee1275
p1327
asVsuggests
p1328
(lp1329
Vmkvmlinuz
p1330
asVinstall-stem
p1331
Vvmlinux
p1332
ss(Vdescription
p1333
g1308
NVpowerpc64le
p1334
tp1335
(dp1336
Vhardware
p1337
VLittle-endian 64-bit PowerPC
p1338
ss(Vimage
p1339
g1308
NVpowerpc64le
p1340
tp1341
(dp1342
Vconfigs
p1343
(lp1344
Vkernelarch-powerpc/config-arch-64
p1345
aVkernelarch-powerpc/config-arch-64-le
p1346
ass(g207
g1308
g176
tp1347
(dp1348
g210
(lp1349
Vpowerpc64le
p1350
asg214
I01
ss(Vbase
p1351
Vriscv64
p1352
tp1353
(dp1354
Vkernel-arch
p1355
Vriscv
p1356
sVfeaturesets
p1357
(lp1358
Vnone
p1359
ass(Vbuild
p1360
g1352
tp1361
(dp1362
Vimage-file
p1363
Varch/riscv/boot/Image
p1364
sVvdso
p1365
I01
ss(Vimage
p1366
g1352
tp1367
(dp1368
Vinstall-stem
p1369
Vvmlinux
p1370
ss(Vdescription
p1371
g1352
NVriscv64
p1372
tp1373
(dp1374
Vhardware
p1375
V64-bit RISC-V platforms
p1376
sVhardware-long
p1377
V64-bit RISC-V platforms
p1378
ss(Vbase
p1379
g1352
Vnone
p1380
tp1381
(dp1382
Vflavours
p1383
(lp1384
Vriscv64
p1385
ass(Vbase
p1386
Vs390
p1387
tp1388
(dp1389
Vkernel-arch
p1390
Vs390
p1391
sVfeaturesets
p1392
(lp1393
ss(Vbase
p1394
Vs390x
p1395
tp1396
(dp1397
Vkernel-arch
p1398
Vs390
p1399
sg174
(lp1400
g176
ass(Vbuild
p1401
g1395
tp1402
(dp1403
Vimage-file
p1404
Varch/s390/boot/bzImage
p1405
sVvdso
p1406
I01
ss(Vimage
p1407
g1395
tp1408
(dp1409
Vbootloaders
p1410
(lp1411
Vs390-tools
p1412
asVinstall-stem
p1413
Vvmlinuz
p1414
ss(Vrelations
p1415
g1395
tp1416
(dp1417
Vheaders%gcc-9
p1418
Vlinux-compiler-gcc-9-s390
p1419
ss(Vbuild
p1420
g1395
NVs390x
p1421
tp1422
(dp1423
Vdebug-info
p1424
I01
ss(Vdescription
p1425
g1395
NVs390x
p1426
tp1427
(dp1428
Vhardware
p1429
VIBM zSeries
p1430
ss(g207
g1395
g176
tp1431
(dp1432
g210
(lp1433
Vs390x
p1434
asg214
I01
ss(Vbase
p1435
Vsh3
p1436
tp1437
(dp1438
Vkernel-arch
p1439
Vsh
p1440
sVfeaturesets
p1441
(lp1442
ss(Vbase
p1443
Vsh4
p1444
tp1445
(dp1446
Vkernel-arch
p1447
Vsh
p1448
sg174
(lp1449
g176
ass(Vbuild
p1450
g1444
tp1451
(dp1452
Vimage-file
p1453
Varch/sh/boot/zImage
p1454
ss(Vimage
p1455
g1444
tp1456
(dp1457
Vinstall-stem
p1458
Vvmlinuz
p1459
ss(Vdescription
p1460
g1444
NVsh7751r
p1461
tp1462
(dp1463
Vhardware
p1464
Vsh7751r
p1465
sVhardware-long
p1466
VRenesas SH7751R R2D plus board
p1467
ss(Vdescription
p1468
g1444
NVsh7785lcr
p1469
tp1470
(dp1471
Vhardware
p1472
Vsh7785lcr
p1473
sVhardware-long
p1474
VRenesas SH7785 reference board
p1475
ss(Vimage
p1476
g1444
NVsh7785lcr
p1477
tp1478
(dp1479
Vrecommends
p1480
(lp1481
Vu-boot-tools
p1482
asVcheck-size
p1483
I4194304
ss(g207
g1444
g176
tp1484
(dp1485
g210
(lp1486
Vsh7751r
p1487
aVsh7785lcr
p1488
asg214
I01
ss(Vbase
p1489
Vsparc
p1490
tp1491
(dp1492
Vkernel-arch
p1493
Vsparc
p1494
sVfeaturesets
p1495
(lp1496
ss(Vbase
p1497
Vsparc64
p1498
tp1499
(dp1500
Vkernel-arch
p1501
Vsparc
p1502
sg174
(lp1503
g176
ass(Vbuild
p1504
g1498
tp1505
(dp1506
Vimage-file
p1507
Vvmlinux
p1508
ss(Vimage
p1509
g1498
tp1510
(dp1511
Vconfigs
p1512
(lp1513
sVbootloaders
p1514
(lp1515
Vgrub-ieee1275
p1516
asVsuggests
p1517
(lp1518
Vfdutils
p1519
asVinstall-stem
p1520
Vvmlinux
p1521
ss(Vdescription
p1522
g1498
NVsparc64
p1523
tp1524
(dp1525
Vhardware
p1526
Vuniprocessor 64-bit UltraSPARC
p1527
ss(Vimage
p1528
g1498
NVsparc64
p1529
tp1530
(dp1531
Vconfigs
p1532
(lp1533
Vkernelarch-sparc/config-up
p1534
ass(Vdescription
p1535
g1498
NVsparc64-smp
p1536
tp1537
(dp1538
Vhardware
p1539
Vmultiprocessor 64-bit UltraSPARC
p1540
ss(Vimage
p1541
g1498
NVsparc64-smp
p1542
tp1543
(dp1544
Vconfigs
p1545
(lp1546
Vkernelarch-sparc/config-smp
p1547
ass(g207
g1498
g176
tp1548
(dp1549
g210
(lp1550
Vsparc64
p1551
aVsparc64-smp
p1552
asg214
I01
ss(Vbase
p1553
Vx32
p1554
tp1555
(dp1556
Vkernel-arch
p1557
Vx86
p1558
sVfeaturesets
p1559
(lp1560
ss(Vabi
p1561
NVrt
p1562
tp1563
(dp1564
Vignore-changes
p1565
(lp1566
V*
p1567
ass(Vdescription
p1568
Ng1562
tp1569
(dp1570
Vpart-long-rt
p1571
VThis kernel includes the PREEMPT_RT realtime patch set.
p1572
sVpart-short-rt
p1573
VPREEMPT_RT
p1574
sVparts
p1575
(lp1576
Vrt
p1577
ass(Vversion
p1578
tp1579
(dp1580
Vsource
p1581
V5.4.13-3parrot2
p1582
sVupstream
p1583
V5.4
p1584
sVabiname_base
p1585
V5.4.0
p1586
sVabiname
p1587
V5.4.0-3parrot1
p1588
ss.