cdebian_linux.config
ConfigCore
p0
(tRp1
(Vbase
p2
tp3
(dp4
Varches
p5
(lp6
Valpha
p7
aVamd64
p8
aVarm64
p9
aVarmel
p10
aVarmhf
p11
aVhppa
p12
aVi386
p13
aVm68k
p14
aVmips
p15
aVmipsel
p16
aVmipsn32
p17
aVmipsn32el
p18
aVmips64
p19
aVmips64el
p20
aVpowerpc
p21
aVpowerpcspe
p22
aVppc64
p23
aVppc64el
p24
aVs390
p25
aVs390x
p26
aVsh3
p27
aVsh4
p28
aVsparc
p29
aVsparc64
p30
aVtilegx
p31
aVx32
p32
asVfeaturesets
p33
(lp34
Vnone
p35
aVrt
p36
asVcompiler
p37
Vgcc-6
p38
ss(Vbuild
p39
tp40
(dp41
Vsigned-modules
p42
I00
sVdebug-info
p43
I01
ss(Vbase
p44
NVrt
p45
tp46
(dp47
Venabled
p48
I00
ss(Vdescription
p49
tp50
(dp51
Vpart-long-up
p52
VThis kernel is not suitable for SMP (multi-processor,\u000amulti-core or hyper-threaded) systems.
p53
sVpart-long-xen
p54
VThis kernel also runs on a Xen hypervisor.\u000aIt supports both privileged (dom0) and unprivileged (domU) operation.
p55
ss(Vrelations
p56
tp57
(dp58
Vinitramfs-tools
p59
Vinitramfs-tools (>= 0.120+deb8u2)
p60
sVgcc-6
p61
Vgcc-6 <!stage1 !cross>, gcc-6-@gnu-type-package@ <!stage1 cross>
p62
sVinitramfs-fallback
p63
Vlinux-initramfs-tool
p64
ss(Vimage
p65
tp66
(dp67
Vinitramfs-generators
p68
(lp69
Vinitramfs-tools
p70
aVinitramfs-fallback
p71
ass(Vabi
p72
tp73
(dp74
Vabiname
p75
Vparrot6
p76
sVignore-changes
p77
(lp78
V__cpuhp_*
p79
aVbpf_analyzer
p80
aVcxl_*
p81
aVmm_iommu_*
p82
aVregister_cxl_calls
p83
aVunregister_cxl_calls
p84
aVmodule:arch/x86/kvm/*
p85
aVmodule:drivers/crypto/ccp/*
p86
aVmodule:drivers/hv/*
p87
aVmodule:drivers/iio/common/hid-sensors/*
p88
aVmodule:drivers/iio/common/st_sensors/**
p89
aVmodule:drivers/net/wireless/**
p90
aVmodule:drivers/nvdimm/*
p91
aVmodule:drivers/power/supply/bq27xxx_battery
p92
aVmodule:drivers/scsi/cxgbi/*
p93
aVmodule:drivers/scsi/libiscs*
p94
aVmodule:drivers/scsi/qla2xxx/qla2xxx
p95
aVmodule:drivers/scsi/ufs/*
p96
aVmodule:drivers/target/**
p97
aVmodule:drivers/usb/chipidea/**
p98
aVmodule:drivers/usb/host/**
p99
aVmodule:drivers/usb/musb/**
p100
aVmodule:net/ceph/libceph
p101
aVmodule:net/l2tp/l2tp_core
p102
aVmodule:sound/firewire/snd-firewire-lib
p103
aVbtree_*
p104
aVvisitor*
p105
aVcan_rx_register
p106
aVip6_xmit
p107
aVmodule:net/dccp/dccp
p108
aVmodule:net/rds/rds
p109
aVdevfreq_*
p110
aVdevm_devfreq_*
p111
aVupdate_devfreq
p112
aVmodule:drivers/infiniband/**
p113
aVacpi_ec_add_query_handler
p114
aVacpi_ec_remove_query_handler
p115
aVfirst_ec
p116
aVdebugfs_create_automount
p117
aVmodule:drivers/iio/imu/inv_mpu6050/*
p118
ass(Vbase
p119
Valpha
p120
tp121
(dp122
Vfeaturesets
p123
(lp124
Vnone
p125
asVkernel-arch
p126
Valpha
p127
ss(Vdescription
p128
g120
NValpha-smp
p129
tp130
(dp131
Vhardware
p132
VAlpha SMP
p133
sVhardware-long
p134
VDEC Alpha SMP systems with extended kernel start address (Wildfire, Titan, Marvel)
p135
ss(Vbuild
p136
g120
tp137
(dp138
Vsigned-modules
p139
I00
sVimage-file
p140
Varch/alpha/boot/vmlinux.gz
p141
ss(Vdescription
p142
g120
NValpha-generic
p143
tp144
(dp145
Vhardware
p146
VAlpha
p147
sVhardware-long
p148
VDEC Alpha systems with extended kernel start address (Wildfire, Titan, Marvel)
p149
ss(Vimage
p150
g120
tp151
(dp152
Vsuggests
p153
Vaboot, fdutils
p154
sVinstall-stem
p155
Vvmlinuz
p156
ss(Vbase
p157
g120
g125
tp158
(dp159
Vflavours
p160
(lp161
Valpha-generic
p162
aValpha-smp
p163
asVimplicit-flavour
p164
I01
ss(Vbase
p165
Vamd64
p166
tp167
(dp168
Vfeaturesets
p169
(lp170
Vnone
p171
aVrt
p172
asVkernel-arch
p173
Vx86
p174
ss(Vdescription
p175
g166
NVamd64
p176
tp177
(dp178
Vhardware
p179
V64-bit PCs
p180
sVhardware-long
p181
VPCs with AMD64, Intel 64 or VIA Nano processors
p182
ss(Vbuild
p183
g166
tp184
(dp185
Vvdso
p186
I01
sVimage-file
p187
Varch/x86/boot/bzImage
p188
sVdebug-info
p189
I01
sVsigned-modules
p190
I00
ss(Vrelations
p191
g166
tp192
(dp193
Vheaders%gcc-6
p194
Vlinux-compiler-gcc-6-x86
p195
ss(Vimage
p196
g166
tp197
(dp198
Vbreaks
p199
Vxserver-xorg-input-vmmouse (<< 1:13.0.99)
p200
sVinstall-stem
p201
Vvmlinuz
p202
sVbootloaders
p203
(lp204
Vgrub-pc
p205
aVgrub-efi-amd64
p206
aVextlinux
p207
ass(Vbase
p208
g166
Vnone
p209
tp210
(dp211
Vflavours
p212
(lp213
Vamd64
p214
ass(Vdescription
p215
g166
g209
Vamd64
p216
tp217
(dp218
Vparts
p219
(lp220
Vxen
p221
ass(Vbase
p222
g166
Vrt
p223
tp224
(dp225
Vflavours
p226
(lp227
Vamd64
p228
ass(Vbase
p229
Varm64
p230
tp231
(dp232
Vfeaturesets
p233
(lp234
Vnone
p235
asVkernel-arch
p236
Varm64
p237
ss(Vdescription
p238
g230
NVarm64
p239
tp240
(dp241
Vhardware
p242
V64-bit ARMv8 machines
p243
ss(Vbuild
p244
g230
tp245
(dp246
Vvdso
p247
I01
sVimage-file
p248
Varch/arm64/boot/Image
p249
sVdebug-info
p250
I01
sVsigned-modules
p251
I00
ss(Vimage
p252
g230
NVarm64
p253
tp254
(dp255
s(Vimage
p256
g230
tp257
(dp258
Vbreaks
p259
Vlibmozjs185-1.0, libmozjs-24-0 (<< 24.2.0-5.1~)
p260
sVinstall-stem
p261
Vvmlinuz
p262
ss(Vbase
p263
g230
Vnone
p264
tp265
(dp266
Vflavours
p267
(lp268
Varm64
p269
ass(Vbase
p270
Varmel
p271
tp272
(dp273
g123
(lp274
g125
asVkernel-arch
p275
Varm
p276
ss(Vbuild
p277
g271
tp278
(dp279
Vsigned-modules
p280
I00
sVimage-file
p281
Varch/arm/boot/zImage
p282
ss(Vimage
p283
g271
NVmarvell
p284
tp285
(dp286
Vrecommends
p287
Vu-boot-tools
p288
sVbreaks
p289
Vflash-kernel (<< 3.57~)
p290
sVcheck-size-with-dtb
p291
I01
sVcheck-size
p292
L2097080L
ss(Vdescription
p293
g271
NVmarvell
p294
tp295
(dp296
Vhardware
p297
VMarvell Kirkwood/Orion
p298
sVhardware-long
p299
VMarvell Kirkwood based systems (SheevaPlug, QNAP TS-119/TS-219, etc)\u000aand Orion 5181, 5182 and 5281 based systems (QNAP TS-109/TS-209, etc)
p300
ss(Vrelations
p301
g271
tp302
(dp303
Vheaders%gcc-6
p304
Vlinux-compiler-gcc-6-arm
p305
ss(Vimage
p306
g271
tp307
(dp308
Vinstall-stem
p309
Vvmlinuz
p310
ss(g157
g271
g125
tp311
(dp312
g160
(lp313
Vmarvell
p314
asg164
I01
ss(Vbase
p315
Varmhf
p316
tp317
(dp318
g123
(lp319
g125
asVkernel-arch
p320
Varm
p321
ss(Vdescription
p322
g316
NVarmmp
p323
tp324
(dp325
Vhardware
p326
VARMv7 multiplatform compatible SoCs
p327
sVhardware-long
p328
VARMv7 multiplatform kernel. See\u000ahttps://wiki.debian.org/DebianKernel/ARMMP for details of supported\u000aplatforms
p329
ss(Vbuild
p330
g316
tp331
(dp332
Vvdso
p333
I01
sVimage-file
p334
Varch/arm/boot/zImage
p335
sVsigned-modules
p336
I00
ss(Vdescription
p337
g316
NVarmmp-lpae
p338
tp339
(dp340
Vhardware
p341
VARMv7 multiplatform compatible SoCs supporting LPAE
p342
sVhardware-long
p343
VARMv7 multiplatform kernel supporting LPAE. See\u000ahttps://wiki.debian.org/DebianKernel/ARMMP for details of supported\u000aplatforms.
p344
ss(Vrelations
p345
g316
tp346
(dp347
Vheaders%gcc-6
p348
Vlinux-compiler-gcc-6-arm
p349
ss(Vimage
p350
g316
tp351
(dp352
Vinstall-stem
p353
Vvmlinuz
p354
ss(g157
g316
g125
tp355
(dp356
g160
(lp357
Varmmp
p358
aVarmmp-lpae
p359
asg164
I01
ss(Vbase
p360
Vhppa
p361
tp362
(dp363
g123
(lp364
g125
asVkernel-arch
p365
Vparisc
p366
ss(Vbuild
p367
g361
tp368
(dp369
Vsigned-modules
p370
I00
sVimage-file
p371
Vvmlinux
p372
ss(Vdescription
p373
g361
NVparisc64-smp
p374
tp375
(dp376
Vhardware
p377
Vmultiprocessor 64-bit PA-RISC
p378
sVhardware-long
p379
VHP PA-RISC 64-bit SMP systems with support for more than 4 GB RAM
p380
ss(Vbase
p381
g361
NVparisc64-smp
p382
tp383
(dp384
Vcflags
p385
V-fno-cse-follow-jumps
p386
sVoverride-host-type
p387
Vhppa64-linux-gnu
p388
ss(Vrelations
p389
g361
tp390
(dp391
Vgcc-6
p392
Vgcc-6 <!stage1 !cross>, binutils-hppa64-linux-gnu <!stage1 !cross>, gcc-6-hppa64-linux-gnu <!stage1 !cross>, gcc-6-hppa-linux-gnu <!stage1 cross>, binutils-hppa64-linux-gnu <!stage1 cross>, gcc-6-hppa64-linux-gnu <!stage1 cross>
p393
ss(Vdescription
p394
g361
NVparisc
p395
tp396
(dp397
Vhardware
p398
V32-bit PA-RISC
p399
sVhardware-long
p400
VHP PA-RISC 32-bit systems with max 4 GB RAM
p401
ss(Vimage
p402
g361
tp403
(dp404
Vsuggests
p405
Vpalo
p406
sVinstall-stem
p407
Vvmlinux
p408
ss(g157
g361
g125
tp409
(dp410
g160
(lp411
Vparisc
p412
aVparisc64-smp
p413
asg164
I01
ss(Vbase
p414
Vi386
p415
tp416
(dp417
Vfeaturesets
p418
(lp419
Vnone
p420
aVrt
p421
asVkernel-arch
p422
Vx86
p423
ss(Vbuild
p424
g415
tp425
(dp426
Vvdso
p427
I01
sVimage-file
p428
Varch/x86/boot/bzImage
p429
sVsigned-modules
p430
I00
ss(Vdescription
p431
g415
NV686-pae
p432
tp433
(dp434
Vhardware
p435
Vmodern PCs
p436
sVhardware-long
p437
VPCs with one or more processors supporting PAE
p438
sVparts
p439
(lp440
Vpae
p441
ass(Vdescription
p442
g415
tp443
(dp444
Vpart-long-pae
p445
VThis kernel requires PAE (Physical Address Extension).\u000aThis feature is supported by the Intel Pentium Pro/II/III/4/4M/D, Xeon,\u000aCore and Atom; AMD Geode NX, Athlon (K7), Duron, Opteron, Sempron,\u000aTurion or Phenom; Transmeta Efficeon; VIA C7; and some other processors.
p446
ss(Vbuild
p447
g415
NV686-pae
p448
tp449
(dp450
Vdebug-info
p451
I01
ss(Vdescription
p452
g415
NV686
p453
tp454
(dp455
Vhardware
p456
Volder PCs
p457
sVhardware-long
p458
VPCs with one or more processors not supporting PAE
p459
ss(Vrelations
p460
g415
tp461
(dp462
Vheaders%gcc-6
p463
Vlinux-compiler-gcc-6-x86
p464
ss(Vimage
p465
g415
tp466
(dp467
Vbreaks
p468
Vxserver-xorg-input-vmmouse (<< 1:13.0.99)
p469
sVinstall-stem
p470
Vvmlinuz
p471
sVbootloaders
p472
(lp473
Vgrub-pc
p474
aVextlinux
p475
ass(Vbase
p476
g415
Vnone
p477
tp478
(dp479
Vflavours
p480
(lp481
V686
p482
aV686-pae
p483
ass(Vdescription
p484
g415
g477
V686-pae
p485
tp486
(dp487
Vparts
p488
(lp489
Vxen
p490
ass(Vbase
p491
g415
Vrt
p492
tp493
(dp494
Vflavours
p495
(lp496
V686-pae
p497
ass(Vbase
p498
Vm68k
p499
tp500
(dp501
Vcflags
p502
V-ffreestanding
p503
sg123
(lp504
g125
asVkernel-arch
p505
Vm68k
p506
ss(Vbuild
p507
g499
tp508
(dp509
Vsigned-modules
p510
I00
sVimage-file
p511
Vvmlinux.gz
p512
ss(Vdescription
p513
g499
NVm68k
p514
tp515
(dp516
Vhardware
p517
VMotorola MC68020+ family
p518
ss(Vimage
p519
g499
tp520
(dp521
Vsuggests
p522
Vvmelilo, fdutils
p523
sVinstall-stem
p524
Vvmlinuz
p525
ss(g157
g499
g125
tp526
(dp527
g160
(lp528
Vm68k
p529
asg164
I01
ss(Vbase
p530
Vmips
p531
tp532
(dp533
g123
(lp534
g125
asVkernel-arch
p535
Vmips
p536
ss(Vbuild
p537
g531
tp538
(dp539
Vsigned-modules
p540
I00
sVimage-file
p541
Vvmlinux
p542
ss(Vimage
p543
g531
NV4kc-malta
p544
tp545
(dp546
Vconfigs
p547
(lp548
Vkernelarch-mips/config.malta
p549
aVkernelarch-mips/config.mips32r2
p550
ass(Vimage
p551
g531
NV5kc-malta
p552
tp553
(dp554
Vconfigs
p555
(lp556
Vkernelarch-mips/config.malta
p557
aVkernelarch-mips/config.mips64r2
p558
ass(Vdescription
p559
g531
NVocteon
p560
tp561
(dp562
Vhardware
p563
VOcteon
p564
sVhardware-long
p565
VCavium Networks Octeon
p566
ss(Vimage
p567
g531
NVocteon
p568
tp569
(dp570
Vconfigs
p571
(lp572
Vkernelarch-mips/config.octeon
p573
ass(Vimage
p574
g531
tp575
(dp576
Vinstall-stem
p577
Vvmlinux
p578
ss(Vdescription
p579
g531
NV5kc-malta
p580
tp581
(dp582
Vhardware
p583
VMIPS Malta (64-bit)
p584
sVhardware-long
p585
VMIPS Malta boards (64-bit)
p586
ss(Vdescription
p587
g531
NV4kc-malta
p588
tp589
(dp590
Vhardware
p591
VMIPS Malta
p592
sVhardware-long
p593
VMIPS Malta boards
p594
ss(g157
g531
g125
tp595
(dp596
g160
(lp597
V4kc-malta
p598
aV5kc-malta
p599
aVocteon
p600
asg164
I01
ss(Vbase
p601
Vmipsel
p602
tp603
(dp604
g123
(lp605
g125
asVkernel-arch
p606
Vmips
p607
ss(Vimage
p608
g602
NVloongson-3
p609
tp610
(dp611
Vconfigs
p612
(lp613
Vkernelarch-mips/config.loongson-3
p614
ass(Vbuild
p615
g602
tp616
(dp617
Vsigned-modules
p618
I00
sVimage-file
p619
Vvmlinux
p620
ss(Vimage
p621
g602
NV4kc-malta
p622
tp623
(dp624
Vconfigs
p625
(lp626
Vkernelarch-mips/config.malta
p627
aVkernelarch-mips/config.mips32r2
p628
ass(Vimage
p629
g602
NV5kc-malta
p630
tp631
(dp632
Vconfigs
p633
(lp634
Vkernelarch-mips/config.malta
p635
aVkernelarch-mips/config.mips64r2
p636
ass(Vdescription
p637
g602
NVocteon
p638
tp639
(dp640
Vhardware
p641
VOcteon
p642
sVhardware-long
p643
VCavium Networks Octeon
p644
ss(Vdescription
p645
g602
NVloongson-3
p646
tp647
(dp648
Vhardware
p649
VLoongson 3A/3B
p650
sVhardware-long
p651
VLoongson 3A or 3B based systems (e.g. from Loongson or Lemote)
p652
ss(Vimage
p653
g602
NVocteon
p654
tp655
(dp656
Vconfigs
p657
(lp658
Vkernelarch-mips/config.octeon
p659
ass(Vimage
p660
g602
tp661
(dp662
Vinstall-stem
p663
Vvmlinux
p664
ss(Vdescription
p665
g602
NV5kc-malta
p666
tp667
(dp668
Vhardware
p669
VMIPS Malta (64-bit)
p670
sVhardware-long
p671
VMIPS Malta boards (64-bit)
p672
ss(Vdescription
p673
g602
NV4kc-malta
p674
tp675
(dp676
Vhardware
p677
VMIPS Malta
p678
sVhardware-long
p679
VMIPS Malta boards
p680
ss(g157
g602
g125
tp681
(dp682
g160
(lp683
V4kc-malta
p684
aV5kc-malta
p685
aVloongson-3
p686
aVocteon
p687
asg164
I01
ss(Vbase
p688
Vmipsn32
p689
tp690
(dp691
Vfeaturesets
p692
(lp693
sVkernel-arch
p694
Vmips
p695
ss(Vbase
p696
Vmipsn32el
p697
tp698
(dp699
Vfeaturesets
p700
(lp701
sVkernel-arch
p702
Vmips
p703
ss(Vbase
p704
Vmips64
p705
tp706
(dp707
g123
(lp708
g125
asVkernel-arch
p709
Vmips
p710
ss(Vbuild
p711
g705
tp712
(dp713
Vsigned-modules
p714
I00
sVimage-file
p715
Vvmlinux
p716
ss(Vimage
p717
g705
NV5kc-malta
p718
tp719
(dp720
Vconfigs
p721
(lp722
Vkernelarch-mips/config.malta
p723
aVkernelarch-mips/config.mips64r2
p724
ass(Vdescription
p725
g705
NVocteon
p726
tp727
(dp728
Vhardware
p729
VOcteon
p730
sVhardware-long
p731
VCavium Networks Octeon
p732
ss(Vimage
p733
g705
tp734
(dp735
Vinstall-stem
p736
Vvmlinux
p737
ss(Vdescription
p738
g705
NV5kc-malta
p739
tp740
(dp741
Vhardware
p742
VMIPS Malta
p743
sVhardware-long
p744
VMIPS Malta boards
p745
ss(Vimage
p746
g705
NVocteon
p747
tp748
(dp749
Vconfigs
p750
(lp751
Vkernelarch-mips/config.octeon
p752
ass(g157
g705
g125
tp753
(dp754
g160
(lp755
V5kc-malta
p756
aVocteon
p757
asg164
I01
ss(Vbase
p758
Vmips64el
p759
tp760
(dp761
g123
(lp762
g125
asVkernel-arch
p763
Vmips
p764
ss(Vimage
p765
g759
NVloongson-3
p766
tp767
(dp768
Vconfigs
p769
(lp770
Vkernelarch-mips/config.loongson-3
p771
ass(Vbuild
p772
g759
tp773
(dp774
Vsigned-modules
p775
I00
sVimage-file
p776
Vvmlinux
p777
ss(Vimage
p778
g759
NV5kc-malta
p779
tp780
(dp781
Vconfigs
p782
(lp783
Vkernelarch-mips/config.malta
p784
aVkernelarch-mips/config.mips64r2
p785
ass(Vdescription
p786
g759
NVocteon
p787
tp788
(dp789
Vhardware
p790
VOcteon
p791
sVhardware-long
p792
VCavium Networks Octeon
p793
ss(Vdescription
p794
g759
NVloongson-3
p795
tp796
(dp797
Vhardware
p798
VLoongson 3A/3B
p799
sVhardware-long
p800
VLoongson 3A or 3B based systems (e.g. from Loongson or Lemote)
p801
ss(Vimage
p802
g759
tp803
(dp804
Vinstall-stem
p805
Vvmlinux
p806
ss(Vdescription
p807
g759
NV5kc-malta
p808
tp809
(dp810
Vhardware
p811
VMIPS Malta
p812
sVhardware-long
p813
VMIPS Malta boards
p814
ss(Vimage
p815
g759
NVocteon
p816
tp817
(dp818
Vconfigs
p819
(lp820
Vkernelarch-mips/config.octeon
p821
ass(g157
g759
g125
tp822
(dp823
g160
(lp824
V5kc-malta
p825
aVloongson-3
p826
aVocteon
p827
asg164
I01
ss(Vbase
p828
Vpowerpc
p829
tp830
(dp831
g123
(lp832
g125
asVkernel-arch
p833
Vpowerpc
p834
ss(Vdescription
p835
g829
NVpowerpc64
p836
tp837
(dp838
Vhardware
p839
V64-bit PowerPC
p840
ss(Vbuild
p841
g829
tp842
(dp843
Vvdso
p844
I01
sVimage-file
p845
Vvmlinux
p846
ss(Vimage
p847
g829
NVpowerpc-smp
p848
tp849
(dp850
Vconfigs
p851
(lp852
Vpowerpc/config.powerpc
p853
aVpowerpc/config.powerpc-smp
p854
ass(Vdescription
p855
g829
NVpowerpc
p856
tp857
(dp858
Vhardware
p859
Vuniprocessor 32-bit PowerPC
p860
ss(Vimage
p861
g829
NVpowerpc64
p862
tp863
(dp864
Vconfigs
p865
(lp866
Vkernelarch-powerpc/config-arch-64
p867
aVkernelarch-powerpc/config-arch-64-be
p868
ass(Vdescription
p869
g829
NVpowerpc-smp
p870
tp871
(dp872
Vhardware
p873
Vmultiprocessor 32-bit PowerPC
p874
ss(Vimage
p875
g829
tp876
(dp877
Vsuggests
p878
Vmkvmlinuz
p879
sVinstall-stem
p880
Vvmlinux
p881
sVconfigs
p882
(lp883
ss(g157
g829
g125
tp884
(dp885
g160
(lp886
Vpowerpc
p887
aVpowerpc-smp
p888
aVpowerpc64
p889
asg164
I01
ss(Vbase
p890
Vpowerpcspe
p891
tp892
(dp893
g123
(lp894
g125
asVkernel-arch
p895
Vpowerpc
p896
ss(Vbuild
p897
g891
tp898
(dp899
Vsigned-modules
p900
I00
sVimage-file
p901
Vvmlinux
p902
sVvdso
p903
I01
ss(Vimage
p904
g891
tp905
(dp906
Vsuggests
p907
Vmkvmlinuz
p908
sVinstall-stem
p909
Vvmlinux
p910
ss(Vdescription
p911
g891
tp912
(dp913
Vhardware
p914
V32-bit PowerPC with SPE (instead of AltiVec) with SMP support
p915
ss(g157
g891
g125
tp916
(dp917
g160
(lp918
Vpowerpcspe
p919
asg164
I01
ss(Vbase
p920
Vppc64
p921
tp922
(dp923
g123
(lp924
g125
asVkernel-arch
p925
Vpowerpc
p926
ss(Vdescription
p927
g921
NVpowerpc64
p928
tp929
(dp930
Vhardware
p931
V64-bit PowerPC
p932
ss(Vbuild
p933
g921
tp934
(dp935
Vsigned-modules
p936
I00
sVimage-file
p937
Vvmlinux
p938
sVvdso
p939
I01
ss(Vimage
p940
g921
NVpowerpc64
p941
tp942
(dp943
Vconfigs
p944
(lp945
Vkernelarch-powerpc/config-arch-64
p946
aVkernelarch-powerpc/config-arch-64-be
p947
ass(Vimage
p948
g921
tp949
(dp950
Vsuggests
p951
Vmkvmlinuz
p952
sVinstall-stem
p953
Vvmlinux
p954
sVconfigs
p955
(lp956
ss(g157
g921
g125
tp957
(dp958
g160
(lp959
Vpowerpc64
p960
asg164
I01
ss(Vbase
p961
Vppc64el
p962
tp963
(dp964
g123
(lp965
g125
asVkernel-arch
p966
Vpowerpc
p967
ss(Vdescription
p968
g962
NVpowerpc64le
p969
tp970
(dp971
Vhardware
p972
VLittle-endian 64-bit PowerPC
p973
ss(Vbuild
p974
g962
tp975
(dp976
Vvdso
p977
I01
sVimage-file
p978
Vvmlinux
p979
ss(Vimage
p980
g962
tp981
(dp982
Vsuggests
p983
Vmkvmlinuz
p984
sVinstall-stem
p985
Vvmlinux
p986
sVconfigs
p987
(lp988
ss(Vimage
p989
g962
NVpowerpc64le
p990
tp991
(dp992
Vconfigs
p993
(lp994
Vkernelarch-powerpc/config-arch-64
p995
aVkernelarch-powerpc/config-arch-64-le
p996
ass(g157
g962
g125
tp997
(dp998
g160
(lp999
Vpowerpc64le
p1000
asg164
I01
ss(Vbase
p1001
Vs390
p1002
tp1003
(dp1004
Vfeaturesets
p1005
(lp1006
sVkernel-arch
p1007
Vs390
p1008
ss(Vbase
p1009
Vs390x
p1010
tp1011
(dp1012
g123
(lp1013
g125
asVkernel-arch
p1014
Vs390
p1015
ss(Vdescription
p1016
g1010
NVs390x
p1017
tp1018
(dp1019
Vhardware
p1020
VIBM zSeries
p1021
ss(Vbuild
p1022
g1010
tp1023
(dp1024
Vvdso
p1025
I01
sVimage-file
p1026
Varch/s390/boot/image
p1027
ss(Vbuild
p1028
g1010
NVs390x
p1029
tp1030
(dp1031
Vdebug-info
p1032
I01
ss(Vrelations
p1033
g1010
tp1034
(dp1035
Vheaders%gcc-6
p1036
Vlinux-compiler-gcc-6-s390
p1037
ss(Vimage
p1038
g1010
tp1039
(dp1040
Vinstall-stem
p1041
Vvmlinuz
p1042
sVbootloaders
p1043
(lp1044
Vs390-tools
p1045
ass(g157
g1010
g125
tp1046
(dp1047
g160
(lp1048
Vs390x
p1049
asg164
I01
ss(Vbase
p1050
Vsh3
p1051
tp1052
(dp1053
Vfeaturesets
p1054
(lp1055
sVkernel-arch
p1056
Vsh
p1057
ss(Vbase
p1058
Vsh4
p1059
tp1060
(dp1061
g123
(lp1062
g125
asVkernel-arch
p1063
Vsh
p1064
ss(Vbuild
p1065
g1059
tp1066
(dp1067
Vsigned-modules
p1068
I00
sVimage-file
p1069
Varch/sh/boot/zImage
p1070
ss(Vdescription
p1071
g1059
NVsh7751r
p1072
tp1073
(dp1074
Vhardware
p1075
Vsh7751r
p1076
sVhardware-long
p1077
VRenesas SH7751R R2D plus board
p1078
ss(Vdescription
p1079
g1059
NVsh7785lcr
p1080
tp1081
(dp1082
Vhardware
p1083
Vsh7785lcr
p1084
sVhardware-long
p1085
VRenesas SH7785 reference board
p1086
ss(Vimage
p1087
g1059
tp1088
(dp1089
Vinstall-stem
p1090
Vvmlinuz
p1091
ss(Vimage
p1092
g1059
NVsh7785lcr
p1093
tp1094
(dp1095
Vrecommends
p1096
Vu-boot-tools
p1097
sVcheck-size
p1098
L4194304L
ss(g157
g1059
g125
tp1099
(dp1100
g160
(lp1101
Vsh7751r
p1102
aVsh7785lcr
p1103
asg164
I01
ss(Vbase
p1104
Vsparc
p1105
tp1106
(dp1107
Vfeaturesets
p1108
(lp1109
sVkernel-arch
p1110
Vsparc
p1111
ss(Vbase
p1112
Vsparc64
p1113
tp1114
(dp1115
g123
(lp1116
g125
asVkernel-arch
p1117
Vsparc
p1118
ss(Vbuild
p1119
g1113
tp1120
(dp1121
Vsigned-modules
p1122
I00
sVimage-file
p1123
Varch/sparc/boot/zImage
p1124
ss(Vimage
p1125
g1113
NVsparc64
p1126
tp1127
(dp1128
Vconfigs
p1129
(lp1130
Vkernelarch-sparc/config-up
p1131
ass(Vimage
p1132
g1113
NVsparc64-smp
p1133
tp1134
(dp1135
Vconfigs
p1136
(lp1137
Vkernelarch-sparc/config-smp
p1138
ass(Vimage
p1139
g1113
tp1140
(dp1141
Vsuggests
p1142
Vsilo, fdutils
p1143
sVinstall-stem
p1144
Vvmlinuz
p1145
sVconfigs
p1146
(lp1147
ss(Vdescription
p1148
g1113
NVsparc64-smp
p1149
tp1150
(dp1151
Vhardware
p1152
Vmultiprocessor 64-bit UltraSPARC
p1153
ss(Vdescription
p1154
g1113
NVsparc64
p1155
tp1156
(dp1157
Vhardware
p1158
Vuniprocessor 64-bit UltraSPARC
p1159
ss(g157
g1113
g125
tp1160
(dp1161
g160
(lp1162
Vsparc64
p1163
aVsparc64-smp
p1164
asg164
I01
ss(Vbase
p1165
Vtilegx
p1166
tp1167
(dp1168
Vfeaturesets
p1169
(lp1170
sVkernel-arch
p1171
Vtile
p1172
ss(Vbase
p1173
Vx32
p1174
tp1175
(dp1176
Vfeaturesets
p1177
(lp1178
sVkernel-arch
p1179
Vx86
p1180
ss(Vdescription
p1181
NVrt
p1182
tp1183
(dp1184
Vparts
p1185
(lp1186
Vrt
p1187
asVpart-long-rt
p1188
VThis kernel includes the PREEMPT_RT realtime patch set.
p1189
sVpart-short-rt
p1190
VPREEMPT_RT
p1191
ss(Vabi
p1192
Ng1182
tp1193
(dp1194
Vignore-changes
p1195
(lp1196
V*
p1197
ass(Vversion
p1198
tp1199
(dp1200
Vupstream
p1201
V4.12
p1202
sVsource
p1203
V4.12.6-1parrot6
p1204
sVabiname
p1205
V4.12.0-parrot6
p1206
sVabiname_base
p1207
V4.12.0
p1208
ss.