cdebian_linux.config
ConfigCore
p0
(tRp1
(Vabi
p2
tp3
(dp4
Vabiname
p5
V12parrot1
p6
sVignore-changes
p7
(lp8
V__cpuhp_*
p9
aV__udp_gso_segment
p10
aVbpf_analyzer
p11
aVbpf_offload_dev_create
p12
aVbpf_verifier_log_write
p13
aVcxl_*
p14
aVdax_flush
p15
aVieee80211_nullfunc_get
p16
aVinet_add_protocol
p17
aVinet_del_protocol
p18
aViommu_device_*
p19
aVmm_iommu_*
p20
aVmv_mbus_*
p21
aVperf_*
p22
aVregister_cxl_calls
p23
aVregister_key_type
p24
aVunregister_cxl_calls
p25
aV*_hw_breakpoint
p26
aVmodule:drivers/crypto/ccp/*
p27
aVmodule:drivers/hv/*
p28
aVmodule:drivers/gpu/drm/sun4i/*
p29
aVmodule:drivers/iio/**
p30
aVmodule:drivers/misc/cxl/*
p31
aVmodule:drivers/misc/lis3lv02d/*
p32
aVmodule:drivers/mtd/nand/*
p33
aVmodule:drivers/net/ethernet/**
p34
aVmodule:drivers/net/wireless/**
p35
aVmodule:drivers/nvdimm/*
p36
aVmodule:drivers/nvme/**
p37
aVmodule:drivers/power/supply/bq27xxx_battery
p38
aVmodule:drivers/scsi/cxgbi/*
p39
aVmodule:drivers/scsi/libiscs*
p40
aVmodule:drivers/scsi/qla2xxx/qla2xxx
p41
aVmodule:drivers/scsi/ufs/*
p42
aVmodule:drivers/target/**
p43
aVmodule:drivers/usb/chipidea/**
p44
aVmodule:drivers/usb/gadget/**
p45
aVmodule:drivers/usb/host/**
p46
aVmodule:drivers/usb/musb/**
p47
aVmodule:fs/nfs/**
p48
aVmodule:net/ceph/libceph
p49
aVmodule:net/l2tp/**
p50
aVmodule:net/openvswitch/**
p51
aVmodule:net/rxrpc/rxrpc
p52
aVmodule:net/sctp/**
p53
aVmodule:sound/core/seq/**
p54
aVmodule:sound/firewire/snd-firewire-lib
p55
aVmodule:sound/pci/hda/*
p56
aVbtree_*
p57
aVvisitor*
p58
aVcan_rx_register
p59
aVip6_xmit
p60
aVmodule:net/dccp/dccp
p61
aVmodule:net/rds/rds
p62
aVdevfreq_*
p63
aVdevm_devfreq_*
p64
aVupdate_devfreq
p65
aVmodule:drivers/infiniband/**
p66
aVacpi_ec_add_query_handler
p67
aVacpi_ec_remove_query_handler
p68
aVfirst_ec
p69
aVdebugfs_create_automount
p70
aVmodule:drivers/iio/imu/inv_mpu6050/*
p71
aVdrm_crtc_accurate_vblank_count
p72
aVacpi_nfit_desc_init
p73
aVacpi_nfit_init
p74
aVloop_register_transfer
p75
aVxen_xlate_*
p76
aVnf_nat_masquerade_ipv4_register_notifier
p77
aVnf_nat_masquerade_ipv6_register_notifier
p78
aVdfltcc_*
p79
aVmodule:drivers/scsi/hisi_sas/*
p80
aV__gfn_*
p81
aV__kvmhv_*
p82
aV__kvm_*
p83
aV__xive_vm_h_*
p84
aVgfn_*
p85
aVh_ipi_redirect
p86
aVhalt_poll_ns*
p87
aVkvm_*
p88
aVkvmhv_*
p89
aVkvmppc_*
p90
aVmark_page_dirty
p91
aVvcpu_*
p92
aVmodule:arch/powerpc/kvm/*
p93
aVmodule:arch/s390/kvm/*
p94
aVmodule:arch/x86/kvm/*
p95
aVuv_info
p96
aVxhci_init_driver
p97
ass(Vbase
p98
tp99
(dp100
Varches
p101
(lp102
Valpha
p103
aVamd64
p104
aVarm64
p105
aVarm64ilp32
p106
aVarmel
p107
aVarmhf
p108
aVhppa
p109
aVi386
p110
aVia64
p111
aVm68k
p112
aVmips
p113
aVmips64
p114
aVmips64el
p115
aVmips64r6
p116
aVmips64r6el
p117
aVmipsel
p118
aVmipsn32
p119
aVmipsn32el
p120
aVmipsn32r6
p121
aVmipsn32r6el
p122
aVmipsr6
p123
aVmipsr6el
p124
aVpowerpc
p125
aVppc64
p126
aVppc64el
p127
aVriscv64
p128
aVs390
p129
aVs390x
p130
aVsh3
p131
aVsh4
p132
aVsparc
p133
aVsparc64
p134
aVx32
p135
asVcompiler
p136
Vgcc-11
p137
sVfeaturesets
p138
(lp139
Vnone
p140
aVrt
p141
ass(Vbuild
p142
tp143
(dp144
Vdebug-info
p145
I01
sVsigned-code
p146
I00
sVtrusted-certs
p147
Vdebian/certs/debian-uefi-certs.pem
p148
ss(Vbase
p149
NVrt
p150
tp151
(dp152
Venabled
p153
I01
ss(Vdescription
p154
tp155
(dp156
Vpart-long-up
p157
VThis kernel is not suitable for SMP (multi-processor,\u000amulti-core or hyper-threaded) systems.
p158
ss(Vimage
p159
tp160
(dp161
Vinitramfs-generators
p162
(lp163
Vinitramfs-tools
p164
aVinitramfs-fallback
p165
asVbreaks
p166
(lp167
Vfwupdate (<< 12-7)
p168
aVwireless-regdb (<< 2019.06.03-1~)
p169
asVrecommends
p170
(lp171
Vapparmor
p172
ass(Vrelations
p173
tp174
(dp175
Vgcc-11
p176
Vgcc-11 <!stage1 !cross !pkg.linux.nokernel>, gcc-11-@gnu-type-package@ <!stage1 cross !pkg.linux.nokernel>
p177
sVinitramfs-fallback
p178
Vlinux-initramfs-tool
p179
sVinitramfs-tools
p180
Vinitramfs-tools (>= 0.120+deb8u2)
p181
ss(Vbase
p182
Valpha
p183
tp184
(dp185
Vdefault-flavour
p186
Valpha-smp
p187
sVkernel-arch
p188
Valpha
p189
sVfeaturesets
p190
(lp191
Vnone
p192
ass(Vbuild
p193
g183
tp194
(dp195
Vimage-file
p196
Varch/alpha/boot/vmlinux.gz
p197
ss(Vimage
p198
g183
tp199
(dp200
Vsuggests
p201
(lp202
Vaboot
p203
aVfdutils
p204
asVinstall-stem
p205
Vvmlinuz
p206
ss(Vdescription
p207
g183
NValpha-generic
p208
tp209
(dp210
Vhardware
p211
VAlpha
p212
sVhardware-long
p213
VDEC Alpha systems with extended kernel start address (Wildfire, Titan, Marvel)
p214
ss(Vdescription
p215
g183
NValpha-smp
p216
tp217
(dp218
Vhardware
p219
VAlpha SMP
p220
sVhardware-long
p221
VDEC Alpha SMP systems with extended kernel start address (Wildfire, Titan, Marvel)
p222
ss(Vbase
p223
g183
g192
tp224
(dp225
Vflavours
p226
(lp227
Valpha-generic
p228
aValpha-smp
p229
asVimplicit-flavour
p230
I01
ss(Vbase
p231
Vamd64
p232
tp233
(dp234
Vfeaturesets
p235
(lp236
Vnone
p237
aVrt
p238
asVkernel-arch
p239
Vx86
p240
ss(Vbuild
p241
g232
tp242
(dp243
Vimage-file
p244
Varch/x86/boot/bzImage
p245
sVsigned-code
p246
I00
sVvdso
p247
I01
ss(Vimage
p248
g232
tp249
(dp250
Vbootloaders
p251
(lp252
Vgrub-pc
p253
aVgrub-efi-amd64
p254
aVextlinux
p255
asVinstall-stem
p256
Vvmlinuz
p257
sVbreaks
p258
(lp259
Vxserver-xorg-input-vmmouse (<< 1:13.0.99)
p260
ass(Vrelations
p261
g232
tp262
(dp263
Vheaders%gcc-11
p264
Vlinux-compiler-gcc-11-x86
p265
ss(Vdescription
p266
g232
NVamd64
p267
tp268
(dp269
Vhardware
p270
V64-bit PCs
p271
sVhardware-long
p272
VPCs with AMD64, Intel 64 or VIA Nano processors
p273
ss(Vdescription
p274
g232
NVcloud-amd64
p275
tp276
(dp277
Vhardware
p278
Vx86-64 cloud
p279
sVhardware-long
p280
Vcloud platforms including Amazon EC2, Microsoft Azure, and Google Compute Engine
p281
ss(Vbase
p282
g232
Vnone
p283
tp284
(dp285
Vflavours
p286
(lp287
Vamd64
p288
aVcloud-amd64
p289
asVdefault-flavour
p290
Vamd64
p291
sVquick-flavour
p292
Vcloud-amd64
p293
ss(Vimage
p294
g232
g283
Vcloud-amd64
p295
tp296
(dp297
Vconfigs
p298
(lp299
Vconfig.cloud
p300
aVamd64/config.cloud-amd64
p301
ass(Vbase
p302
g232
Vrt
p303
tp304
(dp305
Vflavours
p306
(lp307
Vamd64
p308
ass(Vbase
p309
Varm64
p310
tp311
(dp312
Vcross-compile-compat
p313
Varm-linux-gnueabihf-
p314
sVkernel-arch
p315
Varm64
p316
sVfeaturesets
p317
(lp318
Vnone
p319
aVrt
p320
ass(Vbuild
p321
g310
tp322
(dp323
Vimage-file
p324
Varch/arm64/boot/Image
p325
sVsigned-code
p326
I00
sVvdso
p327
I01
ss(Vimage
p328
g310
tp329
(dp330
Vinstall-stem
p331
Vvmlinuz
p332
sVbreaks
p333
(lp334
Vlibmozjs185-1.0
p335
aVlibmozjs-24-0 (<< 24.2.0-5.1~)
p336
ass(Vdescription
p337
g310
NVarm64
p338
tp339
(dp340
Vhardware
p341
V64-bit ARMv8 machines
p342
ss(Vdescription
p343
g310
NVcloud-arm64
p344
tp345
(dp346
Vhardware
p347
Varm64 cloud
p348
sVhardware-long
p349
Vcloud platforms supporting arm64 virtual machines
p350
ss(Vimage
p351
g310
NVarm64
p352
tp353
(dp354
s(Vrelations
p355
g310
tp356
(dp357
Vgcc-11
p358
Vgcc-11 <!stage1 !cross !pkg.linux.nokernel>, gcc-11-aarch64-linux-gnu <!stage1 cross !pkg.linux.nokernel>, gcc-arm-linux-gnueabihf <!stage1 !pkg.linux.nokernel>
p359
sVheaders%gcc-11
p360
Vgcc-11
p361
ss(Vbase
p362
g310
Vnone
p363
tp364
(dp365
Vflavours
p366
(lp367
Varm64
p368
aVcloud-arm64
p369
asVdefault-flavour
p370
Varm64
p371
sVquick-flavour
p372
Vcloud-arm64
p373
ss(Vimage
p374
g310
g363
Vcloud-arm64
p375
tp376
(dp377
Vconfigs
p378
(lp379
Vconfig.cloud
p380
aVarm64/config.cloud-arm64
p381
ass(Vbase
p382
g310
Vrt
p383
tp384
(dp385
Vflavours
p386
(lp387
Varm64
p388
ass(Vbase
p389
Varm64ilp32
p390
tp391
(dp392
Vkernel-arch
p393
Varm64
p394
sVfeaturesets
p395
(lp396
ss(Vbase
p397
Varmel
p398
tp399
(dp400
Vkernel-arch
p401
Varm
p402
sg190
(lp403
g192
ass(Vbuild
p404
g398
tp405
(dp406
Vimage-file
p407
Varch/arm/boot/zImage
p408
sVuncompressed-image-file
p409
Varch/arm/boot/Image
p410
ss(Vimage
p411
g398
tp412
(dp413
Vinstall-stem
p414
Vvmlinuz
p415
ss(Vrelations
p416
g398
tp417
(dp418
Vheaders%gcc-11
p419
Vlinux-compiler-gcc-11-arm
p420
ss(Vdescription
p421
g398
NVmarvell
p422
tp423
(dp424
Vhardware
p425
VMarvell Kirkwood/Orion
p426
sVhardware-long
p427
VMarvell Kirkwood and Orion based systems (https://wiki.debian.org/ArmEabiPort#Supported_hardware)
p428
ss(Vdescription
p429
g398
NVrpi
p430
tp431
(dp432
Vhardware
p433
VRaspberry Pi Zero, Zero W and 1
p434
sVhardware-long
p435
VRaspberry Pi Zero, Zero W and 1 based systems
p436
ss(Vimage
p437
g398
NVmarvell
p438
tp439
(dp440
Vrecommends
p441
(lp442
Vu-boot-tools
p443
asVcheck-size
p444
I2729712
sVcheck-size-with-dtb
p445
I01
sVbreaks
p446
(lp447
Vflash-kernel (<< 3.57~)
p448
ass(g223
g398
g192
tp449
(dp450
g226
(lp451
Vmarvell
p452
aVrpi
p453
asg230
I01
ss(Vbase
p454
Varmhf
p455
tp456
(dp457
Vfeaturesets
p458
(lp459
Vnone
p460
aVrt
p461
asVkernel-arch
p462
Varm
p463
ss(Vbuild
p464
g455
tp465
(dp466
Vimage-file
p467
Varch/arm/boot/zImage
p468
sVvdso
p469
I01
ss(Vimage
p470
g455
tp471
(dp472
Vinstall-stem
p473
Vvmlinuz
p474
ss(Vrelations
p475
g455
tp476
(dp477
Vheaders%gcc-11
p478
Vlinux-compiler-gcc-11-arm
p479
ss(Vdescription
p480
g455
NVarmmp
p481
tp482
(dp483
Vhardware
p484
VARMv7 multiplatform compatible SoCs
p485
sVhardware-long
p486
VARMv7 multiplatform kernel. See\u000ahttps://wiki.debian.org/DebianKernel/ARMMP for details of supported\u000aplatforms
p487
ss(Vdescription
p488
g455
NVarmmp-lpae
p489
tp490
(dp491
Vhardware
p492
VARMv7 multiplatform compatible SoCs supporting LPAE
p493
sVhardware-long
p494
VARMv7 multiplatform kernel supporting LPAE. See\u000ahttps://wiki.debian.org/DebianKernel/ARMMP for details of supported\u000aplatforms.
p495
ss(Vbase
p496
g455
Vnone
p497
tp498
(dp499
Vflavours
p500
(lp501
Varmmp
p502
aVarmmp-lpae
p503
asVdefault-flavour
p504
Varmmp
p505
ss(Vbase
p506
g455
Vrt
p507
tp508
(dp509
Vflavours
p510
(lp511
Varmmp
p512
ass(Vbase
p513
Vhppa
p514
tp515
(dp516
Vdefault-flavour
p517
Vparisc
p518
sVkernel-arch
p519
Vparisc
p520
sg190
(lp521
g192
ass(Vbuild
p522
g514
tp523
(dp524
Vimage-file
p525
Varch/parisc/boot/bzImage
p526
sVdebug-info
p527
I00
ss(Vimage
p528
g514
tp529
(dp530
Vsuggests
p531
(lp532
Vpalo
p533
asVinstall-stem
p534
Vvmlinuz
p535
ss(Vdescription
p536
g514
NVparisc
p537
tp538
(dp539
Vhardware
p540
V32-bit PA-RISC
p541
sVhardware-long
p542
VHP PA-RISC 32-bit systems with max 4 GB RAM
p543
ss(Vbase
p544
g514
NVparisc64
p545
tp546
(dp547
Vcflags
p548
V-fno-cse-follow-jumps
p549
sVoverride-host-type
p550
Vhppa64-linux-gnu
p551
ss(Vdescription
p552
g514
NVparisc64
p553
tp554
(dp555
Vhardware
p556
V64-bit PA-RISC
p557
sVhardware-long
p558
VHP PA-RISC 64-bit systems with support for more than 4 GB RAM
p559
ss(Vrelations
p560
g514
tp561
(dp562
Vgcc-11
p563
Vgcc-11 <!stage1 !cross !pkg.linux.nokernel>, gcc-11-hppa-linux-gnu <!stage1 cross !pkg.linux.nokernel>, binutils-hppa64-linux-gnu <!stage1 !pkg.linux.nokernel>, gcc-11-hppa64-linux-gnu <!stage1 !pkg.linux.nokernel>
p564
ss(g223
g514
g192
tp565
(dp566
g226
(lp567
Vparisc
p568
aVparisc64
p569
asg230
I01
ss(Vbase
p570
Vi386
p571
tp572
(dp573
Vfeaturesets
p574
(lp575
Vnone
p576
aVrt
p577
asVkernel-arch
p578
Vx86
p579
ss(Vbuild
p580
g571
tp581
(dp582
Vimage-file
p583
Varch/x86/boot/bzImage
p584
sVsigned-code
p585
I00
sVvdso
p586
I01
ss(Vdescription
p587
g571
tp588
(dp589
Vpart-long-pae
p590
VThis kernel requires PAE (Physical Address Extension).\u000aThis feature is supported by the Intel Pentium Pro/II/III/4/4M/D, Xeon,\u000aCore and Atom; AMD Geode NX, Athlon (K7), Duron, Opteron, Sempron,\u000aTurion or Phenom; Transmeta Efficeon; VIA C7; and some other processors.
p591
ss(Vimage
p592
g571
tp593
(dp594
Vbootloaders
p595
(lp596
Vgrub-pc
p597
aVgrub-efi-ia32
p598
aVextlinux
p599
asVinstall-stem
p600
Vvmlinuz
p601
sVbreaks
p602
(lp603
Vxserver-xorg-input-vmmouse (<< 1:13.0.99)
p604
ass(Vrelations
p605
g571
tp606
(dp607
Vheaders%gcc-11
p608
Vlinux-compiler-gcc-11-x86
p609
ss(Vdescription
p610
g571
NV686
p611
tp612
(dp613
Vhardware
p614
Volder PCs
p615
sVhardware-long
p616
VPCs with one or more processors not supporting PAE
p617
ss(Vdescription
p618
g571
NV686-pae
p619
tp620
(dp621
Vhardware
p622
Vmodern PCs
p623
sVhardware-long
p624
VPCs with one or more processors supporting PAE
p625
sVparts
p626
(lp627
Vpae
p628
ass(Vbase
p629
g571
Vnone
p630
tp631
(dp632
Vflavours
p633
(lp634
V686
p635
aV686-pae
p636
asVdefault-flavour
p637
V686-pae
p638
ss(Vbase
p639
g571
Vrt
p640
tp641
(dp642
Vflavours
p643
(lp644
V686-pae
p645
ass(Vbase
p646
Via64
p647
tp648
(dp649
Vdefault-flavour
p650
Vitanium
p651
sVkernel-arch
p652
Via64
p653
sg190
(lp654
g192
ass(Vbuild
p655
g647
tp656
(dp657
Vimage-file
p658
Vvmlinux.gz
p659
ss(Vimage
p660
g647
tp661
(dp662
Vbootloaders
p663
(lp664
Vgrub-efi-ia64
p665
asVinstall-stem
p666
Vvmlinuz
p667
ss(Vdescription
p668
g647
NVitanium
p669
tp670
(dp671
Vhardware
p672
VItanium (Merced)
p673
sVhardware-long
p674
Vsystems with original Itanium (Merced) processors
p675
ss(Vdescription
p676
g647
NVmckinley
p677
tp678
(dp679
Vhardware
p680
VItanium 2+
p681
sVhardware-long
p682
Vsystems with Itanium 2 or 9300/9500/9700-series processors
p683
ss(g223
g647
g192
tp684
(dp685
g226
(lp686
Vitanium
p687
aVmckinley
p688
asg230
I01
ss(Vbase
p689
Vm68k
p690
tp691
(dp692
Vcflags
p693
V-ffreestanding
p694
sVdefault-flavour
p695
Vm68k
p696
sVkernel-arch
p697
Vm68k
p698
sg190
(lp699
g192
ass(Vbuild
p700
g690
tp701
(dp702
Vimage-file
p703
Vvmlinux
p704
ss(Vimage
p705
g690
tp706
(dp707
Vsuggests
p708
(lp709
Vvmelilo
p710
aVfdutils
p711
asVinstall-stem
p712
Vvmlinux
p713
ss(Vdescription
p714
g690
NVm68k
p715
tp716
(dp717
Vhardware
p718
VMotorola MC68020+ family
p719
ss(g223
g690
g192
tp720
(dp721
g226
(lp722
Vm68k
p723
asg230
I01
ss(Vbase
p724
Vmips
p725
tp726
(dp727
Vkernel-arch
p728
Vmips
p729
sg190
(lp730
g192
ass(Vbuild
p731
g725
tp732
(dp733
Vimage-file
p734
Vvmlinuz
p735
ss(Vimage
p736
g725
tp737
(dp738
Vinstall-stem
p739
Vvmlinuz
p740
ss(Vdescription
p741
g725
NV4kc-malta
p742
tp743
(dp744
Vhardware
p745
VMIPS Malta
p746
sVhardware-long
p747
VMIPS Malta boards
p748
ss(Vimage
p749
g725
NV4kc-malta
p750
tp751
(dp752
Vconfigs
p753
(lp754
Vkernelarch-mips/config.malta
p755
aVkernelarch-mips/config.mips32r2
p756
ass(Vdescription
p757
g725
NVmips32r2eb
p758
tp759
(dp760
Vhardware
p761
VMIPS Generic (mips32r2eb)
p762
sVhardware-long
p763
VMIPS Generic platform (mips32r2eb)
p764
ss(Vimage
p765
g725
NVmips32r2eb
p766
tp767
(dp768
Vconfigs
p769
(lp770
Vkernelarch-mips/config.boston
p771
aVkernelarch-mips/config.mips32r2
p772
ass(Vdescription
p773
g725
NVocteon
p774
tp775
(dp776
Vhardware
p777
VOcteon
p778
sVhardware-long
p779
VCavium Networks Octeon
p780
ss(Vbuild
p781
g725
NVocteon
p782
tp783
(dp784
Vimage-file
p785
Vvmlinux
p786
ss(Vimage
p787
g725
NVocteon
p788
tp789
(dp790
Vinstall-stem
p791
Vvmlinux
p792
sVconfigs
p793
(lp794
Vkernelarch-mips/config.octeon
p795
ass(g223
g725
g192
tp796
(dp797
g226
(lp798
V4kc-malta
p799
aVmips32r2eb
p800
aVocteon
p801
asg230
I01
ss(Vbase
p802
Vmips64
p803
tp804
(dp805
Vkernel-arch
p806
Vmips
p807
sg190
(lp808
g192
ass(Vbuild
p809
g803
tp810
(dp811
Vimage-file
p812
Vvmlinuz
p813
ss(Vimage
p814
g803
tp815
(dp816
Vinstall-stem
p817
Vvmlinuz
p818
ss(Vdescription
p819
g803
NV5kc-malta
p820
tp821
(dp822
Vhardware
p823
VMIPS Malta
p824
sVhardware-long
p825
VMIPS Malta boards
p826
ss(Vimage
p827
g803
NV5kc-malta
p828
tp829
(dp830
Vconfigs
p831
(lp832
Vkernelarch-mips/config.malta
p833
aVkernelarch-mips/config.mips64r2
p834
ass(Vdescription
p835
g803
NVmips64r2eb
p836
tp837
(dp838
Vhardware
p839
VMIPS Generic (mips64r2eb)
p840
sVhardware-long
p841
VMIPS Generic platform (mips64r2eb)
p842
ss(Vimage
p843
g803
NVmips64r2eb
p844
tp845
(dp846
Vconfigs
p847
(lp848
Vkernelarch-mips/config.boston
p849
aVkernelarch-mips/config.mips64r2
p850
ass(Vdescription
p851
g803
NVocteon
p852
tp853
(dp854
Vhardware
p855
VOcteon
p856
sVhardware-long
p857
VCavium Networks Octeon
p858
ss(Vbuild
p859
g803
NVocteon
p860
tp861
(dp862
Vimage-file
p863
Vvmlinux
p864
ss(Vimage
p865
g803
NVocteon
p866
tp867
(dp868
Vinstall-stem
p869
Vvmlinux
p870
sVconfigs
p871
(lp872
Vkernelarch-mips/config.octeon
p873
ass(g223
g803
g192
tp874
(dp875
g226
(lp876
V5kc-malta
p877
aVmips64r2eb
p878
aVocteon
p879
asg230
I01
ss(Vbase
p880
Vmips64el
p881
tp882
(dp883
Vkernel-arch
p884
Vmips
p885
sg190
(lp886
g192
ass(Vbuild
p887
g881
tp888
(dp889
Vimage-file
p890
Vvmlinuz
p891
ss(Vimage
p892
g881
tp893
(dp894
Vinstall-stem
p895
Vvmlinuz
p896
ss(Vdescription
p897
g881
NV5kc-malta
p898
tp899
(dp900
Vhardware
p901
VMIPS Malta
p902
sVhardware-long
p903
VMIPS Malta boards
p904
ss(Vimage
p905
g881
NV5kc-malta
p906
tp907
(dp908
Vconfigs
p909
(lp910
Vkernelarch-mips/config.malta
p911
aVkernelarch-mips/config.mips64r2
p912
ass(Vdescription
p913
g881
NVmips64r2el
p914
tp915
(dp916
Vhardware
p917
VMIPS Generic (mips64r2eb)
p918
sVhardware-long
p919
VMIPS Generic platform (mips64r2eb)
p920
ss(Vimage
p921
g881
NVmips64r2el
p922
tp923
(dp924
Vconfigs
p925
(lp926
Vkernelarch-mips/config.boston
p927
aVkernelarch-mips/config.mips64r2
p928
ass(Vdescription
p929
g881
NVloongson-3
p930
tp931
(dp932
Vhardware
p933
VLoongson 3A/3B
p934
sVhardware-long
p935
VLoongson 3A or 3B based systems (e.g. from Loongson or Lemote)
p936
ss(Vimage
p937
g881
NVloongson-3
p938
tp939
(dp940
Vrecommends
p941
(lp942
Vpmon-update
p943
asVconfigs
p944
(lp945
Vkernelarch-mips/config.loongson-3
p946
ass(Vdescription
p947
g881
NVocteon
p948
tp949
(dp950
Vhardware
p951
VOcteon
p952
sVhardware-long
p953
VCavium Networks Octeon
p954
ss(Vbuild
p955
g881
NVocteon
p956
tp957
(dp958
Vimage-file
p959
Vvmlinux
p960
ss(Vimage
p961
g881
NVocteon
p962
tp963
(dp964
Vinstall-stem
p965
Vvmlinux
p966
sVconfigs
p967
(lp968
Vkernelarch-mips/config.octeon
p969
ass(g223
g881
g192
tp970
(dp971
g226
(lp972
V5kc-malta
p973
aVmips64r2el
p974
aVloongson-3
p975
aVocteon
p976
asg230
I01
ss(Vbase
p977
Vmips64r6
p978
tp979
(dp980
Vkernel-arch
p981
Vmips
p982
sg190
(lp983
g192
ass(Vbuild
p984
g978
tp985
(dp986
Vimage-file
p987
Vvmlinuz
p988
ss(Vimage
p989
g978
tp990
(dp991
Vinstall-stem
p992
Vvmlinuz
p993
ss(Vdescription
p994
g978
NVmips64r6eb
p995
tp996
(dp997
Vhardware
p998
VMIPS Generic (mips64r6eb)
p999
sVhardware-long
p1000
VMIPS Generic platform (mips64r6eb)
p1001
ss(Vimage
p1002
g978
NVmips64r6eb
p1003
tp1004
(dp1005
Vconfigs
p1006
(lp1007
Vkernelarch-mips/config.boston
p1008
aVkernelarch-mips/config.mips64r6
p1009
ass(g223
g978
g192
tp1010
(dp1011
g226
(lp1012
Vmips64r6eb
p1013
asg230
I01
ss(Vbase
p1014
Vmips64r6el
p1015
tp1016
(dp1017
Vkernel-arch
p1018
Vmips
p1019
sg190
(lp1020
g192
ass(Vbuild
p1021
g1015
tp1022
(dp1023
Vimage-file
p1024
Vvmlinuz
p1025
ss(Vimage
p1026
g1015
tp1027
(dp1028
Vinstall-stem
p1029
Vvmlinuz
p1030
ss(Vdescription
p1031
g1015
NVmips64r6el
p1032
tp1033
(dp1034
Vhardware
p1035
VMIPS Generic (mips64r6el)
p1036
sVhardware-long
p1037
VMIPS Generic platform (mips64r6el)
p1038
ss(Vimage
p1039
g1015
NVmips64r6el
p1040
tp1041
(dp1042
Vconfigs
p1043
(lp1044
Vkernelarch-mips/config.boston
p1045
aVkernelarch-mips/config.mips64r6
p1046
ass(g223
g1015
g192
tp1047
(dp1048
g226
(lp1049
Vmips64r6el
p1050
asg230
I01
ss(Vbase
p1051
Vmipsel
p1052
tp1053
(dp1054
Vkernel-arch
p1055
Vmips
p1056
sg190
(lp1057
g192
ass(Vbuild
p1058
g1052
tp1059
(dp1060
Vimage-file
p1061
Vvmlinuz
p1062
ss(Vimage
p1063
g1052
tp1064
(dp1065
Vinstall-stem
p1066
Vvmlinuz
p1067
ss(Vdescription
p1068
g1052
NV4kc-malta
p1069
tp1070
(dp1071
Vhardware
p1072
VMIPS Malta
p1073
sVhardware-long
p1074
VMIPS Malta boards
p1075
ss(Vimage
p1076
g1052
NV4kc-malta
p1077
tp1078
(dp1079
Vconfigs
p1080
(lp1081
Vkernelarch-mips/config.malta
p1082
aVkernelarch-mips/config.mips32r2
p1083
ass(Vdescription
p1084
g1052
NVmips32r2el
p1085
tp1086
(dp1087
Vhardware
p1088
VMIPS Generic (mips32r2el)
p1089
sVhardware-long
p1090
VMIPS Generic platform (mips32r2el)
p1091
ss(Vimage
p1092
g1052
NVmips32r2el
p1093
tp1094
(dp1095
Vconfigs
p1096
(lp1097
Vkernelarch-mips/config.boston
p1098
aVkernelarch-mips/config.mips32r2
p1099
ass(Vdescription
p1100
g1052
NVloongson-3
p1101
tp1102
(dp1103
Vhardware
p1104
VLoongson 3A/3B
p1105
sVhardware-long
p1106
VLoongson 3A or 3B based systems (e.g. from Loongson or Lemote)
p1107
ss(Vimage
p1108
g1052
NVloongson-3
p1109
tp1110
(dp1111
Vrecommends
p1112
(lp1113
Vpmon-update
p1114
asVconfigs
p1115
(lp1116
Vkernelarch-mips/config.loongson-3
p1117
ass(Vdescription
p1118
g1052
NVocteon
p1119
tp1120
(dp1121
Vhardware
p1122
VOcteon
p1123
sVhardware-long
p1124
VCavium Networks Octeon
p1125
ss(Vbuild
p1126
g1052
NVocteon
p1127
tp1128
(dp1129
Vimage-file
p1130
Vvmlinux
p1131
ss(Vimage
p1132
g1052
NVocteon
p1133
tp1134
(dp1135
Vinstall-stem
p1136
Vvmlinux
p1137
sVconfigs
p1138
(lp1139
Vkernelarch-mips/config.octeon
p1140
ass(g223
g1052
g192
tp1141
(dp1142
g226
(lp1143
V4kc-malta
p1144
aVmips32r2el
p1145
aVloongson-3
p1146
aVocteon
p1147
asg230
I01
ss(Vbase
p1148
Vmipsn32
p1149
tp1150
(dp1151
Vkernel-arch
p1152
Vmips
p1153
sVfeaturesets
p1154
(lp1155
ss(Vbase
p1156
Vmipsn32el
p1157
tp1158
(dp1159
Vkernel-arch
p1160
Vmips
p1161
sVfeaturesets
p1162
(lp1163
ss(Vbase
p1164
Vmipsn32r6
p1165
tp1166
(dp1167
Vkernel-arch
p1168
Vmips
p1169
sVfeaturesets
p1170
(lp1171
ss(Vbase
p1172
Vmipsn32r6el
p1173
tp1174
(dp1175
Vkernel-arch
p1176
Vmips
p1177
sVfeaturesets
p1178
(lp1179
ss(Vbase
p1180
Vmipsr6
p1181
tp1182
(dp1183
Vkernel-arch
p1184
Vmips
p1185
sg190
(lp1186
g192
ass(Vbuild
p1187
g1181
tp1188
(dp1189
Vimage-file
p1190
Vvmlinuz
p1191
ss(Vimage
p1192
g1181
tp1193
(dp1194
Vinstall-stem
p1195
Vvmlinuz
p1196
ss(Vdescription
p1197
g1181
NVmips32r6eb
p1198
tp1199
(dp1200
Vhardware
p1201
VMIPS Generic (mips32r6eb)
p1202
sVhardware-long
p1203
VMIPS Generic platform (mips32r6eb)
p1204
ss(Vimage
p1205
g1181
NVmips32r6eb
p1206
tp1207
(dp1208
Vconfigs
p1209
(lp1210
Vkernelarch-mips/config.boston
p1211
aVkernelarch-mips/config.mips32r6
p1212
ass(g223
g1181
g192
tp1213
(dp1214
g226
(lp1215
Vmips32r6eb
p1216
asg230
I01
ss(Vbase
p1217
Vmipsr6el
p1218
tp1219
(dp1220
Vkernel-arch
p1221
Vmips
p1222
sg190
(lp1223
g192
ass(Vbuild
p1224
g1218
tp1225
(dp1226
Vimage-file
p1227
Vvmlinuz
p1228
ss(Vimage
p1229
g1218
tp1230
(dp1231
Vinstall-stem
p1232
Vvmlinuz
p1233
ss(Vdescription
p1234
g1218
NVmips32r6el
p1235
tp1236
(dp1237
Vhardware
p1238
VMIPS Generic (mips32r6el)
p1239
sVhardware-long
p1240
VMIPS Generic platform (mips32r6el)
p1241
ss(Vimage
p1242
g1218
NVmips32r6el
p1243
tp1244
(dp1245
Vconfigs
p1246
(lp1247
Vkernelarch-mips/config.boston
p1248
aVkernelarch-mips/config.mips32r6
p1249
ass(g223
g1218
g192
tp1250
(dp1251
g226
(lp1252
Vmips32r6el
p1253
asg230
I01
ss(Vbase
p1254
Vpowerpc
p1255
tp1256
(dp1257
Vkernel-arch
p1258
Vpowerpc
p1259
sg190
(lp1260
g192
ass(Vbuild
p1261
g1255
tp1262
(dp1263
Vimage-file
p1264
Vvmlinux
p1265
ss(Vimage
p1266
g1255
tp1267
(dp1268
Vconfigs
p1269
(lp1270
sVbootloaders
p1271
(lp1272
Vgrub-ieee1275
p1273
asVsuggests
p1274
(lp1275
Vmkvmlinuz
p1276
asVinstall-stem
p1277
Vvmlinux
p1278
ss(Vdescription
p1279
g1255
NVpowerpc
p1280
tp1281
(dp1282
Vhardware
p1283
Vuniprocessor 32-bit PowerPC
p1284
ss(Vdescription
p1285
g1255
NVpowerpc-smp
p1286
tp1287
(dp1288
Vhardware
p1289
Vmultiprocessor 32-bit PowerPC
p1290
ss(Vimage
p1291
g1255
NVpowerpc-smp
p1292
tp1293
(dp1294
Vconfigs
p1295
(lp1296
Vpowerpc/config.powerpc
p1297
aVpowerpc/config.powerpc-smp
p1298
ass(Vdescription
p1299
g1255
NVpowerpc64
p1300
tp1301
(dp1302
Vhardware
p1303
V64-bit PowerPC
p1304
ss(Vimage
p1305
g1255
NVpowerpc64
p1306
tp1307
(dp1308
Vconfigs
p1309
(lp1310
Vkernelarch-powerpc/config-arch-64
p1311
aVkernelarch-powerpc/config-arch-64-be
p1312
ass(g223
g1255
g192
tp1313
(dp1314
g226
(lp1315
Vpowerpc
p1316
aVpowerpc-smp
p1317
aVpowerpc64
p1318
asg230
I01
ss(Vbase
p1319
Vppc64
p1320
tp1321
(dp1322
Vdefault-flavour
p1323
Vpowerpc64
p1324
sVkernel-arch
p1325
Vpowerpc
p1326
sg190
(lp1327
g192
ass(Vbuild
p1328
g1320
tp1329
(dp1330
Vimage-file
p1331
Vvmlinux
p1332
ss(Vimage
p1333
g1320
tp1334
(dp1335
Vconfigs
p1336
(lp1337
sVbootloaders
p1338
(lp1339
Vgrub-ieee1275
p1340
asVsuggests
p1341
(lp1342
Vmkvmlinuz
p1343
asVinstall-stem
p1344
Vvmlinux
p1345
ss(Vdescription
p1346
g1320
NVpowerpc64
p1347
tp1348
(dp1349
Vhardware
p1350
V64-bit PowerPC
p1351
ss(Vimage
p1352
g1320
NVpowerpc64
p1353
tp1354
(dp1355
Vconfigs
p1356
(lp1357
Vkernelarch-powerpc/config-arch-64
p1358
aVkernelarch-powerpc/config-arch-64-be
p1359
ass(g223
g1320
g192
tp1360
(dp1361
g226
(lp1362
Vpowerpc64
p1363
asg230
I01
ss(Vbase
p1364
Vppc64el
p1365
tp1366
(dp1367
Vdefault-flavour
p1368
Vpowerpc64le
p1369
sVkernel-arch
p1370
Vpowerpc
p1371
sg190
(lp1372
g192
ass(Vbuild
p1373
g1365
tp1374
(dp1375
Vimage-file
p1376
Vvmlinux
p1377
ss(Vimage
p1378
g1365
tp1379
(dp1380
Vconfigs
p1381
(lp1382
sVbootloaders
p1383
(lp1384
Vgrub-ieee1275
p1385
asVsuggests
p1386
(lp1387
Vmkvmlinuz
p1388
asVinstall-stem
p1389
Vvmlinux
p1390
ss(Vdescription
p1391
g1365
NVpowerpc64le
p1392
tp1393
(dp1394
Vhardware
p1395
VLittle-endian 64-bit PowerPC
p1396
ss(Vimage
p1397
g1365
NVpowerpc64le
p1398
tp1399
(dp1400
Vconfigs
p1401
(lp1402
Vkernelarch-powerpc/config-arch-64
p1403
aVkernelarch-powerpc/config-arch-64-le
p1404
ass(g223
g1365
g192
tp1405
(dp1406
g226
(lp1407
Vpowerpc64le
p1408
asg230
I01
ss(Vbase
p1409
Vriscv64
p1410
tp1411
(dp1412
Vkernel-arch
p1413
Vriscv
p1414
sVfeaturesets
p1415
(lp1416
Vnone
p1417
ass(Vbuild
p1418
g1410
tp1419
(dp1420
Vimage-file
p1421
Varch/riscv/boot/Image
p1422
sVvdso
p1423
I01
ss(Vimage
p1424
g1410
tp1425
(dp1426
Vinstall-stem
p1427
Vvmlinux
p1428
ss(Vdescription
p1429
g1410
NVriscv64
p1430
tp1431
(dp1432
Vhardware
p1433
V64-bit RISC-V platforms
p1434
sVhardware-long
p1435
V64-bit RISC-V platforms
p1436
ss(Vbase
p1437
g1410
Vnone
p1438
tp1439
(dp1440
Vflavours
p1441
(lp1442
Vriscv64
p1443
asVdefault-flavour
p1444
Vriscv64
p1445
ss(Vbase
p1446
Vs390
p1447
tp1448
(dp1449
Vkernel-arch
p1450
Vs390
p1451
sVfeaturesets
p1452
(lp1453
ss(Vbase
p1454
Vs390x
p1455
tp1456
(dp1457
Vdefault-flavour
p1458
Vs390x
p1459
sVkernel-arch
p1460
Vs390
p1461
sg190
(lp1462
g192
ass(Vbuild
p1463
g1455
tp1464
(dp1465
Vimage-file
p1466
Varch/s390/boot/bzImage
p1467
sVvdso
p1468
I01
ss(Vimage
p1469
g1455
tp1470
(dp1471
Vbootloaders
p1472
(lp1473
Vs390-tools
p1474
asVinstall-stem
p1475
Vvmlinuz
p1476
ss(Vrelations
p1477
g1455
tp1478
(dp1479
Vheaders%gcc-11
p1480
Vlinux-compiler-gcc-11-s390
p1481
ss(Vdescription
p1482
g1455
NVs390x
p1483
tp1484
(dp1485
Vhardware
p1486
VIBM zSeries
p1487
ss(g223
g1455
g192
tp1488
(dp1489
g226
(lp1490
Vs390x
p1491
asg230
I01
ss(Vbase
p1492
Vsh3
p1493
tp1494
(dp1495
Vkernel-arch
p1496
Vsh
p1497
sVfeaturesets
p1498
(lp1499
ss(Vbase
p1500
Vsh4
p1501
tp1502
(dp1503
Vkernel-arch
p1504
Vsh
p1505
sg190
(lp1506
g192
ass(Vbuild
p1507
g1501
tp1508
(dp1509
Vimage-file
p1510
Varch/sh/boot/zImage
p1511
ss(Vimage
p1512
g1501
tp1513
(dp1514
Vinstall-stem
p1515
Vvmlinuz
p1516
ss(Vdescription
p1517
g1501
NVsh7751r
p1518
tp1519
(dp1520
Vhardware
p1521
Vsh7751r
p1522
sVhardware-long
p1523
VRenesas SH7751R R2D plus board
p1524
ss(Vdescription
p1525
g1501
NVsh7785lcr
p1526
tp1527
(dp1528
Vhardware
p1529
Vsh7785lcr
p1530
sVhardware-long
p1531
VRenesas SH7785 reference board
p1532
ss(Vimage
p1533
g1501
NVsh7785lcr
p1534
tp1535
(dp1536
Vrecommends
p1537
(lp1538
Vu-boot-tools
p1539
asVcheck-size
p1540
I4194304
ss(g223
g1501
g192
tp1541
(dp1542
g226
(lp1543
Vsh7751r
p1544
aVsh7785lcr
p1545
asg230
I01
ss(Vbase
p1546
Vsparc
p1547
tp1548
(dp1549
Vkernel-arch
p1550
Vsparc
p1551
sVfeaturesets
p1552
(lp1553
ss(Vbase
p1554
Vsparc64
p1555
tp1556
(dp1557
Vdefault-flavour
p1558
Vsparc64-smp
p1559
sVkernel-arch
p1560
Vsparc
p1561
sg190
(lp1562
g192
ass(Vbuild
p1563
g1555
tp1564
(dp1565
Vimage-file
p1566
Vvmlinux
p1567
ss(Vimage
p1568
g1555
tp1569
(dp1570
Vconfigs
p1571
(lp1572
sVbootloaders
p1573
(lp1574
Vgrub-ieee1275
p1575
asVsuggests
p1576
(lp1577
Vfdutils
p1578
asVinstall-stem
p1579
Vvmlinux
p1580
ss(Vdescription
p1581
g1555
NVsparc64
p1582
tp1583
(dp1584
Vhardware
p1585
Vuniprocessor 64-bit UltraSPARC
p1586
ss(Vimage
p1587
g1555
NVsparc64
p1588
tp1589
(dp1590
Vconfigs
p1591
(lp1592
Vkernelarch-sparc/config-up
p1593
ass(Vdescription
p1594
g1555
NVsparc64-smp
p1595
tp1596
(dp1597
Vhardware
p1598
Vmultiprocessor 64-bit UltraSPARC
p1599
ss(Vimage
p1600
g1555
NVsparc64-smp
p1601
tp1602
(dp1603
Vconfigs
p1604
(lp1605
Vkernelarch-sparc/config-smp
p1606
ass(g223
g1555
g192
tp1607
(dp1608
g226
(lp1609
Vsparc64
p1610
aVsparc64-smp
p1611
asg230
I01
ss(Vbase
p1612
Vx32
p1613
tp1614
(dp1615
Vkernel-arch
p1616
Vx86
p1617
sVfeaturesets
p1618
(lp1619
ss(Vabi
p1620
NVrt
p1621
tp1622
(dp1623
Vignore-changes
p1624
(lp1625
V*
p1626
ass(Vdescription
p1627
Ng1621
tp1628
(dp1629
Vpart-long-rt
p1630
VThis kernel includes the PREEMPT_RT realtime patch set.
p1631
sVpart-short-rt
p1632
VPREEMPT_RT
p1633
sVparts
p1634
(lp1635
Vrt
p1636
ass(Vversion
p1637
tp1638
(dp1639
Vsource
p1640
V5.16.12-1
p1641
sVupstream
p1642
V5.16
p1643
sVabiname_base
p1644
V5.16.0
p1645
sVabiname
p1646
V5.16.0-12parrot1
p1647
ss.