ccopy_reg
_reconstructor
p0
(cdebian_linux.config
ConfigCore
p1
c__builtin__
dict
p2
(dp3
(Vrelations
p4
tp5
(dp6
Vinitramfs-tools
p7
Vinitramfs-tools (>= 0.110~)
p8
sVgcc-5
p9
Vgcc-5 <!stage1 !cross>, gcc-5-@gnu-type-package@:native <!stage1 cross>
p10
sVinitramfs-fallback
p11
Vlinux-initramfs-tool
p12
ss(Vbuild
p13
Vs390x
p14
NVs390x
p15
tp16
(dp17
Vdebug-info
p18
I01
ss(Vbase
p19
Vmipsel
p20
Vnone
p21
tp22
(dp23
Vflavours
p24
(lp25
V4kc-malta
p26
aV5kc-malta
p27
aVloongson-3
p28
aVocteon
p29
asVimplicit-flavour
p30
I01
ss(Vdescription
p31
Varmel
p32
NVmarvell
p33
tp34
(dp35
Vhardware
p36
VMarvell Kirkwood/Orion
p37
sVhardware-long
p38
VMarvell Kirkwood based systems (SheevaPlug, QNAP TS-119/TS-219, etc)\u000aand Orion 5181, 5182 and 5281 based systems (QNAP TS-109/TS-209, etc)
p39
ss(Vbase
p40
g20
tp41
(dp42
Vkernel-arch
p43
Vmips
p44
sVfeaturesets
p45
(lp46
g21
ass(Vdescription
p47
Vamd64
p48
NVamd64
p49
tp50
(dp51
Vhardware
p52
V64-bit PCs
p53
sVhardware-long
p54
VPCs with AMD64, Intel 64 or VIA Nano processors
p55
ss(Vbase
p56
g32
tp57
(dp58
Vkernel-arch
p59
Varm
p60
sg45
(lp61
g21
ass(Vimage
p62
Vppc64el
p63
tp64
(dp65
Vconfigs
p66
(lp67
sVinstall-stem
p68
Vvmlinux
p69
sVsuggests
p70
Vmkvmlinuz
p71
ss(Vbuild
p72
Vpowerpcspe
p73
tp74
(dp75
Vvdso
p76
I01
sVimage-file
p77
Vvmlinux
p78
sVsigned-modules
p79
I00
ss(Vimage
p80
g20
NVocteon
p81
tp82
(dp83
Vconfigs
p84
(lp85
Vkernelarch-mips/config.octeon
p86
ass(Vabi
p87
NVrt
p88
tp89
(dp90
Vignore-changes
p91
(lp92
V*
p93
ass(Vdescription
p94
Vi386
p95
Vnone
p96
V686-pae
p97
tp98
(dp99
Vparts
p100
(lp101
Vxen
p102
ass(Vimage
p103
Vmips
p104
NV5kc-malta
p105
tp106
(dp107
Vconfigs
p108
(lp109
Vkernelarch-mips/config.malta
p110
aVkernelarch-mips/config.mips64r2
p111
ass(Vbase
p112
Vppc64
p113
tp114
(dp115
Vkernel-arch
p116
Vpowerpc
p117
sg45
(lp118
g21
ass(Vversion
p119
tp120
(dp121
Vsource
p122
V4.8.11-2parrot0
p123
sVabiname
p124
V4.8.0-parrot
p125
sVupstream
p126
V4.8
p127
sVabiname_base
p128
V4.8.0
p129
ss(Vimage
p130
tp131
(dp132
Vinitramfs-generators
p133
(lp134
Vinitramfs-tools
p135
aVinitramfs-fallback
p136
ass(Vbase
p137
Vmipsn32
p138
tp139
(dp140
Vkernel-arch
p141
Vmips
p142
sVfeaturesets
p143
(lp144
ss(Vdescription
p145
g20
NV4kc-malta
p146
tp147
(dp148
Vhardware
p149
VMIPS Malta
p150
sVhardware-long
p151
VMIPS Malta boards
p152
ss(Vbuild
p153
tp154
(dp155
Vsigned-modules
p156
I01
sVdebug-info
p157
I01
ss(Vrelations
p158
g95
tp159
(dp160
Vheaders%gcc-5
p161
Vlinux-compiler-gcc-5-x86
p162
ss(Vbuild
p163
Vhppa
p164
tp165
(dp166
Vimage-file
p167
Vvmlinux
p168
sVsigned-modules
p169
I00
ss(Vbuild
p170
Vsh4
p171
tp172
(dp173
Vimage-file
p174
Varch/sh/boot/zImage
p175
sVsigned-modules
p176
I00
ss(Vdescription
p177
Vmips64el
p178
NVloongson-3
p179
tp180
(dp181
Vhardware
p182
VLoongson 3A/3B
p183
sVhardware-long
p184
VLoongson 3A or 3B based systems (e.g. from Loongson or Lemote)
p185
ss(Vimage
p186
Vpowerpc
p187
NVpowerpc64
p188
tp189
(dp190
Vconfigs
p191
(lp192
Vkernelarch-powerpc/config-arch-64
p193
aVkernelarch-powerpc/config-arch-64-be
p194
ass(Vimage
p195
g187
NVpowerpc-smp
p196
tp197
(dp198
Vconfigs
p199
(lp200
Vpowerpc/config.powerpc
p201
aVpowerpc/config.powerpc-smp
p202
ass(Vdescription
p203
g187
NVpowerpc
p204
tp205
(dp206
Vhardware
p207
Vuniprocessor 32-bit PowerPC
p208
ss(Vbase
p209
g187
tp210
(dp211
Vkernel-arch
p212
Vpowerpc
p213
sg45
(lp214
g21
ass(Vdescription
p215
Ng88
tp216
(dp217
Vparts
p218
(lp219
Vrt
p220
asVpart-short-rt
p221
VPREEMPT_RT
p222
sVpart-long-rt
p223
VThis kernel includes the PREEMPT_RT realtime patch set.
p224
ss(Vimage
p225
g113
NVpowerpc64
p226
tp227
(dp228
Vconfigs
p229
(lp230
Vkernelarch-powerpc/config-arch-64
p231
aVkernelarch-powerpc/config-arch-64-be
p232
ass(Vbase
p233
g63
tp234
(dp235
Vkernel-arch
p236
Vpowerpc
p237
sg45
(lp238
g21
ass(Vdescription
p239
g48
Vnone
p240
Vamd64
p241
tp242
(dp243
Vparts
p244
(lp245
Vxen
p246
ass(Vbuild
p247
g20
tp248
(dp249
Vimage-file
p250
Vvmlinux
p251
sVsigned-modules
p252
I00
ss(Vimage
p253
g104
NVocteon
p254
tp255
(dp256
Vconfigs
p257
(lp258
Vkernelarch-mips/config.octeon
p259
ass(Vbuild
p260
g14
tp261
(dp262
Vvdso
p263
I01
sVimage-file
p264
Varch/s390/boot/image
p265
ss(Vbase
p266
Varm64
p267
Vnone
p268
tp269
(dp270
Vflavours
p271
(lp272
Varm64
p273
ass(Vimage
p274
g267
NVarm64
p275
tp276
(dp277
s(Vimage
p278
g164
tp279
(dp280
Vsuggests
p281
Vpalo
p282
sVinstall-stem
p283
Vvmlinux
p284
ss(Vbase
p285
Vm68k
p286
tp287
(dp288
Vcflags
p289
V-ffreestanding
p290
sg45
(lp291
g21
asVkernel-arch
p292
Vm68k
p293
ss(Vbase
p294
Vmips64
p295
tp296
(dp297
Vkernel-arch
p298
Vmips
p299
sg45
(lp300
g21
ass(g19
g63
g21
tp301
(dp302
g24
(lp303
Vpowerpc64le
p304
asg30
I01
ss(Vdescription
p305
g178
NV5kc-malta
p306
tp307
(dp308
Vhardware
p309
VMIPS Malta
p310
sVhardware-long
p311
VMIPS Malta boards
p312
ss(Vimage
p313
g63
NVpowerpc64le
p314
tp315
(dp316
Vconfigs
p317
(lp318
Vkernelarch-powerpc/config-arch-64
p319
aVkernelarch-powerpc/config-arch-64-le
p320
ass(Vdescription
p321
g164
NVparisc64-smp
p322
tp323
(dp324
Vhardware
p325
Vmultiprocessor 64-bit PA-RISC
p326
sVhardware-long
p327
VHP PA-RISC 64-bit SMP systems with support for more than 4 GB RAM
p328
ss(Vdescription
p329
g295
NV5kc-malta
p330
tp331
(dp332
Vhardware
p333
VMIPS Malta
p334
sVhardware-long
p335
VMIPS Malta boards
p336
ss(Vimage
p337
g295
NV5kc-malta
p338
tp339
(dp340
Vconfigs
p341
(lp342
Vkernelarch-mips/config.malta
p343
aVkernelarch-mips/config.mips64r2
p344
ass(g19
g295
g21
tp345
(dp346
g24
(lp347
V5kc-malta
p348
aVocteon
p349
asg30
I01
ss(Vxen
p350
g48
g240
Vamd64
p351
tp352
(dp353
Vflavours
p354
(lp355
Vamd64
p356
ass(Vdescription
p357
g95
NV686-pae
p358
tp359
(dp360
Vhardware
p361
Vmodern PCs
p362
sVhardware-long
p363
VPCs with one or more processors supporting PAE
p364
sVparts
p365
(lp366
Vpae
p367
ass(Vimage
p368
Vsparc64
p369
NVsparc64-smp
p370
tp371
(dp372
Vconfigs
p373
(lp374
Vkernelarch-sparc/config-smp
p375
ass(g19
g73
g21
tp376
(dp377
g24
(lp378
Vpowerpcspe
p379
asg30
I01
ss(Vimage
p380
g178
tp381
(dp382
Vinstall-stem
p383
Vvmlinux
p384
ss(Vbase
p385
Vsparc
p386
tp387
(dp388
Vkernel-arch
p389
Vsparc
p390
sVfeaturesets
p391
(lp392
ss(Vimage
p393
g20
NV4kc-malta
p394
tp395
(dp396
Vconfigs
p397
(lp398
Vkernelarch-mips/config.malta
p399
aVkernelarch-mips/config.mips32r2
p400
ass(Vbase
p401
g369
tp402
(dp403
Vkernel-arch
p404
Vsparc
p405
sg45
(lp406
g21
ass(Vdescription
p407
g73
tp408
(dp409
Vhardware
p410
V32-bit PowerPC with SPE (instead of AltiVec) with SMP support
p411
ss(Vbase
p412
g95
Vrt
p413
tp414
(dp415
Vflavours
p416
(lp417
V686-pae
p418
ass(Vdescription
p419
g187
NVpowerpc-smp
p420
tp421
(dp422
Vhardware
p423
Vmultiprocessor 32-bit PowerPC
p424
ss(g19
g14
g21
tp425
(dp426
g24
(lp427
Vs390x
p428
asg30
I01
ss(Vimage
p429
g187
tp430
(dp431
Vconfigs
p432
(lp433
sVinstall-stem
p434
Vvmlinux
p435
sVsuggests
p436
Vmkvmlinuz
p437
ss(Vbuild
p438
g267
tp439
(dp440
Vvdso
p441
I01
sVimage-file
p442
Varch/arm64/boot/Image
p443
sVsigned-modules
p444
I00
sVdebug-info
p445
I01
ss(Vbase
p446
Vs390
p447
tp448
(dp449
Vkernel-arch
p450
Vs390
p451
sVfeaturesets
p452
(lp453
ss(g19
Varmhf
p454
g21
tp455
(dp456
g24
(lp457
Varmmp
p458
aVarmmp-lpae
p459
asg30
I01
ss(Vimage
p460
g95
tp461
(dp462
Vinstall-stem
p463
Vvmlinuz
p464
sVbreaks
p465
Vxserver-xorg-input-vmmouse (<< 1:13.0.99)
p466
sVbootloaders
p467
(lp468
Vgrub-pc
p469
aVextlinux
p470
ass(Vimage
p471
g267
tp472
(dp473
Vinstall-stem
p474
Vvmlinuz
p475
ss(Vbuild
p476
Valpha
p477
tp478
(dp479
Vimage-file
p480
Varch/alpha/boot/vmlinux.gz
p481
sVsigned-modules
p482
I00
ss(Vbuild
p483
g95
tp484
(dp485
Vvdso
p486
I01
sVimage-file
p487
Varch/x86/boot/bzImage
p488
sVsigned-modules
p489
I00
ss(Vbase
p490
Vor1k
p491
tp492
(dp493
Vkernel-arch
p494
Vopenrisc
p495
sVfeaturesets
p496
(lp497
ss(Vrelations
p498
g32
tp499
(dp500
Vheaders%gcc-5
p501
Vlinux-compiler-gcc-5-arm
p502
ss(g19
g104
g21
tp503
(dp504
g24
(lp505
V4kc-malta
p506
aV5kc-malta
p507
aVocteon
p508
asg30
I01
ss(Vbuild
p509
g104
tp510
(dp511
Vimage-file
p512
Vvmlinux
p513
sVsigned-modules
p514
I00
ss(Vbase
p515
g454
tp516
(dp517
Vkernel-arch
p518
Varm
p519
sg45
(lp520
g21
ass(Vimage
p521
g454
tp522
(dp523
Vinstall-stem
p524
Vvmlinuz
p525
ss(g19
g286
g21
tp526
(dp527
g24
(lp528
Vm68k
p529
asg30
I01
ss(Vimage
p530
g104
tp531
(dp532
Vinstall-stem
p533
Vvmlinux
p534
ss(Vdescription
p535
g14
NVs390x
p536
tp537
(dp538
Vhardware
p539
VIBM zSeries
p540
ss(Vimage
p541
g295
NVocteon
p542
tp543
(dp544
Vconfigs
p545
(lp546
Vkernelarch-mips/config.octeon
p547
ass(Vbase
p548
g48
Vrt
p549
tp550
(dp551
Vflavours
p552
(lp553
Vamd64
p554
ass(Vdescription
p555
g454
NVarmmp
p556
tp557
(dp558
Vhardware
p559
VARMv7 multiplatform compatible SoCs
p560
sVhardware-long
p561
VARMv7 multiplatform kernel. See\u000ahttps://wiki.debian.org/DebianKernel/ARMMP for details of supported\u000aplatforms
p562
ss(Vdescription
p563
g95
NV686
p564
tp565
(dp566
Vhardware
p567
Volder PCs
p568
sVhardware-long
p569
VPCs with one or more processors not supporting PAE
p570
ss(g19
g178
g21
tp571
(dp572
g24
(lp573
V5kc-malta
p574
aVloongson-3
p575
aVocteon
p576
asg30
I01
ss(Vbase
p577
g171
tp578
(dp579
Vkernel-arch
p580
Vsh
p581
sg45
(lp582
g21
ass(Vdescription
p583
g477
NValpha-smp
p584
tp585
(dp586
Vhardware
p587
VAlpha SMP
p588
sVhardware-long
p589
VDEC Alpha SMP systems with extended kernel start address (Wildfire, Titan, Marvel)
p590
ss(Vdescription
p591
g32
NVversatile
p592
tp593
(dp594
Vhardware
p595
VVersatile
p596
sVhardware-long
p597
VVersatile systems (PB, AB, Qemu)
p598
ss(Vbuild
p599
g187
tp600
(dp601
Vvdso
p602
I01
sVimage-file
p603
Vvmlinux
p604
ss(Vdescription
p605
g369
NVsparc64-smp
p606
tp607
(dp608
Vhardware
p609
Vmultiprocessor 64-bit UltraSPARC
p610
ss(Vdescription
p611
g171
NVsh7751r
p612
tp613
(dp614
Vhardware
p615
Vsh7751r
p616
sVhardware-long
p617
VRenesas SH7751R R2D plus board
p618
ss(Vbase
p619
g95
g96
tp620
(dp621
Vflavours
p622
(lp623
V686
p624
aV686-pae
p625
ass(Vimage
p626
g113
tp627
(dp628
Vconfigs
p629
(lp630
sVinstall-stem
p631
Vvmlinux
p632
sVsuggests
p633
Vmkvmlinuz
p634
ss(Vdescription
p635
g171
NVsh7785lcr
p636
tp637
(dp638
Vhardware
p639
Vsh7785lcr
p640
sVhardware-long
p641
VRenesas SH7785 reference board
p642
ss(Vimage
p643
g178
NVocteon
p644
tp645
(dp646
Vconfigs
p647
(lp648
Vkernelarch-mips/config.octeon
p649
ass(Vbase
p650
g14
tp651
(dp652
Vkernel-arch
p653
Vs390
p654
sg45
(lp655
g21
ass(Vrelations
p656
g14
tp657
(dp658
Vheaders%gcc-5
p659
Vlinux-compiler-gcc-5-s390
p660
ss(Vimage
p661
g20
NV5kc-malta
p662
tp663
(dp664
Vconfigs
p665
(lp666
Vkernelarch-mips/config.malta
p667
aVkernelarch-mips/config.mips64r2
p668
ass(Vabi
p669
tp670
(dp671
Vabiname
p672
Vparrot
p673
ss(Vrelations
p674
g454
tp675
(dp676
Vheaders%gcc-5
p677
Vlinux-compiler-gcc-5-arm
p678
ss(Vbase
p679
g164
NVparisc64-smp
p680
tp681
(dp682
Voverride-host-type
p683
Vhppa64-linux-gnu
p684
sVcflags
p685
V-fno-cse-follow-jumps
p686
ss(Vbase
p687
g104
tp688
(dp689
Vkernel-arch
p690
Vmips
p691
sg45
(lp692
g21
ass(Vdescription
p693
g454
NVarmmp-lpae
p694
tp695
(dp696
Vhardware
p697
VARMv7 multiplatform compatible SoCs supporting LPAE
p698
sVhardware-long
p699
VARMv7 multiplatform kernel supporting LPAE. See\u000ahttps://wiki.debian.org/DebianKernel/ARMMP for details of supported\u000aplatforms.
p700
ss(Vimage
p701
g171
NVsh7785lcr
p702
tp703
(dp704
Vrecommends
p705
Vu-boot-tools
p706
sVcheck-size
p707
L4194304L
ss(Vdescription
p708
g113
NVpowerpc64
p709
tp710
(dp711
Vhardware
p712
V64-bit PowerPC
p713
ss(Vdescription
p714
g20
NV5kc-malta
p715
tp716
(dp717
Vhardware
p718
VMIPS Malta (64-bit)
p719
sVhardware-long
p720
VMIPS Malta boards (64-bit)
p721
ss(Vdescription
p722
g164
NVparisc
p723
tp724
(dp725
Vhardware
p726
V32-bit PA-RISC
p727
sVhardware-long
p728
VHP PA-RISC 32-bit systems with max 4 GB RAM
p729
ss(Vimage
p730
g295
tp731
(dp732
Vinstall-stem
p733
Vvmlinux
p734
ss(Vbase
p735
g73
tp736
(dp737
Vkernel-arch
p738
Vpowerpc
p739
sg45
(lp740
g21
ass(Vbuild
p741
g295
tp742
(dp743
Vimage-file
p744
Vvmlinux
p745
sVsigned-modules
p746
I00
ss(Vimage
p747
g73
tp748
(dp749
Vsuggests
p750
Vmkvmlinuz
p751
sVinstall-stem
p752
Vvmlinux
p753
ss(Vimage
p754
g32
tp755
(dp756
Vinstall-stem
p757
Vvmlinuz
p758
ss(g19
g187
g21
tp759
(dp760
g24
(lp761
Vpowerpc
p762
aVpowerpc-smp
p763
aVpowerpc64
p764
asg30
I01
ss(g19
g477
g21
tp765
(dp766
g24
(lp767
Valpha-generic
p768
aValpha-smp
p769
asg30
I01
ss(Vdescription
p770
g104
NV5kc-malta
p771
tp772
(dp773
Vhardware
p774
VMIPS Malta (64-bit)
p775
sVhardware-long
p776
VMIPS Malta boards (64-bit)
p777
ss(Vimage
p778
g104
NV4kc-malta
p779
tp780
(dp781
Vconfigs
p782
(lp783
Vkernelarch-mips/config.malta
p784
aVkernelarch-mips/config.mips32r2
p785
ass(g19
g164
g21
tp786
(dp787
g24
(lp788
Vparisc
p789
aVparisc64-smp
p790
asg30
I01
ss(Vbase
p791
NVrt
p792
tp793
(dp794
Venabled
p795
I01
ss(Vdescription
p796
g267
NVarm64
p797
tp798
(dp799
Vhardware
p800
V64-bit ARMv8 machines
p801
ss(Vrelations
p802
g164
tp803
(dp804
Vgcc-5
p805
Vgcc-5 <!stage1 !cross>, binutils-hppa64-linux-gnu <!stage1 !cross>, gcc-5-hppa64-linux-gnu <!stage1 !cross>, gcc-5-hppa-linux-gnu:native <!stage1 cross>, binutils-hppa64-linux-gnu:native <!stage1 cross>, gcc-5-hppa64-linux-gnu:native <!stage1 cross>
p806
ss(Vdescription
p807
g369
NVsparc64
p808
tp809
(dp810
Vhardware
p811
Vuniprocessor 64-bit UltraSPARC
p812
ss(Vimage
p813
g369
tp814
(dp815
Vconfigs
p816
(lp817
sVinstall-stem
p818
Vvmlinuz
p819
sVsuggests
p820
Vsilo, fdutils
p821
ss(Vdescription
p822
g187
NVpowerpc64
p823
tp824
(dp825
Vhardware
p826
V64-bit PowerPC
p827
ss(Vdescription
p828
g20
NVloongson-3
p829
tp830
(dp831
Vhardware
p832
VLoongson 3A/3B
p833
sVhardware-long
p834
VLoongson 3A or 3B based systems (e.g. from Loongson or Lemote)
p835
ss(Vbase
p836
tp837
(dp838
Varches
p839
(lp840
Valpha
p841
aVamd64
p842
aVarm64
p843
aVarmel
p844
aVarmhf
p845
aVhppa
p846
aVi386
p847
aVm68k
p848
aVmips
p849
aVmipsel
p850
aVmipsn32
p851
aVmipsn32el
p852
aVmips64
p853
aVmips64el
p854
aVor1k
p855
aVpowerpc
p856
aVpowerpcspe
p857
aVppc64
p858
aVppc64el
p859
aVs390
p860
aVs390x
p861
aVsh4
p862
aVsparc
p863
aVsparc64
p864
aVtilegx
p865
aVx32
p866
asVcompiler
p867
Vgcc-5
p868
sVfeaturesets
p869
(lp870
Vnone
p871
aVrt
p872
ass(Vbuild
p873
g178
tp874
(dp875
Vimage-file
p876
Vvmlinux
p877
sVsigned-modules
p878
I00
ss(Vimage
p879
g178
NV5kc-malta
p880
tp881
(dp882
Vconfigs
p883
(lp884
Vkernelarch-mips/config.malta
p885
aVkernelarch-mips/config.mips64r2
p886
ass(Vimage
p887
g171
tp888
(dp889
Vinstall-stem
p890
Vvmlinuz
p891
ss(Vbase
p892
g477
tp893
(dp894
Vkernel-arch
p895
Valpha
p896
sg45
(lp897
g21
ass(Vbase
p898
g48
g240
tp899
(dp900
Vflavours
p901
(lp902
Vamd64
p903
ass(Vbase
p904
g267
tp905
(dp906
Vkernel-arch
p907
Varm64
p908
sVfeaturesets
p909
(lp910
Vnone
p911
ass(Vdescription
p912
g295
NVocteon
p913
tp914
(dp915
Vhardware
p916
VOcteon
p917
sVhardware-long
p918
VCavium Networks Octeon
p919
ss(Vdescription
p920
g178
NVocteon
p921
tp922
(dp923
Vhardware
p924
VOcteon
p925
sVhardware-long
p926
VCavium Networks Octeon
p927
ss(Vdescription
p928
g20
NVocteon
p929
tp930
(dp931
Vhardware
p932
VOcteon
p933
sVhardware-long
p934
VCavium Networks Octeon
p935
ss(Vbase
p936
Vtilegx
p937
tp938
(dp939
Vkernel-arch
p940
Vtile
p941
sVfeaturesets
p942
(lp943
ss(Vimage
p944
g20
tp945
(dp946
Vinstall-stem
p947
Vvmlinux
p948
ss(Vdescription
p949
g63
NVpowerpc64le
p950
tp951
(dp952
Vhardware
p953
VLittle-endian 64-bit PowerPC
p954
ss(Vimage
p955
g14
tp956
(dp957
Vinstall-stem
p958
Vvmlinuz
p959
sVbootloaders
p960
(lp961
Vs390-tools
p962
ass(Vrelations
p963
g48
tp964
(dp965
Vheaders%gcc-5
p966
Vlinux-compiler-gcc-5-x86
p967
ss(Vbase
p968
g48
tp969
(dp970
Vkernel-arch
p971
Vx86
p972
sVfeaturesets
p973
(lp974
Vnone
p975
aVrt
p976
ass(Vbuild
p977
g286
tp978
(dp979
Vimage-file
p980
Vvmlinux.gz
p981
sVsigned-modules
p982
I00
ss(Vbuild
p983
g63
tp984
(dp985
Vvdso
p986
I01
sVimage-file
p987
Vvmlinux
p988
ss(Vbase
p989
g164
tp990
(dp991
Vkernel-arch
p992
Vparisc
p993
sg45
(lp994
g21
ass(Vimage
p995
g286
tp996
(dp997
Vsuggests
p998
Vvmelilo, fdutils
p999
sVinstall-stem
p1000
Vvmlinuz
p1001
ss(Vbuild
p1002
g454
tp1003
(dp1004
Vvdso
p1005
I01
sVimage-file
p1006
Varch/arm/boot/zImage
p1007
sVsigned-modules
p1008
I00
ss(Vdescription
p1009
g104
NVocteon
p1010
tp1011
(dp1012
Vhardware
p1013
VOcteon
p1014
sVhardware-long
p1015
VCavium Networks Octeon
p1016
ss(Vbuild
p1017
g32
tp1018
(dp1019
Vimage-file
p1020
Varch/arm/boot/zImage
p1021
sVsigned-modules
p1022
I00
ss(Vbase
p1023
g178
tp1024
(dp1025
Vkernel-arch
p1026
Vmips
p1027
sg45
(lp1028
g21
ass(Vbase
p1029
Vmipsn32el
p1030
tp1031
(dp1032
Vkernel-arch
p1033
Vmips
p1034
sVfeaturesets
p1035
(lp1036
ss(Vdescription
p1037
g104
NV4kc-malta
p1038
tp1039
(dp1040
Vhardware
p1041
VMIPS Malta
p1042
sVhardware-long
p1043
VMIPS Malta boards
p1044
ss(Vdescription
p1045
g286
NVm68k
p1046
tp1047
(dp1048
Vhardware
p1049
VMotorola MC68020+ family
p1050
ss(g19
g32
g21
tp1051
(dp1052
g24
(lp1053
Vmarvell
p1054
aVversatile
p1055
asg30
I01
ss(g19
g369
g21
tp1056
(dp1057
g24
(lp1058
Vsparc64
p1059
aVsparc64-smp
p1060
asg30
I01
ss(Vdescription
p1061
g477
NValpha-generic
p1062
tp1063
(dp1064
Vhardware
p1065
VAlpha
p1066
sVhardware-long
p1067
VDEC Alpha systems with extended kernel start address (Wildfire, Titan, Marvel)
p1068
ss(g19
g171
g21
tp1069
(dp1070
g24
(lp1071
Vsh7751r
p1072
aVsh7785lcr
p1073
asg30
I01
ss(Vimage
p1074
g369
NVsparc64
p1075
tp1076
(dp1077
Vconfigs
p1078
(lp1079
Vkernelarch-sparc/config-up
p1080
ass(Vbuild
p1081
g369
tp1082
(dp1083
Vimage-file
p1084
Varch/sparc/boot/zImage
p1085
sVsigned-modules
p1086
I00
ss(Vbuild
p1087
g95
NV686-pae
p1088
tp1089
(dp1090
Vdebug-info
p1091
I01
ss(Vdescription
p1092
tp1093
(dp1094
Vpart-long-up
p1095
VThis kernel is not suitable for SMP (multi-processor,\u000amulti-core or hyper-threaded) systems.
p1096
sVpart-long-xen
p1097
VThis kernel also runs on a Xen hypervisor.\u000aIt supports both privileged (dom0) and unprivileged (domU) operation.
p1098
ss(Vimage
p1099
g20
NVloongson-3
p1100
tp1101
(dp1102
Vconfigs
p1103
(lp1104
Vkernelarch-mips/config.loongson-3
p1105
ass(Vimage
p1106
g32
NVmarvell
p1107
tp1108
(dp1109
Vbreaks
p1110
Vflash-kernel (<< 3.57~)
p1111
sVcheck-size-with-dtb
p1112
I01
sVrecommends
p1113
Vu-boot-tools
p1114
sVcheck-size
p1115
L2097080L
ss(Vimage
p1116
g48
tp1117
(dp1118
Vinstall-stem
p1119
Vvmlinuz
p1120
sVbreaks
p1121
Vxserver-xorg-input-vmmouse (<< 1:13.0.99)
p1122
sVbootloaders
p1123
(lp1124
Vgrub-pc
p1125
aVgrub-efi-amd64
p1126
aVextlinux
p1127
ass(Vbuild
p1128
g113
tp1129
(dp1130
Vvdso
p1131
I01
sVimage-file
p1132
Vvmlinux
p1133
sVsigned-modules
p1134
I00
ss(g19
g113
g21
tp1135
(dp1136
g24
(lp1137
Vpowerpc64
p1138
asg30
I01
ss(Vimage
p1139
g178
NVloongson-3
p1140
tp1141
(dp1142
Vconfigs
p1143
(lp1144
Vkernelarch-mips/config.loongson-3
p1145
ass(Vbase
p1146
Vx32
p1147
tp1148
(dp1149
Vkernel-arch
p1150
Vx86
p1151
sVfeaturesets
p1152
(lp1153
ss(Vbuild
p1154
g48
tp1155
(dp1156
Vvdso
p1157
I01
sVimage-file
p1158
Varch/x86/boot/bzImage
p1159
sVsigned-modules
p1160
I00
sVdebug-info
p1161
I01
ss(Vimage
p1162
g477
tp1163
(dp1164
Vsuggests
p1165
Vaboot, fdutils
p1166
sVinstall-stem
p1167
Vvmlinuz
p1168
ss(Vdescription
p1169
g95
tp1170
(dp1171
Vpart-long-pae
p1172
VThis kernel requires PAE (Physical Address Extension).\u000aThis feature is supported by the Intel Pentium Pro/II/III/4/4M/D, Xeon,\u000aCore and Atom; AMD Geode NX, Athlon (K7), Duron, Opteron, Sempron,\u000aTurion or Phenom; Transmeta Efficeon; VIA C7; and some other processors.
p1173
ss(Vbase
p1174
g95
tp1175
(dp1176
Vkernel-arch
p1177
Vx86
p1178
sVfeaturesets
p1179
(lp1180
Vnone
p1181
aVrt
p1182
asstp1183
Rp1184
.