cdebian_linux.config
ConfigCore
p0
(tRp1
(Vabi
p2
tp3
(dp4
Vabiname
p5
Vparrot20
p6
sVignore-changes
p7
(lp8
V__cpuhp_*
p9
aV__xive_vm_h_*
p10
aVbpf_analyzer
p11
aVcxl_*
p12
aVdax_flush
p13
aVieee80211_nullfunc_get
p14
aVinet_add_protocol
p15
aVinet_del_protocol
p16
aViommu_device_*
p17
aVkvm_async_pf_task_wait
p18
aVkvmppc_*
p19
aVmm_iommu_*
p20
aVmv_mbus_*
p21
aVperf_*
p22
aVregister_cxl_calls
p23
aVregister_key_type
p24
aVunregister_cxl_calls
p25
aV*_hw_breakpoint
p26
aVmodule:arch/x86/kvm/*
p27
aVmodule:drivers/crypto/ccp/*
p28
aVmodule:drivers/hv/*
p29
aVmodule:drivers/gpu/drm/sun4i/*
p30
aVmodule:drivers/iio/**
p31
aVmodule:drivers/misc/cxl/*
p32
aVmodule:drivers/mtd/nand/*
p33
aVmodule:drivers/net/ethernet/**
p34
aVmodule:drivers/net/wireless/**
p35
aVmodule:drivers/nvdimm/*
p36
aVmodule:drivers/power/supply/bq27xxx_battery
p37
aVmodule:drivers/scsi/cxgbi/*
p38
aVmodule:drivers/scsi/libiscs*
p39
aVmodule:drivers/scsi/qla2xxx/qla2xxx
p40
aVmodule:drivers/scsi/ufs/*
p41
aVmodule:drivers/target/**
p42
aVmodule:drivers/usb/chipidea/**
p43
aVmodule:drivers/usb/gadget/**
p44
aVmodule:drivers/usb/host/**
p45
aVmodule:drivers/usb/musb/**
p46
aVmodule:fs/nfs/**
p47
aVmodule:net/ceph/libceph
p48
aVmodule:net/l2tp/**
p49
aVmodule:net/rxrpc/rxrpc
p50
aVmodule:sound/core/seq/**
p51
aVmodule:sound/firewire/snd-firewire-lib
p52
aVmodule:sound/pci/hda/*
p53
aVbtree_*
p54
aVvisitor*
p55
aVcan_rx_register
p56
aVip6_xmit
p57
aVmodule:net/dccp/dccp
p58
aVmodule:net/rds/rds
p59
aVdevfreq_*
p60
aVdevm_devfreq_*
p61
aVupdate_devfreq
p62
aVmodule:drivers/infiniband/**
p63
aVacpi_ec_add_query_handler
p64
aVacpi_ec_remove_query_handler
p65
aVfirst_ec
p66
aVdebugfs_create_automount
p67
aVmodule:drivers/iio/imu/inv_mpu6050/*
p68
aVdrm_crtc_accurate_vblank_count
p69
aVacpi_nfit_desc_init
p70
aVacpi_nfit_init
p71
aVloop_register_transfer
p72
ass(Vbase
p73
tp74
(dp75
Varches
p76
(lp77
Valpha
p78
aVamd64
p79
aVarm64
p80
aVarm64ilp32
p81
aVarmel
p82
aVarmhf
p83
aVhppa
p84
aVi386
p85
aVia64
p86
aVm68k
p87
aVmips
p88
aVmips64
p89
aVmips64el
p90
aVmips64r6
p91
aVmips64r6el
p92
aVmipsel
p93
aVmipsn32
p94
aVmipsn32el
p95
aVmipsn32r6
p96
aVmipsn32r6el
p97
aVmipsr6
p98
aVmipsr6el
p99
aVpowerpc
p100
aVpowerpcspe
p101
aVppc64
p102
aVppc64el
p103
aVriscv64
p104
aVs390
p105
aVs390x
p106
aVsh3
p107
aVsh4
p108
aVsparc
p109
aVsparc64
p110
aVx32
p111
asVcompiler
p112
Vgcc-7
p113
sVfeaturesets
p114
(lp115
Vnone
p116
aVrt
p117
ass(Vbuild
p118
tp119
(dp120
Vdebug-info
p121
I01
sVsigned-code
p122
I00
ss(Vbase
p123
NVrt
p124
tp125
(dp126
Venabled
p127
I01
ss(Vdescription
p128
tp129
(dp130
Vpart-long-up
p131
VThis kernel is not suitable for SMP (multi-processor,\u000amulti-core or hyper-threaded) systems.
p132
ss(Vimage
p133
tp134
(dp135
Vinitramfs-generators
p136
(lp137
Vinitramfs-tools
p138
aVinitramfs-fallback
p139
asVrecommends
p140
Vapparmor
p141
ss(Vrelations
p142
tp143
(dp144
Vgcc-7
p145
Vgcc-7 <!stage1 !cross>, gcc-7-@gnu-type-package@ <!stage1 cross>
p146
sVinitramfs-fallback
p147
Vlinux-initramfs-tool
p148
sVinitramfs-tools
p149
Vinitramfs-tools (>= 0.120+deb8u2)
p150
ss(Vbase
p151
Valpha
p152
tp153
(dp154
Vkernel-arch
p155
Valpha
p156
sVfeaturesets
p157
(lp158
Vnone
p159
ass(Vbuild
p160
g152
tp161
(dp162
Vimage-file
p163
Varch/alpha/boot/vmlinux.gz
p164
ss(Vimage
p165
g152
tp166
(dp167
Vsuggests
p168
Vaboot, fdutils
p169
sVinstall-stem
p170
Vvmlinuz
p171
ss(Vdescription
p172
g152
NValpha-generic
p173
tp174
(dp175
Vhardware
p176
VAlpha
p177
sVhardware-long
p178
VDEC Alpha systems with extended kernel start address (Wildfire, Titan, Marvel)
p179
ss(Vdescription
p180
g152
NValpha-smp
p181
tp182
(dp183
Vhardware
p184
VAlpha SMP
p185
sVhardware-long
p186
VDEC Alpha SMP systems with extended kernel start address (Wildfire, Titan, Marvel)
p187
ss(Vbase
p188
g152
g159
tp189
(dp190
Vflavours
p191
(lp192
Valpha-generic
p193
aValpha-smp
p194
asVimplicit-flavour
p195
I01
ss(Vbase
p196
Vamd64
p197
tp198
(dp199
Vfeaturesets
p200
(lp201
Vnone
p202
aVrt
p203
asVkernel-arch
p204
Vx86
p205
ss(Vbuild
p206
g197
tp207
(dp208
Vdebug-info
p209
I01
sVimage-file
p210
Varch/x86/boot/bzImage
p211
sVvdso
p212
I01
sVsigned-modules
p213
Vfalse
p214
ss(Vimage
p215
g197
tp216
(dp217
Vbootloaders
p218
(lp219
Vgrub-pc
p220
aVgrub-efi-amd64
p221
aVextlinux
p222
asVinstall-stem
p223
Vvmlinuz
p224
sVbreaks
p225
Vxserver-xorg-input-vmmouse (<< 1:13.0.99)
p226
ss(Vrelations
p227
g197
tp228
(dp229
Vgcc-7
p230
Vgcc-7 (>= 7.2.0-20~) <!stage1 !cross>, gcc-7-x86-64-linux-gnu (>= 7.2.0-20~) <!stage1 cross>
p231
sVheaders%gcc-7
p232
Vlinux-compiler-gcc-7-x86 (>= 4.14.17-1~)
p233
ss(Vdescription
p234
g197
NVamd64
p235
tp236
(dp237
Vhardware
p238
V64-bit PCs
p239
sVhardware-long
p240
VPCs with AMD64, Intel 64 or VIA Nano processors
p241
ss(Vdescription
p242
g197
NVcloud-amd64
p243
tp244
(dp245
Vhardware
p246
Vx86-64 cloud
p247
sVhardware-long
p248
VAmazon EC2, Google Compute Engine and Microsoft Azure cloud platforms
p249
ss(Vbase
p250
g197
Vnone
p251
tp252
(dp253
Vflavours
p254
(lp255
Vamd64
p256
aVcloud-amd64
p257
ass(Vbase
p258
g197
Vrt
p259
tp260
(dp261
Vflavours
p262
(lp263
Vamd64
p264
ass(Vbase
p265
Varm64
p266
tp267
(dp268
Vkernel-arch
p269
Varm64
p270
sVfeaturesets
p271
(lp272
Vnone
p273
aVrt
p274
ass(Vbuild
p275
g266
tp276
(dp277
Vdebug-info
p278
I01
sVimage-file
p279
Varch/arm64/boot/Image
p280
sVvdso
p281
I01
sVsigned-modules
p282
Vfalse
p283
ss(Vimage
p284
g266
tp285
(dp286
Vinstall-stem
p287
Vvmlinuz
p288
sVbreaks
p289
Vlibmozjs185-1.0, libmozjs-24-0 (<< 24.2.0-5.1~)
p290
ss(Vdescription
p291
g266
NVarm64
p292
tp293
(dp294
Vhardware
p295
V64-bit ARMv8 machines
p296
ss(Vimage
p297
g266
NVarm64
p298
tp299
(dp300
s(Vbase
p301
g266
Vnone
p302
tp303
(dp304
Vflavours
p305
(lp306
Varm64
p307
ass(Vbase
p308
g266
Vrt
p309
tp310
(dp311
Vflavours
p312
(lp313
Varm64
p314
ass(Vbase
p315
Varm64ilp32
p316
tp317
(dp318
Vkernel-arch
p319
Varm64
p320
sVfeaturesets
p321
(lp322
ss(Vbase
p323
Varmel
p324
tp325
(dp326
Vkernel-arch
p327
Varm
p328
sg157
(lp329
g159
ass(Vbuild
p330
g324
tp331
(dp332
Vimage-file
p333
Varch/arm/boot/zImage
p334
sVuncompressed-image-file
p335
Varch/arm/boot/Image
p336
ss(Vimage
p337
g324
tp338
(dp339
Vinstall-stem
p340
Vvmlinuz
p341
ss(Vrelations
p342
g324
tp343
(dp344
Vheaders%gcc-7
p345
Vlinux-compiler-gcc-7-arm
p346
ss(Vdescription
p347
g324
NVmarvell
p348
tp349
(dp350
Vhardware
p351
VMarvell Kirkwood/Orion
p352
sVhardware-long
p353
VMarvell Kirkwood and Orion based systems (https://wiki.debian.org/ArmEabiPort#Supported_hardware)
p354
ss(Vimage
p355
g324
NVmarvell
p356
tp357
(dp358
Vrecommends
p359
Vu-boot-tools
p360
sVcheck-size
p361
L2097080L
sVcheck-size-with-dtb
p362
I01
sVcheck-uncompressed-size
p363
L7340032L
sVbreaks
p364
Vflash-kernel (<< 3.57~)
p365
ss(g188
g324
g159
tp366
(dp367
g191
(lp368
Vmarvell
p369
asg195
I01
ss(Vbase
p370
Varmhf
p371
tp372
(dp373
Vfeaturesets
p374
(lp375
Vnone
p376
aVrt
p377
asVkernel-arch
p378
Varm
p379
ss(Vbuild
p380
g371
tp381
(dp382
Vimage-file
p383
Varch/arm/boot/zImage
p384
sVvdso
p385
I01
sVsigned-modules
p386
Vfalse
p387
ss(Vimage
p388
g371
tp389
(dp390
Vinstall-stem
p391
Vvmlinuz
p392
ss(Vrelations
p393
g371
tp394
(dp395
Vheaders%gcc-7
p396
Vlinux-compiler-gcc-7-arm
p397
ss(Vdescription
p398
g371
NVarmmp
p399
tp400
(dp401
Vhardware
p402
VARMv7 multiplatform compatible SoCs
p403
sVhardware-long
p404
VARMv7 multiplatform kernel. See\u000ahttps://wiki.debian.org/DebianKernel/ARMMP for details of supported\u000aplatforms
p405
ss(Vdescription
p406
g371
NVarmmp-lpae
p407
tp408
(dp409
Vhardware
p410
VARMv7 multiplatform compatible SoCs supporting LPAE
p411
sVhardware-long
p412
VARMv7 multiplatform kernel supporting LPAE. See\u000ahttps://wiki.debian.org/DebianKernel/ARMMP for details of supported\u000aplatforms.
p413
ss(Vbase
p414
g371
Vnone
p415
tp416
(dp417
Vflavours
p418
(lp419
Varmmp
p420
aVarmmp-lpae
p421
ass(Vbase
p422
g371
Vrt
p423
tp424
(dp425
Vflavours
p426
(lp427
Varmmp
p428
ass(Vbase
p429
Vhppa
p430
tp431
(dp432
Vkernel-arch
p433
Vparisc
p434
sg157
(lp435
g159
ass(Vbuild
p436
g430
tp437
(dp438
Vimage-file
p439
Varch/parisc/boot/bzImage
p440
sVdebug-info
p441
I00
ss(Vimage
p442
g430
tp443
(dp444
Vsuggests
p445
Vpalo
p446
sVinstall-stem
p447
Vvmlinuz
p448
ss(Vdescription
p449
g430
NVparisc
p450
tp451
(dp452
Vhardware
p453
V32-bit PA-RISC
p454
sVhardware-long
p455
VHP PA-RISC 32-bit systems with max 4 GB RAM
p456
ss(Vdescription
p457
g430
NVparisc-smp
p458
tp459
(dp460
Vhardware
p461
Vmultiprocessor 32-bit PA-RISC
p462
sVhardware-long
p463
VHP PA-RISC 32-bit SMP systems with max 4 GB RAM
p464
ss(Vbase
p465
g430
NVparisc64-smp
p466
tp467
(dp468
Vcflags
p469
V-fno-cse-follow-jumps
p470
sVoverride-host-type
p471
Vhppa64-linux-gnu
p472
ss(Vdescription
p473
g430
NVparisc64-smp
p474
tp475
(dp476
Vhardware
p477
Vmultiprocessor 64-bit PA-RISC
p478
sVhardware-long
p479
VHP PA-RISC 64-bit SMP systems with support for more than 4 GB RAM
p480
ss(Vrelations
p481
g430
tp482
(dp483
Vgcc-7
p484
Vgcc-7 <!stage1 !cross>, binutils-hppa64-linux-gnu <!stage1 !cross>, gcc-7-hppa64-linux-gnu <!stage1 !cross>, gcc-7-hppa-linux-gnu <!stage1 cross>, binutils-hppa64-linux-gnu <!stage1 cross>, gcc-7-hppa64-linux-gnu <!stage1 cross>
p485
ss(g188
g430
g159
tp486
(dp487
g191
(lp488
Vparisc
p489
aVparisc-smp
p490
aVparisc64-smp
p491
asg195
I01
ss(Vbase
p492
Vi386
p493
tp494
(dp495
Vfeaturesets
p496
(lp497
Vnone
p498
aVrt
p499
asVkernel-arch
p500
Vx86
p501
ss(Vbuild
p502
g493
tp503
(dp504
Vimage-file
p505
Varch/x86/boot/bzImage
p506
sVvdso
p507
I01
sVsigned-modules
p508
Vfalse
p509
ss(Vdescription
p510
g493
tp511
(dp512
Vpart-long-pae
p513
VThis kernel requires PAE (Physical Address Extension).\u000aThis feature is supported by the Intel Pentium Pro/II/III/4/4M/D, Xeon,\u000aCore and Atom; AMD Geode NX, Athlon (K7), Duron, Opteron, Sempron,\u000aTurion or Phenom; Transmeta Efficeon; VIA C7; and some other processors.
p514
ss(Vimage
p515
g493
tp516
(dp517
Vbootloaders
p518
(lp519
Vgrub-pc
p520
aVextlinux
p521
asVinstall-stem
p522
Vvmlinuz
p523
sVbreaks
p524
Vxserver-xorg-input-vmmouse (<< 1:13.0.99)
p525
ss(Vrelations
p526
g493
tp527
(dp528
Vgcc-7
p529
Vgcc-7 (>= 7.2.0-20~) <!stage1 !cross>, gcc-7-i686-linux-gnu (>= 7.2.0-20~) <!stage1 cross>
p530
sVheaders%gcc-7
p531
Vlinux-compiler-gcc-7-x86 (>= 4.14.17-1~)
p532
ss(Vdescription
p533
g493
NV686
p534
tp535
(dp536
Vhardware
p537
Volder PCs
p538
sVhardware-long
p539
VPCs with one or more processors not supporting PAE
p540
ss(Vbuild
p541
g493
NV686-pae
p542
tp543
(dp544
Vdebug-info
p545
I01
ss(Vdescription
p546
g493
NV686-pae
p547
tp548
(dp549
Vhardware
p550
Vmodern PCs
p551
sVhardware-long
p552
VPCs with one or more processors supporting PAE
p553
sVparts
p554
(lp555
Vpae
p556
ass(Vbase
p557
g493
Vnone
p558
tp559
(dp560
Vflavours
p561
(lp562
V686
p563
aV686-pae
p564
ass(Vbase
p565
g493
Vrt
p566
tp567
(dp568
Vflavours
p569
(lp570
V686-pae
p571
ass(Vbase
p572
Via64
p573
tp574
(dp575
Vkernel-arch
p576
Via64
p577
sg157
(lp578
g159
ass(Vbuild
p579
g573
tp580
(dp581
Vimage-file
p582
Vvmlinux.gz
p583
ss(Vimage
p584
g573
tp585
(dp586
Vbootloaders
p587
(lp588
Velilo
p589
asVinstall-stem
p590
Vvmlinuz
p591
ss(Vdescription
p592
g573
NVitanium
p593
tp594
(dp595
Vhardware
p596
VItanium (Merced)
p597
sVhardware-long
p598
Vsystems with original Itanium (Merced) processors
p599
ss(Vdescription
p600
g573
NVmckinley
p601
tp602
(dp603
Vhardware
p604
VItanium 2+
p605
sVhardware-long
p606
Vsystems with Itanium 2 or 9300/9500/9700-series processors
p607
ss(g188
g573
g159
tp608
(dp609
g191
(lp610
Vitanium
p611
aVmckinley
p612
asg195
I01
ss(Vbase
p613
Vm68k
p614
tp615
(dp616
Vcflags
p617
V-ffreestanding
p618
sVkernel-arch
p619
Vm68k
p620
sg157
(lp621
g159
ass(Vbuild
p622
g614
tp623
(dp624
Vimage-file
p625
Vvmlinux
p626
ss(Vimage
p627
g614
tp628
(dp629
Vsuggests
p630
Vvmelilo, fdutils
p631
sVinstall-stem
p632
Vvmlinux
p633
ss(Vdescription
p634
g614
NVm68k
p635
tp636
(dp637
Vhardware
p638
VMotorola MC68020+ family
p639
ss(g188
g614
g159
tp640
(dp641
g191
(lp642
Vm68k
p643
asg195
I01
ss(Vbase
p644
Vmips
p645
tp646
(dp647
Vkernel-arch
p648
Vmips
p649
sg157
(lp650
g159
ass(Vbuild
p651
g645
tp652
(dp653
Vimage-file
p654
Vvmlinux
p655
ss(Vimage
p656
g645
tp657
(dp658
Vinstall-stem
p659
Vvmlinux
p660
ss(Vdescription
p661
g645
NV4kc-malta
p662
tp663
(dp664
Vhardware
p665
VMIPS Malta
p666
sVhardware-long
p667
VMIPS Malta boards
p668
ss(Vimage
p669
g645
NV4kc-malta
p670
tp671
(dp672
Vconfigs
p673
(lp674
Vkernelarch-mips/config.malta
p675
aVkernelarch-mips/config.mips32r2
p676
ass(Vdescription
p677
g645
NV5kc-malta
p678
tp679
(dp680
Vhardware
p681
VMIPS Malta (64-bit)
p682
sVhardware-long
p683
VMIPS Malta boards (64-bit)
p684
ss(Vimage
p685
g645
NV5kc-malta
p686
tp687
(dp688
Vconfigs
p689
(lp690
Vkernelarch-mips/config.malta
p691
aVkernelarch-mips/config.mips64r2
p692
ass(Vdescription
p693
g645
NVocteon
p694
tp695
(dp696
Vhardware
p697
VOcteon
p698
sVhardware-long
p699
VCavium Networks Octeon
p700
ss(Vimage
p701
g645
NVocteon
p702
tp703
(dp704
Vconfigs
p705
(lp706
Vkernelarch-mips/config.octeon
p707
ass(g188
g645
g159
tp708
(dp709
g191
(lp710
V4kc-malta
p711
aV5kc-malta
p712
aVocteon
p713
asg195
I01
ss(Vbase
p714
Vmips64
p715
tp716
(dp717
Vkernel-arch
p718
Vmips
p719
sg157
(lp720
g159
ass(Vbuild
p721
g715
tp722
(dp723
Vimage-file
p724
Vvmlinux
p725
ss(Vimage
p726
g715
tp727
(dp728
Vinstall-stem
p729
Vvmlinux
p730
ss(Vdescription
p731
g715
NV5kc-malta
p732
tp733
(dp734
Vhardware
p735
VMIPS Malta
p736
sVhardware-long
p737
VMIPS Malta boards
p738
ss(Vimage
p739
g715
NV5kc-malta
p740
tp741
(dp742
Vconfigs
p743
(lp744
Vkernelarch-mips/config.malta
p745
aVkernelarch-mips/config.mips64r2
p746
ass(Vdescription
p747
g715
NVocteon
p748
tp749
(dp750
Vhardware
p751
VOcteon
p752
sVhardware-long
p753
VCavium Networks Octeon
p754
ss(Vimage
p755
g715
NVocteon
p756
tp757
(dp758
Vconfigs
p759
(lp760
Vkernelarch-mips/config.octeon
p761
ass(g188
g715
g159
tp762
(dp763
g191
(lp764
V5kc-malta
p765
aVocteon
p766
asg195
I01
ss(Vbase
p767
Vmips64el
p768
tp769
(dp770
Vkernel-arch
p771
Vmips
p772
sg157
(lp773
g159
ass(Vbuild
p774
g768
tp775
(dp776
Vimage-file
p777
Vvmlinux
p778
ss(Vimage
p779
g768
tp780
(dp781
Vinstall-stem
p782
Vvmlinux
p783
ss(Vdescription
p784
g768
NV5kc-malta
p785
tp786
(dp787
Vhardware
p788
VMIPS Malta
p789
sVhardware-long
p790
VMIPS Malta boards
p791
ss(Vimage
p792
g768
NV5kc-malta
p793
tp794
(dp795
Vconfigs
p796
(lp797
Vkernelarch-mips/config.malta
p798
aVkernelarch-mips/config.mips64r2
p799
ass(Vdescription
p800
g768
NVloongson-3
p801
tp802
(dp803
Vhardware
p804
VLoongson 3A/3B
p805
sVhardware-long
p806
VLoongson 3A or 3B based systems (e.g. from Loongson or Lemote)
p807
ss(Vimage
p808
g768
NVloongson-3
p809
tp810
(dp811
Vconfigs
p812
(lp813
Vkernelarch-mips/config.loongson-3
p814
ass(Vdescription
p815
g768
NVocteon
p816
tp817
(dp818
Vhardware
p819
VOcteon
p820
sVhardware-long
p821
VCavium Networks Octeon
p822
ss(Vimage
p823
g768
NVocteon
p824
tp825
(dp826
Vconfigs
p827
(lp828
Vkernelarch-mips/config.octeon
p829
ass(g188
g768
g159
tp830
(dp831
g191
(lp832
V5kc-malta
p833
aVloongson-3
p834
aVocteon
p835
asg195
I01
ss(Vbase
p836
Vmips64r6
p837
tp838
(dp839
Vkernel-arch
p840
Vmips
p841
sg157
(lp842
g159
ass(Vbuild
p843
g837
tp844
(dp845
Vimage-file
p846
Vvmlinux
p847
ss(Vimage
p848
g837
tp849
(dp850
Vinstall-stem
p851
Vvmlinux
p852
ss(Vdescription
p853
g837
NVmips64r6
p854
tp855
(dp856
Vhardware
p857
VMIPS R6 (64 bit, big endian)
p858
sVhardware-long
p859
VMIPS R6 (64 bit, big endian)
p860
ss(Vimage
p861
g837
NVmips64r6
p862
tp863
(dp864
Vconfigs
p865
(lp866
Vkernelarch-mips/config.boston
p867
aVkernelarch-mips/config.mips64r6
p868
ass(g188
g837
g159
tp869
(dp870
g191
(lp871
Vmips64r6
p872
asg195
I01
ss(Vbase
p873
Vmips64r6el
p874
tp875
(dp876
Vkernel-arch
p877
Vmips
p878
sg157
(lp879
g159
ass(Vbuild
p880
g874
tp881
(dp882
Vimage-file
p883
Vvmlinux
p884
ss(Vimage
p885
g874
tp886
(dp887
Vinstall-stem
p888
Vvmlinux
p889
ss(Vdescription
p890
g874
NVmips64r6el
p891
tp892
(dp893
Vhardware
p894
VMIPS R6 (64 bit, little endian)
p895
sVhardware-long
p896
VMIPS R6 (64 bit, little endian)
p897
ss(Vimage
p898
g874
NVmips64r6el
p899
tp900
(dp901
Vconfigs
p902
(lp903
Vkernelarch-mips/config.boston
p904
aVkernelarch-mips/config.mips64r6
p905
ass(g188
g874
g159
tp906
(dp907
g191
(lp908
Vmips64r6el
p909
asg195
I01
ss(Vbase
p910
Vmipsel
p911
tp912
(dp913
Vkernel-arch
p914
Vmips
p915
sg157
(lp916
g159
ass(Vbuild
p917
g911
tp918
(dp919
Vimage-file
p920
Vvmlinux
p921
ss(Vimage
p922
g911
tp923
(dp924
Vinstall-stem
p925
Vvmlinux
p926
ss(Vdescription
p927
g911
NV4kc-malta
p928
tp929
(dp930
Vhardware
p931
VMIPS Malta
p932
sVhardware-long
p933
VMIPS Malta boards
p934
ss(Vimage
p935
g911
NV4kc-malta
p936
tp937
(dp938
Vconfigs
p939
(lp940
Vkernelarch-mips/config.malta
p941
aVkernelarch-mips/config.mips32r2
p942
ass(Vdescription
p943
g911
NV5kc-malta
p944
tp945
(dp946
Vhardware
p947
VMIPS Malta (64-bit)
p948
sVhardware-long
p949
VMIPS Malta boards (64-bit)
p950
ss(Vimage
p951
g911
NV5kc-malta
p952
tp953
(dp954
Vconfigs
p955
(lp956
Vkernelarch-mips/config.malta
p957
aVkernelarch-mips/config.mips64r2
p958
ass(Vdescription
p959
g911
NVloongson-3
p960
tp961
(dp962
Vhardware
p963
VLoongson 3A/3B
p964
sVhardware-long
p965
VLoongson 3A or 3B based systems (e.g. from Loongson or Lemote)
p966
ss(Vimage
p967
g911
NVloongson-3
p968
tp969
(dp970
Vconfigs
p971
(lp972
Vkernelarch-mips/config.loongson-3
p973
ass(Vdescription
p974
g911
NVocteon
p975
tp976
(dp977
Vhardware
p978
VOcteon
p979
sVhardware-long
p980
VCavium Networks Octeon
p981
ss(Vimage
p982
g911
NVocteon
p983
tp984
(dp985
Vconfigs
p986
(lp987
Vkernelarch-mips/config.octeon
p988
ass(g188
g911
g159
tp989
(dp990
g191
(lp991
V4kc-malta
p992
aV5kc-malta
p993
aVloongson-3
p994
aVocteon
p995
asg195
I01
ss(Vbase
p996
Vmipsn32
p997
tp998
(dp999
Vkernel-arch
p1000
Vmips
p1001
sVfeaturesets
p1002
(lp1003
ss(Vbase
p1004
Vmipsn32el
p1005
tp1006
(dp1007
Vkernel-arch
p1008
Vmips
p1009
sVfeaturesets
p1010
(lp1011
ss(Vbase
p1012
Vmipsn32r6
p1013
tp1014
(dp1015
Vkernel-arch
p1016
Vmips
p1017
sVfeaturesets
p1018
(lp1019
ss(Vbase
p1020
Vmipsn32r6el
p1021
tp1022
(dp1023
Vkernel-arch
p1024
Vmips
p1025
sVfeaturesets
p1026
(lp1027
ss(Vbase
p1028
Vmipsr6
p1029
tp1030
(dp1031
Vkernel-arch
p1032
Vmips
p1033
sg157
(lp1034
g159
ass(Vbuild
p1035
g1029
tp1036
(dp1037
Vimage-file
p1038
Vvmlinux
p1039
ss(Vimage
p1040
g1029
tp1041
(dp1042
Vinstall-stem
p1043
Vvmlinux
p1044
ss(Vdescription
p1045
g1029
NVmips32r6
p1046
tp1047
(dp1048
Vhardware
p1049
VMIPS R6 (32 bit, big endian)
p1050
sVhardware-long
p1051
VMIPS R6 (32 bit, big endian)
p1052
ss(Vimage
p1053
g1029
NVmips32r6
p1054
tp1055
(dp1056
Vconfigs
p1057
(lp1058
Vkernelarch-mips/config.boston
p1059
aVkernelarch-mips/config.mips32r6
p1060
ass(Vdescription
p1061
g1029
NVmips64r6
p1062
tp1063
(dp1064
Vhardware
p1065
VMIPS R6 (64 bit, big endian)
p1066
sVhardware-long
p1067
VMIPS R6 (64 bit, big endian)
p1068
ss(Vimage
p1069
g1029
NVmips64r6
p1070
tp1071
(dp1072
Vconfigs
p1073
(lp1074
Vkernelarch-mips/config.boston
p1075
aVkernelarch-mips/config.mips64r6
p1076
ass(g188
g1029
g159
tp1077
(dp1078
g191
(lp1079
Vmips32r6
p1080
aVmips64r6
p1081
asg195
I01
ss(Vbase
p1082
Vmipsr6el
p1083
tp1084
(dp1085
Vkernel-arch
p1086
Vmips
p1087
sg157
(lp1088
g159
ass(Vbuild
p1089
g1083
tp1090
(dp1091
Vimage-file
p1092
Vvmlinux
p1093
ss(Vimage
p1094
g1083
tp1095
(dp1096
Vinstall-stem
p1097
Vvmlinux
p1098
ss(Vdescription
p1099
g1083
NVmips32r6el
p1100
tp1101
(dp1102
Vhardware
p1103
VMIPS R6 (32 bit, little endian)
p1104
sVhardware-long
p1105
VMIPS R6 (32 bit, little endian)
p1106
ss(Vimage
p1107
g1083
NVmips32r6el
p1108
tp1109
(dp1110
Vconfigs
p1111
(lp1112
Vkernelarch-mips/config.boston
p1113
aVkernelarch-mips/config.mips32r6
p1114
ass(Vdescription
p1115
g1083
NVmips64r6el
p1116
tp1117
(dp1118
Vhardware
p1119
VMIPS R6 (64 bit, little endian)
p1120
sVhardware-long
p1121
VMIPS R6 (64 bit, little endian)
p1122
ss(Vimage
p1123
g1083
NVmips64r6el
p1124
tp1125
(dp1126
Vconfigs
p1127
(lp1128
Vkernelarch-mips/config.boston
p1129
aVkernelarch-mips/config.mips64r6
p1130
ass(g188
g1083
g159
tp1131
(dp1132
g191
(lp1133
Vmips32r6el
p1134
aVmips64r6el
p1135
asg195
I01
ss(Vbase
p1136
Vpowerpc
p1137
tp1138
(dp1139
Vkernel-arch
p1140
Vpowerpc
p1141
sg157
(lp1142
g159
ass(Vbuild
p1143
g1137
tp1144
(dp1145
Vimage-file
p1146
Vvmlinux
p1147
sVvdso
p1148
I01
ss(Vimage
p1149
g1137
tp1150
(dp1151
Vconfigs
p1152
(lp1153
sVsuggests
p1154
Vmkvmlinuz
p1155
sVinstall-stem
p1156
Vvmlinux
p1157
ss(Vdescription
p1158
g1137
NVpowerpc
p1159
tp1160
(dp1161
Vhardware
p1162
Vuniprocessor 32-bit PowerPC
p1163
ss(Vdescription
p1164
g1137
NVpowerpc-smp
p1165
tp1166
(dp1167
Vhardware
p1168
Vmultiprocessor 32-bit PowerPC
p1169
ss(Vimage
p1170
g1137
NVpowerpc-smp
p1171
tp1172
(dp1173
Vconfigs
p1174
(lp1175
Vpowerpc/config.powerpc
p1176
aVpowerpc/config.powerpc-smp
p1177
ass(Vdescription
p1178
g1137
NVpowerpc64
p1179
tp1180
(dp1181
Vhardware
p1182
V64-bit PowerPC
p1183
ss(Vimage
p1184
g1137
NVpowerpc64
p1185
tp1186
(dp1187
Vconfigs
p1188
(lp1189
Vkernelarch-powerpc/config-arch-64
p1190
aVkernelarch-powerpc/config-arch-64-be
p1191
ass(g188
g1137
g159
tp1192
(dp1193
g191
(lp1194
Vpowerpc
p1195
aVpowerpc-smp
p1196
aVpowerpc64
p1197
asg195
I01
ss(Vbase
p1198
Vpowerpcspe
p1199
tp1200
(dp1201
Vkernel-arch
p1202
Vpowerpc
p1203
sg157
(lp1204
g159
ass(Vbuild
p1205
g1199
tp1206
(dp1207
Vimage-file
p1208
Vvmlinux
p1209
sVvdso
p1210
I01
ss(Vimage
p1211
g1199
tp1212
(dp1213
Vsuggests
p1214
Vmkvmlinuz
p1215
sVinstall-stem
p1216
Vvmlinux
p1217
ss(Vdescription
p1218
g1199
tp1219
(dp1220
Vhardware
p1221
V32-bit PowerPC with SPE (instead of AltiVec) with SMP support
p1222
ss(g188
g1199
g159
tp1223
(dp1224
g191
(lp1225
Vpowerpcspe
p1226
asg195
I01
ss(Vbase
p1227
Vppc64
p1228
tp1229
(dp1230
Vkernel-arch
p1231
Vpowerpc
p1232
sg157
(lp1233
g159
ass(Vbuild
p1234
g1228
tp1235
(dp1236
Vimage-file
p1237
Vvmlinux
p1238
sVvdso
p1239
I01
ss(Vimage
p1240
g1228
tp1241
(dp1242
Vconfigs
p1243
(lp1244
sVsuggests
p1245
Vmkvmlinuz
p1246
sVinstall-stem
p1247
Vvmlinux
p1248
ss(Vdescription
p1249
g1228
NVpowerpc64
p1250
tp1251
(dp1252
Vhardware
p1253
V64-bit PowerPC
p1254
ss(Vimage
p1255
g1228
NVpowerpc64
p1256
tp1257
(dp1258
Vconfigs
p1259
(lp1260
Vkernelarch-powerpc/config-arch-64
p1261
aVkernelarch-powerpc/config-arch-64-be
p1262
ass(g188
g1228
g159
tp1263
(dp1264
g191
(lp1265
Vpowerpc64
p1266
asg195
I01
ss(Vbase
p1267
Vppc64el
p1268
tp1269
(dp1270
Vkernel-arch
p1271
Vpowerpc
p1272
sg157
(lp1273
g159
ass(Vbuild
p1274
g1268
tp1275
(dp1276
Vimage-file
p1277
Vvmlinux
p1278
sVvdso
p1279
I01
ss(Vimage
p1280
g1268
tp1281
(dp1282
Vconfigs
p1283
(lp1284
sVsuggests
p1285
Vmkvmlinuz
p1286
sVinstall-stem
p1287
Vvmlinux
p1288
ss(Vdescription
p1289
g1268
NVpowerpc64le
p1290
tp1291
(dp1292
Vhardware
p1293
VLittle-endian 64-bit PowerPC
p1294
ss(Vimage
p1295
g1268
NVpowerpc64le
p1296
tp1297
(dp1298
Vconfigs
p1299
(lp1300
Vkernelarch-powerpc/config-arch-64
p1301
aVkernelarch-powerpc/config-arch-64-le
p1302
ass(g188
g1268
g159
tp1303
(dp1304
g191
(lp1305
Vpowerpc64le
p1306
asg195
I01
ss(Vbase
p1307
Vriscv64
p1308
tp1309
(dp1310
Vkernel-arch
p1311
Vriscv
p1312
sVfeaturesets
p1313
(lp1314
ss(Vbase
p1315
Vs390
p1316
tp1317
(dp1318
Vkernel-arch
p1319
Vs390
p1320
sVfeaturesets
p1321
(lp1322
ss(Vbase
p1323
Vs390x
p1324
tp1325
(dp1326
Vkernel-arch
p1327
Vs390
p1328
sg157
(lp1329
g159
ass(Vbuild
p1330
g1324
tp1331
(dp1332
Vimage-file
p1333
Varch/s390/boot/image
p1334
sVvdso
p1335
I01
ss(Vimage
p1336
g1324
tp1337
(dp1338
Vbootloaders
p1339
(lp1340
Vs390-tools
p1341
asVinstall-stem
p1342
Vvmlinuz
p1343
ss(Vrelations
p1344
g1324
tp1345
(dp1346
Vheaders%gcc-7
p1347
Vlinux-compiler-gcc-7-s390
p1348
ss(Vbuild
p1349
g1324
NVs390x
p1350
tp1351
(dp1352
Vdebug-info
p1353
I01
ss(Vdescription
p1354
g1324
NVs390x
p1355
tp1356
(dp1357
Vhardware
p1358
VIBM zSeries
p1359
ss(g188
g1324
g159
tp1360
(dp1361
g191
(lp1362
Vs390x
p1363
asg195
I01
ss(Vbase
p1364
Vsh3
p1365
tp1366
(dp1367
Vkernel-arch
p1368
Vsh
p1369
sVfeaturesets
p1370
(lp1371
ss(Vbase
p1372
Vsh4
p1373
tp1374
(dp1375
Vkernel-arch
p1376
Vsh
p1377
sg157
(lp1378
g159
ass(Vbuild
p1379
g1373
tp1380
(dp1381
Vimage-file
p1382
Varch/sh/boot/zImage
p1383
ss(Vimage
p1384
g1373
tp1385
(dp1386
Vinstall-stem
p1387
Vvmlinuz
p1388
ss(Vdescription
p1389
g1373
NVsh7751r
p1390
tp1391
(dp1392
Vhardware
p1393
Vsh7751r
p1394
sVhardware-long
p1395
VRenesas SH7751R R2D plus board
p1396
ss(Vdescription
p1397
g1373
NVsh7785lcr
p1398
tp1399
(dp1400
Vhardware
p1401
Vsh7785lcr
p1402
sVhardware-long
p1403
VRenesas SH7785 reference board
p1404
ss(Vimage
p1405
g1373
NVsh7785lcr
p1406
tp1407
(dp1408
Vrecommends
p1409
Vu-boot-tools
p1410
sVcheck-size
p1411
L4194304L
ss(g188
g1373
g159
tp1412
(dp1413
g191
(lp1414
Vsh7751r
p1415
aVsh7785lcr
p1416
asg195
I01
ss(Vbase
p1417
Vsparc
p1418
tp1419
(dp1420
Vkernel-arch
p1421
Vsparc
p1422
sVfeaturesets
p1423
(lp1424
ss(Vbase
p1425
Vsparc64
p1426
tp1427
(dp1428
Vkernel-arch
p1429
Vsparc
p1430
sg157
(lp1431
g159
ass(Vbuild
p1432
g1426
tp1433
(dp1434
Vimage-file
p1435
Varch/sparc/boot/zImage
p1436
ss(Vimage
p1437
g1426
tp1438
(dp1439
Vconfigs
p1440
(lp1441
sVsuggests
p1442
Vsilo, fdutils
p1443
sVinstall-stem
p1444
Vvmlinuz
p1445
ss(Vdescription
p1446
g1426
NVsparc64
p1447
tp1448
(dp1449
Vhardware
p1450
Vuniprocessor 64-bit UltraSPARC
p1451
ss(Vimage
p1452
g1426
NVsparc64
p1453
tp1454
(dp1455
Vconfigs
p1456
(lp1457
Vkernelarch-sparc/config-up
p1458
ass(Vdescription
p1459
g1426
NVsparc64-smp
p1460
tp1461
(dp1462
Vhardware
p1463
Vmultiprocessor 64-bit UltraSPARC
p1464
ss(Vimage
p1465
g1426
NVsparc64-smp
p1466
tp1467
(dp1468
Vconfigs
p1469
(lp1470
Vkernelarch-sparc/config-smp
p1471
ass(g188
g1426
g159
tp1472
(dp1473
g191
(lp1474
Vsparc64
p1475
aVsparc64-smp
p1476
asg195
I01
ss(Vbase
p1477
Vx32
p1478
tp1479
(dp1480
Vkernel-arch
p1481
Vx86
p1482
sVfeaturesets
p1483
(lp1484
ss(Vabi
p1485
NVrt
p1486
tp1487
(dp1488
Vignore-changes
p1489
(lp1490
V*
p1491
ass(Vdescription
p1492
Ng1486
tp1493
(dp1494
Vpart-long-rt
p1495
VThis kernel includes the PREEMPT_RT realtime patch set.
p1496
sVpart-short-rt
p1497
VPREEMPT_RT
p1498
sVparts
p1499
(lp1500
Vrt
p1501
ass(Vversion
p1502
tp1503
(dp1504
Vsource
p1505
V4.18.20-2parrot20
p1506
sVupstream
p1507
V4.18
p1508
sVabiname_base
p1509
V4.18.0
p1510
sVabiname
p1511
V4.18.0-parrot20
p1512
ss.