ccopy_reg
_reconstructor
p0
(cdebian_linux.config
ConfigCore
p1
c__builtin__
dict
p2
(dp3
(Vdescription
p4
Vsparc64
p5
NVsparc64
p6
tp7
(dp8
Vhardware
p9
Vuniprocessor 64-bit UltraSPARC
p10
ss(Vbase
p11
Vi386
p12
Vnone
p13
tp14
(dp15
Vflavours
p16
(lp17
V686
p18
aV686-pae
p19
ass(Vbase
p20
Valpha
p21
tp22
(dp23
Vkernel-arch
p24
Valpha
p25
sVfeaturesets
p26
(lp27
Vnone
p28
ass(Vimage
p29
Vs390x
p30
tp31
(dp32
Vbootloaders
p33
(lp34
Vs390-tools
p35
asVinstall-stem
p36
Vvmlinuz
p37
ss(Vversion
p38
tp39
(dp40
Vabiname_base
p41
V4.7.0
p42
sVsource
p43
V4.7.6-1kali1
p44
sVupstream
p45
V4.7
p46
sVabiname
p47
V4.7.0-kali1
p48
ss(Vbuild
p49
Vsh4
p50
tp51
(dp52
Vsigned-modules
p53
I00
sVimage-file
p54
Varch/sh/boot/zImage
p55
ss(Vbase
p56
Vmips64
p57
g28
tp58
(dp59
Vimplicit-flavour
p60
I01
sVflavours
p61
(lp62
V5kc-malta
p63
aVocteon
p64
ass(Vbase
p65
Vmipsn32el
p66
tp67
(dp68
Vfeaturesets
p69
(lp70
sVkernel-arch
p71
Vmips
p72
ss(Vbase
p73
Vhppa
p74
NVparisc64-smp
p75
tp76
(dp77
Vcflags
p78
V-fno-cse-follow-jumps
p79
sVoverride-host-type
p80
Vhppa64-linux-gnu
p81
ss(g56
Vmips
p82
g28
tp83
(dp84
g60
I01
sg61
(lp85
V4kc-malta
p86
aV5kc-malta
p87
aVocteon
p88
ass(Vdescription
p89
tp90
(dp91
Vpart-long-xen
p92
VThis kernel also runs on a Xen hypervisor.\u000aIt supports both privileged (dom0) and unprivileged (domU) operation.
p93
sVpart-long-up
p94
VThis kernel is not suitable for SMP (multi-processor,\u000amulti-core or hyper-threaded) systems.
p95
ss(Vimage
p96
Vmips64el
p97
NVloongson-3
p98
tp99
(dp100
Vconfigs
p101
(lp102
Vkernelarch-mips/config.loongson-3
p103
ass(Vrelations
p104
g74
tp105
(dp106
Vgcc-5
p107
Vgcc-5 <!stage1 !cross>, binutils-hppa64-linux-gnu <!stage1 !cross>, gcc-5-hppa64-linux-gnu <!stage1 !cross>, gcc-5-hppa-linux-gnu:native <!stage1 cross>, binutils-hppa64-linux-gnu:native <!stage1 cross>, gcc-5-hppa64-linux-gnu:native <!stage1 cross>
p108
ss(g56
g97
g28
tp109
(dp110
g60
I01
sg61
(lp111
V5kc-malta
p112
aVloongson-3
p113
aVocteon
p114
ass(Vrelations
p115
g12
tp116
(dp117
Vheaders%gcc-5
p118
Vlinux-compiler-gcc-5-x86
p119
ss(Vdescription
p120
NVrt
p121
tp122
(dp123
Vparts
p124
(lp125
Vrt
p126
asVpart-short-rt
p127
VPREEMPT_RT
p128
sVpart-long-rt
p129
VThis kernel includes the PREEMPT_RT realtime patch set.
p130
ss(Vrelations
p131
g30
tp132
(dp133
Vheaders%gcc-5
p134
Vlinux-compiler-gcc-5-s390
p135
ss(Vabi
p136
tp137
(dp138
Vabiname
p139
Vkali1
p140
sVignore-changes
p141
(lp142
Vceph_monc_do_statfs
p143
aVfsnotify_*_group
p144
aVfsnotify_*_mark
p145
ass(Vdescription
p146
Vpowerpc
p147
NVpowerpc64
p148
tp149
(dp150
Vhardware
p151
V64-bit PowerPC
p152
ss(Vdescription
p153
Varmel
p154
NVmarvell
p155
tp156
(dp157
Vhardware-long
p158
VMarvell Kirkwood based systems (SheevaPlug, QNAP TS-119/TS-219, etc)\u000aand Orion 5181, 5182 and 5281 based systems (QNAP TS-109/TS-209, etc)
p159
sVhardware
p160
VMarvell Kirkwood/Orion
p161
ss(Vrelations
p162
Varmhf
p163
tp164
(dp165
Vheaders%gcc-5
p166
Vlinux-compiler-gcc-5-arm
p167
ss(Vdescription
p168
g82
NV5kc-malta
p169
tp170
(dp171
Vhardware-long
p172
VMIPS Malta boards (64-bit)
p173
sVhardware
p174
VMIPS Malta (64-bit)
p175
ss(Vimage
p176
g97
NVocteon
p177
tp178
(dp179
Vconfigs
p180
(lp181
Vkernelarch-mips/config.octeon
p182
ass(Vdescription
p183
g154
NVversatile
p184
tp185
(dp186
Vhardware-long
p187
VVersatile systems (PB, AB, Qemu)
p188
sVhardware
p189
VVersatile
p190
ss(Vimage
p191
g147
tp192
(dp193
Vsuggests
p194
Vmkvmlinuz
p195
sVinstall-stem
p196
Vvmlinux
p197
sVconfigs
p198
(lp199
ss(g56
Vmipsel
p200
g28
tp201
(dp202
g60
I01
sg61
(lp203
V4kc-malta
p204
aV5kc-malta
p205
aVloongson-3
p206
aVocteon
p207
ass(Vdescription
p208
g82
NVocteon
p209
tp210
(dp211
Vhardware-long
p212
VCavium Networks Octeon
p213
sVhardware
p214
VOcteon
p215
ss(Vbuild
p216
Varm64
p217
tp218
(dp219
Vsigned-modules
p220
I00
sVimage-file
p221
Varch/arm64/boot/Image
p222
sVvdso
p223
I01
sVdebug-info
p224
I01
ss(Vimage
p225
Vm68k
p226
tp227
(dp228
Vsuggests
p229
Vvmelilo, fdutils
p230
sVinstall-stem
p231
Vvmlinuz
p232
ss(Vimage
p233
g74
tp234
(dp235
Vsuggests
p236
Vpalo
p237
sVinstall-stem
p238
Vvmlinux
p239
ss(Vimage
p240
g200
NV5kc-malta
p241
tp242
(dp243
Vconfigs
p244
(lp245
Vkernelarch-mips/config.malta
p246
aVkernelarch-mips/config.mips64r2
p247
ass(Vimage
p248
g217
tp249
(dp250
Vinstall-stem
p251
Vvmlinuz
p252
ss(Vdescription
p253
g12
g13
V686-pae
p254
tp255
(dp256
Vparts
p257
(lp258
Vxen
p259
ass(Vimage
p260
g97
tp261
(dp262
Vinstall-stem
p263
Vvmlinux
p264
ss(Vbase
p265
g200
tp266
(dp267
Vkernel-arch
p268
Vmips
p269
sg26
(lp270
g28
ass(Vbase
p271
g154
tp272
(dp273
Vkernel-arch
p274
Varm
p275
sg26
(lp276
g28
ass(g56
Vppc64
p277
g28
tp278
(dp279
g60
I01
sg61
(lp280
Vpowerpc64
p281
ass(Vdescription
p282
g163
NVarmmp
p283
tp284
(dp285
Vhardware-long
p286
VARMv7 multiplatform kernel. See\u000ahttps://wiki.debian.org/DebianKernel/ARMMP for details of supported\u000aplatforms
p287
sVhardware
p288
VARMv7 multiplatform compatible SoCs
p289
ss(Vbuild
p290
g57
tp291
(dp292
Vsigned-modules
p293
I00
sVimage-file
p294
Vvmlinux
p295
ss(Vimage
p296
Vppc64el
p297
tp298
(dp299
Vsuggests
p300
Vmkvmlinuz
p301
sVinstall-stem
p302
Vvmlinux
p303
sVconfigs
p304
(lp305
ss(Vbase
p306
g97
tp307
(dp308
Vkernel-arch
p309
Vmips
p310
sg26
(lp311
g28
ass(Vimage
p312
g200
NVloongson-3
p313
tp314
(dp315
Vconfigs
p316
(lp317
Vkernelarch-mips/config.loongson-3
p318
ass(Vdescription
p319
g277
NVpowerpc64
p320
tp321
(dp322
Vhardware
p323
V64-bit PowerPC
p324
ss(Vbuild
p325
g297
tp326
(dp327
Vimage-file
p328
Vvmlinux
p329
sVvdso
p330
I01
ss(Vdescription
p331
g21
NValpha-generic
p332
tp333
(dp334
Vhardware-long
p335
VDEC Alpha systems with extended kernel start address (Wildfire, Titan, Marvel)
p336
sVhardware
p337
VAlpha
p338
ss(Vdescription
p339
g74
NVparisc
p340
tp341
(dp342
Vhardware-long
p343
VHP PA-RISC 32-bit systems with max 4 GB RAM
p344
sVhardware
p345
V32-bit PA-RISC
p346
ss(Vimage
p347
g50
NVsh7785lcr
p348
tp349
(dp350
Vrecommends
p351
Vu-boot-tools
p352
sVcheck-size
p353
L4194304L
ss(Vdescription
p354
g21
NValpha-smp
p355
tp356
(dp357
Vhardware-long
p358
VDEC Alpha SMP systems with extended kernel start address (Wildfire, Titan, Marvel)
p359
sVhardware
p360
VAlpha SMP
p361
ss(Vbuild
p362
g277
tp363
(dp364
Vsigned-modules
p365
I00
sVimage-file
p366
Vvmlinux
p367
sVvdso
p368
I01
ss(Vbase
p369
g147
tp370
(dp371
Vkernel-arch
p372
Vpowerpc
p373
sg26
(lp374
g28
ass(Vdescription
p375
g147
NVpowerpc-smp
p376
tp377
(dp378
Vhardware
p379
Vmultiprocessor 32-bit PowerPC
p380
ss(Vrelations
p381
g154
tp382
(dp383
Vheaders%gcc-5
p384
Vlinux-compiler-gcc-5-arm
p385
ss(Vdescription
p386
Vamd64
p387
Vnone
p388
Vamd64
p389
tp390
(dp391
Vparts
p392
(lp393
Vxen
p394
ass(Vbase
p395
g297
tp396
(dp397
Vkernel-arch
p398
Vpowerpc
p399
sg26
(lp400
g28
ass(Vbuild
p401
g82
tp402
(dp403
Vsigned-modules
p404
I00
sVimage-file
p405
Vvmlinux
p406
ss(Vbase
p407
Vmipsn32
p408
tp409
(dp410
Vfeaturesets
p411
(lp412
sVkernel-arch
p413
Vmips
p414
ss(g56
g154
g28
tp415
(dp416
g60
I01
sg61
(lp417
Vmarvell
p418
aVversatile
p419
ass(g56
g74
g28
tp420
(dp421
g60
I01
sg61
(lp422
Vparisc
p423
aVparisc64-smp
p424
ass(Vrelations
p425
g387
tp426
(dp427
Vheaders%gcc-5
p428
Vlinux-compiler-gcc-5-x86
p429
ss(Vbuild
p430
g387
tp431
(dp432
Vsigned-modules
p433
I00
sVimage-file
p434
Varch/x86/boot/bzImage
p435
sVvdso
p436
I01
sVdebug-info
p437
I01
ss(Vbase
p438
g217
tp439
(dp440
Vfeaturesets
p441
(lp442
Vnone
p443
asVkernel-arch
p444
Varm64
p445
ss(Vdescription
p446
g97
NVloongson-3
p447
tp448
(dp449
Vhardware-long
p450
VLoongson 3A or 3B based systems (e.g. from Loongson or Lemote)
p451
sVhardware
p452
VLoongson 3A/3B
p453
ss(Vimage
p454
g5
NVsparc64
p455
tp456
(dp457
Vconfigs
p458
(lp459
Vkernelarch-sparc/config-up
p460
ass(Vbase
p461
g163
tp462
(dp463
Vkernel-arch
p464
Varm
p465
sg26
(lp466
g28
ass(Vbase
p467
tp468
(dp469
Varches
p470
(lp471
Valpha
p472
aVamd64
p473
aVarm64
p474
aVarmel
p475
aVarmhf
p476
aVhppa
p477
aVi386
p478
aVm68k
p479
aVmips
p480
aVmipsel
p481
aVmipsn32
p482
aVmipsn32el
p483
aVmips64
p484
aVmips64el
p485
aVor1k
p486
aVpowerpc
p487
aVpowerpcspe
p488
aVppc64
p489
aVppc64el
p490
aVs390
p491
aVs390x
p492
aVsh4
p493
aVsparc
p494
aVsparc64
p495
aVtilegx
p496
aVx32
p497
asVcompiler
p498
Vgcc-5
p499
sVfeaturesets
p500
(lp501
Vnone
p502
aVrt
p503
ass(Vbase
p504
g50
tp505
(dp506
Vkernel-arch
p507
Vsh
p508
sg26
(lp509
g28
ass(Vbuild
p510
g154
tp511
(dp512
Vsigned-modules
p513
I00
sVimage-file
p514
Varch/arm/boot/zImage
p515
ss(Vbuild
p516
Vpowerpcspe
p517
tp518
(dp519
Vsigned-modules
p520
I00
sVimage-file
p521
Vvmlinux
p522
sVvdso
p523
I01
ss(g56
g5
g28
tp524
(dp525
g60
I01
sg61
(lp526
Vsparc64
p527
aVsparc64-smp
p528
ass(Vbase
p529
Vtilegx
p530
tp531
(dp532
Vfeaturesets
p533
(lp534
sVkernel-arch
p535
Vtile
p536
ss(Vimage
p537
g297
NVpowerpc64le
p538
tp539
(dp540
Vconfigs
p541
(lp542
Vkernelarch-powerpc/config-arch-64
p543
aVkernelarch-powerpc/config-arch-64-le
p544
ass(Vbase
p545
Vx32
p546
tp547
(dp548
Vfeaturesets
p549
(lp550
sVkernel-arch
p551
Vx86
p552
ss(Vbase
p553
g5
tp554
(dp555
Vkernel-arch
p556
Vsparc
p557
sg26
(lp558
g28
ass(Vdescription
p559
g12
NV686
p560
tp561
(dp562
Vhardware-long
p563
VPCs with one or more processors not supporting PAE
p564
sVhardware
p565
Volder PCs
p566
ss(Vbase
p567
g387
g388
tp568
(dp569
Vflavours
p570
(lp571
Vamd64
p572
ass(Vdescription
p573
g387
NVamd64
p574
tp575
(dp576
Vhardware-long
p577
VPCs with AMD64, Intel 64 or VIA Nano processors
p578
sVhardware
p579
V64-bit PCs
p580
ss(Vimage
p581
g21
tp582
(dp583
Vsuggests
p584
Vaboot, fdutils
p585
sVinstall-stem
p586
Vvmlinuz
p587
ss(Vdescription
p588
g50
NVsh7785lcr
p589
tp590
(dp591
Vhardware-long
p592
VRenesas SH7785 reference board
p593
sVhardware
p594
Vsh7785lcr
p595
ss(Vbase
p596
g30
tp597
(dp598
Vkernel-arch
p599
Vs390
p600
sg26
(lp601
g28
ass(Vimage
p602
g57
tp603
(dp604
Vinstall-stem
p605
Vvmlinux
p606
ss(Vimage
p607
g5
tp608
(dp609
Vsuggests
p610
Vsilo, fdutils
p611
sVinstall-stem
p612
Vvmlinuz
p613
sVconfigs
p614
(lp615
ss(Vdescription
p616
g82
NV4kc-malta
p617
tp618
(dp619
Vhardware-long
p620
VMIPS Malta boards
p621
sVhardware
p622
VMIPS Malta
p623
ss(Vdescription
p624
g12
tp625
(dp626
Vpart-long-pae
p627
VThis kernel requires PAE (Physical Address Extension).\u000aThis feature is supported by the Intel Pentium Pro/II/III/4/4M/D, Xeon,\u000aCore and Atom; AMD Geode NX, Athlon (K7), Duron, Opteron, Sempron,\u000aTurion or Phenom; Transmeta Efficeon; VIA C7; and some other processors.
p628
ss(Vbase
p629
Vsparc
p630
tp631
(dp632
Vfeaturesets
p633
(lp634
sVkernel-arch
p635
Vsparc
p636
ss(Vimage
p637
g147
NVpowerpc-smp
p638
tp639
(dp640
Vconfigs
p641
(lp642
Vpowerpc/config.powerpc
p643
aVpowerpc/config.powerpc-smp
p644
ass(g56
g30
g28
tp645
(dp646
g60
I01
sg61
(lp647
Vs390x
p648
ass(Vbase
p649
g387
tp650
(dp651
Vfeaturesets
p652
(lp653
Vnone
p654
aVrt
p655
asVkernel-arch
p656
Vx86
p657
ss(Vimage
p658
g82
tp659
(dp660
Vinstall-stem
p661
Vvmlinux
p662
ss(Vimage
p663
g82
NV5kc-malta
p664
tp665
(dp666
Vconfigs
p667
(lp668
Vkernelarch-mips/config.malta
p669
aVkernelarch-mips/config.mips64r2
p670
ass(Vrelations
p671
tp672
(dp673
Vinitramfs-fallback
p674
Vlinux-initramfs-tool
p675
sVgcc-5
p676
Vgcc-5 <!stage1 !cross>, gcc-5-@gnu-type-package@:native <!stage1 cross>
p677
sVinitramfs-tools
p678
Vinitramfs-tools (>= 0.110~)
p679
ss(Vbase
p680
g217
Vnone
p681
tp682
(dp683
Vflavours
p684
(lp685
Varm64
p686
ass(Vbuild
p687
g163
tp688
(dp689
Vsigned-modules
p690
I00
sVimage-file
p691
Varch/arm/boot/zImage
p692
sVvdso
p693
I01
ss(Vimage
p694
g97
NV5kc-malta
p695
tp696
(dp697
Vconfigs
p698
(lp699
Vkernelarch-mips/config.malta
p700
aVkernelarch-mips/config.mips64r2
p701
ass(Vdescription
p702
g217
NVarm64
p703
tp704
(dp705
Vhardware
p706
V64-bit ARMv8 machines
p707
ss(Vbase
p708
Vor1k
p709
tp710
(dp711
Vfeaturesets
p712
(lp713
sVkernel-arch
p714
Vopenrisc
p715
ss(Vdescription
p716
g517
tp717
(dp718
Vhardware
p719
V32-bit PowerPC with SPE (instead of AltiVec) with SMP support
p720
ss(Vbuild
p721
g12
NV686-pae
p722
tp723
(dp724
Vdebug-info
p725
I01
ss(Vbuild
p726
g74
tp727
(dp728
Vsigned-modules
p729
I00
sVimage-file
p730
Vvmlinux
p731
ss(Vdescription
p732
g200
NVloongson-3
p733
tp734
(dp735
Vhardware-long
p736
VLoongson 3A or 3B based systems (e.g. from Loongson or Lemote)
p737
sVhardware
p738
VLoongson 3A/3B
p739
ss(Vdescription
p740
g57
NVocteon
p741
tp742
(dp743
Vhardware-long
p744
VCavium Networks Octeon
p745
sVhardware
p746
VOcteon
p747
ss(Vbase
p748
g517
tp749
(dp750
Vkernel-arch
p751
Vpowerpc
p752
sg26
(lp753
g28
ass(Vdescription
p754
g57
NV5kc-malta
p755
tp756
(dp757
Vhardware-long
p758
VMIPS Malta boards
p759
sVhardware
p760
VMIPS Malta
p761
ss(Vdescription
p762
g226
NVm68k
p763
tp764
(dp765
Vhardware
p766
VMotorola MC68020+ family
p767
ss(Vimage
p768
g154
tp769
(dp770
Vinstall-stem
p771
Vvmlinuz
p772
ss(Vbuild
p773
g200
tp774
(dp775
Vsigned-modules
p776
I00
sVimage-file
p777
Vvmlinux
p778
ss(g56
g297
g28
tp779
(dp780
g60
I01
sg61
(lp781
Vpowerpc64le
p782
ass(Vdescription
p783
g97
NVocteon
p784
tp785
(dp786
Vhardware-long
p787
VCavium Networks Octeon
p788
sVhardware
p789
VOcteon
p790
ss(Vimage
p791
g57
NV5kc-malta
p792
tp793
(dp794
Vconfigs
p795
(lp796
Vkernelarch-mips/config.malta
p797
aVkernelarch-mips/config.mips64r2
p798
ass(Vdescription
p799
g200
NV5kc-malta
p800
tp801
(dp802
Vhardware-long
p803
VMIPS Malta boards (64-bit)
p804
sVhardware
p805
VMIPS Malta (64-bit)
p806
ss(Vabi
p807
Ng121
tp808
(dp809
Vignore-changes
p810
(lp811
V*
p812
ass(Vbuild
p813
g30
tp814
(dp815
Vimage-file
p816
Varch/s390/boot/image
p817
sVvdso
p818
I01
ss(Vimage
p819
g147
NVpowerpc64
p820
tp821
(dp822
Vconfigs
p823
(lp824
Vkernelarch-powerpc/config-arch-64
p825
aVkernelarch-powerpc/config-arch-64-be
p826
ass(Vbuild
p827
g12
tp828
(dp829
Vsigned-modules
p830
I00
sVimage-file
p831
Varch/x86/boot/bzImage
p832
sVvdso
p833
I01
ss(Vbase
p834
g57
tp835
(dp836
Vkernel-arch
p837
Vmips
p838
sg26
(lp839
g28
ass(Vimage
p840
g50
tp841
(dp842
Vinstall-stem
p843
Vvmlinuz
p844
ss(Vimage
p845
g12
tp846
(dp847
Vbreaks
p848
Vxserver-xorg-input-vmmouse (<< 1:13.0.99)
p849
sVbootloaders
p850
(lp851
Vgrub-pc
p852
aVextlinux
p853
asVinstall-stem
p854
Vvmlinuz
p855
ss(Vdescription
p856
g12
NV686-pae
p857
tp858
(dp859
Vhardware-long
p860
VPCs with one or more processors supporting PAE
p861
sVhardware
p862
Vmodern PCs
p863
sVparts
p864
(lp865
Vpae
p866
ass(Vbase
p867
g277
tp868
(dp869
Vkernel-arch
p870
Vpowerpc
p871
sg26
(lp872
g28
ass(Vimage
p873
g277
NVpowerpc64
p874
tp875
(dp876
Vconfigs
p877
(lp878
Vkernelarch-powerpc/config-arch-64
p879
aVkernelarch-powerpc/config-arch-64-be
p880
ass(Vbuild
p881
g147
tp882
(dp883
Vimage-file
p884
Vvmlinux
p885
sVvdso
p886
I01
ss(Vdescription
p887
g163
NVarmmp-lpae
p888
tp889
(dp890
Vhardware-long
p891
VARMv7 multiplatform kernel supporting LPAE. See\u000ahttps://wiki.debian.org/DebianKernel/ARMMP for details of supported\u000aplatforms.
p892
sVhardware
p893
VARMv7 multiplatform compatible SoCs supporting LPAE
p894
ss(Vbase
p895
g74
tp896
(dp897
Vkernel-arch
p898
Vparisc
p899
sg26
(lp900
g28
ass(Vimage
p901
g217
NVarm64
p902
tp903
(dp904
s(Vdescription
p905
g74
NVparisc64-smp
p906
tp907
(dp908
Vhardware-long
p909
VHP PA-RISC 64-bit SMP systems with support for more than 4 GB RAM
p910
sVhardware
p911
Vmultiprocessor 64-bit PA-RISC
p912
ss(Vbase
p913
NVrt
p914
tp915
(dp916
Venabled
p917
I00
ss(Vimage
p918
g154
NVmarvell
p919
tp920
(dp921
Vrecommends
p922
Vu-boot-tools
p923
sVcheck-size-with-dtb
p924
I01
sVbreaks
p925
Vflash-kernel (<< 3.57~)
p926
sVcheck-size
p927
L2097080L
ss(Vbuild
p928
g226
tp929
(dp930
Vsigned-modules
p931
I00
sVimage-file
p932
Vvmlinux.gz
p933
ss(g56
g163
g28
tp934
(dp935
g60
I01
sg61
(lp936
Varmmp
p937
aVarmmp-lpae
p938
ass(Vbuild
p939
g97
tp940
(dp941
Vsigned-modules
p942
I00
sVimage-file
p943
Vvmlinux
p944
ss(Vimage
p945
g82
NVocteon
p946
tp947
(dp948
Vconfigs
p949
(lp950
Vkernelarch-mips/config.octeon
p951
ass(Vbase
p952
g12
Vrt
p953
tp954
(dp955
Vflavours
p956
(lp957
V686-pae
p958
ass(Vimage
p959
g200
tp960
(dp961
Vinstall-stem
p962
Vvmlinux
p963
ss(Vimage
p964
g277
tp965
(dp966
Vsuggests
p967
Vmkvmlinuz
p968
sVinstall-stem
p969
Vvmlinux
p970
sVconfigs
p971
(lp972
ss(Vbase
p973
Vs390
p974
tp975
(dp976
Vfeaturesets
p977
(lp978
sVkernel-arch
p979
Vs390
p980
ss(Vbase
p981
g12
tp982
(dp983
Vfeaturesets
p984
(lp985
Vnone
p986
aVrt
p987
asVkernel-arch
p988
Vx86
p989
ss(Vbuild
p990
g5
tp991
(dp992
Vsigned-modules
p993
I00
sVimage-file
p994
Varch/sparc/boot/zImage
p995
ss(g56
g147
g28
tp996
(dp997
g60
I01
sg61
(lp998
Vpowerpc
p999
aVpowerpc-smp
p1000
aVpowerpc64
p1001
ass(Vbuild
p1002
g21
tp1003
(dp1004
Vsigned-modules
p1005
I00
sVimage-file
p1006
Varch/alpha/boot/vmlinux.gz
p1007
ss(g56
g21
g28
tp1008
(dp1009
g60
I01
sg61
(lp1010
Valpha-generic
p1011
aValpha-smp
p1012
ass(Vbase
p1013
g82
tp1014
(dp1015
Vkernel-arch
p1016
Vmips
p1017
sg26
(lp1018
g28
ass(Vimage
p1019
g200
NVocteon
p1020
tp1021
(dp1022
Vconfigs
p1023
(lp1024
Vkernelarch-mips/config.octeon
p1025
ass(Vimage
p1026
g5
NVsparc64-smp
p1027
tp1028
(dp1029
Vconfigs
p1030
(lp1031
Vkernelarch-sparc/config-smp
p1032
ass(Vdescription
p1033
g297
NVpowerpc64le
p1034
tp1035
(dp1036
Vhardware
p1037
VLittle-endian 64-bit PowerPC
p1038
ss(Vimage
p1039
g387
tp1040
(dp1041
Vbreaks
p1042
Vxserver-xorg-input-vmmouse (<< 1:13.0.99)
p1043
sVbootloaders
p1044
(lp1045
Vgrub-pc
p1046
aVgrub-efi-amd64
p1047
aVextlinux
p1048
asVinstall-stem
p1049
Vvmlinuz
p1050
ss(Vdescription
p1051
g200
NV4kc-malta
p1052
tp1053
(dp1054
Vhardware-long
p1055
VMIPS Malta boards
p1056
sVhardware
p1057
VMIPS Malta
p1058
ss(Vimage
p1059
g57
NVocteon
p1060
tp1061
(dp1062
Vconfigs
p1063
(lp1064
Vkernelarch-mips/config.octeon
p1065
ass(Vdescription
p1066
g30
NVs390x
p1067
tp1068
(dp1069
Vhardware
p1070
VIBM zSeries
p1071
ss(Vbase
p1072
g387
Vrt
p1073
tp1074
(dp1075
Vflavours
p1076
(lp1077
Vamd64
p1078
ass(g56
g226
g28
tp1079
(dp1080
g60
I01
sg61
(lp1081
Vm68k
p1082
ass(Vxen
p1083
g387
g388
Vamd64
p1084
tp1085
(dp1086
Vflavours
p1087
(lp1088
Vamd64
p1089
ass(Vimage
p1090
g163
tp1091
(dp1092
Vinstall-stem
p1093
Vvmlinuz
p1094
ss(Vdescription
p1095
g5
NVsparc64-smp
p1096
tp1097
(dp1098
Vhardware
p1099
Vmultiprocessor 64-bit UltraSPARC
p1100
ss(Vimage
p1101
g200
NV4kc-malta
p1102
tp1103
(dp1104
Vconfigs
p1105
(lp1106
Vkernelarch-mips/config.malta
p1107
aVkernelarch-mips/config.mips32r2
p1108
ass(Vimage
p1109
g517
tp1110
(dp1111
Vsuggests
p1112
Vmkvmlinuz
p1113
sVinstall-stem
p1114
Vvmlinux
p1115
ss(Vdescription
p1116
g200
NVocteon
p1117
tp1118
(dp1119
Vhardware-long
p1120
VCavium Networks Octeon
p1121
sVhardware
p1122
VOcteon
p1123
ss(Vimage
p1124
tp1125
(dp1126
Vinitramfs-generators
p1127
(lp1128
Vinitramfs-tools
p1129
aVinitramfs-fallback
p1130
ass(Vbase
p1131
g226
tp1132
(dp1133
Vcflags
p1134
V-ffreestanding
p1135
sVkernel-arch
p1136
Vm68k
p1137
sg26
(lp1138
g28
ass(Vdescription
p1139
g97
NV5kc-malta
p1140
tp1141
(dp1142
Vhardware-long
p1143
VMIPS Malta boards
p1144
sVhardware
p1145
VMIPS Malta
p1146
ss(Vbuild
p1147
g30
NVs390x
p1148
tp1149
(dp1150
Vdebug-info
p1151
I01
ss(Vdescription
p1152
g50
NVsh7751r
p1153
tp1154
(dp1155
Vhardware-long
p1156
VRenesas SH7751R R2D plus board
p1157
sVhardware
p1158
Vsh7751r
p1159
ss(Vdescription
p1160
g147
NVpowerpc
p1161
tp1162
(dp1163
Vhardware
p1164
Vuniprocessor 32-bit PowerPC
p1165
ss(Vbuild
p1166
tp1167
(dp1168
Vsigned-modules
p1169
I01
sVdebug-info
p1170
I01
ss(g56
g517
g28
tp1171
(dp1172
g60
I01
sg61
(lp1173
Vpowerpcspe
p1174
ass(Vimage
p1175
g82
NV4kc-malta
p1176
tp1177
(dp1178
Vconfigs
p1179
(lp1180
Vkernelarch-mips/config.malta
p1181
aVkernelarch-mips/config.mips32r2
p1182
ass(g56
g50
g28
tp1183
(dp1184
g60
I01
sg61
(lp1185
Vsh7751r
p1186
aVsh7785lcr
p1187
asstp1188
Rp1189
.