cdebian_linux.config
ConfigCore
p0
(tRp1
(Vbase
p2
tp3
(dp4
Varches
p5
(lp6
Valpha
p7
aVamd64
p8
aVarm64
p9
aVarmel
p10
aVarmhf
p11
aVhppa
p12
aVi386
p13
aVm68k
p14
aVmips
p15
aVmipsel
p16
aVmipsn32
p17
aVmipsn32el
p18
aVmips64
p19
aVmips64el
p20
aVpowerpc
p21
aVpowerpcspe
p22
aVppc64
p23
aVppc64el
p24
aVs390
p25
aVs390x
p26
aVsh3
p27
aVsh4
p28
aVsparc
p29
aVsparc64
p30
aVtilegx
p31
aVx32
p32
asVfeaturesets
p33
(lp34
Vnone
p35
aVrt
p36
asVcompiler
p37
Vgcc-6
p38
ss(Vbuild
p39
tp40
(dp41
Vsigned-modules
p42
I00
sVdebug-info
p43
I01
ss(Vbase
p44
NVrt
p45
tp46
(dp47
Venabled
p48
I00
ss(Vdescription
p49
tp50
(dp51
Vpart-long-up
p52
VThis kernel is not suitable for SMP (multi-processor,\u000amulti-core or hyper-threaded) systems.
p53
sVpart-long-xen
p54
VThis kernel also runs on a Xen hypervisor.\u000aIt supports both privileged (dom0) and unprivileged (domU) operation.
p55
ss(Vrelations
p56
tp57
(dp58
Vinitramfs-tools
p59
Vinitramfs-tools (>= 0.120+deb8u2)
p60
sVgcc-6
p61
Vgcc-6 <!stage1 !cross>, gcc-6-@gnu-type-package@ <!stage1 cross>
p62
sVinitramfs-fallback
p63
Vlinux-initramfs-tool
p64
ss(Vimage
p65
tp66
(dp67
Vinitramfs-generators
p68
(lp69
Vinitramfs-tools
p70
aVinitramfs-fallback
p71
ass(Vabi
p72
tp73
(dp74
Vabiname
p75
Vparrot13
p76
sVignore-changes
p77
(lp78
V__cpuhp_*
p79
aVbpf_analyzer
p80
aVcxl_*
p81
aViommu_device_*
p82
aVmm_iommu_*
p83
aVperf_*
p84
aVregister_cxl_calls
p85
aVunregister_cxl_calls
p86
aV*_hw_breakpoint
p87
aVmodule:arch/x86/kvm/*
p88
aVmodule:drivers/crypto/ccp/*
p89
aVmodule:drivers/hv/*
p90
aVmodule:drivers/iio/common/hid-sensors/*
p91
aVmodule:drivers/iio/common/st_sensors/**
p92
aVmodule:drivers/mtd/nand/*
p93
aVmodule:drivers/net/wireless/**
p94
aVmodule:drivers/nvdimm/*
p95
aVmodule:drivers/power/supply/bq27xxx_battery
p96
aVmodule:drivers/scsi/cxgbi/*
p97
aVmodule:drivers/scsi/libiscs*
p98
aVmodule:drivers/scsi/qla2xxx/qla2xxx
p99
aVmodule:drivers/scsi/ufs/*
p100
aVmodule:drivers/target/**
p101
aVmodule:drivers/usb/chipidea/**
p102
aVmodule:drivers/usb/host/**
p103
aVmodule:drivers/usb/musb/**
p104
aVmodule:fs/nfs/**
p105
aVmodule:net/ceph/libceph
p106
aVmodule:net/l2tp/l2tp_core
p107
aVmodule:sound/firewire/snd-firewire-lib
p108
aVbtree_*
p109
aVvisitor*
p110
aVcan_rx_register
p111
aVip6_xmit
p112
aVmodule:net/dccp/dccp
p113
aVmodule:net/rds/rds
p114
aVdevfreq_*
p115
aVdevm_devfreq_*
p116
aVupdate_devfreq
p117
aVmodule:drivers/infiniband/**
p118
aVacpi_ec_add_query_handler
p119
aVacpi_ec_remove_query_handler
p120
aVfirst_ec
p121
aVdebugfs_create_automount
p122
aVmodule:drivers/iio/imu/inv_mpu6050/*
p123
ass(Vbase
p124
Valpha
p125
tp126
(dp127
Vfeaturesets
p128
(lp129
Vnone
p130
asVkernel-arch
p131
Valpha
p132
ss(Vdescription
p133
g125
NValpha-smp
p134
tp135
(dp136
Vhardware
p137
VAlpha SMP
p138
sVhardware-long
p139
VDEC Alpha SMP systems with extended kernel start address (Wildfire, Titan, Marvel)
p140
ss(Vbuild
p141
g125
tp142
(dp143
Vsigned-modules
p144
I00
sVimage-file
p145
Varch/alpha/boot/vmlinux.gz
p146
ss(Vdescription
p147
g125
NValpha-generic
p148
tp149
(dp150
Vhardware
p151
VAlpha
p152
sVhardware-long
p153
VDEC Alpha systems with extended kernel start address (Wildfire, Titan, Marvel)
p154
ss(Vimage
p155
g125
tp156
(dp157
Vsuggests
p158
Vaboot, fdutils
p159
sVinstall-stem
p160
Vvmlinuz
p161
ss(Vbase
p162
g125
g130
tp163
(dp164
Vflavours
p165
(lp166
Valpha-generic
p167
aValpha-smp
p168
asVimplicit-flavour
p169
I01
ss(Vbase
p170
Vamd64
p171
tp172
(dp173
Vfeaturesets
p174
(lp175
Vnone
p176
aVrt
p177
asVkernel-arch
p178
Vx86
p179
ss(Vdescription
p180
g171
NVamd64
p181
tp182
(dp183
Vhardware
p184
V64-bit PCs
p185
sVhardware-long
p186
VPCs with AMD64, Intel 64 or VIA Nano processors
p187
ss(Vbuild
p188
g171
tp189
(dp190
Vvdso
p191
I01
sVimage-file
p192
Varch/x86/boot/bzImage
p193
sVdebug-info
p194
I01
sVsigned-modules
p195
I00
ss(Vrelations
p196
g171
tp197
(dp198
Vheaders%gcc-6
p199
Vlinux-compiler-gcc-6-x86
p200
ss(Vimage
p201
g171
tp202
(dp203
Vbreaks
p204
Vxserver-xorg-input-vmmouse (<< 1:13.0.99)
p205
sVinstall-stem
p206
Vvmlinuz
p207
sVbootloaders
p208
(lp209
Vgrub-pc
p210
aVgrub-efi-amd64
p211
aVextlinux
p212
ass(Vbase
p213
g171
Vnone
p214
tp215
(dp216
Vflavours
p217
(lp218
Vamd64
p219
ass(Vdescription
p220
g171
g214
Vamd64
p221
tp222
(dp223
Vparts
p224
(lp225
Vxen
p226
ass(Vbase
p227
g171
Vrt
p228
tp229
(dp230
Vflavours
p231
(lp232
Vamd64
p233
ass(Vbase
p234
Varm64
p235
tp236
(dp237
Vfeaturesets
p238
(lp239
Vnone
p240
asVkernel-arch
p241
Varm64
p242
ss(Vdescription
p243
g235
NVarm64
p244
tp245
(dp246
Vhardware
p247
V64-bit ARMv8 machines
p248
ss(Vbuild
p249
g235
tp250
(dp251
Vvdso
p252
I01
sVimage-file
p253
Varch/arm64/boot/Image
p254
sVdebug-info
p255
I01
sVsigned-modules
p256
I00
ss(Vimage
p257
g235
NVarm64
p258
tp259
(dp260
s(Vimage
p261
g235
tp262
(dp263
Vbreaks
p264
Vlibmozjs185-1.0, libmozjs-24-0 (<< 24.2.0-5.1~)
p265
sVinstall-stem
p266
Vvmlinuz
p267
ss(Vbase
p268
g235
Vnone
p269
tp270
(dp271
Vflavours
p272
(lp273
Varm64
p274
ass(Vbase
p275
Varmel
p276
tp277
(dp278
g128
(lp279
g130
asVkernel-arch
p280
Varm
p281
ss(Vbuild
p282
g276
tp283
(dp284
Vsigned-modules
p285
I00
sVimage-file
p286
Varch/arm/boot/zImage
p287
ss(Vimage
p288
g276
NVmarvell
p289
tp290
(dp291
Vrecommends
p292
Vu-boot-tools
p293
sVbreaks
p294
Vflash-kernel (<< 3.57~)
p295
sVcheck-size-with-dtb
p296
I01
sVcheck-size
p297
L2097080L
ss(Vdescription
p298
g276
NVmarvell
p299
tp300
(dp301
Vhardware
p302
VMarvell Kirkwood/Orion
p303
sVhardware-long
p304
VMarvell Kirkwood based systems (SheevaPlug, QNAP TS-119/TS-219, etc)\u000aand Orion 5181, 5182 and 5281 based systems (QNAP TS-109/TS-209, etc)
p305
ss(Vrelations
p306
g276
tp307
(dp308
Vheaders%gcc-6
p309
Vlinux-compiler-gcc-6-arm
p310
ss(Vimage
p311
g276
tp312
(dp313
Vinstall-stem
p314
Vvmlinuz
p315
ss(g162
g276
g130
tp316
(dp317
g165
(lp318
Vmarvell
p319
asg169
I01
ss(Vbase
p320
Varmhf
p321
tp322
(dp323
g128
(lp324
g130
asVkernel-arch
p325
Varm
p326
ss(Vdescription
p327
g321
NVarmmp
p328
tp329
(dp330
Vhardware
p331
VARMv7 multiplatform compatible SoCs
p332
sVhardware-long
p333
VARMv7 multiplatform kernel. See\u000ahttps://wiki.debian.org/DebianKernel/ARMMP for details of supported\u000aplatforms
p334
ss(Vbuild
p335
g321
tp336
(dp337
Vvdso
p338
I01
sVimage-file
p339
Varch/arm/boot/zImage
p340
sVsigned-modules
p341
I00
ss(Vdescription
p342
g321
NVarmmp-lpae
p343
tp344
(dp345
Vhardware
p346
VARMv7 multiplatform compatible SoCs supporting LPAE
p347
sVhardware-long
p348
VARMv7 multiplatform kernel supporting LPAE. See\u000ahttps://wiki.debian.org/DebianKernel/ARMMP for details of supported\u000aplatforms.
p349
ss(Vrelations
p350
g321
tp351
(dp352
Vheaders%gcc-6
p353
Vlinux-compiler-gcc-6-arm
p354
ss(Vimage
p355
g321
tp356
(dp357
Vinstall-stem
p358
Vvmlinuz
p359
ss(g162
g321
g130
tp360
(dp361
g165
(lp362
Varmmp
p363
aVarmmp-lpae
p364
asg169
I01
ss(Vbase
p365
Vhppa
p366
tp367
(dp368
g128
(lp369
g130
asVkernel-arch
p370
Vparisc
p371
ss(Vbuild
p372
g366
tp373
(dp374
Vsigned-modules
p375
I00
sVimage-file
p376
Vvmlinux
p377
ss(Vdescription
p378
g366
NVparisc64-smp
p379
tp380
(dp381
Vhardware
p382
Vmultiprocessor 64-bit PA-RISC
p383
sVhardware-long
p384
VHP PA-RISC 64-bit SMP systems with support for more than 4 GB RAM
p385
ss(Vbase
p386
g366
NVparisc64-smp
p387
tp388
(dp389
Vcflags
p390
V-fno-cse-follow-jumps
p391
sVoverride-host-type
p392
Vhppa64-linux-gnu
p393
ss(Vrelations
p394
g366
tp395
(dp396
Vgcc-6
p397
Vgcc-6 <!stage1 !cross>, binutils-hppa64-linux-gnu <!stage1 !cross>, gcc-6-hppa64-linux-gnu <!stage1 !cross>, gcc-6-hppa-linux-gnu <!stage1 cross>, binutils-hppa64-linux-gnu <!stage1 cross>, gcc-6-hppa64-linux-gnu <!stage1 cross>
p398
ss(Vdescription
p399
g366
NVparisc
p400
tp401
(dp402
Vhardware
p403
V32-bit PA-RISC
p404
sVhardware-long
p405
VHP PA-RISC 32-bit systems with max 4 GB RAM
p406
ss(Vimage
p407
g366
tp408
(dp409
Vsuggests
p410
Vpalo
p411
sVinstall-stem
p412
Vvmlinux
p413
ss(g162
g366
g130
tp414
(dp415
g165
(lp416
Vparisc
p417
aVparisc64-smp
p418
asg169
I01
ss(Vbase
p419
Vi386
p420
tp421
(dp422
Vfeaturesets
p423
(lp424
Vnone
p425
aVrt
p426
asVkernel-arch
p427
Vx86
p428
ss(Vbuild
p429
g420
tp430
(dp431
Vvdso
p432
I01
sVimage-file
p433
Varch/x86/boot/bzImage
p434
sVsigned-modules
p435
I00
ss(Vdescription
p436
g420
NV686-pae
p437
tp438
(dp439
Vhardware
p440
Vmodern PCs
p441
sVhardware-long
p442
VPCs with one or more processors supporting PAE
p443
sVparts
p444
(lp445
Vpae
p446
ass(Vdescription
p447
g420
tp448
(dp449
Vpart-long-pae
p450
VThis kernel requires PAE (Physical Address Extension).\u000aThis feature is supported by the Intel Pentium Pro/II/III/4/4M/D, Xeon,\u000aCore and Atom; AMD Geode NX, Athlon (K7), Duron, Opteron, Sempron,\u000aTurion or Phenom; Transmeta Efficeon; VIA C7; and some other processors.
p451
ss(Vbuild
p452
g420
NV686-pae
p453
tp454
(dp455
Vdebug-info
p456
I01
ss(Vdescription
p457
g420
NV686
p458
tp459
(dp460
Vhardware
p461
Volder PCs
p462
sVhardware-long
p463
VPCs with one or more processors not supporting PAE
p464
ss(Vrelations
p465
g420
tp466
(dp467
Vheaders%gcc-6
p468
Vlinux-compiler-gcc-6-x86
p469
ss(Vimage
p470
g420
tp471
(dp472
Vbreaks
p473
Vxserver-xorg-input-vmmouse (<< 1:13.0.99)
p474
sVinstall-stem
p475
Vvmlinuz
p476
sVbootloaders
p477
(lp478
Vgrub-pc
p479
aVextlinux
p480
ass(Vbase
p481
g420
Vnone
p482
tp483
(dp484
Vflavours
p485
(lp486
V686
p487
aV686-pae
p488
ass(Vdescription
p489
g420
g482
V686-pae
p490
tp491
(dp492
Vparts
p493
(lp494
Vxen
p495
ass(Vbase
p496
g420
Vrt
p497
tp498
(dp499
Vflavours
p500
(lp501
V686-pae
p502
ass(Vbase
p503
Vm68k
p504
tp505
(dp506
Vcflags
p507
V-ffreestanding
p508
sg128
(lp509
g130
asVkernel-arch
p510
Vm68k
p511
ss(Vbuild
p512
g504
tp513
(dp514
Vsigned-modules
p515
I00
sVimage-file
p516
Vvmlinux.gz
p517
ss(Vdescription
p518
g504
NVm68k
p519
tp520
(dp521
Vhardware
p522
VMotorola MC68020+ family
p523
ss(Vimage
p524
g504
tp525
(dp526
Vsuggests
p527
Vvmelilo, fdutils
p528
sVinstall-stem
p529
Vvmlinuz
p530
ss(g162
g504
g130
tp531
(dp532
g165
(lp533
Vm68k
p534
asg169
I01
ss(Vbase
p535
Vmips
p536
tp537
(dp538
g128
(lp539
g130
asVkernel-arch
p540
Vmips
p541
ss(Vbuild
p542
g536
tp543
(dp544
Vsigned-modules
p545
I00
sVimage-file
p546
Vvmlinux
p547
ss(Vimage
p548
g536
NV4kc-malta
p549
tp550
(dp551
Vconfigs
p552
(lp553
Vkernelarch-mips/config.malta
p554
aVkernelarch-mips/config.mips32r2
p555
ass(Vimage
p556
g536
NV5kc-malta
p557
tp558
(dp559
Vconfigs
p560
(lp561
Vkernelarch-mips/config.malta
p562
aVkernelarch-mips/config.mips64r2
p563
ass(Vdescription
p564
g536
NVocteon
p565
tp566
(dp567
Vhardware
p568
VOcteon
p569
sVhardware-long
p570
VCavium Networks Octeon
p571
ss(Vimage
p572
g536
NVocteon
p573
tp574
(dp575
Vconfigs
p576
(lp577
Vkernelarch-mips/config.octeon
p578
ass(Vimage
p579
g536
tp580
(dp581
Vinstall-stem
p582
Vvmlinux
p583
ss(Vdescription
p584
g536
NV5kc-malta
p585
tp586
(dp587
Vhardware
p588
VMIPS Malta (64-bit)
p589
sVhardware-long
p590
VMIPS Malta boards (64-bit)
p591
ss(Vdescription
p592
g536
NV4kc-malta
p593
tp594
(dp595
Vhardware
p596
VMIPS Malta
p597
sVhardware-long
p598
VMIPS Malta boards
p599
ss(g162
g536
g130
tp600
(dp601
g165
(lp602
V4kc-malta
p603
aV5kc-malta
p604
aVocteon
p605
asg169
I01
ss(Vbase
p606
Vmipsel
p607
tp608
(dp609
g128
(lp610
g130
asVkernel-arch
p611
Vmips
p612
ss(Vimage
p613
g607
NVloongson-3
p614
tp615
(dp616
Vconfigs
p617
(lp618
Vkernelarch-mips/config.loongson-3
p619
ass(Vbuild
p620
g607
tp621
(dp622
Vsigned-modules
p623
I00
sVimage-file
p624
Vvmlinux
p625
ss(Vimage
p626
g607
NV4kc-malta
p627
tp628
(dp629
Vconfigs
p630
(lp631
Vkernelarch-mips/config.malta
p632
aVkernelarch-mips/config.mips32r2
p633
ass(Vimage
p634
g607
NV5kc-malta
p635
tp636
(dp637
Vconfigs
p638
(lp639
Vkernelarch-mips/config.malta
p640
aVkernelarch-mips/config.mips64r2
p641
ass(Vdescription
p642
g607
NVocteon
p643
tp644
(dp645
Vhardware
p646
VOcteon
p647
sVhardware-long
p648
VCavium Networks Octeon
p649
ss(Vdescription
p650
g607
NVloongson-3
p651
tp652
(dp653
Vhardware
p654
VLoongson 3A/3B
p655
sVhardware-long
p656
VLoongson 3A or 3B based systems (e.g. from Loongson or Lemote)
p657
ss(Vimage
p658
g607
NVocteon
p659
tp660
(dp661
Vconfigs
p662
(lp663
Vkernelarch-mips/config.octeon
p664
ass(Vimage
p665
g607
tp666
(dp667
Vinstall-stem
p668
Vvmlinux
p669
ss(Vdescription
p670
g607
NV5kc-malta
p671
tp672
(dp673
Vhardware
p674
VMIPS Malta (64-bit)
p675
sVhardware-long
p676
VMIPS Malta boards (64-bit)
p677
ss(Vdescription
p678
g607
NV4kc-malta
p679
tp680
(dp681
Vhardware
p682
VMIPS Malta
p683
sVhardware-long
p684
VMIPS Malta boards
p685
ss(g162
g607
g130
tp686
(dp687
g165
(lp688
V4kc-malta
p689
aV5kc-malta
p690
aVloongson-3
p691
aVocteon
p692
asg169
I01
ss(Vbase
p693
Vmipsn32
p694
tp695
(dp696
Vfeaturesets
p697
(lp698
sVkernel-arch
p699
Vmips
p700
ss(Vbase
p701
Vmipsn32el
p702
tp703
(dp704
Vfeaturesets
p705
(lp706
sVkernel-arch
p707
Vmips
p708
ss(Vbase
p709
Vmips64
p710
tp711
(dp712
g128
(lp713
g130
asVkernel-arch
p714
Vmips
p715
ss(Vbuild
p716
g710
tp717
(dp718
Vsigned-modules
p719
I00
sVimage-file
p720
Vvmlinux
p721
ss(Vimage
p722
g710
NV5kc-malta
p723
tp724
(dp725
Vconfigs
p726
(lp727
Vkernelarch-mips/config.malta
p728
aVkernelarch-mips/config.mips64r2
p729
ass(Vdescription
p730
g710
NVocteon
p731
tp732
(dp733
Vhardware
p734
VOcteon
p735
sVhardware-long
p736
VCavium Networks Octeon
p737
ss(Vimage
p738
g710
tp739
(dp740
Vinstall-stem
p741
Vvmlinux
p742
ss(Vdescription
p743
g710
NV5kc-malta
p744
tp745
(dp746
Vhardware
p747
VMIPS Malta
p748
sVhardware-long
p749
VMIPS Malta boards
p750
ss(Vimage
p751
g710
NVocteon
p752
tp753
(dp754
Vconfigs
p755
(lp756
Vkernelarch-mips/config.octeon
p757
ass(g162
g710
g130
tp758
(dp759
g165
(lp760
V5kc-malta
p761
aVocteon
p762
asg169
I01
ss(Vbase
p763
Vmips64el
p764
tp765
(dp766
g128
(lp767
g130
asVkernel-arch
p768
Vmips
p769
ss(Vimage
p770
g764
NVloongson-3
p771
tp772
(dp773
Vconfigs
p774
(lp775
Vkernelarch-mips/config.loongson-3
p776
ass(Vbuild
p777
g764
tp778
(dp779
Vsigned-modules
p780
I00
sVimage-file
p781
Vvmlinux
p782
ss(Vimage
p783
g764
NV5kc-malta
p784
tp785
(dp786
Vconfigs
p787
(lp788
Vkernelarch-mips/config.malta
p789
aVkernelarch-mips/config.mips64r2
p790
ass(Vdescription
p791
g764
NVocteon
p792
tp793
(dp794
Vhardware
p795
VOcteon
p796
sVhardware-long
p797
VCavium Networks Octeon
p798
ss(Vdescription
p799
g764
NVloongson-3
p800
tp801
(dp802
Vhardware
p803
VLoongson 3A/3B
p804
sVhardware-long
p805
VLoongson 3A or 3B based systems (e.g. from Loongson or Lemote)
p806
ss(Vimage
p807
g764
tp808
(dp809
Vinstall-stem
p810
Vvmlinux
p811
ss(Vdescription
p812
g764
NV5kc-malta
p813
tp814
(dp815
Vhardware
p816
VMIPS Malta
p817
sVhardware-long
p818
VMIPS Malta boards
p819
ss(Vimage
p820
g764
NVocteon
p821
tp822
(dp823
Vconfigs
p824
(lp825
Vkernelarch-mips/config.octeon
p826
ass(g162
g764
g130
tp827
(dp828
g165
(lp829
V5kc-malta
p830
aVloongson-3
p831
aVocteon
p832
asg169
I01
ss(Vbase
p833
Vpowerpc
p834
tp835
(dp836
g128
(lp837
g130
asVkernel-arch
p838
Vpowerpc
p839
ss(Vdescription
p840
g834
NVpowerpc64
p841
tp842
(dp843
Vhardware
p844
V64-bit PowerPC
p845
ss(Vbuild
p846
g834
tp847
(dp848
Vvdso
p849
I01
sVimage-file
p850
Vvmlinux
p851
ss(Vimage
p852
g834
NVpowerpc-smp
p853
tp854
(dp855
Vconfigs
p856
(lp857
Vpowerpc/config.powerpc
p858
aVpowerpc/config.powerpc-smp
p859
ass(Vdescription
p860
g834
NVpowerpc
p861
tp862
(dp863
Vhardware
p864
Vuniprocessor 32-bit PowerPC
p865
ss(Vimage
p866
g834
NVpowerpc64
p867
tp868
(dp869
Vconfigs
p870
(lp871
Vkernelarch-powerpc/config-arch-64
p872
aVkernelarch-powerpc/config-arch-64-be
p873
ass(Vdescription
p874
g834
NVpowerpc-smp
p875
tp876
(dp877
Vhardware
p878
Vmultiprocessor 32-bit PowerPC
p879
ss(Vimage
p880
g834
tp881
(dp882
Vsuggests
p883
Vmkvmlinuz
p884
sVinstall-stem
p885
Vvmlinux
p886
sVconfigs
p887
(lp888
ss(g162
g834
g130
tp889
(dp890
g165
(lp891
Vpowerpc
p892
aVpowerpc-smp
p893
aVpowerpc64
p894
asg169
I01
ss(Vbase
p895
Vpowerpcspe
p896
tp897
(dp898
g128
(lp899
g130
asVkernel-arch
p900
Vpowerpc
p901
ss(Vbuild
p902
g896
tp903
(dp904
Vsigned-modules
p905
I00
sVimage-file
p906
Vvmlinux
p907
sVvdso
p908
I01
ss(Vimage
p909
g896
tp910
(dp911
Vsuggests
p912
Vmkvmlinuz
p913
sVinstall-stem
p914
Vvmlinux
p915
ss(Vdescription
p916
g896
tp917
(dp918
Vhardware
p919
V32-bit PowerPC with SPE (instead of AltiVec) with SMP support
p920
ss(g162
g896
g130
tp921
(dp922
g165
(lp923
Vpowerpcspe
p924
asg169
I01
ss(Vbase
p925
Vppc64
p926
tp927
(dp928
g128
(lp929
g130
asVkernel-arch
p930
Vpowerpc
p931
ss(Vdescription
p932
g926
NVpowerpc64
p933
tp934
(dp935
Vhardware
p936
V64-bit PowerPC
p937
ss(Vbuild
p938
g926
tp939
(dp940
Vsigned-modules
p941
I00
sVimage-file
p942
Vvmlinux
p943
sVvdso
p944
I01
ss(Vimage
p945
g926
NVpowerpc64
p946
tp947
(dp948
Vconfigs
p949
(lp950
Vkernelarch-powerpc/config-arch-64
p951
aVkernelarch-powerpc/config-arch-64-be
p952
ass(Vimage
p953
g926
tp954
(dp955
Vsuggests
p956
Vmkvmlinuz
p957
sVinstall-stem
p958
Vvmlinux
p959
sVconfigs
p960
(lp961
ss(g162
g926
g130
tp962
(dp963
g165
(lp964
Vpowerpc64
p965
asg169
I01
ss(Vbase
p966
Vppc64el
p967
tp968
(dp969
g128
(lp970
g130
asVkernel-arch
p971
Vpowerpc
p972
ss(Vdescription
p973
g967
NVpowerpc64le
p974
tp975
(dp976
Vhardware
p977
VLittle-endian 64-bit PowerPC
p978
ss(Vbuild
p979
g967
tp980
(dp981
Vvdso
p982
I01
sVimage-file
p983
Vvmlinux
p984
ss(Vimage
p985
g967
tp986
(dp987
Vsuggests
p988
Vmkvmlinuz
p989
sVinstall-stem
p990
Vvmlinux
p991
sVconfigs
p992
(lp993
ss(Vimage
p994
g967
NVpowerpc64le
p995
tp996
(dp997
Vconfigs
p998
(lp999
Vkernelarch-powerpc/config-arch-64
p1000
aVkernelarch-powerpc/config-arch-64-le
p1001
ass(g162
g967
g130
tp1002
(dp1003
g165
(lp1004
Vpowerpc64le
p1005
asg169
I01
ss(Vbase
p1006
Vs390
p1007
tp1008
(dp1009
Vfeaturesets
p1010
(lp1011
sVkernel-arch
p1012
Vs390
p1013
ss(Vbase
p1014
Vs390x
p1015
tp1016
(dp1017
g128
(lp1018
g130
asVkernel-arch
p1019
Vs390
p1020
ss(Vdescription
p1021
g1015
NVs390x
p1022
tp1023
(dp1024
Vhardware
p1025
VIBM zSeries
p1026
ss(Vbuild
p1027
g1015
tp1028
(dp1029
Vvdso
p1030
I01
sVimage-file
p1031
Varch/s390/boot/image
p1032
ss(Vbuild
p1033
g1015
NVs390x
p1034
tp1035
(dp1036
Vdebug-info
p1037
I01
ss(Vrelations
p1038
g1015
tp1039
(dp1040
Vheaders%gcc-6
p1041
Vlinux-compiler-gcc-6-s390
p1042
ss(Vimage
p1043
g1015
tp1044
(dp1045
Vinstall-stem
p1046
Vvmlinuz
p1047
sVbootloaders
p1048
(lp1049
Vs390-tools
p1050
ass(g162
g1015
g130
tp1051
(dp1052
g165
(lp1053
Vs390x
p1054
asg169
I01
ss(Vbase
p1055
Vsh3
p1056
tp1057
(dp1058
Vfeaturesets
p1059
(lp1060
sVkernel-arch
p1061
Vsh
p1062
ss(Vbase
p1063
Vsh4
p1064
tp1065
(dp1066
g128
(lp1067
g130
asVkernel-arch
p1068
Vsh
p1069
ss(Vbuild
p1070
g1064
tp1071
(dp1072
Vsigned-modules
p1073
I00
sVimage-file
p1074
Varch/sh/boot/zImage
p1075
ss(Vdescription
p1076
g1064
NVsh7751r
p1077
tp1078
(dp1079
Vhardware
p1080
Vsh7751r
p1081
sVhardware-long
p1082
VRenesas SH7751R R2D plus board
p1083
ss(Vdescription
p1084
g1064
NVsh7785lcr
p1085
tp1086
(dp1087
Vhardware
p1088
Vsh7785lcr
p1089
sVhardware-long
p1090
VRenesas SH7785 reference board
p1091
ss(Vimage
p1092
g1064
tp1093
(dp1094
Vinstall-stem
p1095
Vvmlinuz
p1096
ss(Vimage
p1097
g1064
NVsh7785lcr
p1098
tp1099
(dp1100
Vrecommends
p1101
Vu-boot-tools
p1102
sVcheck-size
p1103
L4194304L
ss(g162
g1064
g130
tp1104
(dp1105
g165
(lp1106
Vsh7751r
p1107
aVsh7785lcr
p1108
asg169
I01
ss(Vbase
p1109
Vsparc
p1110
tp1111
(dp1112
Vfeaturesets
p1113
(lp1114
sVkernel-arch
p1115
Vsparc
p1116
ss(Vbase
p1117
Vsparc64
p1118
tp1119
(dp1120
g128
(lp1121
g130
asVkernel-arch
p1122
Vsparc
p1123
ss(Vbuild
p1124
g1118
tp1125
(dp1126
Vsigned-modules
p1127
I00
sVimage-file
p1128
Varch/sparc/boot/zImage
p1129
ss(Vimage
p1130
g1118
NVsparc64
p1131
tp1132
(dp1133
Vconfigs
p1134
(lp1135
Vkernelarch-sparc/config-up
p1136
ass(Vimage
p1137
g1118
NVsparc64-smp
p1138
tp1139
(dp1140
Vconfigs
p1141
(lp1142
Vkernelarch-sparc/config-smp
p1143
ass(Vimage
p1144
g1118
tp1145
(dp1146
Vsuggests
p1147
Vsilo, fdutils
p1148
sVinstall-stem
p1149
Vvmlinuz
p1150
sVconfigs
p1151
(lp1152
ss(Vdescription
p1153
g1118
NVsparc64-smp
p1154
tp1155
(dp1156
Vhardware
p1157
Vmultiprocessor 64-bit UltraSPARC
p1158
ss(Vdescription
p1159
g1118
NVsparc64
p1160
tp1161
(dp1162
Vhardware
p1163
Vuniprocessor 64-bit UltraSPARC
p1164
ss(g162
g1118
g130
tp1165
(dp1166
g165
(lp1167
Vsparc64
p1168
aVsparc64-smp
p1169
asg169
I01
ss(Vbase
p1170
Vtilegx
p1171
tp1172
(dp1173
Vfeaturesets
p1174
(lp1175
sVkernel-arch
p1176
Vtile
p1177
ss(Vbase
p1178
Vx32
p1179
tp1180
(dp1181
Vfeaturesets
p1182
(lp1183
sVkernel-arch
p1184
Vx86
p1185
ss(Vdescription
p1186
NVrt
p1187
tp1188
(dp1189
Vparts
p1190
(lp1191
Vrt
p1192
asVpart-long-rt
p1193
VThis kernel includes the PREEMPT_RT realtime patch set.
p1194
sVpart-short-rt
p1195
VPREEMPT_RT
p1196
ss(Vabi
p1197
Ng1187
tp1198
(dp1199
Vignore-changes
p1200
(lp1201
V*
p1202
ass(Vversion
p1203
tp1204
(dp1205
Vupstream
p1206
V4.12
p1207
sVsource
p1208
V4.12.13-1parrot13
p1209
sVabiname
p1210
V4.12.0-parrot13
p1211
sVabiname_base
p1212
V4.12.0
p1213
ss.