cdebian_linux.config
ConfigCore
p0
(tRp1
(Vabi
p2
tp3
(dp4
Vabiname
p5
Vparrot2-28t
p6
sVignore-changes
p7
(lp8
V__cpuhp_*
p9
aV__xive_vm_h_*
p10
aVbpf_analyzer
p11
aVcxl_*
p12
aVdax_flush
p13
aVieee80211_nullfunc_get
p14
aVinet_add_protocol
p15
aVinet_del_protocol
p16
aViommu_device_*
p17
aVkvm_async_pf_task_wait
p18
aVkvmppc_*
p19
aVmm_iommu_*
p20
aVmv_mbus_*
p21
aVperf_*
p22
aVregister_cxl_calls
p23
aVregister_key_type
p24
aVunregister_cxl_calls
p25
aV*_hw_breakpoint
p26
aVmodule:arch/x86/kvm/*
p27
aVmodule:drivers/crypto/ccp/*
p28
aVmodule:drivers/hv/*
p29
aVmodule:drivers/gpu/drm/sun4i/*
p30
aVmodule:drivers/iio/**
p31
aVmodule:drivers/misc/cxl/*
p32
aVmodule:drivers/mtd/nand/*
p33
aVmodule:drivers/net/ethernet/**
p34
aVmodule:drivers/net/wireless/**
p35
aVmodule:drivers/nvdimm/*
p36
aVmodule:drivers/power/supply/bq27xxx_battery
p37
aVmodule:drivers/scsi/cxgbi/*
p38
aVmodule:drivers/scsi/libiscs*
p39
aVmodule:drivers/scsi/qla2xxx/qla2xxx
p40
aVmodule:drivers/scsi/ufs/*
p41
aVmodule:drivers/target/**
p42
aVmodule:drivers/usb/chipidea/**
p43
aVmodule:drivers/usb/gadget/**
p44
aVmodule:drivers/usb/host/**
p45
aVmodule:drivers/usb/musb/**
p46
aVmodule:fs/nfs/**
p47
aVmodule:net/ceph/libceph
p48
aVmodule:net/l2tp/**
p49
aVmodule:net/rxrpc/rxrpc
p50
aVmodule:net/sctp/**
p51
aVmodule:sound/core/seq/**
p52
aVmodule:sound/firewire/snd-firewire-lib
p53
aVmodule:sound/pci/hda/*
p54
aVbtree_*
p55
aVvisitor*
p56
aVcan_rx_register
p57
aVip6_xmit
p58
aVmodule:net/dccp/dccp
p59
aVmodule:net/rds/rds
p60
aVdevfreq_*
p61
aVdevm_devfreq_*
p62
aVupdate_devfreq
p63
aVmodule:drivers/infiniband/**
p64
aVacpi_ec_add_query_handler
p65
aVacpi_ec_remove_query_handler
p66
aVfirst_ec
p67
aVdebugfs_create_automount
p68
aVmodule:drivers/iio/imu/inv_mpu6050/*
p69
aVdrm_crtc_accurate_vblank_count
p70
aVacpi_nfit_desc_init
p71
aVacpi_nfit_init
p72
aVloop_register_transfer
p73
aVxen_xlate_*
p74
aVnf_nat_masquerade_ipv4_register_notifier
p75
aVnf_nat_masquerade_ipv6_register_notifier
p76
ass(Vbase
p77
tp78
(dp79
Varches
p80
(lp81
Valpha
p82
aVamd64
p83
aVarm64
p84
aVarm64ilp32
p85
aVarmel
p86
aVarmhf
p87
aVhppa
p88
aVi386
p89
aVia64
p90
aVm68k
p91
aVmips
p92
aVmips64
p93
aVmips64el
p94
aVmips64r6
p95
aVmips64r6el
p96
aVmipsel
p97
aVmipsn32
p98
aVmipsn32el
p99
aVmipsn32r6
p100
aVmipsn32r6el
p101
aVmipsr6
p102
aVmipsr6el
p103
aVpowerpc
p104
aVpowerpcspe
p105
aVppc64
p106
aVppc64el
p107
aVriscv64
p108
aVs390
p109
aVs390x
p110
aVsh3
p111
aVsh4
p112
aVsparc
p113
aVsparc64
p114
aVx32
p115
asVcompiler
p116
Vgcc-8
p117
sVfeaturesets
p118
(lp119
Vnone
p120
aVrt
p121
ass(Vbuild
p122
tp123
(dp124
Vdebug-info
p125
I01
sVsigned-code
p126
I00
ss(Vbase
p127
NVrt
p128
tp129
(dp130
Venabled
p131
I01
ss(Vdescription
p132
tp133
(dp134
Vpart-long-up
p135
VThis kernel is not suitable for SMP (multi-processor,\u000amulti-core or hyper-threaded) systems.
p136
ss(Vimage
p137
tp138
(dp139
Vinitramfs-generators
p140
(lp141
Vinitramfs-tools
p142
aVinitramfs-fallback
p143
asVrecommends
p144
Vapparmor
p145
ss(Vrelations
p146
tp147
(dp148
Vgcc-8
p149
Vgcc-8 <!stage1 !cross !pkg.linux.nokernel>, gcc-8-@gnu-type-package@ <!stage1 cross !pkg.linux.nokernel>
p150
sVinitramfs-fallback
p151
Vlinux-initramfs-tool
p152
sVinitramfs-tools
p153
Vinitramfs-tools (>= 0.120+deb8u2)
p154
ss(Vbase
p155
Valpha
p156
tp157
(dp158
Vkernel-arch
p159
Valpha
p160
sVfeaturesets
p161
(lp162
Vnone
p163
ass(Vbuild
p164
g156
tp165
(dp166
Vimage-file
p167
Varch/alpha/boot/vmlinux.gz
p168
ss(Vimage
p169
g156
tp170
(dp171
Vsuggests
p172
Vaboot, fdutils
p173
sVinstall-stem
p174
Vvmlinuz
p175
ss(Vdescription
p176
g156
NValpha-generic
p177
tp178
(dp179
Vhardware
p180
VAlpha
p181
sVhardware-long
p182
VDEC Alpha systems with extended kernel start address (Wildfire, Titan, Marvel)
p183
ss(Vdescription
p184
g156
NValpha-smp
p185
tp186
(dp187
Vhardware
p188
VAlpha SMP
p189
sVhardware-long
p190
VDEC Alpha SMP systems with extended kernel start address (Wildfire, Titan, Marvel)
p191
ss(Vbase
p192
g156
g163
tp193
(dp194
Vflavours
p195
(lp196
Valpha-generic
p197
aValpha-smp
p198
asVimplicit-flavour
p199
I01
ss(Vbase
p200
Vamd64
p201
tp202
(dp203
Vfeaturesets
p204
(lp205
Vnone
p206
aVrt
p207
asVkernel-arch
p208
Vx86
p209
ss(Vbuild
p210
g201
tp211
(dp212
Vdebug-info
p213
I01
sVimage-file
p214
Varch/x86/boot/bzImage
p215
sVsigned-code
p216
I01
sVvdso
p217
I01
ss(Vimage
p218
g201
tp219
(dp220
Vbootloaders
p221
(lp222
Vgrub-pc
p223
aVgrub-efi-amd64
p224
aVextlinux
p225
asVinstall-stem
p226
Vvmlinuz
p227
sVbreaks
p228
Vxserver-xorg-input-vmmouse (<< 1:13.0.99)
p229
ss(Vrelations
p230
g201
tp231
(dp232
Vgcc-8
p233
Vgcc-8 (>= 8-20180123-1~) <!stage1 !cross !pkg.linux.nokernel>, gcc-8-x86-64-linux-gnu (>= 8-20180123-1~) <!stage1 cross !pkg.linux.nokernel>
p234
sVheaders%gcc-8
p235
Vlinux-compiler-gcc-8-x86
p236
ss(Vdescription
p237
g201
NVamd64
p238
tp239
(dp240
Vhardware
p241
V64-bit PCs
p242
sVhardware-long
p243
VPCs with AMD64, Intel 64 or VIA Nano processors
p244
ss(Vdescription
p245
g201
NVcloud-amd64
p246
tp247
(dp248
Vhardware
p249
Vx86-64 cloud
p250
sVhardware-long
p251
VAmazon EC2, Google Compute Engine and Microsoft Azure cloud platforms
p252
ss(Vbase
p253
g201
Vnone
p254
tp255
(dp256
Vflavours
p257
(lp258
Vamd64
p259
aVcloud-amd64
p260
ass(Vbase
p261
g201
Vrt
p262
tp263
(dp264
Vflavours
p265
(lp266
Vamd64
p267
ass(Vbase
p268
Varm64
p269
tp270
(dp271
Vkernel-arch
p272
Varm64
p273
sVfeaturesets
p274
(lp275
Vnone
p276
aVrt
p277
ass(Vbuild
p278
g269
tp279
(dp280
Vdebug-info
p281
I01
sVimage-file
p282
Varch/arm64/boot/Image
p283
sVsigned-code
p284
I01
sVvdso
p285
I01
ss(Vimage
p286
g269
tp287
(dp288
Vinstall-stem
p289
Vvmlinuz
p290
sVbreaks
p291
Vlibmozjs185-1.0, libmozjs-24-0 (<< 24.2.0-5.1~)
p292
ss(Vdescription
p293
g269
NVarm64
p294
tp295
(dp296
Vhardware
p297
V64-bit ARMv8 machines
p298
ss(Vimage
p299
g269
NVarm64
p300
tp301
(dp302
s(Vbase
p303
g269
Vnone
p304
tp305
(dp306
Vflavours
p307
(lp308
Varm64
p309
ass(Vbase
p310
g269
Vrt
p311
tp312
(dp313
Vflavours
p314
(lp315
Varm64
p316
ass(Vbase
p317
Varm64ilp32
p318
tp319
(dp320
Vkernel-arch
p321
Varm64
p322
sVfeaturesets
p323
(lp324
ss(Vbase
p325
Varmel
p326
tp327
(dp328
Vkernel-arch
p329
Varm
p330
sg161
(lp331
g163
ass(Vbuild
p332
g326
tp333
(dp334
Vimage-file
p335
Varch/arm/boot/zImage
p336
sVuncompressed-image-file
p337
Varch/arm/boot/Image
p338
ss(Vimage
p339
g326
tp340
(dp341
Vinstall-stem
p342
Vvmlinuz
p343
ss(Vrelations
p344
g326
tp345
(dp346
Vheaders%gcc-8
p347
Vlinux-compiler-gcc-8-arm
p348
ss(Vdescription
p349
g326
NVmarvell
p350
tp351
(dp352
Vhardware
p353
VMarvell Kirkwood/Orion
p354
sVhardware-long
p355
VMarvell Kirkwood and Orion based systems (https://wiki.debian.org/ArmEabiPort#Supported_hardware)
p356
ss(Vdescription
p357
g326
NVrpi
p358
tp359
(dp360
Vhardware
p361
VRaspberry Pi and Pi Zero
p362
sVhardware-long
p363
VRaspberry Pi, Raspberry Pi Zero based systems
p364
ss(Vimage
p365
g326
NVmarvell
p366
tp367
(dp368
Vrecommends
p369
Vu-boot-tools
p370
sVcheck-size
p371
I2097080
sVcheck-size-with-dtb
p372
I01
sVcheck-uncompressed-size
p373
I7340032
sVbreaks
p374
Vflash-kernel (<< 3.57~)
p375
ss(g192
g326
g163
tp376
(dp377
g195
(lp378
Vmarvell
p379
aVrpi
p380
asg199
I01
ss(Vbase
p381
Varmhf
p382
tp383
(dp384
Vfeaturesets
p385
(lp386
Vnone
p387
aVrt
p388
asVkernel-arch
p389
Varm
p390
ss(Vbuild
p391
g382
tp392
(dp393
Vimage-file
p394
Varch/arm/boot/zImage
p395
sVvdso
p396
I01
ss(Vimage
p397
g382
tp398
(dp399
Vinstall-stem
p400
Vvmlinuz
p401
ss(Vrelations
p402
g382
tp403
(dp404
Vheaders%gcc-8
p405
Vlinux-compiler-gcc-8-arm
p406
ss(Vdescription
p407
g382
NVarmmp
p408
tp409
(dp410
Vhardware
p411
VARMv7 multiplatform compatible SoCs
p412
sVhardware-long
p413
VARMv7 multiplatform kernel. See\u000ahttps://wiki.debian.org/DebianKernel/ARMMP for details of supported\u000aplatforms
p414
ss(Vdescription
p415
g382
NVarmmp-lpae
p416
tp417
(dp418
Vhardware
p419
VARMv7 multiplatform compatible SoCs supporting LPAE
p420
sVhardware-long
p421
VARMv7 multiplatform kernel supporting LPAE. See\u000ahttps://wiki.debian.org/DebianKernel/ARMMP for details of supported\u000aplatforms.
p422
ss(Vbase
p423
g382
Vnone
p424
tp425
(dp426
Vflavours
p427
(lp428
Varmmp
p429
aVarmmp-lpae
p430
ass(Vbase
p431
g382
Vrt
p432
tp433
(dp434
Vflavours
p435
(lp436
Varmmp
p437
ass(Vbase
p438
Vhppa
p439
tp440
(dp441
Vkernel-arch
p442
Vparisc
p443
sg161
(lp444
g163
ass(Vbuild
p445
g439
tp446
(dp447
Vimage-file
p448
Varch/parisc/boot/bzImage
p449
sVdebug-info
p450
I00
ss(Vimage
p451
g439
tp452
(dp453
Vsuggests
p454
Vpalo
p455
sVinstall-stem
p456
Vvmlinuz
p457
ss(Vdescription
p458
g439
NVparisc
p459
tp460
(dp461
Vhardware
p462
V32-bit PA-RISC
p463
sVhardware-long
p464
VHP PA-RISC 32-bit systems with max 4 GB RAM
p465
ss(Vdescription
p466
g439
NVparisc-smp
p467
tp468
(dp469
Vhardware
p470
Vmultiprocessor 32-bit PA-RISC
p471
sVhardware-long
p472
VHP PA-RISC 32-bit SMP systems with max 4 GB RAM
p473
ss(Vbase
p474
g439
NVparisc64-smp
p475
tp476
(dp477
Vcflags
p478
V-fno-cse-follow-jumps
p479
sVoverride-host-type
p480
Vhppa64-linux-gnu
p481
ss(Vdescription
p482
g439
NVparisc64-smp
p483
tp484
(dp485
Vhardware
p486
Vmultiprocessor 64-bit PA-RISC
p487
sVhardware-long
p488
VHP PA-RISC 64-bit SMP systems with support for more than 4 GB RAM
p489
ss(Vrelations
p490
g439
tp491
(dp492
Vgcc-8
p493
Vgcc-8 <!stage1 !cross !pkg.linux.nokernel>, gcc-8-hppa-linux-gnu <!stage1 cross !pkg.linux.nokernel>, binutils-hppa64-linux-gnu <!stage1 !pkg.linux.nokernel>, gcc-8-hppa64-linux-gnu <!stage1 !pkg.linux.nokernel>
p494
ss(g192
g439
g163
tp495
(dp496
g195
(lp497
Vparisc
p498
aVparisc-smp
p499
aVparisc64-smp
p500
asg199
I01
ss(Vbase
p501
Vi386
p502
tp503
(dp504
Vfeaturesets
p505
(lp506
Vnone
p507
aVrt
p508
asVkernel-arch
p509
Vx86
p510
ss(Vbuild
p511
g502
tp512
(dp513
Vimage-file
p514
Varch/x86/boot/bzImage
p515
sVsigned-code
p516
I01
sVvdso
p517
I01
ss(Vdescription
p518
g502
tp519
(dp520
Vpart-long-pae
p521
VThis kernel requires PAE (Physical Address Extension).\u000aThis feature is supported by the Intel Pentium Pro/II/III/4/4M/D, Xeon,\u000aCore and Atom; AMD Geode NX, Athlon (K7), Duron, Opteron, Sempron,\u000aTurion or Phenom; Transmeta Efficeon; VIA C7; and some other processors.
p522
ss(Vimage
p523
g502
tp524
(dp525
Vbootloaders
p526
(lp527
Vgrub-pc
p528
aVextlinux
p529
asVinstall-stem
p530
Vvmlinuz
p531
sVbreaks
p532
Vxserver-xorg-input-vmmouse (<< 1:13.0.99)
p533
ss(Vrelations
p534
g502
tp535
(dp536
Vgcc-8
p537
Vgcc-8 (>= 8-20180123-1~) <!stage1 !cross !pkg.linux.nokernel>, gcc-8-i686-linux-gnu (>= 8-20180123-1~) <!stage1 cross !pkg.linux.nokernel>
p538
sVheaders%gcc-8
p539
Vlinux-compiler-gcc-8-x86
p540
ss(Vdescription
p541
g502
NV686
p542
tp543
(dp544
Vhardware
p545
Volder PCs
p546
sVhardware-long
p547
VPCs with one or more processors not supporting PAE
p548
ss(Vbuild
p549
g502
NV686-pae
p550
tp551
(dp552
Vdebug-info
p553
I01
ss(Vdescription
p554
g502
NV686-pae
p555
tp556
(dp557
Vhardware
p558
Vmodern PCs
p559
sVhardware-long
p560
VPCs with one or more processors supporting PAE
p561
sVparts
p562
(lp563
Vpae
p564
ass(Vbase
p565
g502
Vnone
p566
tp567
(dp568
Vflavours
p569
(lp570
V686
p571
aV686-pae
p572
ass(Vbase
p573
g502
Vrt
p574
tp575
(dp576
Vflavours
p577
(lp578
V686-pae
p579
ass(Vbase
p580
Via64
p581
tp582
(dp583
Vkernel-arch
p584
Via64
p585
sg161
(lp586
g163
ass(Vbuild
p587
g581
tp588
(dp589
Vimage-file
p590
Vvmlinux.gz
p591
ss(Vimage
p592
g581
tp593
(dp594
Vbootloaders
p595
(lp596
Velilo
p597
asVinstall-stem
p598
Vvmlinuz
p599
ss(Vdescription
p600
g581
NVitanium
p601
tp602
(dp603
Vhardware
p604
VItanium (Merced)
p605
sVhardware-long
p606
Vsystems with original Itanium (Merced) processors
p607
ss(Vdescription
p608
g581
NVmckinley
p609
tp610
(dp611
Vhardware
p612
VItanium 2+
p613
sVhardware-long
p614
Vsystems with Itanium 2 or 9300/9500/9700-series processors
p615
ss(g192
g581
g163
tp616
(dp617
g195
(lp618
Vitanium
p619
aVmckinley
p620
asg199
I01
ss(Vbase
p621
Vm68k
p622
tp623
(dp624
Vcflags
p625
V-ffreestanding
p626
sVkernel-arch
p627
Vm68k
p628
sg161
(lp629
g163
ass(Vbuild
p630
g622
tp631
(dp632
Vimage-file
p633
Vvmlinux
p634
ss(Vimage
p635
g622
tp636
(dp637
Vsuggests
p638
Vvmelilo, fdutils
p639
sVinstall-stem
p640
Vvmlinux
p641
ss(Vdescription
p642
g622
NVm68k
p643
tp644
(dp645
Vhardware
p646
VMotorola MC68020+ family
p647
ss(g192
g622
g163
tp648
(dp649
g195
(lp650
Vm68k
p651
asg199
I01
ss(Vbase
p652
Vmips
p653
tp654
(dp655
Vkernel-arch
p656
Vmips
p657
sg161
(lp658
g163
ass(Vbuild
p659
g653
tp660
(dp661
Vimage-file
p662
Vvmlinux
p663
ss(Vimage
p664
g653
tp665
(dp666
Vinstall-stem
p667
Vvmlinux
p668
ss(Vdescription
p669
g653
NV4kc-malta
p670
tp671
(dp672
Vhardware
p673
VMIPS Malta
p674
sVhardware-long
p675
VMIPS Malta boards
p676
ss(Vimage
p677
g653
NV4kc-malta
p678
tp679
(dp680
Vconfigs
p681
(lp682
Vkernelarch-mips/config.malta
p683
aVkernelarch-mips/config.mips32r2
p684
ass(Vdescription
p685
g653
NV5kc-malta
p686
tp687
(dp688
Vhardware
p689
VMIPS Malta (64-bit)
p690
sVhardware-long
p691
VMIPS Malta boards (64-bit)
p692
ss(Vimage
p693
g653
NV5kc-malta
p694
tp695
(dp696
Vconfigs
p697
(lp698
Vkernelarch-mips/config.malta
p699
aVkernelarch-mips/config.mips64r2
p700
ass(Vdescription
p701
g653
NVocteon
p702
tp703
(dp704
Vhardware
p705
VOcteon
p706
sVhardware-long
p707
VCavium Networks Octeon
p708
ss(Vimage
p709
g653
NVocteon
p710
tp711
(dp712
Vconfigs
p713
(lp714
Vkernelarch-mips/config.octeon
p715
ass(g192
g653
g163
tp716
(dp717
g195
(lp718
V4kc-malta
p719
aV5kc-malta
p720
aVocteon
p721
asg199
I01
ss(Vbase
p722
Vmips64
p723
tp724
(dp725
Vkernel-arch
p726
Vmips
p727
sg161
(lp728
g163
ass(Vbuild
p729
g723
tp730
(dp731
Vimage-file
p732
Vvmlinux
p733
ss(Vimage
p734
g723
tp735
(dp736
Vinstall-stem
p737
Vvmlinux
p738
ss(Vdescription
p739
g723
NV5kc-malta
p740
tp741
(dp742
Vhardware
p743
VMIPS Malta
p744
sVhardware-long
p745
VMIPS Malta boards
p746
ss(Vimage
p747
g723
NV5kc-malta
p748
tp749
(dp750
Vconfigs
p751
(lp752
Vkernelarch-mips/config.malta
p753
aVkernelarch-mips/config.mips64r2
p754
ass(Vdescription
p755
g723
NVocteon
p756
tp757
(dp758
Vhardware
p759
VOcteon
p760
sVhardware-long
p761
VCavium Networks Octeon
p762
ss(Vimage
p763
g723
NVocteon
p764
tp765
(dp766
Vconfigs
p767
(lp768
Vkernelarch-mips/config.octeon
p769
ass(g192
g723
g163
tp770
(dp771
g195
(lp772
V5kc-malta
p773
aVocteon
p774
asg199
I01
ss(Vbase
p775
Vmips64el
p776
tp777
(dp778
Vkernel-arch
p779
Vmips
p780
sg161
(lp781
g163
ass(Vbuild
p782
g776
tp783
(dp784
Vimage-file
p785
Vvmlinux
p786
ss(Vimage
p787
g776
tp788
(dp789
Vinstall-stem
p790
Vvmlinux
p791
ss(Vdescription
p792
g776
NV5kc-malta
p793
tp794
(dp795
Vhardware
p796
VMIPS Malta
p797
sVhardware-long
p798
VMIPS Malta boards
p799
ss(Vimage
p800
g776
NV5kc-malta
p801
tp802
(dp803
Vconfigs
p804
(lp805
Vkernelarch-mips/config.malta
p806
aVkernelarch-mips/config.mips64r2
p807
ass(Vdescription
p808
g776
NVloongson-3
p809
tp810
(dp811
Vhardware
p812
VLoongson 3A/3B
p813
sVhardware-long
p814
VLoongson 3A or 3B based systems (e.g. from Loongson or Lemote)
p815
ss(Vimage
p816
g776
NVloongson-3
p817
tp818
(dp819
Vconfigs
p820
(lp821
Vkernelarch-mips/config.loongson-3
p822
ass(Vdescription
p823
g776
NVocteon
p824
tp825
(dp826
Vhardware
p827
VOcteon
p828
sVhardware-long
p829
VCavium Networks Octeon
p830
ss(Vimage
p831
g776
NVocteon
p832
tp833
(dp834
Vconfigs
p835
(lp836
Vkernelarch-mips/config.octeon
p837
ass(g192
g776
g163
tp838
(dp839
g195
(lp840
V5kc-malta
p841
aVloongson-3
p842
aVocteon
p843
asg199
I01
ss(Vbase
p844
Vmips64r6
p845
tp846
(dp847
Vkernel-arch
p848
Vmips
p849
sg161
(lp850
g163
ass(Vbuild
p851
g845
tp852
(dp853
Vimage-file
p854
Vvmlinux
p855
ss(Vimage
p856
g845
tp857
(dp858
Vinstall-stem
p859
Vvmlinux
p860
ss(Vdescription
p861
g845
NVmips64r6
p862
tp863
(dp864
Vhardware
p865
VMIPS R6 (64 bit, big endian)
p866
sVhardware-long
p867
VMIPS R6 (64 bit, big endian)
p868
ss(Vimage
p869
g845
NVmips64r6
p870
tp871
(dp872
Vconfigs
p873
(lp874
Vkernelarch-mips/config.boston
p875
aVkernelarch-mips/config.mips64r6
p876
ass(g192
g845
g163
tp877
(dp878
g195
(lp879
Vmips64r6
p880
asg199
I01
ss(Vbase
p881
Vmips64r6el
p882
tp883
(dp884
Vkernel-arch
p885
Vmips
p886
sg161
(lp887
g163
ass(Vbuild
p888
g882
tp889
(dp890
Vimage-file
p891
Vvmlinux
p892
ss(Vimage
p893
g882
tp894
(dp895
Vinstall-stem
p896
Vvmlinux
p897
ss(Vdescription
p898
g882
NVmips64r6el
p899
tp900
(dp901
Vhardware
p902
VMIPS R6 (64 bit, little endian)
p903
sVhardware-long
p904
VMIPS R6 (64 bit, little endian)
p905
ss(Vimage
p906
g882
NVmips64r6el
p907
tp908
(dp909
Vconfigs
p910
(lp911
Vkernelarch-mips/config.boston
p912
aVkernelarch-mips/config.mips64r6
p913
ass(g192
g882
g163
tp914
(dp915
g195
(lp916
Vmips64r6el
p917
asg199
I01
ss(Vbase
p918
Vmipsel
p919
tp920
(dp921
Vkernel-arch
p922
Vmips
p923
sg161
(lp924
g163
ass(Vbuild
p925
g919
tp926
(dp927
Vimage-file
p928
Vvmlinux
p929
ss(Vimage
p930
g919
tp931
(dp932
Vinstall-stem
p933
Vvmlinux
p934
ss(Vdescription
p935
g919
NV4kc-malta
p936
tp937
(dp938
Vhardware
p939
VMIPS Malta
p940
sVhardware-long
p941
VMIPS Malta boards
p942
ss(Vimage
p943
g919
NV4kc-malta
p944
tp945
(dp946
Vconfigs
p947
(lp948
Vkernelarch-mips/config.malta
p949
aVkernelarch-mips/config.mips32r2
p950
ass(Vdescription
p951
g919
NV5kc-malta
p952
tp953
(dp954
Vhardware
p955
VMIPS Malta (64-bit)
p956
sVhardware-long
p957
VMIPS Malta boards (64-bit)
p958
ss(Vimage
p959
g919
NV5kc-malta
p960
tp961
(dp962
Vconfigs
p963
(lp964
Vkernelarch-mips/config.malta
p965
aVkernelarch-mips/config.mips64r2
p966
ass(Vdescription
p967
g919
NVloongson-3
p968
tp969
(dp970
Vhardware
p971
VLoongson 3A/3B
p972
sVhardware-long
p973
VLoongson 3A or 3B based systems (e.g. from Loongson or Lemote)
p974
ss(Vimage
p975
g919
NVloongson-3
p976
tp977
(dp978
Vconfigs
p979
(lp980
Vkernelarch-mips/config.loongson-3
p981
ass(Vdescription
p982
g919
NVocteon
p983
tp984
(dp985
Vhardware
p986
VOcteon
p987
sVhardware-long
p988
VCavium Networks Octeon
p989
ss(Vimage
p990
g919
NVocteon
p991
tp992
(dp993
Vconfigs
p994
(lp995
Vkernelarch-mips/config.octeon
p996
ass(g192
g919
g163
tp997
(dp998
g195
(lp999
V4kc-malta
p1000
aV5kc-malta
p1001
aVloongson-3
p1002
aVocteon
p1003
asg199
I01
ss(Vbase
p1004
Vmipsn32
p1005
tp1006
(dp1007
Vkernel-arch
p1008
Vmips
p1009
sVfeaturesets
p1010
(lp1011
ss(Vbase
p1012
Vmipsn32el
p1013
tp1014
(dp1015
Vkernel-arch
p1016
Vmips
p1017
sVfeaturesets
p1018
(lp1019
ss(Vbase
p1020
Vmipsn32r6
p1021
tp1022
(dp1023
Vkernel-arch
p1024
Vmips
p1025
sVfeaturesets
p1026
(lp1027
ss(Vbase
p1028
Vmipsn32r6el
p1029
tp1030
(dp1031
Vkernel-arch
p1032
Vmips
p1033
sVfeaturesets
p1034
(lp1035
ss(Vbase
p1036
Vmipsr6
p1037
tp1038
(dp1039
Vkernel-arch
p1040
Vmips
p1041
sg161
(lp1042
g163
ass(Vbuild
p1043
g1037
tp1044
(dp1045
Vimage-file
p1046
Vvmlinux
p1047
ss(Vimage
p1048
g1037
tp1049
(dp1050
Vinstall-stem
p1051
Vvmlinux
p1052
ss(Vdescription
p1053
g1037
NVmips32r6
p1054
tp1055
(dp1056
Vhardware
p1057
VMIPS R6 (32 bit, big endian)
p1058
sVhardware-long
p1059
VMIPS R6 (32 bit, big endian)
p1060
ss(Vimage
p1061
g1037
NVmips32r6
p1062
tp1063
(dp1064
Vconfigs
p1065
(lp1066
Vkernelarch-mips/config.boston
p1067
aVkernelarch-mips/config.mips32r6
p1068
ass(Vdescription
p1069
g1037
NVmips64r6
p1070
tp1071
(dp1072
Vhardware
p1073
VMIPS R6 (64 bit, big endian)
p1074
sVhardware-long
p1075
VMIPS R6 (64 bit, big endian)
p1076
ss(Vimage
p1077
g1037
NVmips64r6
p1078
tp1079
(dp1080
Vconfigs
p1081
(lp1082
Vkernelarch-mips/config.boston
p1083
aVkernelarch-mips/config.mips64r6
p1084
ass(g192
g1037
g163
tp1085
(dp1086
g195
(lp1087
Vmips32r6
p1088
aVmips64r6
p1089
asg199
I01
ss(Vbase
p1090
Vmipsr6el
p1091
tp1092
(dp1093
Vkernel-arch
p1094
Vmips
p1095
sg161
(lp1096
g163
ass(Vbuild
p1097
g1091
tp1098
(dp1099
Vimage-file
p1100
Vvmlinux
p1101
ss(Vimage
p1102
g1091
tp1103
(dp1104
Vinstall-stem
p1105
Vvmlinux
p1106
ss(Vdescription
p1107
g1091
NVmips32r6el
p1108
tp1109
(dp1110
Vhardware
p1111
VMIPS R6 (32 bit, little endian)
p1112
sVhardware-long
p1113
VMIPS R6 (32 bit, little endian)
p1114
ss(Vimage
p1115
g1091
NVmips32r6el
p1116
tp1117
(dp1118
Vconfigs
p1119
(lp1120
Vkernelarch-mips/config.boston
p1121
aVkernelarch-mips/config.mips32r6
p1122
ass(Vdescription
p1123
g1091
NVmips64r6el
p1124
tp1125
(dp1126
Vhardware
p1127
VMIPS R6 (64 bit, little endian)
p1128
sVhardware-long
p1129
VMIPS R6 (64 bit, little endian)
p1130
ss(Vimage
p1131
g1091
NVmips64r6el
p1132
tp1133
(dp1134
Vconfigs
p1135
(lp1136
Vkernelarch-mips/config.boston
p1137
aVkernelarch-mips/config.mips64r6
p1138
ass(g192
g1091
g163
tp1139
(dp1140
g195
(lp1141
Vmips32r6el
p1142
aVmips64r6el
p1143
asg199
I01
ss(Vbase
p1144
Vpowerpc
p1145
tp1146
(dp1147
Vkernel-arch
p1148
Vpowerpc
p1149
sg161
(lp1150
g163
ass(Vbuild
p1151
g1145
tp1152
(dp1153
Vimage-file
p1154
Vvmlinux
p1155
sVvdso
p1156
I01
ss(Vimage
p1157
g1145
tp1158
(dp1159
Vconfigs
p1160
(lp1161
sVsuggests
p1162
Vmkvmlinuz
p1163
sVinstall-stem
p1164
Vvmlinux
p1165
ss(Vdescription
p1166
g1145
NVpowerpc
p1167
tp1168
(dp1169
Vhardware
p1170
Vuniprocessor 32-bit PowerPC
p1171
ss(Vdescription
p1172
g1145
NVpowerpc-smp
p1173
tp1174
(dp1175
Vhardware
p1176
Vmultiprocessor 32-bit PowerPC
p1177
ss(Vimage
p1178
g1145
NVpowerpc-smp
p1179
tp1180
(dp1181
Vconfigs
p1182
(lp1183
Vpowerpc/config.powerpc
p1184
aVpowerpc/config.powerpc-smp
p1185
ass(Vdescription
p1186
g1145
NVpowerpc64
p1187
tp1188
(dp1189
Vhardware
p1190
V64-bit PowerPC
p1191
ss(Vimage
p1192
g1145
NVpowerpc64
p1193
tp1194
(dp1195
Vconfigs
p1196
(lp1197
Vkernelarch-powerpc/config-arch-64
p1198
aVkernelarch-powerpc/config-arch-64-be
p1199
ass(g192
g1145
g163
tp1200
(dp1201
g195
(lp1202
Vpowerpc
p1203
aVpowerpc-smp
p1204
aVpowerpc64
p1205
asg199
I01
ss(Vbase
p1206
Vpowerpcspe
p1207
tp1208
(dp1209
Vkernel-arch
p1210
Vpowerpc
p1211
sg161
(lp1212
g163
ass(Vbuild
p1213
g1207
tp1214
(dp1215
Vimage-file
p1216
Vvmlinux
p1217
sVvdso
p1218
I01
ss(Vimage
p1219
g1207
tp1220
(dp1221
Vsuggests
p1222
Vmkvmlinuz
p1223
sVinstall-stem
p1224
Vvmlinux
p1225
ss(Vdescription
p1226
g1207
tp1227
(dp1228
Vhardware
p1229
V32-bit PowerPC with SPE (instead of AltiVec) with SMP support
p1230
ss(g192
g1207
g163
tp1231
(dp1232
g195
(lp1233
Vpowerpcspe
p1234
asg199
I01
ss(Vbase
p1235
Vppc64
p1236
tp1237
(dp1238
Vkernel-arch
p1239
Vpowerpc
p1240
sg161
(lp1241
g163
ass(Vbuild
p1242
g1236
tp1243
(dp1244
Vimage-file
p1245
Vvmlinux
p1246
sVvdso
p1247
I01
ss(Vimage
p1248
g1236
tp1249
(dp1250
Vconfigs
p1251
(lp1252
sVsuggests
p1253
Vmkvmlinuz
p1254
sVinstall-stem
p1255
Vvmlinux
p1256
ss(Vdescription
p1257
g1236
NVpowerpc64
p1258
tp1259
(dp1260
Vhardware
p1261
V64-bit PowerPC
p1262
ss(Vimage
p1263
g1236
NVpowerpc64
p1264
tp1265
(dp1266
Vconfigs
p1267
(lp1268
Vkernelarch-powerpc/config-arch-64
p1269
aVkernelarch-powerpc/config-arch-64-be
p1270
ass(g192
g1236
g163
tp1271
(dp1272
g195
(lp1273
Vpowerpc64
p1274
asg199
I01
ss(Vbase
p1275
Vppc64el
p1276
tp1277
(dp1278
Vkernel-arch
p1279
Vpowerpc
p1280
sg161
(lp1281
g163
ass(Vbuild
p1282
g1276
tp1283
(dp1284
Vimage-file
p1285
Vvmlinux
p1286
sVvdso
p1287
I01
ss(Vimage
p1288
g1276
tp1289
(dp1290
Vconfigs
p1291
(lp1292
sVsuggests
p1293
Vmkvmlinuz
p1294
sVinstall-stem
p1295
Vvmlinux
p1296
ss(Vdescription
p1297
g1276
NVpowerpc64le
p1298
tp1299
(dp1300
Vhardware
p1301
VLittle-endian 64-bit PowerPC
p1302
ss(Vimage
p1303
g1276
NVpowerpc64le
p1304
tp1305
(dp1306
Vconfigs
p1307
(lp1308
Vkernelarch-powerpc/config-arch-64
p1309
aVkernelarch-powerpc/config-arch-64-le
p1310
ass(g192
g1276
g163
tp1311
(dp1312
g195
(lp1313
Vpowerpc64le
p1314
asg199
I01
ss(Vbase
p1315
Vriscv64
p1316
tp1317
(dp1318
Vkernel-arch
p1319
Vriscv
p1320
sVfeaturesets
p1321
(lp1322
Vnone
p1323
ass(Vbuild
p1324
g1316
tp1325
(dp1326
Vimage-file
p1327
Vvmlinux
p1328
ss(Vimage
p1329
g1316
tp1330
(dp1331
Vinstall-stem
p1332
Vvmlinux
p1333
ss(Vdescription
p1334
g1316
NVriscv64
p1335
tp1336
(dp1337
Vhardware
p1338
V64-bit RISC-V platforms
p1339
sVhardware-long
p1340
V64-bit RISC-V platforms
p1341
ss(Vbase
p1342
g1316
Vnone
p1343
tp1344
(dp1345
Vflavours
p1346
(lp1347
Vriscv64
p1348
ass(Vbase
p1349
Vs390
p1350
tp1351
(dp1352
Vkernel-arch
p1353
Vs390
p1354
sVfeaturesets
p1355
(lp1356
ss(Vbase
p1357
Vs390x
p1358
tp1359
(dp1360
Vkernel-arch
p1361
Vs390
p1362
sg161
(lp1363
g163
ass(Vbuild
p1364
g1358
tp1365
(dp1366
Vimage-file
p1367
Varch/s390/boot/bzImage
p1368
sVvdso
p1369
I01
ss(Vimage
p1370
g1358
tp1371
(dp1372
Vbootloaders
p1373
(lp1374
Vs390-tools
p1375
asVinstall-stem
p1376
Vvmlinuz
p1377
ss(Vrelations
p1378
g1358
tp1379
(dp1380
Vheaders%gcc-8
p1381
Vlinux-compiler-gcc-8-s390
p1382
ss(Vbuild
p1383
g1358
NVs390x
p1384
tp1385
(dp1386
Vdebug-info
p1387
I01
ss(Vdescription
p1388
g1358
NVs390x
p1389
tp1390
(dp1391
Vhardware
p1392
VIBM zSeries
p1393
ss(g192
g1358
g163
tp1394
(dp1395
g195
(lp1396
Vs390x
p1397
asg199
I01
ss(Vbase
p1398
Vsh3
p1399
tp1400
(dp1401
Vkernel-arch
p1402
Vsh
p1403
sVfeaturesets
p1404
(lp1405
ss(Vbase
p1406
Vsh4
p1407
tp1408
(dp1409
Vkernel-arch
p1410
Vsh
p1411
sg161
(lp1412
g163
ass(Vbuild
p1413
g1407
tp1414
(dp1415
Vimage-file
p1416
Varch/sh/boot/zImage
p1417
ss(Vimage
p1418
g1407
tp1419
(dp1420
Vinstall-stem
p1421
Vvmlinuz
p1422
ss(Vdescription
p1423
g1407
NVsh7751r
p1424
tp1425
(dp1426
Vhardware
p1427
Vsh7751r
p1428
sVhardware-long
p1429
VRenesas SH7751R R2D plus board
p1430
ss(Vdescription
p1431
g1407
NVsh7785lcr
p1432
tp1433
(dp1434
Vhardware
p1435
Vsh7785lcr
p1436
sVhardware-long
p1437
VRenesas SH7785 reference board
p1438
ss(Vimage
p1439
g1407
NVsh7785lcr
p1440
tp1441
(dp1442
Vrecommends
p1443
Vu-boot-tools
p1444
sVcheck-size
p1445
I4194304
ss(g192
g1407
g163
tp1446
(dp1447
g195
(lp1448
Vsh7751r
p1449
aVsh7785lcr
p1450
asg199
I01
ss(Vbase
p1451
Vsparc
p1452
tp1453
(dp1454
Vkernel-arch
p1455
Vsparc
p1456
sVfeaturesets
p1457
(lp1458
ss(Vbase
p1459
Vsparc64
p1460
tp1461
(dp1462
Vkernel-arch
p1463
Vsparc
p1464
sg161
(lp1465
g163
ass(Vbuild
p1466
g1460
tp1467
(dp1468
Vimage-file
p1469
Varch/sparc/boot/zImage
p1470
ss(Vimage
p1471
g1460
tp1472
(dp1473
Vconfigs
p1474
(lp1475
sVsuggests
p1476
Vsilo, fdutils
p1477
sVinstall-stem
p1478
Vvmlinuz
p1479
ss(Vdescription
p1480
g1460
NVsparc64
p1481
tp1482
(dp1483
Vhardware
p1484
Vuniprocessor 64-bit UltraSPARC
p1485
ss(Vimage
p1486
g1460
NVsparc64
p1487
tp1488
(dp1489
Vconfigs
p1490
(lp1491
Vkernelarch-sparc/config-up
p1492
ass(Vdescription
p1493
g1460
NVsparc64-smp
p1494
tp1495
(dp1496
Vhardware
p1497
Vmultiprocessor 64-bit UltraSPARC
p1498
ss(Vimage
p1499
g1460
NVsparc64-smp
p1500
tp1501
(dp1502
Vconfigs
p1503
(lp1504
Vkernelarch-sparc/config-smp
p1505
ass(g192
g1460
g163
tp1506
(dp1507
g195
(lp1508
Vsparc64
p1509
aVsparc64-smp
p1510
asg199
I01
ss(Vbase
p1511
Vx32
p1512
tp1513
(dp1514
Vkernel-arch
p1515
Vx86
p1516
sVfeaturesets
p1517
(lp1518
ss(Vabi
p1519
NVrt
p1520
tp1521
(dp1522
Vignore-changes
p1523
(lp1524
V*
p1525
ass(Vdescription
p1526
Ng1520
tp1527
(dp1528
Vpart-long-rt
p1529
VThis kernel includes the PREEMPT_RT realtime patch set.
p1530
sVpart-short-rt
p1531
VPREEMPT_RT
p1532
sVparts
p1533
(lp1534
Vrt
p1535
ass(Vversion
p1536
tp1537
(dp1538
Vsource
p1539
V4.19.28-2parrot2.28t
p1540
sVupstream
p1541
V4.19
p1542
sVabiname_base
p1543
V4.19.0
p1544
sVabiname
p1545
V4.19.0-parrot2-28t
p1546
ss.