cdebian_linux.config
ConfigCore
p0
(tRp1
(Vabi
p2
tp3
(dp4
Vabiname
p5
V3parrot4
p6
sVignore-changes
p7
(lp8
V__cpuhp_*
p9
aVbpf_analyzer
p10
aVcxl_*
p11
aVdax_flush
p12
aVieee80211_nullfunc_get
p13
aVinet_add_protocol
p14
aVinet_del_protocol
p15
aViommu_device_*
p16
aVmm_iommu_*
p17
aVmv_mbus_*
p18
aVperf_*
p19
aVregister_cxl_calls
p20
aVregister_key_type
p21
aVunregister_cxl_calls
p22
aV*_hw_breakpoint
p23
aVmodule:drivers/crypto/ccp/*
p24
aVmodule:drivers/hv/*
p25
aVmodule:drivers/gpu/drm/sun4i/*
p26
aVmodule:drivers/iio/**
p27
aVmodule:drivers/misc/cxl/*
p28
aVmodule:drivers/mtd/nand/*
p29
aVmodule:drivers/net/ethernet/**
p30
aVmodule:drivers/net/wireless/**
p31
aVmodule:drivers/nvdimm/*
p32
aVmodule:drivers/power/supply/bq27xxx_battery
p33
aVmodule:drivers/scsi/cxgbi/*
p34
aVmodule:drivers/scsi/libiscs*
p35
aVmodule:drivers/scsi/qla2xxx/qla2xxx
p36
aVmodule:drivers/scsi/ufs/*
p37
aVmodule:drivers/target/**
p38
aVmodule:drivers/usb/chipidea/**
p39
aVmodule:drivers/usb/gadget/**
p40
aVmodule:drivers/usb/host/**
p41
aVmodule:drivers/usb/musb/**
p42
aVmodule:fs/nfs/**
p43
aVmodule:net/ceph/libceph
p44
aVmodule:net/l2tp/**
p45
aVmodule:net/rxrpc/rxrpc
p46
aVmodule:net/sctp/**
p47
aVmodule:sound/core/seq/**
p48
aVmodule:sound/firewire/snd-firewire-lib
p49
aVmodule:sound/pci/hda/*
p50
aVbtree_*
p51
aVvisitor*
p52
aVcan_rx_register
p53
aVip6_xmit
p54
aVmodule:net/dccp/dccp
p55
aVmodule:net/rds/rds
p56
aVdevfreq_*
p57
aVdevm_devfreq_*
p58
aVupdate_devfreq
p59
aVmodule:drivers/infiniband/**
p60
aVacpi_ec_add_query_handler
p61
aVacpi_ec_remove_query_handler
p62
aVfirst_ec
p63
aVdebugfs_create_automount
p64
aVmodule:drivers/iio/imu/inv_mpu6050/*
p65
aVdrm_crtc_accurate_vblank_count
p66
aVacpi_nfit_desc_init
p67
aVacpi_nfit_init
p68
aVloop_register_transfer
p69
aVxen_xlate_*
p70
aVnf_nat_masquerade_ipv4_register_notifier
p71
aVnf_nat_masquerade_ipv6_register_notifier
p72
aVmodule:drivers/scsi/hisi_sas/*
p73
aV__gfn_*
p74
aV__kvmhv_*
p75
aV__kvm_*
p76
aV__xive_vm_h_*
p77
aVgfn_*
p78
aVh_ipi_redirect
p79
aVhalt_poll_ns*
p80
aVkvm_*
p81
aVkvmhv_*
p82
aVkvmppc_*
p83
aVmark_page_dirty
p84
aVvcpu_*
p85
aVmodule:arch/powerpc/kvm/*
p86
aVmodule:arch/s390/kvm/*
p87
aVmodule:arch/x86/kvm/*
p88
ass(Vbase
p89
tp90
(dp91
Varches
p92
(lp93
Valpha
p94
aVamd64
p95
aVarm64
p96
aVarm64ilp32
p97
aVarmel
p98
aVarmhf
p99
aVhppa
p100
aVi386
p101
aVia64
p102
aVm68k
p103
aVmips
p104
aVmips64
p105
aVmips64el
p106
aVmips64r6
p107
aVmips64r6el
p108
aVmipsel
p109
aVmipsn32
p110
aVmipsn32el
p111
aVmipsn32r6
p112
aVmipsn32r6el
p113
aVmipsr6
p114
aVmipsr6el
p115
aVpowerpc
p116
aVppc64
p117
aVppc64el
p118
aVriscv64
p119
aVs390
p120
aVs390x
p121
aVsh3
p122
aVsh4
p123
aVsparc
p124
aVsparc64
p125
aVx32
p126
asVcompiler
p127
Vgcc-9
p128
sVfeaturesets
p129
(lp130
Vnone
p131
aVrt
p132
ass(Vbuild
p133
tp134
(dp135
Vdebug-info
p136
I01
sVsigned-code
p137
I00
ss(Vbase
p138
NVrt
p139
tp140
(dp141
Venabled
p142
I00
ss(Vdescription
p143
tp144
(dp145
Vpart-long-up
p146
VThis kernel is not suitable for SMP (multi-processor,\u000amulti-core or hyper-threaded) systems.
p147
ss(Vimage
p148
tp149
(dp150
Vinitramfs-generators
p151
(lp152
Vinitramfs-tools
p153
aVinitramfs-fallback
p154
asVrecommends
p155
(lp156
Vapparmor
p157
ass(Vrelations
p158
tp159
(dp160
Vgcc-9
p161
Vgcc-9 <!stage1 !cross !pkg.linux.nokernel>, gcc-9-@gnu-type-package@ <!stage1 cross !pkg.linux.nokernel>
p162
sVinitramfs-fallback
p163
Vlinux-initramfs-tool
p164
sVinitramfs-tools
p165
Vinitramfs-tools (>= 0.120+deb8u2)
p166
ss(Vbase
p167
Valpha
p168
tp169
(dp170
Vkernel-arch
p171
Valpha
p172
sVfeaturesets
p173
(lp174
Vnone
p175
ass(Vbuild
p176
g168
tp177
(dp178
Vimage-file
p179
Varch/alpha/boot/vmlinux.gz
p180
ss(Vimage
p181
g168
tp182
(dp183
Vsuggests
p184
(lp185
Vaboot
p186
aVfdutils
p187
asVinstall-stem
p188
Vvmlinuz
p189
ss(Vdescription
p190
g168
NValpha-generic
p191
tp192
(dp193
Vhardware
p194
VAlpha
p195
sVhardware-long
p196
VDEC Alpha systems with extended kernel start address (Wildfire, Titan, Marvel)
p197
ss(Vdescription
p198
g168
NValpha-smp
p199
tp200
(dp201
Vhardware
p202
VAlpha SMP
p203
sVhardware-long
p204
VDEC Alpha SMP systems with extended kernel start address (Wildfire, Titan, Marvel)
p205
ss(Vbase
p206
g168
g175
tp207
(dp208
Vflavours
p209
(lp210
Valpha-generic
p211
aValpha-smp
p212
asVimplicit-flavour
p213
I01
ss(Vbase
p214
Vamd64
p215
tp216
(dp217
Vfeaturesets
p218
(lp219
Vnone
p220
aVrt
p221
asVkernel-arch
p222
Vx86
p223
ss(Vbuild
p224
g215
tp225
(dp226
Vdebug-info
p227
I01
sVimage-file
p228
Varch/x86/boot/bzImage
p229
sVsigned-code
p230
I01
sVvdso
p231
I01
ss(Vimage
p232
g215
tp233
(dp234
Vbootloaders
p235
(lp236
Vgrub-pc
p237
aVgrub-efi-amd64
p238
aVextlinux
p239
asVinstall-stem
p240
Vvmlinuz
p241
sVbreaks
p242
(lp243
Vxserver-xorg-input-vmmouse (<< 1:13.0.99)
p244
ass(Vrelations
p245
g215
tp246
(dp247
Vheaders%gcc-9
p248
Vlinux-compiler-gcc-9-x86
p249
ss(Vdescription
p250
g215
NVamd64
p251
tp252
(dp253
Vhardware
p254
V64-bit PCs
p255
sVhardware-long
p256
VPCs with AMD64, Intel 64 or VIA Nano processors
p257
ss(Vdescription
p258
g215
NVcloud-amd64
p259
tp260
(dp261
Vhardware
p262
Vx86-64 cloud
p263
sVhardware-long
p264
VAmazon EC2, Google Compute Engine and Microsoft Azure cloud platforms
p265
ss(Vbase
p266
g215
Vnone
p267
tp268
(dp269
Vflavours
p270
(lp271
Vamd64
p272
aVcloud-amd64
p273
ass(Vbase
p274
g215
Vrt
p275
tp276
(dp277
Vflavours
p278
(lp279
Vamd64
p280
ass(Vbase
p281
Varm64
p282
tp283
(dp284
Vcross-compile-compat
p285
Varm-linux-gnueabihf-
p286
sVkernel-arch
p287
Varm64
p288
sVfeaturesets
p289
(lp290
Vnone
p291
aVrt
p292
ass(Vbuild
p293
g282
tp294
(dp295
Vdebug-info
p296
I01
sVimage-file
p297
Varch/arm64/boot/Image
p298
sVsigned-code
p299
I01
sVvdso
p300
I01
ss(Vimage
p301
g282
tp302
(dp303
Vinstall-stem
p304
Vvmlinuz
p305
sVbreaks
p306
(lp307
Vlibmozjs185-1.0
p308
aVlibmozjs-24-0 (<< 24.2.0-5.1~)
p309
ass(Vdescription
p310
g282
NVarm64
p311
tp312
(dp313
Vhardware
p314
V64-bit ARMv8 machines
p315
ss(Vimage
p316
g282
NVarm64
p317
tp318
(dp319
s(Vrelations
p320
g282
tp321
(dp322
Vgcc-9
p323
Vgcc-9 <!stage1 !cross !pkg.linux.nokernel>, gcc-9-aarch64-linux-gnu <!stage1 cross !pkg.linux.nokernel>, gcc-arm-linux-gnueabihf <!stage1 !pkg.linux.nokernel>
p324
sVheaders%gcc-9
p325
Vgcc-9
p326
ss(Vbase
p327
g282
Vnone
p328
tp329
(dp330
Vflavours
p331
(lp332
Varm64
p333
ass(Vbase
p334
g282
Vrt
p335
tp336
(dp337
Vflavours
p338
(lp339
Varm64
p340
ass(Vbase
p341
Varm64ilp32
p342
tp343
(dp344
Vkernel-arch
p345
Varm64
p346
sVfeaturesets
p347
(lp348
ss(Vbase
p349
Varmel
p350
tp351
(dp352
Vkernel-arch
p353
Varm
p354
sg173
(lp355
g175
ass(Vbuild
p356
g350
tp357
(dp358
Vimage-file
p359
Varch/arm/boot/zImage
p360
sVuncompressed-image-file
p361
Varch/arm/boot/Image
p362
ss(Vimage
p363
g350
tp364
(dp365
Vinstall-stem
p366
Vvmlinuz
p367
ss(Vrelations
p368
g350
tp369
(dp370
Vheaders%gcc-9
p371
Vlinux-compiler-gcc-9-arm
p372
ss(Vdescription
p373
g350
NVmarvell
p374
tp375
(dp376
Vhardware
p377
VMarvell Kirkwood/Orion
p378
sVhardware-long
p379
VMarvell Kirkwood and Orion based systems (https://wiki.debian.org/ArmEabiPort#Supported_hardware)
p380
ss(Vdescription
p381
g350
NVrpi
p382
tp383
(dp384
Vhardware
p385
VRaspberry Pi and Pi Zero
p386
sVhardware-long
p387
VRaspberry Pi, Raspberry Pi Zero based systems
p388
ss(Vimage
p389
g350
NVmarvell
p390
tp391
(dp392
Vrecommends
p393
(lp394
Vu-boot-tools
p395
asVcheck-size
p396
I2729712
sVcheck-size-with-dtb
p397
I01
sVcheck-uncompressed-size
p398
I7340032
sVbreaks
p399
(lp400
Vflash-kernel (<< 3.57~)
p401
ass(g206
g350
g175
tp402
(dp403
g209
(lp404
Vmarvell
p405
aVrpi
p406
asg213
I01
ss(Vbase
p407
Varmhf
p408
tp409
(dp410
Vfeaturesets
p411
(lp412
Vnone
p413
aVrt
p414
asVkernel-arch
p415
Varm
p416
ss(Vbuild
p417
g408
tp418
(dp419
Vimage-file
p420
Varch/arm/boot/zImage
p421
sVvdso
p422
I01
ss(Vimage
p423
g408
tp424
(dp425
Vinstall-stem
p426
Vvmlinuz
p427
ss(Vrelations
p428
g408
tp429
(dp430
Vheaders%gcc-9
p431
Vlinux-compiler-gcc-9-arm
p432
ss(Vdescription
p433
g408
NVarmmp
p434
tp435
(dp436
Vhardware
p437
VARMv7 multiplatform compatible SoCs
p438
sVhardware-long
p439
VARMv7 multiplatform kernel. See\u000ahttps://wiki.debian.org/DebianKernel/ARMMP for details of supported\u000aplatforms
p440
ss(Vdescription
p441
g408
NVarmmp-lpae
p442
tp443
(dp444
Vhardware
p445
VARMv7 multiplatform compatible SoCs supporting LPAE
p446
sVhardware-long
p447
VARMv7 multiplatform kernel supporting LPAE. See\u000ahttps://wiki.debian.org/DebianKernel/ARMMP for details of supported\u000aplatforms.
p448
ss(Vbase
p449
g408
Vnone
p450
tp451
(dp452
Vflavours
p453
(lp454
Varmmp
p455
aVarmmp-lpae
p456
ass(Vbase
p457
g408
Vrt
p458
tp459
(dp460
Vflavours
p461
(lp462
Varmmp
p463
ass(Vbase
p464
Vhppa
p465
tp466
(dp467
Vkernel-arch
p468
Vparisc
p469
sg173
(lp470
g175
ass(Vbuild
p471
g465
tp472
(dp473
Vimage-file
p474
Varch/parisc/boot/bzImage
p475
sVdebug-info
p476
I00
ss(Vimage
p477
g465
tp478
(dp479
Vsuggests
p480
(lp481
Vpalo
p482
asVinstall-stem
p483
Vvmlinuz
p484
ss(Vdescription
p485
g465
NVparisc
p486
tp487
(dp488
Vhardware
p489
V32-bit PA-RISC
p490
sVhardware-long
p491
VHP PA-RISC 32-bit systems with max 4 GB RAM
p492
ss(Vbase
p493
g465
NVparisc64
p494
tp495
(dp496
Vcflags
p497
V-fno-cse-follow-jumps
p498
sVoverride-host-type
p499
Vhppa64-linux-gnu
p500
ss(Vdescription
p501
g465
NVparisc64
p502
tp503
(dp504
Vhardware
p505
V64-bit PA-RISC
p506
sVhardware-long
p507
VHP PA-RISC 64-bit systems with support for more than 4 GB RAM
p508
ss(Vrelations
p509
g465
tp510
(dp511
Vgcc-9
p512
Vgcc-9 <!stage1 !cross !pkg.linux.nokernel>, gcc-9-hppa-linux-gnu <!stage1 cross !pkg.linux.nokernel>, binutils-hppa64-linux-gnu <!stage1 !pkg.linux.nokernel>, gcc-9-hppa64-linux-gnu <!stage1 !pkg.linux.nokernel>
p513
ss(g206
g465
g175
tp514
(dp515
g209
(lp516
Vparisc
p517
aVparisc64
p518
asg213
I01
ss(Vbase
p519
Vi386
p520
tp521
(dp522
Vfeaturesets
p523
(lp524
Vnone
p525
aVrt
p526
asVkernel-arch
p527
Vx86
p528
ss(Vbuild
p529
g520
tp530
(dp531
Vimage-file
p532
Varch/x86/boot/bzImage
p533
sVsigned-code
p534
I01
sVvdso
p535
I01
ss(Vdescription
p536
g520
tp537
(dp538
Vpart-long-pae
p539
VThis kernel requires PAE (Physical Address Extension).\u000aThis feature is supported by the Intel Pentium Pro/II/III/4/4M/D, Xeon,\u000aCore and Atom; AMD Geode NX, Athlon (K7), Duron, Opteron, Sempron,\u000aTurion or Phenom; Transmeta Efficeon; VIA C7; and some other processors.
p540
ss(Vimage
p541
g520
tp542
(dp543
Vbootloaders
p544
(lp545
Vgrub-pc
p546
aVgrub-efi-ia32
p547
aVextlinux
p548
asVinstall-stem
p549
Vvmlinuz
p550
sVbreaks
p551
(lp552
Vxserver-xorg-input-vmmouse (<< 1:13.0.99)
p553
ass(Vrelations
p554
g520
tp555
(dp556
Vheaders%gcc-9
p557
Vlinux-compiler-gcc-9-x86
p558
ss(Vdescription
p559
g520
NV686
p560
tp561
(dp562
Vhardware
p563
Volder PCs
p564
sVhardware-long
p565
VPCs with one or more processors not supporting PAE
p566
ss(Vbuild
p567
g520
NV686-pae
p568
tp569
(dp570
Vdebug-info
p571
I01
ss(Vdescription
p572
g520
NV686-pae
p573
tp574
(dp575
Vhardware
p576
Vmodern PCs
p577
sVhardware-long
p578
VPCs with one or more processors supporting PAE
p579
sVparts
p580
(lp581
Vpae
p582
ass(Vbase
p583
g520
Vnone
p584
tp585
(dp586
Vflavours
p587
(lp588
V686
p589
aV686-pae
p590
ass(Vbase
p591
g520
Vrt
p592
tp593
(dp594
Vflavours
p595
(lp596
V686-pae
p597
ass(Vbase
p598
Via64
p599
tp600
(dp601
Vkernel-arch
p602
Via64
p603
sg173
(lp604
g175
ass(Vbuild
p605
g599
tp606
(dp607
Vimage-file
p608
Vvmlinux.gz
p609
ss(Vimage
p610
g599
tp611
(dp612
Vbootloaders
p613
(lp614
Vgrub-efi-ia64
p615
asVinstall-stem
p616
Vvmlinuz
p617
ss(Vdescription
p618
g599
NVitanium
p619
tp620
(dp621
Vhardware
p622
VItanium (Merced)
p623
sVhardware-long
p624
Vsystems with original Itanium (Merced) processors
p625
ss(Vdescription
p626
g599
NVmckinley
p627
tp628
(dp629
Vhardware
p630
VItanium 2+
p631
sVhardware-long
p632
Vsystems with Itanium 2 or 9300/9500/9700-series processors
p633
ss(g206
g599
g175
tp634
(dp635
g209
(lp636
Vitanium
p637
aVmckinley
p638
asg213
I01
ss(Vbase
p639
Vm68k
p640
tp641
(dp642
Vcflags
p643
V-ffreestanding
p644
sVkernel-arch
p645
Vm68k
p646
sg173
(lp647
g175
ass(Vbuild
p648
g640
tp649
(dp650
Vimage-file
p651
Vvmlinux
p652
ss(Vimage
p653
g640
tp654
(dp655
Vsuggests
p656
(lp657
Vvmelilo
p658
aVfdutils
p659
asVinstall-stem
p660
Vvmlinux
p661
ss(Vdescription
p662
g640
NVm68k
p663
tp664
(dp665
Vhardware
p666
VMotorola MC68020+ family
p667
ss(g206
g640
g175
tp668
(dp669
g209
(lp670
Vm68k
p671
asg213
I01
ss(Vbase
p672
Vmips
p673
tp674
(dp675
Vkernel-arch
p676
Vmips
p677
sg173
(lp678
g175
ass(Vbuild
p679
g673
tp680
(dp681
Vimage-file
p682
Vvmlinux
p683
ss(Vimage
p684
g673
tp685
(dp686
Vinstall-stem
p687
Vvmlinux
p688
ss(Vdescription
p689
g673
NV4kc-malta
p690
tp691
(dp692
Vhardware
p693
VMIPS Malta
p694
sVhardware-long
p695
VMIPS Malta boards
p696
ss(Vimage
p697
g673
NV4kc-malta
p698
tp699
(dp700
Vconfigs
p701
(lp702
Vkernelarch-mips/config.malta
p703
aVkernelarch-mips/config.mips32r2
p704
ass(Vdescription
p705
g673
NV5kc-malta
p706
tp707
(dp708
Vhardware
p709
VMIPS Malta (64-bit)
p710
sVhardware-long
p711
VMIPS Malta boards (64-bit)
p712
ss(Vimage
p713
g673
NV5kc-malta
p714
tp715
(dp716
Vconfigs
p717
(lp718
Vkernelarch-mips/config.malta
p719
aVkernelarch-mips/config.mips64r2
p720
ass(Vdescription
p721
g673
NVocteon
p722
tp723
(dp724
Vhardware
p725
VOcteon
p726
sVhardware-long
p727
VCavium Networks Octeon
p728
ss(Vimage
p729
g673
NVocteon
p730
tp731
(dp732
Vconfigs
p733
(lp734
Vkernelarch-mips/config.octeon
p735
ass(g206
g673
g175
tp736
(dp737
g209
(lp738
V4kc-malta
p739
aV5kc-malta
p740
aVocteon
p741
asg213
I01
ss(Vbase
p742
Vmips64
p743
tp744
(dp745
Vkernel-arch
p746
Vmips
p747
sg173
(lp748
g175
ass(Vbuild
p749
g743
tp750
(dp751
Vimage-file
p752
Vvmlinux
p753
ss(Vimage
p754
g743
tp755
(dp756
Vinstall-stem
p757
Vvmlinux
p758
ss(Vdescription
p759
g743
NV5kc-malta
p760
tp761
(dp762
Vhardware
p763
VMIPS Malta
p764
sVhardware-long
p765
VMIPS Malta boards
p766
ss(Vimage
p767
g743
NV5kc-malta
p768
tp769
(dp770
Vconfigs
p771
(lp772
Vkernelarch-mips/config.malta
p773
aVkernelarch-mips/config.mips64r2
p774
ass(Vdescription
p775
g743
NVocteon
p776
tp777
(dp778
Vhardware
p779
VOcteon
p780
sVhardware-long
p781
VCavium Networks Octeon
p782
ss(Vimage
p783
g743
NVocteon
p784
tp785
(dp786
Vconfigs
p787
(lp788
Vkernelarch-mips/config.octeon
p789
ass(g206
g743
g175
tp790
(dp791
g209
(lp792
V5kc-malta
p793
aVocteon
p794
asg213
I01
ss(Vbase
p795
Vmips64el
p796
tp797
(dp798
Vkernel-arch
p799
Vmips
p800
sg173
(lp801
g175
ass(Vbuild
p802
g796
tp803
(dp804
Vimage-file
p805
Vvmlinux
p806
ss(Vimage
p807
g796
tp808
(dp809
Vinstall-stem
p810
Vvmlinux
p811
ss(Vdescription
p812
g796
NV5kc-malta
p813
tp814
(dp815
Vhardware
p816
VMIPS Malta
p817
sVhardware-long
p818
VMIPS Malta boards
p819
ss(Vimage
p820
g796
NV5kc-malta
p821
tp822
(dp823
Vconfigs
p824
(lp825
Vkernelarch-mips/config.malta
p826
aVkernelarch-mips/config.mips64r2
p827
ass(Vdescription
p828
g796
NVloongson-3
p829
tp830
(dp831
Vhardware
p832
VLoongson 3A/3B
p833
sVhardware-long
p834
VLoongson 3A or 3B based systems (e.g. from Loongson or Lemote)
p835
ss(Vimage
p836
g796
NVloongson-3
p837
tp838
(dp839
Vconfigs
p840
(lp841
Vkernelarch-mips/config.loongson-3
p842
ass(Vdescription
p843
g796
NVocteon
p844
tp845
(dp846
Vhardware
p847
VOcteon
p848
sVhardware-long
p849
VCavium Networks Octeon
p850
ss(Vimage
p851
g796
NVocteon
p852
tp853
(dp854
Vconfigs
p855
(lp856
Vkernelarch-mips/config.octeon
p857
ass(g206
g796
g175
tp858
(dp859
g209
(lp860
V5kc-malta
p861
aVloongson-3
p862
aVocteon
p863
asg213
I01
ss(Vbase
p864
Vmips64r6
p865
tp866
(dp867
Vkernel-arch
p868
Vmips
p869
sg173
(lp870
g175
ass(Vbuild
p871
g865
tp872
(dp873
Vimage-file
p874
Vvmlinux
p875
ss(Vimage
p876
g865
tp877
(dp878
Vinstall-stem
p879
Vvmlinux
p880
ss(Vdescription
p881
g865
NVmips64r6
p882
tp883
(dp884
Vhardware
p885
VMIPS R6 (64 bit, big endian)
p886
sVhardware-long
p887
VMIPS R6 (64 bit, big endian)
p888
ss(Vimage
p889
g865
NVmips64r6
p890
tp891
(dp892
Vconfigs
p893
(lp894
Vkernelarch-mips/config.boston
p895
aVkernelarch-mips/config.mips64r6
p896
ass(g206
g865
g175
tp897
(dp898
g209
(lp899
Vmips64r6
p900
asg213
I01
ss(Vbase
p901
Vmips64r6el
p902
tp903
(dp904
Vkernel-arch
p905
Vmips
p906
sg173
(lp907
g175
ass(Vbuild
p908
g902
tp909
(dp910
Vimage-file
p911
Vvmlinux
p912
ss(Vimage
p913
g902
tp914
(dp915
Vinstall-stem
p916
Vvmlinux
p917
ss(Vdescription
p918
g902
NVmips64r6el
p919
tp920
(dp921
Vhardware
p922
VMIPS R6 (64 bit, little endian)
p923
sVhardware-long
p924
VMIPS R6 (64 bit, little endian)
p925
ss(Vimage
p926
g902
NVmips64r6el
p927
tp928
(dp929
Vconfigs
p930
(lp931
Vkernelarch-mips/config.boston
p932
aVkernelarch-mips/config.mips64r6
p933
ass(g206
g902
g175
tp934
(dp935
g209
(lp936
Vmips64r6el
p937
asg213
I01
ss(Vbase
p938
Vmipsel
p939
tp940
(dp941
Vkernel-arch
p942
Vmips
p943
sg173
(lp944
g175
ass(Vbuild
p945
g939
tp946
(dp947
Vimage-file
p948
Vvmlinux
p949
ss(Vimage
p950
g939
tp951
(dp952
Vinstall-stem
p953
Vvmlinux
p954
ss(Vdescription
p955
g939
NV4kc-malta
p956
tp957
(dp958
Vhardware
p959
VMIPS Malta
p960
sVhardware-long
p961
VMIPS Malta boards
p962
ss(Vimage
p963
g939
NV4kc-malta
p964
tp965
(dp966
Vconfigs
p967
(lp968
Vkernelarch-mips/config.malta
p969
aVkernelarch-mips/config.mips32r2
p970
ass(Vdescription
p971
g939
NV5kc-malta
p972
tp973
(dp974
Vhardware
p975
VMIPS Malta (64-bit)
p976
sVhardware-long
p977
VMIPS Malta boards (64-bit)
p978
ss(Vimage
p979
g939
NV5kc-malta
p980
tp981
(dp982
Vconfigs
p983
(lp984
Vkernelarch-mips/config.malta
p985
aVkernelarch-mips/config.mips64r2
p986
ass(Vdescription
p987
g939
NVloongson-3
p988
tp989
(dp990
Vhardware
p991
VLoongson 3A/3B
p992
sVhardware-long
p993
VLoongson 3A or 3B based systems (e.g. from Loongson or Lemote)
p994
ss(Vimage
p995
g939
NVloongson-3
p996
tp997
(dp998
Vconfigs
p999
(lp1000
Vkernelarch-mips/config.loongson-3
p1001
ass(Vdescription
p1002
g939
NVocteon
p1003
tp1004
(dp1005
Vhardware
p1006
VOcteon
p1007
sVhardware-long
p1008
VCavium Networks Octeon
p1009
ss(Vimage
p1010
g939
NVocteon
p1011
tp1012
(dp1013
Vconfigs
p1014
(lp1015
Vkernelarch-mips/config.octeon
p1016
ass(g206
g939
g175
tp1017
(dp1018
g209
(lp1019
V4kc-malta
p1020
aV5kc-malta
p1021
aVloongson-3
p1022
aVocteon
p1023
asg213
I01
ss(Vbase
p1024
Vmipsn32
p1025
tp1026
(dp1027
Vkernel-arch
p1028
Vmips
p1029
sVfeaturesets
p1030
(lp1031
ss(Vbase
p1032
Vmipsn32el
p1033
tp1034
(dp1035
Vkernel-arch
p1036
Vmips
p1037
sVfeaturesets
p1038
(lp1039
ss(Vbase
p1040
Vmipsn32r6
p1041
tp1042
(dp1043
Vkernel-arch
p1044
Vmips
p1045
sVfeaturesets
p1046
(lp1047
ss(Vbase
p1048
Vmipsn32r6el
p1049
tp1050
(dp1051
Vkernel-arch
p1052
Vmips
p1053
sVfeaturesets
p1054
(lp1055
ss(Vbase
p1056
Vmipsr6
p1057
tp1058
(dp1059
Vkernel-arch
p1060
Vmips
p1061
sg173
(lp1062
g175
ass(Vbuild
p1063
g1057
tp1064
(dp1065
Vimage-file
p1066
Vvmlinux
p1067
ss(Vimage
p1068
g1057
tp1069
(dp1070
Vinstall-stem
p1071
Vvmlinux
p1072
ss(Vdescription
p1073
g1057
NVmips32r6
p1074
tp1075
(dp1076
Vhardware
p1077
VMIPS R6 (32 bit, big endian)
p1078
sVhardware-long
p1079
VMIPS R6 (32 bit, big endian)
p1080
ss(Vimage
p1081
g1057
NVmips32r6
p1082
tp1083
(dp1084
Vconfigs
p1085
(lp1086
Vkernelarch-mips/config.boston
p1087
aVkernelarch-mips/config.mips32r6
p1088
ass(Vdescription
p1089
g1057
NVmips64r6
p1090
tp1091
(dp1092
Vhardware
p1093
VMIPS R6 (64 bit, big endian)
p1094
sVhardware-long
p1095
VMIPS R6 (64 bit, big endian)
p1096
ss(Vimage
p1097
g1057
NVmips64r6
p1098
tp1099
(dp1100
Vconfigs
p1101
(lp1102
Vkernelarch-mips/config.boston
p1103
aVkernelarch-mips/config.mips64r6
p1104
ass(g206
g1057
g175
tp1105
(dp1106
g209
(lp1107
Vmips32r6
p1108
aVmips64r6
p1109
asg213
I01
ss(Vbase
p1110
Vmipsr6el
p1111
tp1112
(dp1113
Vkernel-arch
p1114
Vmips
p1115
sg173
(lp1116
g175
ass(Vbuild
p1117
g1111
tp1118
(dp1119
Vimage-file
p1120
Vvmlinux
p1121
ss(Vimage
p1122
g1111
tp1123
(dp1124
Vinstall-stem
p1125
Vvmlinux
p1126
ss(Vdescription
p1127
g1111
NVmips32r6el
p1128
tp1129
(dp1130
Vhardware
p1131
VMIPS R6 (32 bit, little endian)
p1132
sVhardware-long
p1133
VMIPS R6 (32 bit, little endian)
p1134
ss(Vimage
p1135
g1111
NVmips32r6el
p1136
tp1137
(dp1138
Vconfigs
p1139
(lp1140
Vkernelarch-mips/config.boston
p1141
aVkernelarch-mips/config.mips32r6
p1142
ass(Vdescription
p1143
g1111
NVmips64r6el
p1144
tp1145
(dp1146
Vhardware
p1147
VMIPS R6 (64 bit, little endian)
p1148
sVhardware-long
p1149
VMIPS R6 (64 bit, little endian)
p1150
ss(Vimage
p1151
g1111
NVmips64r6el
p1152
tp1153
(dp1154
Vconfigs
p1155
(lp1156
Vkernelarch-mips/config.boston
p1157
aVkernelarch-mips/config.mips64r6
p1158
ass(g206
g1111
g175
tp1159
(dp1160
g209
(lp1161
Vmips32r6el
p1162
aVmips64r6el
p1163
asg213
I01
ss(Vbase
p1164
Vpowerpc
p1165
tp1166
(dp1167
Vkernel-arch
p1168
Vpowerpc
p1169
sg173
(lp1170
g175
ass(Vbuild
p1171
g1165
tp1172
(dp1173
Vimage-file
p1174
Vvmlinux
p1175
sVvdso
p1176
I01
ss(Vimage
p1177
g1165
tp1178
(dp1179
Vconfigs
p1180
(lp1181
sVbootloaders
p1182
(lp1183
Vgrub-ieee1275
p1184
asVsuggests
p1185
(lp1186
Vmkvmlinuz
p1187
asVinstall-stem
p1188
Vvmlinux
p1189
ss(Vdescription
p1190
g1165
NVpowerpc
p1191
tp1192
(dp1193
Vhardware
p1194
Vuniprocessor 32-bit PowerPC
p1195
ss(Vdescription
p1196
g1165
NVpowerpc-smp
p1197
tp1198
(dp1199
Vhardware
p1200
Vmultiprocessor 32-bit PowerPC
p1201
ss(Vimage
p1202
g1165
NVpowerpc-smp
p1203
tp1204
(dp1205
Vconfigs
p1206
(lp1207
Vpowerpc/config.powerpc
p1208
aVpowerpc/config.powerpc-smp
p1209
ass(Vdescription
p1210
g1165
NVpowerpc64
p1211
tp1212
(dp1213
Vhardware
p1214
V64-bit PowerPC
p1215
ss(Vimage
p1216
g1165
NVpowerpc64
p1217
tp1218
(dp1219
Vconfigs
p1220
(lp1221
Vkernelarch-powerpc/config-arch-64
p1222
aVkernelarch-powerpc/config-arch-64-be
p1223
ass(g206
g1165
g175
tp1224
(dp1225
g209
(lp1226
Vpowerpc
p1227
aVpowerpc-smp
p1228
aVpowerpc64
p1229
asg213
I01
ss(Vbase
p1230
Vppc64
p1231
tp1232
(dp1233
Vkernel-arch
p1234
Vpowerpc
p1235
sg173
(lp1236
g175
ass(Vbuild
p1237
g1231
tp1238
(dp1239
Vimage-file
p1240
Vvmlinux
p1241
sVvdso
p1242
I01
ss(Vimage
p1243
g1231
tp1244
(dp1245
Vconfigs
p1246
(lp1247
sVbootloaders
p1248
(lp1249
Vgrub-ieee1275
p1250
asVsuggests
p1251
(lp1252
Vmkvmlinuz
p1253
asVinstall-stem
p1254
Vvmlinux
p1255
ss(Vdescription
p1256
g1231
NVpowerpc64
p1257
tp1258
(dp1259
Vhardware
p1260
V64-bit PowerPC
p1261
ss(Vimage
p1262
g1231
NVpowerpc64
p1263
tp1264
(dp1265
Vconfigs
p1266
(lp1267
Vkernelarch-powerpc/config-arch-64
p1268
aVkernelarch-powerpc/config-arch-64-be
p1269
ass(g206
g1231
g175
tp1270
(dp1271
g209
(lp1272
Vpowerpc64
p1273
asg213
I01
ss(Vbase
p1274
Vppc64el
p1275
tp1276
(dp1277
Vkernel-arch
p1278
Vpowerpc
p1279
sg173
(lp1280
g175
ass(Vbuild
p1281
g1275
tp1282
(dp1283
Vimage-file
p1284
Vvmlinux
p1285
sVvdso
p1286
I01
ss(Vimage
p1287
g1275
tp1288
(dp1289
Vconfigs
p1290
(lp1291
sVbootloaders
p1292
(lp1293
Vgrub-ieee1275
p1294
asVsuggests
p1295
(lp1296
Vmkvmlinuz
p1297
asVinstall-stem
p1298
Vvmlinux
p1299
ss(Vdescription
p1300
g1275
NVpowerpc64le
p1301
tp1302
(dp1303
Vhardware
p1304
VLittle-endian 64-bit PowerPC
p1305
ss(Vimage
p1306
g1275
NVpowerpc64le
p1307
tp1308
(dp1309
Vconfigs
p1310
(lp1311
Vkernelarch-powerpc/config-arch-64
p1312
aVkernelarch-powerpc/config-arch-64-le
p1313
ass(g206
g1275
g175
tp1314
(dp1315
g209
(lp1316
Vpowerpc64le
p1317
asg213
I01
ss(Vbase
p1318
Vriscv64
p1319
tp1320
(dp1321
Vkernel-arch
p1322
Vriscv
p1323
sVfeaturesets
p1324
(lp1325
Vnone
p1326
ass(Vbuild
p1327
g1319
tp1328
(dp1329
Vimage-file
p1330
Varch/riscv/boot/Image
p1331
sVvdso
p1332
I01
ss(Vimage
p1333
g1319
tp1334
(dp1335
Vinstall-stem
p1336
Vvmlinux
p1337
ss(Vdescription
p1338
g1319
NVriscv64
p1339
tp1340
(dp1341
Vhardware
p1342
V64-bit RISC-V platforms
p1343
sVhardware-long
p1344
V64-bit RISC-V platforms
p1345
ss(Vbase
p1346
g1319
Vnone
p1347
tp1348
(dp1349
Vflavours
p1350
(lp1351
Vriscv64
p1352
ass(Vbase
p1353
Vs390
p1354
tp1355
(dp1356
Vkernel-arch
p1357
Vs390
p1358
sVfeaturesets
p1359
(lp1360
ss(Vbase
p1361
Vs390x
p1362
tp1363
(dp1364
Vkernel-arch
p1365
Vs390
p1366
sg173
(lp1367
g175
ass(Vbuild
p1368
g1362
tp1369
(dp1370
Vimage-file
p1371
Varch/s390/boot/bzImage
p1372
sVvdso
p1373
I01
ss(Vimage
p1374
g1362
tp1375
(dp1376
Vbootloaders
p1377
(lp1378
Vs390-tools
p1379
asVinstall-stem
p1380
Vvmlinuz
p1381
ss(Vrelations
p1382
g1362
tp1383
(dp1384
Vheaders%gcc-9
p1385
Vlinux-compiler-gcc-9-s390
p1386
ss(Vbuild
p1387
g1362
NVs390x
p1388
tp1389
(dp1390
Vdebug-info
p1391
I01
ss(Vdescription
p1392
g1362
NVs390x
p1393
tp1394
(dp1395
Vhardware
p1396
VIBM zSeries
p1397
ss(g206
g1362
g175
tp1398
(dp1399
g209
(lp1400
Vs390x
p1401
asg213
I01
ss(Vbase
p1402
Vsh3
p1403
tp1404
(dp1405
Vkernel-arch
p1406
Vsh
p1407
sVfeaturesets
p1408
(lp1409
ss(Vbase
p1410
Vsh4
p1411
tp1412
(dp1413
Vkernel-arch
p1414
Vsh
p1415
sg173
(lp1416
g175
ass(Vbuild
p1417
g1411
tp1418
(dp1419
Vimage-file
p1420
Varch/sh/boot/zImage
p1421
ss(Vimage
p1422
g1411
tp1423
(dp1424
Vinstall-stem
p1425
Vvmlinuz
p1426
ss(Vdescription
p1427
g1411
NVsh7751r
p1428
tp1429
(dp1430
Vhardware
p1431
Vsh7751r
p1432
sVhardware-long
p1433
VRenesas SH7751R R2D plus board
p1434
ss(Vdescription
p1435
g1411
NVsh7785lcr
p1436
tp1437
(dp1438
Vhardware
p1439
Vsh7785lcr
p1440
sVhardware-long
p1441
VRenesas SH7785 reference board
p1442
ss(Vimage
p1443
g1411
NVsh7785lcr
p1444
tp1445
(dp1446
Vrecommends
p1447
(lp1448
Vu-boot-tools
p1449
asVcheck-size
p1450
I4194304
ss(g206
g1411
g175
tp1451
(dp1452
g209
(lp1453
Vsh7751r
p1454
aVsh7785lcr
p1455
asg213
I01
ss(Vbase
p1456
Vsparc
p1457
tp1458
(dp1459
Vkernel-arch
p1460
Vsparc
p1461
sVfeaturesets
p1462
(lp1463
ss(Vbase
p1464
Vsparc64
p1465
tp1466
(dp1467
Vkernel-arch
p1468
Vsparc
p1469
sg173
(lp1470
g175
ass(Vbuild
p1471
g1465
tp1472
(dp1473
Vimage-file
p1474
Vvmlinux
p1475
ss(Vimage
p1476
g1465
tp1477
(dp1478
Vconfigs
p1479
(lp1480
sVbootloaders
p1481
(lp1482
Vgrub-ieee1275
p1483
asVsuggests
p1484
(lp1485
Vfdutils
p1486
asVinstall-stem
p1487
Vvmlinux
p1488
ss(Vdescription
p1489
g1465
NVsparc64
p1490
tp1491
(dp1492
Vhardware
p1493
Vuniprocessor 64-bit UltraSPARC
p1494
ss(Vimage
p1495
g1465
NVsparc64
p1496
tp1497
(dp1498
Vconfigs
p1499
(lp1500
Vkernelarch-sparc/config-up
p1501
ass(Vdescription
p1502
g1465
NVsparc64-smp
p1503
tp1504
(dp1505
Vhardware
p1506
Vmultiprocessor 64-bit UltraSPARC
p1507
ss(Vimage
p1508
g1465
NVsparc64-smp
p1509
tp1510
(dp1511
Vconfigs
p1512
(lp1513
Vkernelarch-sparc/config-smp
p1514
ass(g206
g1465
g175
tp1515
(dp1516
g209
(lp1517
Vsparc64
p1518
aVsparc64-smp
p1519
asg213
I01
ss(Vbase
p1520
Vx32
p1521
tp1522
(dp1523
Vkernel-arch
p1524
Vx86
p1525
sVfeaturesets
p1526
(lp1527
ss(Vabi
p1528
NVrt
p1529
tp1530
(dp1531
Vignore-changes
p1532
(lp1533
V*
p1534
ass(Vdescription
p1535
Ng1529
tp1536
(dp1537
Vpart-long-rt
p1538
VThis kernel includes the PREEMPT_RT realtime patch set.
p1539
sVpart-short-rt
p1540
VPREEMPT_RT
p1541
sVparts
p1542
(lp1543
Vrt
p1544
ass(Vversion
p1545
tp1546
(dp1547
Vsource
p1548
V5.3.15-1parrot2
p1549
sVupstream
p1550
V5.3
p1551
sVabiname_base
p1552
V5.3.0
p1553
sVabiname
p1554
V5.3.0-3parrot4
p1555
ss.