cdebian_linux.config
ConfigCore
p0
(tRp1
(Vabi
p2
tp3
(dp4
Vabiname
p5
V3parrot1
p6
sVignore-changes
p7
(lp8
V__cpuhp_*
p9
aVbpf_analyzer
p10
aVcxl_*
p11
aVdax_flush
p12
aVieee80211_nullfunc_get
p13
aVinet_add_protocol
p14
aVinet_del_protocol
p15
aViommu_device_*
p16
aVmm_iommu_*
p17
aVmv_mbus_*
p18
aVperf_*
p19
aVregister_cxl_calls
p20
aVregister_key_type
p21
aVunregister_cxl_calls
p22
aV*_hw_breakpoint
p23
aVmodule:drivers/crypto/ccp/*
p24
aVmodule:drivers/hv/*
p25
aVmodule:drivers/gpu/drm/sun4i/*
p26
aVmodule:drivers/iio/**
p27
aVmodule:drivers/misc/cxl/*
p28
aVmodule:drivers/mtd/nand/*
p29
aVmodule:drivers/net/ethernet/**
p30
aVmodule:drivers/net/wireless/**
p31
aVmodule:drivers/nvdimm/*
p32
aVmodule:drivers/nvme/**
p33
aVmodule:drivers/power/supply/bq27xxx_battery
p34
aVmodule:drivers/scsi/cxgbi/*
p35
aVmodule:drivers/scsi/libiscs*
p36
aVmodule:drivers/scsi/qla2xxx/qla2xxx
p37
aVmodule:drivers/scsi/ufs/*
p38
aVmodule:drivers/target/**
p39
aVmodule:drivers/usb/chipidea/**
p40
aVmodule:drivers/usb/gadget/**
p41
aVmodule:drivers/usb/host/**
p42
aVmodule:drivers/usb/musb/**
p43
aVmodule:fs/nfs/**
p44
aVmodule:net/ceph/libceph
p45
aVmodule:net/l2tp/**
p46
aVmodule:net/rxrpc/rxrpc
p47
aVmodule:net/sctp/**
p48
aVmodule:sound/core/seq/**
p49
aVmodule:sound/firewire/snd-firewire-lib
p50
aVmodule:sound/pci/hda/*
p51
aVbtree_*
p52
aVvisitor*
p53
aVcan_rx_register
p54
aVip6_xmit
p55
aVmodule:net/dccp/dccp
p56
aVmodule:net/rds/rds
p57
aVdevfreq_*
p58
aVdevm_devfreq_*
p59
aVupdate_devfreq
p60
aVmodule:drivers/infiniband/**
p61
aVacpi_ec_add_query_handler
p62
aVacpi_ec_remove_query_handler
p63
aVfirst_ec
p64
aVdebugfs_create_automount
p65
aVmodule:drivers/iio/imu/inv_mpu6050/*
p66
aVdrm_crtc_accurate_vblank_count
p67
aVacpi_nfit_desc_init
p68
aVacpi_nfit_init
p69
aVloop_register_transfer
p70
aVxen_xlate_*
p71
aVnf_nat_masquerade_ipv4_register_notifier
p72
aVnf_nat_masquerade_ipv6_register_notifier
p73
aVdfltcc_*
p74
aVmodule:drivers/scsi/hisi_sas/*
p75
aV__gfn_*
p76
aV__kvmhv_*
p77
aV__kvm_*
p78
aV__xive_vm_h_*
p79
aVgfn_*
p80
aVh_ipi_redirect
p81
aVhalt_poll_ns*
p82
aVkvm_*
p83
aVkvmhv_*
p84
aVkvmppc_*
p85
aVmark_page_dirty
p86
aVvcpu_*
p87
aVmodule:arch/powerpc/kvm/*
p88
aVmodule:arch/s390/kvm/*
p89
aVmodule:arch/x86/kvm/*
p90
aVuv_info
p91
ass(Vbase
p92
tp93
(dp94
Varches
p95
(lp96
Valpha
p97
aVamd64
p98
aVarm64
p99
aVarm64ilp32
p100
aVarmel
p101
aVarmhf
p102
aVhppa
p103
aVi386
p104
aVia64
p105
aVm68k
p106
aVmips
p107
aVmips64
p108
aVmips64el
p109
aVmips64r6
p110
aVmips64r6el
p111
aVmipsel
p112
aVmipsn32
p113
aVmipsn32el
p114
aVmipsn32r6
p115
aVmipsn32r6el
p116
aVmipsr6
p117
aVmipsr6el
p118
aVpowerpc
p119
aVppc64
p120
aVppc64el
p121
aVriscv64
p122
aVs390
p123
aVs390x
p124
aVsh3
p125
aVsh4
p126
aVsparc
p127
aVsparc64
p128
aVx32
p129
asVcompiler
p130
Vgcc-10
p131
sVfeaturesets
p132
(lp133
Vnone
p134
aVrt
p135
ass(Vbuild
p136
tp137
(dp138
Vdebug-info
p139
I01
sVsigned-code
p140
I00
ss(Vbase
p141
NVrt
p142
tp143
(dp144
Venabled
p145
I01
ss(Vdescription
p146
tp147
(dp148
Vpart-long-up
p149
VThis kernel is not suitable for SMP (multi-processor,\u000amulti-core or hyper-threaded) systems.
p150
ss(Vimage
p151
tp152
(dp153
Vinitramfs-generators
p154
(lp155
Vinitramfs-tools
p156
aVinitramfs-fallback
p157
asVbreaks
p158
(lp159
Vwireless-regdb (<< 2019.06.03-1~)
p160
asVrecommends
p161
(lp162
Vapparmor
p163
ass(Vrelations
p164
tp165
(dp166
Vgcc-10
p167
Vgcc-10 <!stage1 !cross !pkg.linux.nokernel>, gcc-10-@gnu-type-package@ <!stage1 cross !pkg.linux.nokernel>
p168
sVinitramfs-fallback
p169
Vlinux-initramfs-tool
p170
sVinitramfs-tools
p171
Vinitramfs-tools (>= 0.120+deb8u2)
p172
ss(Vbase
p173
Valpha
p174
tp175
(dp176
Vdefault-flavour
p177
Valpha-smp
p178
sVkernel-arch
p179
Valpha
p180
sVfeaturesets
p181
(lp182
Vnone
p183
ass(Vbuild
p184
g174
tp185
(dp186
Vimage-file
p187
Varch/alpha/boot/vmlinux.gz
p188
ss(Vimage
p189
g174
tp190
(dp191
Vsuggests
p192
(lp193
Vaboot
p194
aVfdutils
p195
asVinstall-stem
p196
Vvmlinuz
p197
ss(Vdescription
p198
g174
NValpha-generic
p199
tp200
(dp201
Vhardware
p202
VAlpha
p203
sVhardware-long
p204
VDEC Alpha systems with extended kernel start address (Wildfire, Titan, Marvel)
p205
ss(Vdescription
p206
g174
NValpha-smp
p207
tp208
(dp209
Vhardware
p210
VAlpha SMP
p211
sVhardware-long
p212
VDEC Alpha SMP systems with extended kernel start address (Wildfire, Titan, Marvel)
p213
ss(Vbase
p214
g174
g183
tp215
(dp216
Vflavours
p217
(lp218
Valpha-generic
p219
aValpha-smp
p220
asVimplicit-flavour
p221
I01
ss(Vbase
p222
Vamd64
p223
tp224
(dp225
Vfeaturesets
p226
(lp227
Vnone
p228
aVrt
p229
asVkernel-arch
p230
Vx86
p231
ss(Vbuild
p232
g223
tp233
(dp234
Vimage-file
p235
Varch/x86/boot/bzImage
p236
sVsigned-code
p237
I00
sVvdso
p238
I01
ss(Vimage
p239
g223
tp240
(dp241
Vbootloaders
p242
(lp243
Vgrub-pc
p244
aVgrub-efi-amd64
p245
aVextlinux
p246
asVinstall-stem
p247
Vvmlinuz
p248
sVbreaks
p249
(lp250
Vxserver-xorg-input-vmmouse (<< 1:13.0.99)
p251
ass(Vrelations
p252
g223
tp253
(dp254
Vheaders%gcc-10
p255
Vlinux-compiler-gcc-10-x86
p256
ss(Vdescription
p257
g223
NVamd64
p258
tp259
(dp260
Vhardware
p261
V64-bit PCs
p262
sVhardware-long
p263
VPCs with AMD64, Intel 64 or VIA Nano processors
p264
ss(Vdescription
p265
g223
NVcloud-amd64
p266
tp267
(dp268
Vhardware
p269
Vx86-64 cloud
p270
sVhardware-long
p271
Vcloud platforms including Amazon EC2, Microsoft Azure, and Google Compute Engine
p272
ss(Vbase
p273
g223
Vnone
p274
tp275
(dp276
Vflavours
p277
(lp278
Vamd64
p279
aVcloud-amd64
p280
asVdefault-flavour
p281
Vamd64
p282
ss(Vimage
p283
g223
g274
Vcloud-amd64
p284
tp285
(dp286
Vconfigs
p287
(lp288
Vconfig.cloud
p289
aVamd64/config.cloud-amd64
p290
ass(Vbase
p291
g223
Vrt
p292
tp293
(dp294
Vflavours
p295
(lp296
Vamd64
p297
ass(Vbase
p298
Varm64
p299
tp300
(dp301
Vcross-compile-compat
p302
Varm-linux-gnueabihf-
p303
sVkernel-arch
p304
Varm64
p305
sVfeaturesets
p306
(lp307
Vnone
p308
aVrt
p309
ass(Vbuild
p310
g299
tp311
(dp312
Vimage-file
p313
Varch/arm64/boot/Image
p314
sVsigned-code
p315
I00
sVvdso
p316
I01
ss(Vimage
p317
g299
tp318
(dp319
Vinstall-stem
p320
Vvmlinuz
p321
sVbreaks
p322
(lp323
Vlibmozjs185-1.0
p324
aVlibmozjs-24-0 (<< 24.2.0-5.1~)
p325
ass(Vdescription
p326
g299
NVarm64
p327
tp328
(dp329
Vhardware
p330
V64-bit ARMv8 machines
p331
ss(Vdescription
p332
g299
NVcloud-arm64
p333
tp334
(dp335
Vhardware
p336
Varm64 cloud
p337
sVhardware-long
p338
Vcloud platforms supporting arm64 virtual machines
p339
ss(Vimage
p340
g299
NVarm64
p341
tp342
(dp343
s(Vrelations
p344
g299
tp345
(dp346
Vgcc-10
p347
Vgcc-10 <!stage1 !cross !pkg.linux.nokernel>, gcc-10-aarch64-linux-gnu <!stage1 cross !pkg.linux.nokernel>, gcc-arm-linux-gnueabihf <!stage1 !pkg.linux.nokernel>
p348
sVheaders%gcc-10
p349
Vgcc-10
p350
ss(Vbase
p351
g299
Vnone
p352
tp353
(dp354
Vflavours
p355
(lp356
Varm64
p357
aVcloud-arm64
p358
asVdefault-flavour
p359
Varm64
p360
ss(Vimage
p361
g299
g352
Vcloud-arm64
p362
tp363
(dp364
Vconfigs
p365
(lp366
Vconfig.cloud
p367
aVarm64/config.cloud-arm64
p368
ass(Vbase
p369
g299
Vrt
p370
tp371
(dp372
Vflavours
p373
(lp374
Varm64
p375
ass(Vbase
p376
Varm64ilp32
p377
tp378
(dp379
Vkernel-arch
p380
Varm64
p381
sVfeaturesets
p382
(lp383
ss(Vbase
p384
Varmel
p385
tp386
(dp387
Vkernel-arch
p388
Varm
p389
sg181
(lp390
g183
ass(Vbuild
p391
g385
tp392
(dp393
Vimage-file
p394
Varch/arm/boot/zImage
p395
sVuncompressed-image-file
p396
Varch/arm/boot/Image
p397
ss(Vimage
p398
g385
tp399
(dp400
Vinstall-stem
p401
Vvmlinuz
p402
ss(Vrelations
p403
g385
tp404
(dp405
Vheaders%gcc-10
p406
Vlinux-compiler-gcc-10-arm
p407
ss(Vdescription
p408
g385
NVmarvell
p409
tp410
(dp411
Vhardware
p412
VMarvell Kirkwood/Orion
p413
sVhardware-long
p414
VMarvell Kirkwood and Orion based systems (https://wiki.debian.org/ArmEabiPort#Supported_hardware)
p415
ss(Vdescription
p416
g385
NVrpi
p417
tp418
(dp419
Vhardware
p420
VRaspberry Pi and Pi Zero
p421
sVhardware-long
p422
VRaspberry Pi, Raspberry Pi Zero based systems
p423
ss(Vimage
p424
g385
NVmarvell
p425
tp426
(dp427
Vrecommends
p428
(lp429
Vu-boot-tools
p430
asVcheck-size
p431
I2729712
sVcheck-size-with-dtb
p432
I01
sVbreaks
p433
(lp434
Vflash-kernel (<< 3.57~)
p435
ass(g214
g385
g183
tp436
(dp437
g217
(lp438
Vmarvell
p439
aVrpi
p440
asg221
I01
ss(Vbase
p441
Varmhf
p442
tp443
(dp444
Vfeaturesets
p445
(lp446
Vnone
p447
aVrt
p448
asVkernel-arch
p449
Varm
p450
ss(Vbuild
p451
g442
tp452
(dp453
Vimage-file
p454
Varch/arm/boot/zImage
p455
sVvdso
p456
I01
ss(Vimage
p457
g442
tp458
(dp459
Vinstall-stem
p460
Vvmlinuz
p461
ss(Vrelations
p462
g442
tp463
(dp464
Vheaders%gcc-10
p465
Vlinux-compiler-gcc-10-arm
p466
ss(Vdescription
p467
g442
NVarmmp
p468
tp469
(dp470
Vhardware
p471
VARMv7 multiplatform compatible SoCs
p472
sVhardware-long
p473
VARMv7 multiplatform kernel. See\u000ahttps://wiki.debian.org/DebianKernel/ARMMP for details of supported\u000aplatforms
p474
ss(Vdescription
p475
g442
NVarmmp-lpae
p476
tp477
(dp478
Vhardware
p479
VARMv7 multiplatform compatible SoCs supporting LPAE
p480
sVhardware-long
p481
VARMv7 multiplatform kernel supporting LPAE. See\u000ahttps://wiki.debian.org/DebianKernel/ARMMP for details of supported\u000aplatforms.
p482
ss(Vbase
p483
g442
Vnone
p484
tp485
(dp486
Vflavours
p487
(lp488
Varmmp
p489
aVarmmp-lpae
p490
asVdefault-flavour
p491
Varmmp
p492
ss(Vbase
p493
g442
Vrt
p494
tp495
(dp496
Vflavours
p497
(lp498
Varmmp
p499
ass(Vbase
p500
Vhppa
p501
tp502
(dp503
Vdefault-flavour
p504
Vparisc
p505
sVkernel-arch
p506
Vparisc
p507
sg181
(lp508
g183
ass(Vbuild
p509
g501
tp510
(dp511
Vimage-file
p512
Varch/parisc/boot/bzImage
p513
sVdebug-info
p514
I00
ss(Vimage
p515
g501
tp516
(dp517
Vsuggests
p518
(lp519
Vpalo
p520
asVinstall-stem
p521
Vvmlinuz
p522
ss(Vdescription
p523
g501
NVparisc
p524
tp525
(dp526
Vhardware
p527
V32-bit PA-RISC
p528
sVhardware-long
p529
VHP PA-RISC 32-bit systems with max 4 GB RAM
p530
ss(Vbase
p531
g501
NVparisc64
p532
tp533
(dp534
Vcflags
p535
V-fno-cse-follow-jumps
p536
sVoverride-host-type
p537
Vhppa64-linux-gnu
p538
ss(Vdescription
p539
g501
NVparisc64
p540
tp541
(dp542
Vhardware
p543
V64-bit PA-RISC
p544
sVhardware-long
p545
VHP PA-RISC 64-bit systems with support for more than 4 GB RAM
p546
ss(Vrelations
p547
g501
tp548
(dp549
Vgcc-10
p550
Vgcc-10 <!stage1 !cross !pkg.linux.nokernel>, gcc-10-hppa-linux-gnu <!stage1 cross !pkg.linux.nokernel>, binutils-hppa64-linux-gnu <!stage1 !pkg.linux.nokernel>, gcc-10-hppa64-linux-gnu <!stage1 !pkg.linux.nokernel>
p551
ss(g214
g501
g183
tp552
(dp553
g217
(lp554
Vparisc
p555
aVparisc64
p556
asg221
I01
ss(Vbase
p557
Vi386
p558
tp559
(dp560
Vfeaturesets
p561
(lp562
Vnone
p563
aVrt
p564
asVkernel-arch
p565
Vx86
p566
ss(Vbuild
p567
g558
tp568
(dp569
Vimage-file
p570
Varch/x86/boot/bzImage
p571
sVsigned-code
p572
I00
sVvdso
p573
I01
ss(Vdescription
p574
g558
tp575
(dp576
Vpart-long-pae
p577
VThis kernel requires PAE (Physical Address Extension).\u000aThis feature is supported by the Intel Pentium Pro/II/III/4/4M/D, Xeon,\u000aCore and Atom; AMD Geode NX, Athlon (K7), Duron, Opteron, Sempron,\u000aTurion or Phenom; Transmeta Efficeon; VIA C7; and some other processors.
p578
ss(Vimage
p579
g558
tp580
(dp581
Vbootloaders
p582
(lp583
Vgrub-pc
p584
aVgrub-efi-ia32
p585
aVextlinux
p586
asVinstall-stem
p587
Vvmlinuz
p588
sVbreaks
p589
(lp590
Vxserver-xorg-input-vmmouse (<< 1:13.0.99)
p591
ass(Vrelations
p592
g558
tp593
(dp594
Vheaders%gcc-10
p595
Vlinux-compiler-gcc-10-x86
p596
ss(Vdescription
p597
g558
NV686
p598
tp599
(dp600
Vhardware
p601
Volder PCs
p602
sVhardware-long
p603
VPCs with one or more processors not supporting PAE
p604
ss(Vdescription
p605
g558
NV686-pae
p606
tp607
(dp608
Vhardware
p609
Vmodern PCs
p610
sVhardware-long
p611
VPCs with one or more processors supporting PAE
p612
sVparts
p613
(lp614
Vpae
p615
ass(Vbase
p616
g558
Vnone
p617
tp618
(dp619
Vflavours
p620
(lp621
V686
p622
aV686-pae
p623
asVdefault-flavour
p624
V686-pae
p625
ss(Vbase
p626
g558
Vrt
p627
tp628
(dp629
Vflavours
p630
(lp631
V686-pae
p632
ass(Vbase
p633
Via64
p634
tp635
(dp636
Vdefault-flavour
p637
Vitanium
p638
sVkernel-arch
p639
Via64
p640
sg181
(lp641
g183
ass(Vbuild
p642
g634
tp643
(dp644
Vimage-file
p645
Vvmlinux.gz
p646
ss(Vimage
p647
g634
tp648
(dp649
Vbootloaders
p650
(lp651
Vgrub-efi-ia64
p652
asVinstall-stem
p653
Vvmlinuz
p654
ss(Vdescription
p655
g634
NVitanium
p656
tp657
(dp658
Vhardware
p659
VItanium (Merced)
p660
sVhardware-long
p661
Vsystems with original Itanium (Merced) processors
p662
ss(Vdescription
p663
g634
NVmckinley
p664
tp665
(dp666
Vhardware
p667
VItanium 2+
p668
sVhardware-long
p669
Vsystems with Itanium 2 or 9300/9500/9700-series processors
p670
ss(g214
g634
g183
tp671
(dp672
g217
(lp673
Vitanium
p674
aVmckinley
p675
asg221
I01
ss(Vbase
p676
Vm68k
p677
tp678
(dp679
Vcflags
p680
V-ffreestanding
p681
sVdefault-flavour
p682
Vm68k
p683
sVkernel-arch
p684
Vm68k
p685
sg181
(lp686
g183
ass(Vbuild
p687
g677
tp688
(dp689
Vimage-file
p690
Vvmlinux
p691
ss(Vimage
p692
g677
tp693
(dp694
Vsuggests
p695
(lp696
Vvmelilo
p697
aVfdutils
p698
asVinstall-stem
p699
Vvmlinux
p700
ss(Vdescription
p701
g677
NVm68k
p702
tp703
(dp704
Vhardware
p705
VMotorola MC68020+ family
p706
ss(g214
g677
g183
tp707
(dp708
g217
(lp709
Vm68k
p710
asg221
I01
ss(Vbase
p711
Vmips
p712
tp713
(dp714
Vkernel-arch
p715
Vmips
p716
sg181
(lp717
g183
ass(Vbuild
p718
g712
tp719
(dp720
Vimage-file
p721
Vvmlinuz
p722
ss(Vimage
p723
g712
tp724
(dp725
Vinstall-stem
p726
Vvmlinuz
p727
ss(Vdescription
p728
g712
NV4kc-malta
p729
tp730
(dp731
Vhardware
p732
VMIPS Malta
p733
sVhardware-long
p734
VMIPS Malta boards
p735
ss(Vimage
p736
g712
NV4kc-malta
p737
tp738
(dp739
Vconfigs
p740
(lp741
Vkernelarch-mips/config.malta
p742
aVkernelarch-mips/config.mips32r2
p743
ass(Vdescription
p744
g712
NV5kc-malta
p745
tp746
(dp747
Vhardware
p748
VMIPS Malta (64-bit)
p749
sVhardware-long
p750
VMIPS Malta boards (64-bit)
p751
ss(Vimage
p752
g712
NV5kc-malta
p753
tp754
(dp755
Vconfigs
p756
(lp757
Vkernelarch-mips/config.malta
p758
aVkernelarch-mips/config.mips64r2
p759
ass(Vdescription
p760
g712
NVocteon
p761
tp762
(dp763
Vhardware
p764
VOcteon
p765
sVhardware-long
p766
VCavium Networks Octeon
p767
ss(Vbuild
p768
g712
NVocteon
p769
tp770
(dp771
Vimage-file
p772
Vvmlinux
p773
ss(Vimage
p774
g712
NVocteon
p775
tp776
(dp777
Vinstall-stem
p778
Vvmlinux
p779
sVconfigs
p780
(lp781
Vkernelarch-mips/config.octeon
p782
ass(g214
g712
g183
tp783
(dp784
g217
(lp785
V4kc-malta
p786
aV5kc-malta
p787
aVocteon
p788
asg221
I01
ss(Vbase
p789
Vmips64
p790
tp791
(dp792
Vkernel-arch
p793
Vmips
p794
sg181
(lp795
g183
ass(Vbuild
p796
g790
tp797
(dp798
Vimage-file
p799
Vvmlinuz
p800
ss(Vimage
p801
g790
tp802
(dp803
Vinstall-stem
p804
Vvmlinuz
p805
ss(Vdescription
p806
g790
NV5kc-malta
p807
tp808
(dp809
Vhardware
p810
VMIPS Malta
p811
sVhardware-long
p812
VMIPS Malta boards
p813
ss(Vimage
p814
g790
NV5kc-malta
p815
tp816
(dp817
Vconfigs
p818
(lp819
Vkernelarch-mips/config.malta
p820
aVkernelarch-mips/config.mips64r2
p821
ass(Vdescription
p822
g790
NVocteon
p823
tp824
(dp825
Vhardware
p826
VOcteon
p827
sVhardware-long
p828
VCavium Networks Octeon
p829
ss(Vbuild
p830
g790
NVocteon
p831
tp832
(dp833
Vimage-file
p834
Vvmlinux
p835
ss(Vimage
p836
g790
NVocteon
p837
tp838
(dp839
Vinstall-stem
p840
Vvmlinux
p841
sVconfigs
p842
(lp843
Vkernelarch-mips/config.octeon
p844
ass(g214
g790
g183
tp845
(dp846
g217
(lp847
V5kc-malta
p848
aVocteon
p849
asg221
I01
ss(Vbase
p850
Vmips64el
p851
tp852
(dp853
Vkernel-arch
p854
Vmips
p855
sg181
(lp856
g183
ass(Vbuild
p857
g851
tp858
(dp859
Vimage-file
p860
Vvmlinuz
p861
ss(Vimage
p862
g851
tp863
(dp864
Vinstall-stem
p865
Vvmlinuz
p866
ss(Vdescription
p867
g851
NV5kc-malta
p868
tp869
(dp870
Vhardware
p871
VMIPS Malta
p872
sVhardware-long
p873
VMIPS Malta boards
p874
ss(Vimage
p875
g851
NV5kc-malta
p876
tp877
(dp878
Vconfigs
p879
(lp880
Vkernelarch-mips/config.malta
p881
aVkernelarch-mips/config.mips64r2
p882
ass(Vdescription
p883
g851
NVloongson-3
p884
tp885
(dp886
Vhardware
p887
VLoongson 3A/3B
p888
sVhardware-long
p889
VLoongson 3A or 3B based systems (e.g. from Loongson or Lemote)
p890
ss(Vimage
p891
g851
NVloongson-3
p892
tp893
(dp894
Vconfigs
p895
(lp896
Vkernelarch-mips/config.loongson-3
p897
ass(Vdescription
p898
g851
NVocteon
p899
tp900
(dp901
Vhardware
p902
VOcteon
p903
sVhardware-long
p904
VCavium Networks Octeon
p905
ss(Vbuild
p906
g851
NVocteon
p907
tp908
(dp909
Vimage-file
p910
Vvmlinux
p911
ss(Vimage
p912
g851
NVocteon
p913
tp914
(dp915
Vinstall-stem
p916
Vvmlinux
p917
sVconfigs
p918
(lp919
Vkernelarch-mips/config.octeon
p920
ass(g214
g851
g183
tp921
(dp922
g217
(lp923
V5kc-malta
p924
aVloongson-3
p925
aVocteon
p926
asg221
I01
ss(Vbase
p927
Vmips64r6
p928
tp929
(dp930
Vdefault-flavour
p931
Vmips64r6
p932
sVkernel-arch
p933
Vmips
p934
sg181
(lp935
g183
ass(Vbuild
p936
g928
tp937
(dp938
Vimage-file
p939
Vvmlinux
p940
ss(Vimage
p941
g928
tp942
(dp943
Vinstall-stem
p944
Vvmlinux
p945
ss(Vdescription
p946
g928
NVmips64r6
p947
tp948
(dp949
Vhardware
p950
VMIPS R6 (64 bit, big endian)
p951
sVhardware-long
p952
VMIPS R6 (64 bit, big endian)
p953
ss(Vimage
p954
g928
NVmips64r6
p955
tp956
(dp957
Vconfigs
p958
(lp959
Vkernelarch-mips/config.boston
p960
aVkernelarch-mips/config.mips64r6
p961
ass(g214
g928
g183
tp962
(dp963
g217
(lp964
Vmips64r6
p965
asg221
I01
ss(Vbase
p966
Vmips64r6el
p967
tp968
(dp969
Vdefault-flavour
p970
Vmips64r6el
p971
sVkernel-arch
p972
Vmips
p973
sg181
(lp974
g183
ass(Vbuild
p975
g967
tp976
(dp977
Vimage-file
p978
Vvmlinux
p979
ss(Vimage
p980
g967
tp981
(dp982
Vinstall-stem
p983
Vvmlinux
p984
ss(Vdescription
p985
g967
NVmips64r6el
p986
tp987
(dp988
Vhardware
p989
VMIPS R6 (64 bit, little endian)
p990
sVhardware-long
p991
VMIPS R6 (64 bit, little endian)
p992
ss(Vimage
p993
g967
NVmips64r6el
p994
tp995
(dp996
Vconfigs
p997
(lp998
Vkernelarch-mips/config.boston
p999
aVkernelarch-mips/config.mips64r6
p1000
ass(g214
g967
g183
tp1001
(dp1002
g217
(lp1003
Vmips64r6el
p1004
asg221
I01
ss(Vbase
p1005
Vmipsel
p1006
tp1007
(dp1008
Vkernel-arch
p1009
Vmips
p1010
sg181
(lp1011
g183
ass(Vbuild
p1012
g1006
tp1013
(dp1014
Vimage-file
p1015
Vvmlinuz
p1016
ss(Vimage
p1017
g1006
tp1018
(dp1019
Vinstall-stem
p1020
Vvmlinuz
p1021
ss(Vdescription
p1022
g1006
NV4kc-malta
p1023
tp1024
(dp1025
Vhardware
p1026
VMIPS Malta
p1027
sVhardware-long
p1028
VMIPS Malta boards
p1029
ss(Vimage
p1030
g1006
NV4kc-malta
p1031
tp1032
(dp1033
Vconfigs
p1034
(lp1035
Vkernelarch-mips/config.malta
p1036
aVkernelarch-mips/config.mips32r2
p1037
ass(Vdescription
p1038
g1006
NV5kc-malta
p1039
tp1040
(dp1041
Vhardware
p1042
VMIPS Malta (64-bit)
p1043
sVhardware-long
p1044
VMIPS Malta boards (64-bit)
p1045
ss(Vimage
p1046
g1006
NV5kc-malta
p1047
tp1048
(dp1049
Vconfigs
p1050
(lp1051
Vkernelarch-mips/config.malta
p1052
aVkernelarch-mips/config.mips64r2
p1053
ass(Vdescription
p1054
g1006
NVloongson-3
p1055
tp1056
(dp1057
Vhardware
p1058
VLoongson 3A/3B
p1059
sVhardware-long
p1060
VLoongson 3A or 3B based systems (e.g. from Loongson or Lemote)
p1061
ss(Vimage
p1062
g1006
NVloongson-3
p1063
tp1064
(dp1065
Vconfigs
p1066
(lp1067
Vkernelarch-mips/config.loongson-3
p1068
ass(Vdescription
p1069
g1006
NVocteon
p1070
tp1071
(dp1072
Vhardware
p1073
VOcteon
p1074
sVhardware-long
p1075
VCavium Networks Octeon
p1076
ss(Vbuild
p1077
g1006
NVocteon
p1078
tp1079
(dp1080
Vimage-file
p1081
Vvmlinux
p1082
ss(Vimage
p1083
g1006
NVocteon
p1084
tp1085
(dp1086
Vinstall-stem
p1087
Vvmlinux
p1088
sVconfigs
p1089
(lp1090
Vkernelarch-mips/config.octeon
p1091
ass(g214
g1006
g183
tp1092
(dp1093
g217
(lp1094
V4kc-malta
p1095
aV5kc-malta
p1096
aVloongson-3
p1097
aVocteon
p1098
asg221
I01
ss(Vbase
p1099
Vmipsn32
p1100
tp1101
(dp1102
Vkernel-arch
p1103
Vmips
p1104
sVfeaturesets
p1105
(lp1106
ss(Vbase
p1107
Vmipsn32el
p1108
tp1109
(dp1110
Vkernel-arch
p1111
Vmips
p1112
sVfeaturesets
p1113
(lp1114
ss(Vbase
p1115
Vmipsn32r6
p1116
tp1117
(dp1118
Vkernel-arch
p1119
Vmips
p1120
sVfeaturesets
p1121
(lp1122
ss(Vbase
p1123
Vmipsn32r6el
p1124
tp1125
(dp1126
Vkernel-arch
p1127
Vmips
p1128
sVfeaturesets
p1129
(lp1130
ss(Vbase
p1131
Vmipsr6
p1132
tp1133
(dp1134
Vdefault-flavour
p1135
Vmips32r6
p1136
sVkernel-arch
p1137
Vmips
p1138
sg181
(lp1139
g183
ass(Vbuild
p1140
g1132
tp1141
(dp1142
Vimage-file
p1143
Vvmlinux
p1144
ss(Vimage
p1145
g1132
tp1146
(dp1147
Vinstall-stem
p1148
Vvmlinux
p1149
ss(Vdescription
p1150
g1132
NVmips32r6
p1151
tp1152
(dp1153
Vhardware
p1154
VMIPS R6 (32 bit, big endian)
p1155
sVhardware-long
p1156
VMIPS R6 (32 bit, big endian)
p1157
ss(Vimage
p1158
g1132
NVmips32r6
p1159
tp1160
(dp1161
Vconfigs
p1162
(lp1163
Vkernelarch-mips/config.boston
p1164
aVkernelarch-mips/config.mips32r6
p1165
ass(Vdescription
p1166
g1132
NVmips64r6
p1167
tp1168
(dp1169
Vhardware
p1170
VMIPS R6 (64 bit, big endian)
p1171
sVhardware-long
p1172
VMIPS R6 (64 bit, big endian)
p1173
ss(Vimage
p1174
g1132
NVmips64r6
p1175
tp1176
(dp1177
Vconfigs
p1178
(lp1179
Vkernelarch-mips/config.boston
p1180
aVkernelarch-mips/config.mips64r6
p1181
ass(g214
g1132
g183
tp1182
(dp1183
g217
(lp1184
Vmips32r6
p1185
aVmips64r6
p1186
asg221
I01
ss(Vbase
p1187
Vmipsr6el
p1188
tp1189
(dp1190
Vdefault-flavour
p1191
Vmips32r6el
p1192
sVkernel-arch
p1193
Vmips
p1194
sg181
(lp1195
g183
ass(Vbuild
p1196
g1188
tp1197
(dp1198
Vimage-file
p1199
Vvmlinux
p1200
ss(Vimage
p1201
g1188
tp1202
(dp1203
Vinstall-stem
p1204
Vvmlinux
p1205
ss(Vdescription
p1206
g1188
NVmips32r6el
p1207
tp1208
(dp1209
Vhardware
p1210
VMIPS R6 (32 bit, little endian)
p1211
sVhardware-long
p1212
VMIPS R6 (32 bit, little endian)
p1213
ss(Vimage
p1214
g1188
NVmips32r6el
p1215
tp1216
(dp1217
Vconfigs
p1218
(lp1219
Vkernelarch-mips/config.boston
p1220
aVkernelarch-mips/config.mips32r6
p1221
ass(Vdescription
p1222
g1188
NVmips64r6el
p1223
tp1224
(dp1225
Vhardware
p1226
VMIPS R6 (64 bit, little endian)
p1227
sVhardware-long
p1228
VMIPS R6 (64 bit, little endian)
p1229
ss(Vimage
p1230
g1188
NVmips64r6el
p1231
tp1232
(dp1233
Vconfigs
p1234
(lp1235
Vkernelarch-mips/config.boston
p1236
aVkernelarch-mips/config.mips64r6
p1237
ass(g214
g1188
g183
tp1238
(dp1239
g217
(lp1240
Vmips32r6el
p1241
aVmips64r6el
p1242
asg221
I01
ss(Vbase
p1243
Vpowerpc
p1244
tp1245
(dp1246
Vkernel-arch
p1247
Vpowerpc
p1248
sg181
(lp1249
g183
ass(Vbuild
p1250
g1244
tp1251
(dp1252
Vimage-file
p1253
Vvmlinux
p1254
sVvdso
p1255
I01
ss(Vimage
p1256
g1244
tp1257
(dp1258
Vconfigs
p1259
(lp1260
sVbootloaders
p1261
(lp1262
Vgrub-ieee1275
p1263
asVsuggests
p1264
(lp1265
Vmkvmlinuz
p1266
asVinstall-stem
p1267
Vvmlinux
p1268
ss(Vdescription
p1269
g1244
NVpowerpc
p1270
tp1271
(dp1272
Vhardware
p1273
Vuniprocessor 32-bit PowerPC
p1274
ss(Vdescription
p1275
g1244
NVpowerpc-smp
p1276
tp1277
(dp1278
Vhardware
p1279
Vmultiprocessor 32-bit PowerPC
p1280
ss(Vimage
p1281
g1244
NVpowerpc-smp
p1282
tp1283
(dp1284
Vconfigs
p1285
(lp1286
Vpowerpc/config.powerpc
p1287
aVpowerpc/config.powerpc-smp
p1288
ass(Vdescription
p1289
g1244
NVpowerpc64
p1290
tp1291
(dp1292
Vhardware
p1293
V64-bit PowerPC
p1294
ss(Vimage
p1295
g1244
NVpowerpc64
p1296
tp1297
(dp1298
Vconfigs
p1299
(lp1300
Vkernelarch-powerpc/config-arch-64
p1301
aVkernelarch-powerpc/config-arch-64-be
p1302
ass(g214
g1244
g183
tp1303
(dp1304
g217
(lp1305
Vpowerpc
p1306
aVpowerpc-smp
p1307
aVpowerpc64
p1308
asg221
I01
ss(Vbase
p1309
Vppc64
p1310
tp1311
(dp1312
Vdefault-flavour
p1313
Vpowerpc64
p1314
sVkernel-arch
p1315
Vpowerpc
p1316
sg181
(lp1317
g183
ass(Vbuild
p1318
g1310
tp1319
(dp1320
Vimage-file
p1321
Vvmlinux
p1322
sVvdso
p1323
I01
ss(Vimage
p1324
g1310
tp1325
(dp1326
Vconfigs
p1327
(lp1328
sVbootloaders
p1329
(lp1330
Vgrub-ieee1275
p1331
asVsuggests
p1332
(lp1333
Vmkvmlinuz
p1334
asVinstall-stem
p1335
Vvmlinux
p1336
ss(Vdescription
p1337
g1310
NVpowerpc64
p1338
tp1339
(dp1340
Vhardware
p1341
V64-bit PowerPC
p1342
ss(Vimage
p1343
g1310
NVpowerpc64
p1344
tp1345
(dp1346
Vconfigs
p1347
(lp1348
Vkernelarch-powerpc/config-arch-64
p1349
aVkernelarch-powerpc/config-arch-64-be
p1350
ass(g214
g1310
g183
tp1351
(dp1352
g217
(lp1353
Vpowerpc64
p1354
asg221
I01
ss(Vbase
p1355
Vppc64el
p1356
tp1357
(dp1358
Vdefault-flavour
p1359
Vpowerpc64le
p1360
sVkernel-arch
p1361
Vpowerpc
p1362
sg181
(lp1363
g183
ass(Vbuild
p1364
g1356
tp1365
(dp1366
Vimage-file
p1367
Vvmlinux
p1368
sVvdso
p1369
I01
ss(Vimage
p1370
g1356
tp1371
(dp1372
Vconfigs
p1373
(lp1374
sVbootloaders
p1375
(lp1376
Vgrub-ieee1275
p1377
asVsuggests
p1378
(lp1379
Vmkvmlinuz
p1380
asVinstall-stem
p1381
Vvmlinux
p1382
ss(Vdescription
p1383
g1356
NVpowerpc64le
p1384
tp1385
(dp1386
Vhardware
p1387
VLittle-endian 64-bit PowerPC
p1388
ss(Vimage
p1389
g1356
NVpowerpc64le
p1390
tp1391
(dp1392
Vconfigs
p1393
(lp1394
Vkernelarch-powerpc/config-arch-64
p1395
aVkernelarch-powerpc/config-arch-64-le
p1396
ass(g214
g1356
g183
tp1397
(dp1398
g217
(lp1399
Vpowerpc64le
p1400
asg221
I01
ss(Vbase
p1401
Vriscv64
p1402
tp1403
(dp1404
Vkernel-arch
p1405
Vriscv
p1406
sVfeaturesets
p1407
(lp1408
Vnone
p1409
ass(Vbuild
p1410
g1402
tp1411
(dp1412
Vimage-file
p1413
Varch/riscv/boot/Image
p1414
sVvdso
p1415
I01
ss(Vimage
p1416
g1402
tp1417
(dp1418
Vinstall-stem
p1419
Vvmlinux
p1420
ss(Vdescription
p1421
g1402
NVriscv64
p1422
tp1423
(dp1424
Vhardware
p1425
V64-bit RISC-V platforms
p1426
sVhardware-long
p1427
V64-bit RISC-V platforms
p1428
ss(Vbase
p1429
g1402
Vnone
p1430
tp1431
(dp1432
Vflavours
p1433
(lp1434
Vriscv64
p1435
asVdefault-flavour
p1436
Vriscv64
p1437
ss(Vbase
p1438
Vs390
p1439
tp1440
(dp1441
Vkernel-arch
p1442
Vs390
p1443
sVfeaturesets
p1444
(lp1445
ss(Vbase
p1446
Vs390x
p1447
tp1448
(dp1449
Vdefault-flavour
p1450
Vs390x
p1451
sVkernel-arch
p1452
Vs390
p1453
sg181
(lp1454
g183
ass(Vbuild
p1455
g1447
tp1456
(dp1457
Vimage-file
p1458
Varch/s390/boot/bzImage
p1459
sVvdso
p1460
I01
ss(Vimage
p1461
g1447
tp1462
(dp1463
Vbootloaders
p1464
(lp1465
Vs390-tools
p1466
asVinstall-stem
p1467
Vvmlinuz
p1468
ss(Vrelations
p1469
g1447
tp1470
(dp1471
Vheaders%gcc-10
p1472
Vlinux-compiler-gcc-10-s390
p1473
ss(Vdescription
p1474
g1447
NVs390x
p1475
tp1476
(dp1477
Vhardware
p1478
VIBM zSeries
p1479
ss(g214
g1447
g183
tp1480
(dp1481
g217
(lp1482
Vs390x
p1483
asg221
I01
ss(Vbase
p1484
Vsh3
p1485
tp1486
(dp1487
Vkernel-arch
p1488
Vsh
p1489
sVfeaturesets
p1490
(lp1491
ss(Vbase
p1492
Vsh4
p1493
tp1494
(dp1495
Vkernel-arch
p1496
Vsh
p1497
sg181
(lp1498
g183
ass(Vbuild
p1499
g1493
tp1500
(dp1501
Vimage-file
p1502
Varch/sh/boot/zImage
p1503
ss(Vimage
p1504
g1493
tp1505
(dp1506
Vinstall-stem
p1507
Vvmlinuz
p1508
ss(Vdescription
p1509
g1493
NVsh7751r
p1510
tp1511
(dp1512
Vhardware
p1513
Vsh7751r
p1514
sVhardware-long
p1515
VRenesas SH7751R R2D plus board
p1516
ss(Vdescription
p1517
g1493
NVsh7785lcr
p1518
tp1519
(dp1520
Vhardware
p1521
Vsh7785lcr
p1522
sVhardware-long
p1523
VRenesas SH7785 reference board
p1524
ss(Vimage
p1525
g1493
NVsh7785lcr
p1526
tp1527
(dp1528
Vrecommends
p1529
(lp1530
Vu-boot-tools
p1531
asVcheck-size
p1532
I4194304
ss(g214
g1493
g183
tp1533
(dp1534
g217
(lp1535
Vsh7751r
p1536
aVsh7785lcr
p1537
asg221
I01
ss(Vbase
p1538
Vsparc
p1539
tp1540
(dp1541
Vkernel-arch
p1542
Vsparc
p1543
sVfeaturesets
p1544
(lp1545
ss(Vbase
p1546
Vsparc64
p1547
tp1548
(dp1549
Vdefault-flavour
p1550
Vsparc64-smp
p1551
sVkernel-arch
p1552
Vsparc
p1553
sg181
(lp1554
g183
ass(Vbuild
p1555
g1547
tp1556
(dp1557
Vimage-file
p1558
Vvmlinux
p1559
ss(Vimage
p1560
g1547
tp1561
(dp1562
Vconfigs
p1563
(lp1564
sVbootloaders
p1565
(lp1566
Vgrub-ieee1275
p1567
asVsuggests
p1568
(lp1569
Vfdutils
p1570
asVinstall-stem
p1571
Vvmlinux
p1572
ss(Vdescription
p1573
g1547
NVsparc64
p1574
tp1575
(dp1576
Vhardware
p1577
Vuniprocessor 64-bit UltraSPARC
p1578
ss(Vimage
p1579
g1547
NVsparc64
p1580
tp1581
(dp1582
Vconfigs
p1583
(lp1584
Vkernelarch-sparc/config-up
p1585
ass(Vdescription
p1586
g1547
NVsparc64-smp
p1587
tp1588
(dp1589
Vhardware
p1590
Vmultiprocessor 64-bit UltraSPARC
p1591
ss(Vimage
p1592
g1547
NVsparc64-smp
p1593
tp1594
(dp1595
Vconfigs
p1596
(lp1597
Vkernelarch-sparc/config-smp
p1598
ass(g214
g1547
g183
tp1599
(dp1600
g217
(lp1601
Vsparc64
p1602
aVsparc64-smp
p1603
asg221
I01
ss(Vbase
p1604
Vx32
p1605
tp1606
(dp1607
Vkernel-arch
p1608
Vx86
p1609
sVfeaturesets
p1610
(lp1611
ss(Vabi
p1612
NVrt
p1613
tp1614
(dp1615
Vignore-changes
p1616
(lp1617
V*
p1618
ass(Vdescription
p1619
Ng1613
tp1620
(dp1621
Vpart-long-rt
p1622
VThis kernel includes the PREEMPT_RT realtime patch set.
p1623
sVpart-short-rt
p1624
VPREEMPT_RT
p1625
sVparts
p1626
(lp1627
Vrt
p1628
ass(Vversion
p1629
tp1630
(dp1631
Vsource
p1632
V5.10.13-3parrot1
p1633
sVupstream
p1634
V5.10
p1635
sVabiname_base
p1636
V5.10.0
p1637
sVabiname
p1638
V5.10.0-3parrot1
p1639
ss.