ccopy_reg
_reconstructor
p0
(cdebian_linux.config
ConfigCore
p1
c__builtin__
dict
p2
(dp3
(Vdescription
p4
Vsparc64
p5
NVsparc64
p6
tp7
(dp8
Vhardware
p9
Vuniprocessor 64-bit UltraSPARC
p10
ss(Vdescription
p11
Vpowerpc
p12
NVpowerpc64
p13
tp14
(dp15
Vhardware
p16
V64-bit PowerPC
p17
ss(Vbase
p18
Vmips
p19
tp20
(dp21
Vfeaturesets
p22
(lp23
Vnone
p24
asVkernel-arch
p25
Vmips
p26
ss(Vbuild
p27
Vsh4
p28
tp29
(dp30
Vsigned-modules
p31
I00
sVimage-file
p32
Varch/sh/boot/zImage
p33
ss(Vbase
p34
Vm68k
p35
g24
tp36
(dp37
Vflavours
p38
(lp39
Vm68k
p40
asVimplicit-flavour
p41
I01
ss(Vrelations
p42
Vamd64
p43
tp44
(dp45
Vheaders%gcc-5
p46
Vlinux-compiler-gcc-5-x86
p47
ss(Vimage
p48
Vmips64el
p49
tp50
(dp51
Vinstall-stem
p52
Vvmlinux
p53
ss(g34
Varmhf
p54
g24
tp55
(dp56
g38
(lp57
Varmmp
p58
aVarmmp-lpae
p59
asg41
I01
ss(Vbase
p60
Vtilegx
p61
tp62
(dp63
Vfeaturesets
p64
(lp65
sVkernel-arch
p66
Vtile
p67
ss(Vbuild
p68
g54
tp69
(dp70
Vsigned-modules
p71
I00
sVimage-file
p72
Varch/arm/boot/zImage
p73
sVvdso
p74
I01
ss(Vimage
p75
g12
tp76
(dp77
Vsuggests
p78
Vmkvmlinuz
p79
sVconfigs
p80
(lp81
sVinstall-stem
p82
Vvmlinux
p83
ss(Vrelations
p84
Vi386
p85
tp86
(dp87
Vheaders%gcc-5
p88
Vlinux-compiler-gcc-5-x86
p89
ss(Vimage
p90
Varmel
p91
tp92
(dp93
Vinstall-stem
p94
Vvmlinuz
p95
ss(Vdescription
p96
Vmipsel
p97
NV4kc-malta
p98
tp99
(dp100
Vhardware-long
p101
VMIPS Malta boards
p102
sVhardware
p103
VMIPS Malta
p104
ss(Vimage
p105
g12
NVpowerpc64
p106
tp107
(dp108
Vconfigs
p109
(lp110
Vkernelarch-powerpc/config-arch-64
p111
aVkernelarch-powerpc/config-arch-64-be
p112
ass(Vbase
p113
g97
tp114
(dp115
g22
(lp116
g24
asVkernel-arch
p117
Vmips
p118
ss(Vbase
p119
Vs390
p120
tp121
(dp122
Vfeaturesets
p123
(lp124
sVkernel-arch
p125
Vs390
p126
ss(g34
Vhppa
p127
g24
tp128
(dp129
g38
(lp130
Vparisc
p131
aVparisc64-smp
p132
asg41
I01
ss(Vdescription
p133
g43
Vnone
p134
Vamd64
p135
tp136
(dp137
Vparts
p138
(lp139
Vxen
p140
ass(Vdescription
p141
g54
NVarmmp-lpae
p142
tp143
(dp144
Vhardware-long
p145
VARMv7 multiplatform kernel supporting LPAE. See\u000ahttps://wiki.debian.org/DebianKernel/ARMMP for details of supported\u000aplatforms.
p146
sVhardware
p147
VARMv7 multiplatform compatible SoCs supporting LPAE
p148
ss(Vimage
p149
Vmips64
p150
NV5kc-malta
p151
tp152
(dp153
Vconfigs
p154
(lp155
Vkernelarch-mips/config.malta
p156
aVkernelarch-mips/config.mips64r2
p157
ass(Vbuild
p158
g12
tp159
(dp160
Vimage-file
p161
Vvmlinux
p162
sVvdso
p163
I01
ss(Vbase
p164
g150
tp165
(dp166
g22
(lp167
g24
asVkernel-arch
p168
Vmips
p169
ss(Vimage
p170
g43
tp171
(dp172
Vbootloaders
p173
(lp174
Vgrub-pc
p175
aVgrub-efi-amd64
p176
aVextlinux
p177
asVinstall-stem
p178
Vvmlinuz
p179
sVbreaks
p180
Vxserver-xorg-input-vmmouse (<< 1:13.0.99)
p181
ss(Vimage
p182
g5
tp183
(dp184
Vsuggests
p185
Vsilo, fdutils
p186
sVconfigs
p187
(lp188
sVinstall-stem
p189
Vvmlinuz
p190
ss(Vbuild
p191
g85
NV686-pae
p192
tp193
(dp194
Vdebug-info
p195
I01
ss(Vbase
p196
Vs390x
p197
tp198
(dp199
g22
(lp200
g24
asVkernel-arch
p201
Vs390
p202
ss(Vimage
p203
g85
tp204
(dp205
Vbootloaders
p206
(lp207
Vgrub-pc
p208
aVextlinux
p209
asVinstall-stem
p210
Vvmlinuz
p211
sVbreaks
p212
Vxserver-xorg-input-vmmouse (<< 1:13.0.99)
p213
ss(Vimage
p214
g12
NVpowerpc-smp
p215
tp216
(dp217
Vconfigs
p218
(lp219
Vpowerpc/config.powerpc
p220
aVpowerpc/config.powerpc-smp
p221
ass(Vbase
p222
Vmipsn32el
p223
tp224
(dp225
Vfeaturesets
p226
(lp227
sVkernel-arch
p228
Vmips
p229
ss(Vimage
p230
Valpha
p231
tp232
(dp233
Vsuggests
p234
Vaboot, fdutils
p235
sVinstall-stem
p236
Vvmlinuz
p237
ss(Vrelations
p238
g91
tp239
(dp240
Vheaders%gcc-5
p241
Vlinux-compiler-gcc-5-arm
p242
ss(Vbase
p243
Vppc64el
p244
tp245
(dp246
g22
(lp247
g24
asVkernel-arch
p248
Vpowerpc
p249
ss(g34
g28
g24
tp250
(dp251
g38
(lp252
Vsh7751r
p253
aVsh7785lcr
p254
asg41
I01
ss(Vimage
p255
g19
NVocteon
p256
tp257
(dp258
Vconfigs
p259
(lp260
Vkernelarch-mips/config.octeon
p261
ass(g34
g12
g24
tp262
(dp263
g38
(lp264
Vpowerpc
p265
aVpowerpc-smp
p266
aVpowerpc64
p267
asg41
I01
ss(Vbuild
p268
g127
tp269
(dp270
Vsigned-modules
p271
I00
sVimage-file
p272
Vvmlinux
p273
ss(Vbase
p274
g12
tp275
(dp276
g22
(lp277
g24
asVkernel-arch
p278
Vpowerpc
p279
ss(Vbase
p280
g5
tp281
(dp282
g22
(lp283
g24
asVkernel-arch
p284
Vsparc
p285
ss(g34
g150
g24
tp286
(dp287
g38
(lp288
V5kc-malta
p289
aVocteon
p290
asg41
I01
ss(Vabi
p291
NVrt
p292
tp293
(dp294
Vignore-changes
p295
(lp296
V*
p297
ass(Vbuild
p298
g197
tp299
(dp300
Vimage-file
p301
Varch/s390/boot/image
p302
sVvdso
p303
I01
ss(Vdescription
p304
g19
NV5kc-malta
p305
tp306
(dp307
Vhardware-long
p308
VMIPS Malta boards (64-bit)
p309
sVhardware
p310
VMIPS Malta (64-bit)
p311
ss(Vdescription
p312
g85
Vnone
p313
V686-pae
p314
tp315
(dp316
Vparts
p317
(lp318
Vxen
p319
ass(Vrelations
p320
g54
tp321
(dp322
Vheaders%gcc-5
p323
Vlinux-compiler-gcc-5-arm
p324
ss(Vbuild
p325
g197
NVs390x
p326
tp327
(dp328
Vdebug-info
p329
I01
ss(Vimage
p330
g28
NVsh7785lcr
p331
tp332
(dp333
Vrecommends
p334
Vu-boot-tools
p335
sVcheck-size
p336
L4194304L
ss(Vdescription
p337
Vpowerpcspe
p338
tp339
(dp340
Vhardware
p341
V32-bit PowerPC with SPE (instead of AltiVec) with SMP support
p342
ss(Vbase
p343
g54
tp344
(dp345
g22
(lp346
g24
asVkernel-arch
p347
Varm
p348
ss(Vimage
p349
g244
NVpowerpc64le
p350
tp351
(dp352
Vconfigs
p353
(lp354
Vkernelarch-powerpc/config-arch-64
p355
aVkernelarch-powerpc/config-arch-64-le
p356
ass(Vdescription
p357
g85
tp358
(dp359
Vpart-long-pae
p360
VThis kernel requires PAE (Physical Address Extension).\u000aThis feature is supported by the Intel Pentium Pro/II/III/4/4M/D, Xeon,\u000aCore and Atom; AMD Geode NX, Athlon (K7), Duron, Opteron, Sempron,\u000aTurion or Phenom; Transmeta Efficeon; VIA C7; and some other processors.
p361
ss(Vdescription
p362
g12
NVpowerpc
p363
tp364
(dp365
Vhardware
p366
Vuniprocessor 32-bit PowerPC
p367
ss(Vdescription
p368
g49
NV5kc-malta
p369
tp370
(dp371
Vhardware-long
p372
VMIPS Malta boards
p373
sVhardware
p374
VMIPS Malta
p375
ss(Vdescription
p376
g244
NVpowerpc64le
p377
tp378
(dp379
Vhardware
p380
VLittle-endian 64-bit PowerPC
p381
ss(Vdescription
p382
Varm64
p383
NVarm64
p384
tp385
(dp386
Vhardware
p387
V64-bit ARMv8 machines
p388
ss(Vimage
p389
g35
tp390
(dp391
Vsuggests
p392
Vvmelilo, fdutils
p393
sVinstall-stem
p394
Vvmlinuz
p395
ss(Vbuild
p396
g49
tp397
(dp398
Vsigned-modules
p399
I00
sVimage-file
p400
Vvmlinux
p401
ss(Vbuild
p402
g97
tp403
(dp404
Vsigned-modules
p405
I00
sVimage-file
p406
Vvmlinux
p407
ss(Vimage
p408
g54
tp409
(dp410
Vinstall-stem
p411
Vvmlinuz
p412
ss(Vbuild
p413
g383
tp414
(dp415
Vsigned-modules
p416
I00
sVimage-file
p417
Varch/arm64/boot/Image
p418
sVdebug-info
p419
I01
sVvdso
p420
I01
ss(Vbuild
p421
tp422
(dp423
Vsigned-modules
p424
I01
sVdebug-info
p425
I01
ss(Vversion
p426
tp427
(dp428
Vsource
p429
V4.8.15-1parrot0
p430
sVabiname
p431
V4.8.0-parrot
p432
sVabiname_base
p433
V4.8.0
p434
sVupstream
p435
V4.8
p436
ss(Vimage
p437
g19
NV5kc-malta
p438
tp439
(dp440
Vconfigs
p441
(lp442
Vkernelarch-mips/config.malta
p443
aVkernelarch-mips/config.mips64r2
p444
ass(Vimage
p445
g244
tp446
(dp447
Vsuggests
p448
Vmkvmlinuz
p449
sVconfigs
p450
(lp451
sVinstall-stem
p452
Vvmlinux
p453
ss(Vimage
p454
g28
tp455
(dp456
Vinstall-stem
p457
Vvmlinuz
p458
ss(Vbase
p459
Vx32
p460
tp461
(dp462
Vfeaturesets
p463
(lp464
sVkernel-arch
p465
Vx86
p466
ss(Vbuild
p467
g35
tp468
(dp469
Vsigned-modules
p470
I00
sVimage-file
p471
Vvmlinux.gz
p472
ss(g34
g197
g24
tp473
(dp474
g38
(lp475
Vs390x
p476
asg41
I01
ss(Vdescription
p477
g49
NVocteon
p478
tp479
(dp480
Vhardware-long
p481
VCavium Networks Octeon
p482
sVhardware
p483
VOcteon
p484
ss(Vbase
p485
g383
tp486
(dp487
Vfeaturesets
p488
(lp489
Vnone
p490
asVkernel-arch
p491
Varm64
p492
ss(Vdescription
p493
g85
NV686
p494
tp495
(dp496
Vhardware-long
p497
VPCs with one or more processors not supporting PAE
p498
sVhardware
p499
Volder PCs
p500
ss(Vbase
p501
Vor1k
p502
tp503
(dp504
Vfeaturesets
p505
(lp506
sVkernel-arch
p507
Vopenrisc
p508
ss(Vimage
p509
g5
NVsparc64-smp
p510
tp511
(dp512
Vconfigs
p513
(lp514
Vkernelarch-sparc/config-smp
p515
ass(Vbase
p516
Vsparc
p517
tp518
(dp519
Vfeaturesets
p520
(lp521
sVkernel-arch
p522
Vsparc
p523
ss(Vbase
p524
Vmipsn32
p525
tp526
(dp527
Vfeaturesets
p528
(lp529
sVkernel-arch
p530
Vmips
p531
ss(Vbase
p532
g49
tp533
(dp534
g22
(lp535
g24
asVkernel-arch
p536
Vmips
p537
ss(Vimage
p538
g383
NVarm64
p539
tp540
(dp541
s(Vdescription
p542
g19
NV4kc-malta
p543
tp544
(dp545
Vhardware-long
p546
VMIPS Malta boards
p547
sVhardware
p548
VMIPS Malta
p549
ss(Vdescription
p550
g35
NVm68k
p551
tp552
(dp553
Vhardware
p554
VMotorola MC68020+ family
p555
ss(Vimage
p556
g97
NVloongson-3
p557
tp558
(dp559
Vconfigs
p560
(lp561
Vkernelarch-mips/config.loongson-3
p562
ass(Vdescription
p563
g28
NVsh7785lcr
p564
tp565
(dp566
Vhardware-long
p567
VRenesas SH7785 reference board
p568
sVhardware
p569
Vsh7785lcr
p570
ss(Vbase
p571
g383
Vnone
p572
tp573
(dp574
Vflavours
p575
(lp576
Varm64
p577
ass(g34
g19
g24
tp578
(dp579
g38
(lp580
V4kc-malta
p581
aV5kc-malta
p582
aVocteon
p583
asg41
I01
ss(Vdescription
p584
g5
NVsparc64-smp
p585
tp586
(dp587
Vhardware
p588
Vmultiprocessor 64-bit UltraSPARC
p589
ss(Vbase
p590
NVrt
p591
tp592
(dp593
Venabled
p594
I01
ss(Vdescription
p595
g43
NVamd64
p596
tp597
(dp598
Vhardware-long
p599
VPCs with AMD64, Intel 64 or VIA Nano processors
p600
sVhardware
p601
V64-bit PCs
p602
ss(Vimage
p603
Vppc64
p604
NVpowerpc64
p605
tp606
(dp607
Vconfigs
p608
(lp609
Vkernelarch-powerpc/config-arch-64
p610
aVkernelarch-powerpc/config-arch-64-be
p611
ass(Vbase
p612
g43
g134
tp613
(dp614
Vflavours
p615
(lp616
Vamd64
p617
ass(Vbase
p618
g85
Vrt
p619
tp620
(dp621
Vflavours
p622
(lp623
V686-pae
p624
ass(g34
g49
g24
tp625
(dp626
g38
(lp627
V5kc-malta
p628
aVloongson-3
p629
aVocteon
p630
asg41
I01
ss(Vimage
p631
g49
NV5kc-malta
p632
tp633
(dp634
Vconfigs
p635
(lp636
Vkernelarch-mips/config.malta
p637
aVkernelarch-mips/config.mips64r2
p638
ass(Vdescription
p639
g150
NVocteon
p640
tp641
(dp642
Vhardware-long
p643
VCavium Networks Octeon
p644
sVhardware
p645
VOcteon
p646
ss(Vimage
p647
g150
tp648
(dp649
Vinstall-stem
p650
Vvmlinux
p651
ss(Vdescription
p652
g91
NVmarvell
p653
tp654
(dp655
Vhardware-long
p656
VMarvell Kirkwood based systems (SheevaPlug, QNAP TS-119/TS-219, etc)\u000aand Orion 5181, 5182 and 5281 based systems (QNAP TS-109/TS-209, etc)
p657
sVhardware
p658
VMarvell Kirkwood/Orion
p659
ss(Vrelations
p660
g127
tp661
(dp662
Vgcc-5
p663
Vgcc-5 <!stage1 !cross>, binutils-hppa64-linux-gnu <!stage1 !cross>, gcc-5-hppa64-linux-gnu <!stage1 !cross>, gcc-5-hppa-linux-gnu:native <!stage1 cross>, binutils-hppa64-linux-gnu:native <!stage1 cross>, gcc-5-hppa64-linux-gnu:native <!stage1 cross>
p664
ss(Vbase
p665
g91
tp666
(dp667
g22
(lp668
g24
asVkernel-arch
p669
Varm
p670
ss(Vbuild
p671
g5
tp672
(dp673
Vsigned-modules
p674
I00
sVimage-file
p675
Varch/sparc/boot/zImage
p676
ss(g34
g5
g24
tp677
(dp678
g38
(lp679
Vsparc64
p680
aVsparc64-smp
p681
asg41
I01
ss(Vbase
p682
g85
tp683
(dp684
Vfeaturesets
p685
(lp686
Vnone
p687
aVrt
p688
asVkernel-arch
p689
Vx86
p690
ss(Vdescription
p691
g97
NVloongson-3
p692
tp693
(dp694
Vhardware-long
p695
VLoongson 3A or 3B based systems (e.g. from Loongson or Lemote)
p696
sVhardware
p697
VLoongson 3A/3B
p698
ss(Vimage
p699
g97
NV4kc-malta
p700
tp701
(dp702
Vconfigs
p703
(lp704
Vkernelarch-mips/config.malta
p705
aVkernelarch-mips/config.mips32r2
p706
ass(Vbuild
p707
g604
tp708
(dp709
Vsigned-modules
p710
I00
sVimage-file
p711
Vvmlinux
p712
sVvdso
p713
I01
ss(Vdescription
p714
g127
NVparisc64-smp
p715
tp716
(dp717
Vhardware-long
p718
VHP PA-RISC 64-bit SMP systems with support for more than 4 GB RAM
p719
sVhardware
p720
Vmultiprocessor 64-bit PA-RISC
p721
ss(Vbase
p722
g43
tp723
(dp724
Vfeaturesets
p725
(lp726
Vnone
p727
aVrt
p728
asVkernel-arch
p729
Vx86
p730
ss(Vdescription
p731
g91
NVversatile
p732
tp733
(dp734
Vhardware-long
p735
VVersatile systems (PB, AB, Qemu)
p736
sVhardware
p737
VVersatile
p738
ss(g34
g244
g24
tp739
(dp740
g38
(lp741
Vpowerpc64le
p742
asg41
I01
ss(Vimage
p743
g97
NVocteon
p744
tp745
(dp746
Vconfigs
p747
(lp748
Vkernelarch-mips/config.octeon
p749
ass(Vimage
p750
g91
NVmarvell
p751
tp752
(dp753
Vrecommends
p754
Vu-boot-tools
p755
sVbreaks
p756
Vflash-kernel (<< 3.57~)
p757
sVcheck-size-with-dtb
p758
I01
sVcheck-size
p759
L2097080L
ss(Vdescription
p760
g150
NV5kc-malta
p761
tp762
(dp763
Vhardware-long
p764
VMIPS Malta boards
p765
sVhardware
p766
VMIPS Malta
p767
ss(g34
g231
g24
tp768
(dp769
g38
(lp770
Valpha-generic
p771
aValpha-smp
p772
asg41
I01
ss(Vbuild
p773
g338
tp774
(dp775
Vsigned-modules
p776
I00
sVimage-file
p777
Vvmlinux
p778
sVvdso
p779
I01
ss(Vdescription
p780
g28
NVsh7751r
p781
tp782
(dp783
Vhardware-long
p784
VRenesas SH7751R R2D plus board
p785
sVhardware
p786
Vsh7751r
p787
ss(Vdescription
p788
g49
NVloongson-3
p789
tp790
(dp791
Vhardware-long
p792
VLoongson 3A or 3B based systems (e.g. from Loongson or Lemote)
p793
sVhardware
p794
VLoongson 3A/3B
p795
ss(Vbase
p796
g604
tp797
(dp798
g22
(lp799
g24
asVkernel-arch
p800
Vpowerpc
p801
ss(Vbase
p802
g231
tp803
(dp804
g22
(lp805
g24
asVkernel-arch
p806
Valpha
p807
ss(Vimage
p808
g383
tp809
(dp810
Vinstall-stem
p811
Vvmlinuz
p812
ss(Vdescription
p813
g54
NVarmmp
p814
tp815
(dp816
Vhardware-long
p817
VARMv7 multiplatform kernel. See\u000ahttps://wiki.debian.org/DebianKernel/ARMMP for details of supported\u000aplatforms
p818
sVhardware
p819
VARMv7 multiplatform compatible SoCs
p820
ss(Vxen
p821
g43
g134
Vamd64
p822
tp823
(dp824
Vflavours
p825
(lp826
Vamd64
p827
ass(Vdescription
p828
g19
NVocteon
p829
tp830
(dp831
Vhardware-long
p832
VCavium Networks Octeon
p833
sVhardware
p834
VOcteon
p835
ss(Vbase
p836
g43
Vrt
p837
tp838
(dp839
Vflavours
p840
(lp841
Vamd64
p842
ass(Vimage
p843
g49
NVloongson-3
p844
tp845
(dp846
Vconfigs
p847
(lp848
Vkernelarch-mips/config.loongson-3
p849
ass(Vbuild
p850
g231
tp851
(dp852
Vsigned-modules
p853
I00
sVimage-file
p854
Varch/alpha/boot/vmlinux.gz
p855
ss(Vimage
p856
g338
tp857
(dp858
Vsuggests
p859
Vmkvmlinuz
p860
sVinstall-stem
p861
Vvmlinux
p862
ss(Vimage
p863
g49
NVocteon
p864
tp865
(dp866
Vconfigs
p867
(lp868
Vkernelarch-mips/config.octeon
p869
ass(Vbuild
p870
g85
tp871
(dp872
Vsigned-modules
p873
I00
sVimage-file
p874
Varch/x86/boot/bzImage
p875
sVvdso
p876
I01
ss(Vdescription
p877
g97
NV5kc-malta
p878
tp879
(dp880
Vhardware-long
p881
VMIPS Malta boards (64-bit)
p882
sVhardware
p883
VMIPS Malta (64-bit)
p884
ss(Vimage
p885
g604
tp886
(dp887
Vsuggests
p888
Vmkvmlinuz
p889
sVconfigs
p890
(lp891
sVinstall-stem
p892
Vvmlinux
p893
ss(Vrelations
p894
g197
tp895
(dp896
Vheaders%gcc-5
p897
Vlinux-compiler-gcc-5-s390
p898
ss(Vdescription
p899
g231
NValpha-generic
p900
tp901
(dp902
Vhardware-long
p903
VDEC Alpha systems with extended kernel start address (Wildfire, Titan, Marvel)
p904
sVhardware
p905
VAlpha
p906
ss(Vbase
p907
g127
NVparisc64-smp
p908
tp909
(dp910
Vcflags
p911
V-fno-cse-follow-jumps
p912
sVoverride-host-type
p913
Vhppa64-linux-gnu
p914
ss(g34
g338
g24
tp915
(dp916
g38
(lp917
Vpowerpcspe
p918
asg41
I01
ss(Vbase
p919
g127
tp920
(dp921
g22
(lp922
g24
asVkernel-arch
p923
Vparisc
p924
ss(Vimage
p925
g97
tp926
(dp927
Vinstall-stem
p928
Vvmlinux
p929
ss(Vdescription
p930
g85
NV686-pae
p931
tp932
(dp933
Vparts
p934
(lp935
Vpae
p936
asVhardware-long
p937
VPCs with one or more processors supporting PAE
p938
sVhardware
p939
Vmodern PCs
p940
ss(Vimage
p941
g127
tp942
(dp943
Vsuggests
p944
Vpalo
p945
sVinstall-stem
p946
Vvmlinux
p947
ss(Vbuild
p948
g43
tp949
(dp950
Vsigned-modules
p951
I00
sVimage-file
p952
Varch/x86/boot/bzImage
p953
sVdebug-info
p954
I01
sVvdso
p955
I01
ss(g34
g97
g24
tp956
(dp957
g38
(lp958
V4kc-malta
p959
aV5kc-malta
p960
aVloongson-3
p961
aVocteon
p962
asg41
I01
ss(Vrelations
p963
tp964
(dp965
Vinitramfs-tools
p966
Vinitramfs-tools (>= 0.110~)
p967
sVinitramfs-fallback
p968
Vlinux-initramfs-tool
p969
sVgcc-5
p970
Vgcc-5 <!stage1 !cross>, gcc-5-@gnu-type-package@:native <!stage1 cross>
p971
ss(Vbuild
p972
g150
tp973
(dp974
Vsigned-modules
p975
I00
sVimage-file
p976
Vvmlinux
p977
ss(Vbuild
p978
g244
tp979
(dp980
Vimage-file
p981
Vvmlinux
p982
sVvdso
p983
I01
ss(Vabi
p984
tp985
(dp986
Vabiname
p987
Vparrot
p988
sVignore-changes
p989
(lp990
Vmodule:arch/x86/kvm/*
p991
aVmodule:drivers/nvdimm/libnvdimm
p992
ass(Vimage
p993
tp994
(dp995
Vinitramfs-generators
p996
(lp997
Vinitramfs-tools
p998
aVinitramfs-fallback
p999
ass(Vbase
p1000
tp1001
(dp1002
Varches
p1003
(lp1004
Valpha
p1005
aVamd64
p1006
aVarm64
p1007
aVarmel
p1008
aVarmhf
p1009
aVhppa
p1010
aVi386
p1011
aVm68k
p1012
aVmips
p1013
aVmipsel
p1014
aVmipsn32
p1015
aVmipsn32el
p1016
aVmips64
p1017
aVmips64el
p1018
aVor1k
p1019
aVpowerpc
p1020
aVpowerpcspe
p1021
aVppc64
p1022
aVppc64el
p1023
aVs390
p1024
aVs390x
p1025
aVsh4
p1026
aVsparc
p1027
aVsparc64
p1028
aVtilegx
p1029
aVx32
p1030
asVcompiler
p1031
Vgcc-5
p1032
sVfeaturesets
p1033
(lp1034
Vnone
p1035
aVrt
p1036
ass(Vbuild
p1037
g91
tp1038
(dp1039
Vsigned-modules
p1040
I00
sVimage-file
p1041
Varch/arm/boot/zImage
p1042
ss(Vdescription
p1043
g127
NVparisc
p1044
tp1045
(dp1046
Vhardware-long
p1047
VHP PA-RISC 32-bit systems with max 4 GB RAM
p1048
sVhardware
p1049
V32-bit PA-RISC
p1050
ss(Vimage
p1051
g19
NV4kc-malta
p1052
tp1053
(dp1054
Vconfigs
p1055
(lp1056
Vkernelarch-mips/config.malta
p1057
aVkernelarch-mips/config.mips32r2
p1058
ass(Vdescription
p1059
g97
NVocteon
p1060
tp1061
(dp1062
Vhardware-long
p1063
VCavium Networks Octeon
p1064
sVhardware
p1065
VOcteon
p1066
ss(Vbase
p1067
g28
tp1068
(dp1069
g22
(lp1070
g24
asVkernel-arch
p1071
Vsh
p1072
ss(Vbase
p1073
g35
tp1074
(dp1075
g22
(lp1076
g24
asVkernel-arch
p1077
Vm68k
p1078
sVcflags
p1079
V-ffreestanding
p1080
ss(Vdescription
p1081
Ng292
tp1082
(dp1083
Vparts
p1084
(lp1085
Vrt
p1086
asVpart-long-rt
p1087
VThis kernel includes the PREEMPT_RT realtime patch set.
p1088
sVpart-short-rt
p1089
VPREEMPT_RT
p1090
ss(Vbase
p1091
g338
tp1092
(dp1093
g22
(lp1094
g24
asVkernel-arch
p1095
Vpowerpc
p1096
ss(g34
g91
g24
tp1097
(dp1098
g38
(lp1099
Vmarvell
p1100
aVversatile
p1101
asg41
I01
ss(Vimage
p1102
g197
tp1103
(dp1104
Vbootloaders
p1105
(lp1106
Vs390-tools
p1107
asVinstall-stem
p1108
Vvmlinuz
p1109
ss(Vdescription
p1110
g197
NVs390x
p1111
tp1112
(dp1113
Vhardware
p1114
VIBM zSeries
p1115
ss(Vdescription
p1116
g12
NVpowerpc-smp
p1117
tp1118
(dp1119
Vhardware
p1120
Vmultiprocessor 32-bit PowerPC
p1121
ss(Vimage
p1122
g5
NVsparc64
p1123
tp1124
(dp1125
Vconfigs
p1126
(lp1127
Vkernelarch-sparc/config-up
p1128
ass(Vimage
p1129
g19
tp1130
(dp1131
Vinstall-stem
p1132
Vvmlinux
p1133
ss(Vdescription
p1134
g604
NVpowerpc64
p1135
tp1136
(dp1137
Vhardware
p1138
V64-bit PowerPC
p1139
ss(Vimage
p1140
g97
NV5kc-malta
p1141
tp1142
(dp1143
Vconfigs
p1144
(lp1145
Vkernelarch-mips/config.malta
p1146
aVkernelarch-mips/config.mips64r2
p1147
ass(Vdescription
p1148
g231
NValpha-smp
p1149
tp1150
(dp1151
Vhardware-long
p1152
VDEC Alpha SMP systems with extended kernel start address (Wildfire, Titan, Marvel)
p1153
sVhardware
p1154
VAlpha SMP
p1155
ss(Vimage
p1156
g150
NVocteon
p1157
tp1158
(dp1159
Vconfigs
p1160
(lp1161
Vkernelarch-mips/config.octeon
p1162
ass(Vbase
p1163
g85
g313
tp1164
(dp1165
Vflavours
p1166
(lp1167
V686
p1168
aV686-pae
p1169
ass(Vdescription
p1170
tp1171
(dp1172
Vpart-long-xen
p1173
VThis kernel also runs on a Xen hypervisor.\u000aIt supports both privileged (dom0) and unprivileged (domU) operation.
p1174
sVpart-long-up
p1175
VThis kernel is not suitable for SMP (multi-processor,\u000amulti-core or hyper-threaded) systems.
p1176
ss(Vbuild
p1177
g19
tp1178
(dp1179
Vsigned-modules
p1180
I00
sVimage-file
p1181
Vvmlinux
p1182
ss(g34
g604
g24
tp1183
(dp1184
g38
(lp1185
Vpowerpc64
p1186
asg41
I01
sstp1187
Rp1188
.