cdebian_linux.config
ConfigCore
p0
(tRp1
(Vbase
p2
tp3
(dp4
Varches
p5
(lp6
Valpha
p7
aVamd64
p8
aVarm64
p9
aVarmel
p10
aVarmhf
p11
aVhppa
p12
aVi386
p13
aVm68k
p14
aVmips
p15
aVmipsel
p16
aVmipsn32
p17
aVmipsn32el
p18
aVmips64
p19
aVmips64el
p20
aVpowerpc
p21
aVpowerpcspe
p22
aVppc64
p23
aVppc64el
p24
aVs390
p25
aVs390x
p26
aVsh3
p27
aVsh4
p28
aVsparc
p29
aVsparc64
p30
aVtilegx
p31
aVx32
p32
asVfeaturesets
p33
(lp34
Vnone
p35
aVrt
p36
asVcompiler
p37
Vgcc-6
p38
ss(Vbuild
p39
tp40
(dp41
Vsigned-modules
p42
I01
sVdebug-info
p43
I01
ss(Vbase
p44
NVrt
p45
tp46
(dp47
Venabled
p48
I01
ss(Vdescription
p49
tp50
(dp51
Vpart-long-up
p52
VThis kernel is not suitable for SMP (multi-processor,\u000amulti-core or hyper-threaded) systems.
p53
sVpart-long-xen
p54
VThis kernel also runs on a Xen hypervisor.\u000aIt supports both privileged (dom0) and unprivileged (domU) operation.
p55
ss(Vrelations
p56
tp57
(dp58
Vinitramfs-tools
p59
Vinitramfs-tools (>= 0.120+deb8u2)
p60
sVgcc-6
p61
Vgcc-6 <!stage1 !cross>, gcc-6-@gnu-type-package@:native <!stage1 cross>
p62
sVinitramfs-fallback
p63
Vlinux-initramfs-tool
p64
ss(Vimage
p65
tp66
(dp67
Vinitramfs-generators
p68
(lp69
Vinitramfs-tools
p70
aVinitramfs-fallback
p71
ass(Vabi
p72
tp73
(dp74
Vabiname
p75
Vparrot18
p76
sVignore-changes
p77
(lp78
V__cpuhp_*
p79
aVbpf_analyzer
p80
aVcxl_*
p81
aVmm_iommu_*
p82
aVregister_cxl_calls
p83
aVunregister_cxl_calls
p84
aVmodule:arch/x86/kvm/*
p85
aVmodule:drivers/hv/*
p86
aVmodule:drivers/iio/common/st_sensors/**
p87
aVmodule:drivers/net/wireless/**
p88
aVmodule:drivers/nvdimm/*
p89
aVmodule:drivers/power/supply/bq27xxx_battery
p90
aVmodule:drivers/scsi/cxgbi/*
p91
aVmodule:drivers/scsi/libiscs*
p92
aVmodule:drivers/scsi/qla2xxx/qla2xxx
p93
aVmodule:drivers/scsi/ufs/*
p94
aVmodule:drivers/target/**
p95
aVmodule:drivers/usb/host/**
p96
aVmodule:drivers/usb/musb/**
p97
aVmodule:net/ceph/libceph
p98
aVbtree_*
p99
aVvisitor*
p100
aVcan_rx_register
p101
aVip6_xmit
p102
aVmodule:net/dccp/dccp
p103
aVmodule:net/rds/rds
p104
aVdevfreq_*
p105
aVdevm_devfreq_*
p106
aVupdate_devfreq
p107
aVmodule:drivers/infiniband/**
p108
aVacpi_ec_add_query_handler
p109
aVacpi_ec_remove_query_handler
p110
aVfirst_ec
p111
aVdebugfs_create_automount
p112
ass(Vbase
p113
Valpha
p114
tp115
(dp116
Vfeaturesets
p117
(lp118
Vnone
p119
asVkernel-arch
p120
Valpha
p121
ss(Vdescription
p122
g114
NValpha-smp
p123
tp124
(dp125
Vhardware
p126
VAlpha SMP
p127
sVhardware-long
p128
VDEC Alpha SMP systems with extended kernel start address (Wildfire, Titan, Marvel)
p129
ss(Vbuild
p130
g114
tp131
(dp132
Vsigned-modules
p133
I00
sVimage-file
p134
Varch/alpha/boot/vmlinux.gz
p135
ss(Vdescription
p136
g114
NValpha-generic
p137
tp138
(dp139
Vhardware
p140
VAlpha
p141
sVhardware-long
p142
VDEC Alpha systems with extended kernel start address (Wildfire, Titan, Marvel)
p143
ss(Vimage
p144
g114
tp145
(dp146
Vsuggests
p147
Vaboot, fdutils
p148
sVinstall-stem
p149
Vvmlinuz
p150
ss(Vbase
p151
g114
g119
tp152
(dp153
Vflavours
p154
(lp155
Valpha-generic
p156
aValpha-smp
p157
asVimplicit-flavour
p158
I01
ss(Vbase
p159
Vamd64
p160
tp161
(dp162
Vfeaturesets
p163
(lp164
Vnone
p165
aVrt
p166
asVkernel-arch
p167
Vx86
p168
ss(Vdescription
p169
g160
NVamd64
p170
tp171
(dp172
Vhardware
p173
V64-bit PCs
p174
sVhardware-long
p175
VPCs with AMD64, Intel 64 or VIA Nano processors
p176
ss(Vbuild
p177
g160
tp178
(dp179
Vvdso
p180
I01
sVimage-file
p181
Varch/x86/boot/bzImage
p182
sVdebug-info
p183
I01
sVsigned-modules
p184
I00
ss(Vrelations
p185
g160
tp186
(dp187
Vheaders%gcc-6
p188
Vlinux-compiler-gcc-6-x86
p189
ss(Vimage
p190
g160
tp191
(dp192
Vbreaks
p193
Vxserver-xorg-input-vmmouse (<< 1:13.0.99)
p194
sVinstall-stem
p195
Vvmlinuz
p196
sVbootloaders
p197
(lp198
Vgrub-pc
p199
aVgrub-efi-amd64
p200
aVextlinux
p201
ass(Vbase
p202
g160
Vnone
p203
tp204
(dp205
Vflavours
p206
(lp207
Vamd64
p208
ass(Vdescription
p209
g160
g203
Vamd64
p210
tp211
(dp212
Vparts
p213
(lp214
Vxen
p215
ass(Vbase
p216
g160
Vrt
p217
tp218
(dp219
Vflavours
p220
(lp221
Vamd64
p222
ass(Vbase
p223
Varm64
p224
tp225
(dp226
Vfeaturesets
p227
(lp228
Vnone
p229
asVkernel-arch
p230
Varm64
p231
ss(Vdescription
p232
g224
NVarm64
p233
tp234
(dp235
Vhardware
p236
V64-bit ARMv8 machines
p237
ss(Vbuild
p238
g224
tp239
(dp240
Vvdso
p241
I01
sVimage-file
p242
Varch/arm64/boot/Image
p243
sVdebug-info
p244
I01
sVsigned-modules
p245
I00
ss(Vimage
p246
g224
NVarm64
p247
tp248
(dp249
s(Vimage
p250
g224
tp251
(dp252
Vbreaks
p253
Vlibmozjs185-1.0, libmozjs-24-0 (<< 24.2.0-5.1~)
p254
sVinstall-stem
p255
Vvmlinuz
p256
ss(Vbase
p257
g224
Vnone
p258
tp259
(dp260
Vflavours
p261
(lp262
Varm64
p263
ass(Vbase
p264
Varmel
p265
tp266
(dp267
g117
(lp268
g119
asVkernel-arch
p269
Varm
p270
ss(Vbuild
p271
g265
tp272
(dp273
Vsigned-modules
p274
I00
sVimage-file
p275
Varch/arm/boot/zImage
p276
ss(Vimage
p277
g265
NVmarvell
p278
tp279
(dp280
Vrecommends
p281
Vu-boot-tools
p282
sVbreaks
p283
Vflash-kernel (<< 3.57~)
p284
sVcheck-size-with-dtb
p285
I01
sVcheck-size
p286
L2097080L
ss(Vdescription
p287
g265
NVmarvell
p288
tp289
(dp290
Vhardware
p291
VMarvell Kirkwood/Orion
p292
sVhardware-long
p293
VMarvell Kirkwood based systems (SheevaPlug, QNAP TS-119/TS-219, etc)\u000aand Orion 5181, 5182 and 5281 based systems (QNAP TS-109/TS-209, etc)
p294
ss(Vrelations
p295
g265
tp296
(dp297
Vheaders%gcc-6
p298
Vlinux-compiler-gcc-6-arm
p299
ss(Vimage
p300
g265
tp301
(dp302
Vinstall-stem
p303
Vvmlinuz
p304
ss(g151
g265
g119
tp305
(dp306
g154
(lp307
Vmarvell
p308
asg158
I01
ss(Vbase
p309
Varmhf
p310
tp311
(dp312
g117
(lp313
g119
asVkernel-arch
p314
Varm
p315
ss(Vdescription
p316
g310
NVarmmp
p317
tp318
(dp319
Vhardware
p320
VARMv7 multiplatform compatible SoCs
p321
sVhardware-long
p322
VARMv7 multiplatform kernel. See\u000ahttps://wiki.debian.org/DebianKernel/ARMMP for details of supported\u000aplatforms
p323
ss(Vbuild
p324
g310
tp325
(dp326
Vvdso
p327
I01
sVimage-file
p328
Varch/arm/boot/zImage
p329
sVsigned-modules
p330
I00
ss(Vdescription
p331
g310
NVarmmp-lpae
p332
tp333
(dp334
Vhardware
p335
VARMv7 multiplatform compatible SoCs supporting LPAE
p336
sVhardware-long
p337
VARMv7 multiplatform kernel supporting LPAE. See\u000ahttps://wiki.debian.org/DebianKernel/ARMMP for details of supported\u000aplatforms.
p338
ss(Vrelations
p339
g310
tp340
(dp341
Vheaders%gcc-6
p342
Vlinux-compiler-gcc-6-arm
p343
ss(Vimage
p344
g310
tp345
(dp346
Vinstall-stem
p347
Vvmlinuz
p348
ss(g151
g310
g119
tp349
(dp350
g154
(lp351
Varmmp
p352
aVarmmp-lpae
p353
asg158
I01
ss(Vbase
p354
Vhppa
p355
tp356
(dp357
g117
(lp358
g119
asVkernel-arch
p359
Vparisc
p360
ss(Vbuild
p361
g355
tp362
(dp363
Vsigned-modules
p364
I00
sVimage-file
p365
Vvmlinux
p366
ss(Vdescription
p367
g355
NVparisc64-smp
p368
tp369
(dp370
Vhardware
p371
Vmultiprocessor 64-bit PA-RISC
p372
sVhardware-long
p373
VHP PA-RISC 64-bit SMP systems with support for more than 4 GB RAM
p374
ss(Vbase
p375
g355
NVparisc64-smp
p376
tp377
(dp378
Vcflags
p379
V-fno-cse-follow-jumps
p380
sVoverride-host-type
p381
Vhppa64-linux-gnu
p382
ss(Vrelations
p383
g355
tp384
(dp385
Vgcc-6
p386
Vgcc-6 <!stage1 !cross>, binutils-hppa64-linux-gnu <!stage1 !cross>, gcc-6-hppa64-linux-gnu <!stage1 !cross>, gcc-6-hppa-linux-gnu:native <!stage1 cross>, binutils-hppa64-linux-gnu:native <!stage1 cross>, gcc-6-hppa64-linux-gnu:native <!stage1 cross>
p387
ss(Vdescription
p388
g355
NVparisc
p389
tp390
(dp391
Vhardware
p392
V32-bit PA-RISC
p393
sVhardware-long
p394
VHP PA-RISC 32-bit systems with max 4 GB RAM
p395
ss(Vimage
p396
g355
tp397
(dp398
Vsuggests
p399
Vpalo
p400
sVinstall-stem
p401
Vvmlinux
p402
ss(g151
g355
g119
tp403
(dp404
g154
(lp405
Vparisc
p406
aVparisc64-smp
p407
asg158
I01
ss(Vbase
p408
Vi386
p409
tp410
(dp411
Vfeaturesets
p412
(lp413
Vnone
p414
aVrt
p415
asVkernel-arch
p416
Vx86
p417
ss(Vbuild
p418
g409
tp419
(dp420
Vvdso
p421
I01
sVimage-file
p422
Varch/x86/boot/bzImage
p423
sVsigned-modules
p424
I00
ss(Vdescription
p425
g409
NV686-pae
p426
tp427
(dp428
Vhardware
p429
Vmodern PCs
p430
sVhardware-long
p431
VPCs with one or more processors supporting PAE
p432
sVparts
p433
(lp434
Vpae
p435
ass(Vdescription
p436
g409
tp437
(dp438
Vpart-long-pae
p439
VThis kernel requires PAE (Physical Address Extension).\u000aThis feature is supported by the Intel Pentium Pro/II/III/4/4M/D, Xeon,\u000aCore and Atom; AMD Geode NX, Athlon (K7), Duron, Opteron, Sempron,\u000aTurion or Phenom; Transmeta Efficeon; VIA C7; and some other processors.
p440
ss(Vbuild
p441
g409
NV686-pae
p442
tp443
(dp444
Vdebug-info
p445
I01
ss(Vdescription
p446
g409
NV686
p447
tp448
(dp449
Vhardware
p450
Volder PCs
p451
sVhardware-long
p452
VPCs with one or more processors not supporting PAE
p453
ss(Vrelations
p454
g409
tp455
(dp456
Vheaders%gcc-6
p457
Vlinux-compiler-gcc-6-x86
p458
ss(Vimage
p459
g409
tp460
(dp461
Vbreaks
p462
Vxserver-xorg-input-vmmouse (<< 1:13.0.99)
p463
sVinstall-stem
p464
Vvmlinuz
p465
sVbootloaders
p466
(lp467
Vgrub-pc
p468
aVextlinux
p469
ass(Vbase
p470
g409
Vnone
p471
tp472
(dp473
Vflavours
p474
(lp475
V686
p476
aV686-pae
p477
ass(Vdescription
p478
g409
g471
V686-pae
p479
tp480
(dp481
Vparts
p482
(lp483
Vxen
p484
ass(Vbase
p485
g409
Vrt
p486
tp487
(dp488
Vflavours
p489
(lp490
V686-pae
p491
ass(Vbase
p492
Vm68k
p493
tp494
(dp495
Vcflags
p496
V-ffreestanding
p497
sg117
(lp498
g119
asVkernel-arch
p499
Vm68k
p500
ss(Vbuild
p501
g493
tp502
(dp503
Vsigned-modules
p504
I00
sVimage-file
p505
Vvmlinux.gz
p506
ss(Vdescription
p507
g493
NVm68k
p508
tp509
(dp510
Vhardware
p511
VMotorola MC68020+ family
p512
ss(Vimage
p513
g493
tp514
(dp515
Vsuggests
p516
Vvmelilo, fdutils
p517
sVinstall-stem
p518
Vvmlinuz
p519
ss(g151
g493
g119
tp520
(dp521
g154
(lp522
Vm68k
p523
asg158
I01
ss(Vbase
p524
Vmips
p525
tp526
(dp527
g117
(lp528
g119
asVkernel-arch
p529
Vmips
p530
ss(Vbuild
p531
g525
tp532
(dp533
Vsigned-modules
p534
I00
sVimage-file
p535
Vvmlinux
p536
ss(Vimage
p537
g525
NV4kc-malta
p538
tp539
(dp540
Vconfigs
p541
(lp542
Vkernelarch-mips/config.malta
p543
aVkernelarch-mips/config.mips32r2
p544
ass(Vimage
p545
g525
NV5kc-malta
p546
tp547
(dp548
Vconfigs
p549
(lp550
Vkernelarch-mips/config.malta
p551
aVkernelarch-mips/config.mips64r2
p552
ass(Vdescription
p553
g525
NVocteon
p554
tp555
(dp556
Vhardware
p557
VOcteon
p558
sVhardware-long
p559
VCavium Networks Octeon
p560
ss(Vimage
p561
g525
NVocteon
p562
tp563
(dp564
Vconfigs
p565
(lp566
Vkernelarch-mips/config.octeon
p567
ass(Vimage
p568
g525
tp569
(dp570
Vinstall-stem
p571
Vvmlinux
p572
ss(Vdescription
p573
g525
NV5kc-malta
p574
tp575
(dp576
Vhardware
p577
VMIPS Malta (64-bit)
p578
sVhardware-long
p579
VMIPS Malta boards (64-bit)
p580
ss(Vdescription
p581
g525
NV4kc-malta
p582
tp583
(dp584
Vhardware
p585
VMIPS Malta
p586
sVhardware-long
p587
VMIPS Malta boards
p588
ss(g151
g525
g119
tp589
(dp590
g154
(lp591
V4kc-malta
p592
aV5kc-malta
p593
aVocteon
p594
asg158
I01
ss(Vbase
p595
Vmipsel
p596
tp597
(dp598
g117
(lp599
g119
asVkernel-arch
p600
Vmips
p601
ss(Vimage
p602
g596
NVloongson-3
p603
tp604
(dp605
Vconfigs
p606
(lp607
Vkernelarch-mips/config.loongson-3
p608
ass(Vbuild
p609
g596
tp610
(dp611
Vsigned-modules
p612
I00
sVimage-file
p613
Vvmlinux
p614
ss(Vimage
p615
g596
NV4kc-malta
p616
tp617
(dp618
Vconfigs
p619
(lp620
Vkernelarch-mips/config.malta
p621
aVkernelarch-mips/config.mips32r2
p622
ass(Vimage
p623
g596
NV5kc-malta
p624
tp625
(dp626
Vconfigs
p627
(lp628
Vkernelarch-mips/config.malta
p629
aVkernelarch-mips/config.mips64r2
p630
ass(Vdescription
p631
g596
NVocteon
p632
tp633
(dp634
Vhardware
p635
VOcteon
p636
sVhardware-long
p637
VCavium Networks Octeon
p638
ss(Vdescription
p639
g596
NVloongson-3
p640
tp641
(dp642
Vhardware
p643
VLoongson 3A/3B
p644
sVhardware-long
p645
VLoongson 3A or 3B based systems (e.g. from Loongson or Lemote)
p646
ss(Vimage
p647
g596
NVocteon
p648
tp649
(dp650
Vconfigs
p651
(lp652
Vkernelarch-mips/config.octeon
p653
ass(Vimage
p654
g596
tp655
(dp656
Vinstall-stem
p657
Vvmlinux
p658
ss(Vdescription
p659
g596
NV5kc-malta
p660
tp661
(dp662
Vhardware
p663
VMIPS Malta (64-bit)
p664
sVhardware-long
p665
VMIPS Malta boards (64-bit)
p666
ss(Vdescription
p667
g596
NV4kc-malta
p668
tp669
(dp670
Vhardware
p671
VMIPS Malta
p672
sVhardware-long
p673
VMIPS Malta boards
p674
ss(g151
g596
g119
tp675
(dp676
g154
(lp677
V4kc-malta
p678
aV5kc-malta
p679
aVloongson-3
p680
aVocteon
p681
asg158
I01
ss(Vbase
p682
Vmipsn32
p683
tp684
(dp685
Vfeaturesets
p686
(lp687
sVkernel-arch
p688
Vmips
p689
ss(Vbase
p690
Vmipsn32el
p691
tp692
(dp693
Vfeaturesets
p694
(lp695
sVkernel-arch
p696
Vmips
p697
ss(Vbase
p698
Vmips64
p699
tp700
(dp701
g117
(lp702
g119
asVkernel-arch
p703
Vmips
p704
ss(Vbuild
p705
g699
tp706
(dp707
Vsigned-modules
p708
I00
sVimage-file
p709
Vvmlinux
p710
ss(Vimage
p711
g699
NV5kc-malta
p712
tp713
(dp714
Vconfigs
p715
(lp716
Vkernelarch-mips/config.malta
p717
aVkernelarch-mips/config.mips64r2
p718
ass(Vdescription
p719
g699
NVocteon
p720
tp721
(dp722
Vhardware
p723
VOcteon
p724
sVhardware-long
p725
VCavium Networks Octeon
p726
ss(Vimage
p727
g699
tp728
(dp729
Vinstall-stem
p730
Vvmlinux
p731
ss(Vdescription
p732
g699
NV5kc-malta
p733
tp734
(dp735
Vhardware
p736
VMIPS Malta
p737
sVhardware-long
p738
VMIPS Malta boards
p739
ss(Vimage
p740
g699
NVocteon
p741
tp742
(dp743
Vconfigs
p744
(lp745
Vkernelarch-mips/config.octeon
p746
ass(g151
g699
g119
tp747
(dp748
g154
(lp749
V5kc-malta
p750
aVocteon
p751
asg158
I01
ss(Vbase
p752
Vmips64el
p753
tp754
(dp755
g117
(lp756
g119
asVkernel-arch
p757
Vmips
p758
ss(Vimage
p759
g753
NVloongson-3
p760
tp761
(dp762
Vconfigs
p763
(lp764
Vkernelarch-mips/config.loongson-3
p765
ass(Vbuild
p766
g753
tp767
(dp768
Vsigned-modules
p769
I00
sVimage-file
p770
Vvmlinux
p771
ss(Vimage
p772
g753
NV5kc-malta
p773
tp774
(dp775
Vconfigs
p776
(lp777
Vkernelarch-mips/config.malta
p778
aVkernelarch-mips/config.mips64r2
p779
ass(Vdescription
p780
g753
NVocteon
p781
tp782
(dp783
Vhardware
p784
VOcteon
p785
sVhardware-long
p786
VCavium Networks Octeon
p787
ss(Vdescription
p788
g753
NVloongson-3
p789
tp790
(dp791
Vhardware
p792
VLoongson 3A/3B
p793
sVhardware-long
p794
VLoongson 3A or 3B based systems (e.g. from Loongson or Lemote)
p795
ss(Vimage
p796
g753
tp797
(dp798
Vinstall-stem
p799
Vvmlinux
p800
ss(Vdescription
p801
g753
NV5kc-malta
p802
tp803
(dp804
Vhardware
p805
VMIPS Malta
p806
sVhardware-long
p807
VMIPS Malta boards
p808
ss(Vimage
p809
g753
NVocteon
p810
tp811
(dp812
Vconfigs
p813
(lp814
Vkernelarch-mips/config.octeon
p815
ass(g151
g753
g119
tp816
(dp817
g154
(lp818
V5kc-malta
p819
aVloongson-3
p820
aVocteon
p821
asg158
I01
ss(Vbase
p822
Vpowerpc
p823
tp824
(dp825
g117
(lp826
g119
asVkernel-arch
p827
Vpowerpc
p828
ss(Vdescription
p829
g823
NVpowerpc64
p830
tp831
(dp832
Vhardware
p833
V64-bit PowerPC
p834
ss(Vbuild
p835
g823
tp836
(dp837
Vvdso
p838
I01
sVimage-file
p839
Vvmlinux
p840
ss(Vimage
p841
g823
NVpowerpc-smp
p842
tp843
(dp844
Vconfigs
p845
(lp846
Vpowerpc/config.powerpc
p847
aVpowerpc/config.powerpc-smp
p848
ass(Vdescription
p849
g823
NVpowerpc
p850
tp851
(dp852
Vhardware
p853
Vuniprocessor 32-bit PowerPC
p854
ss(Vimage
p855
g823
NVpowerpc64
p856
tp857
(dp858
Vconfigs
p859
(lp860
Vkernelarch-powerpc/config-arch-64
p861
aVkernelarch-powerpc/config-arch-64-be
p862
ass(Vdescription
p863
g823
NVpowerpc-smp
p864
tp865
(dp866
Vhardware
p867
Vmultiprocessor 32-bit PowerPC
p868
ss(Vimage
p869
g823
tp870
(dp871
Vsuggests
p872
Vmkvmlinuz
p873
sVinstall-stem
p874
Vvmlinux
p875
sVconfigs
p876
(lp877
ss(g151
g823
g119
tp878
(dp879
g154
(lp880
Vpowerpc
p881
aVpowerpc-smp
p882
aVpowerpc64
p883
asg158
I01
ss(Vbase
p884
Vpowerpcspe
p885
tp886
(dp887
g117
(lp888
g119
asVkernel-arch
p889
Vpowerpc
p890
ss(Vbuild
p891
g885
tp892
(dp893
Vsigned-modules
p894
I00
sVimage-file
p895
Vvmlinux
p896
sVvdso
p897
I01
ss(Vimage
p898
g885
tp899
(dp900
Vsuggests
p901
Vmkvmlinuz
p902
sVinstall-stem
p903
Vvmlinux
p904
ss(Vdescription
p905
g885
tp906
(dp907
Vhardware
p908
V32-bit PowerPC with SPE (instead of AltiVec) with SMP support
p909
ss(g151
g885
g119
tp910
(dp911
g154
(lp912
Vpowerpcspe
p913
asg158
I01
ss(Vbase
p914
Vppc64
p915
tp916
(dp917
g117
(lp918
g119
asVkernel-arch
p919
Vpowerpc
p920
ss(Vdescription
p921
g915
NVpowerpc64
p922
tp923
(dp924
Vhardware
p925
V64-bit PowerPC
p926
ss(Vbuild
p927
g915
tp928
(dp929
Vsigned-modules
p930
I00
sVimage-file
p931
Vvmlinux
p932
sVvdso
p933
I01
ss(Vimage
p934
g915
NVpowerpc64
p935
tp936
(dp937
Vconfigs
p938
(lp939
Vkernelarch-powerpc/config-arch-64
p940
aVkernelarch-powerpc/config-arch-64-be
p941
ass(Vimage
p942
g915
tp943
(dp944
Vsuggests
p945
Vmkvmlinuz
p946
sVinstall-stem
p947
Vvmlinux
p948
sVconfigs
p949
(lp950
ss(g151
g915
g119
tp951
(dp952
g154
(lp953
Vpowerpc64
p954
asg158
I01
ss(Vbase
p955
Vppc64el
p956
tp957
(dp958
g117
(lp959
g119
asVkernel-arch
p960
Vpowerpc
p961
ss(Vdescription
p962
g956
NVpowerpc64le
p963
tp964
(dp965
Vhardware
p966
VLittle-endian 64-bit PowerPC
p967
ss(Vbuild
p968
g956
tp969
(dp970
Vvdso
p971
I01
sVimage-file
p972
Vvmlinux
p973
ss(Vimage
p974
g956
tp975
(dp976
Vsuggests
p977
Vmkvmlinuz
p978
sVinstall-stem
p979
Vvmlinux
p980
sVconfigs
p981
(lp982
ss(Vimage
p983
g956
NVpowerpc64le
p984
tp985
(dp986
Vconfigs
p987
(lp988
Vkernelarch-powerpc/config-arch-64
p989
aVkernelarch-powerpc/config-arch-64-le
p990
ass(g151
g956
g119
tp991
(dp992
g154
(lp993
Vpowerpc64le
p994
asg158
I01
ss(Vbase
p995
Vs390
p996
tp997
(dp998
Vfeaturesets
p999
(lp1000
sVkernel-arch
p1001
Vs390
p1002
ss(Vbase
p1003
Vs390x
p1004
tp1005
(dp1006
g117
(lp1007
g119
asVkernel-arch
p1008
Vs390
p1009
ss(Vdescription
p1010
g1004
NVs390x
p1011
tp1012
(dp1013
Vhardware
p1014
VIBM zSeries
p1015
ss(Vbuild
p1016
g1004
tp1017
(dp1018
Vvdso
p1019
I01
sVimage-file
p1020
Varch/s390/boot/image
p1021
ss(Vbuild
p1022
g1004
NVs390x
p1023
tp1024
(dp1025
Vdebug-info
p1026
I01
ss(Vrelations
p1027
g1004
tp1028
(dp1029
Vheaders%gcc-6
p1030
Vlinux-compiler-gcc-6-s390
p1031
ss(Vimage
p1032
g1004
tp1033
(dp1034
Vinstall-stem
p1035
Vvmlinuz
p1036
sVbootloaders
p1037
(lp1038
Vs390-tools
p1039
ass(g151
g1004
g119
tp1040
(dp1041
g154
(lp1042
Vs390x
p1043
asg158
I01
ss(Vbase
p1044
Vsh3
p1045
tp1046
(dp1047
Vfeaturesets
p1048
(lp1049
sVkernel-arch
p1050
Vsh
p1051
ss(Vbase
p1052
Vsh4
p1053
tp1054
(dp1055
g117
(lp1056
g119
asVkernel-arch
p1057
Vsh
p1058
ss(Vbuild
p1059
g1053
tp1060
(dp1061
Vsigned-modules
p1062
I00
sVimage-file
p1063
Varch/sh/boot/zImage
p1064
ss(Vdescription
p1065
g1053
NVsh7751r
p1066
tp1067
(dp1068
Vhardware
p1069
Vsh7751r
p1070
sVhardware-long
p1071
VRenesas SH7751R R2D plus board
p1072
ss(Vdescription
p1073
g1053
NVsh7785lcr
p1074
tp1075
(dp1076
Vhardware
p1077
Vsh7785lcr
p1078
sVhardware-long
p1079
VRenesas SH7785 reference board
p1080
ss(Vimage
p1081
g1053
tp1082
(dp1083
Vinstall-stem
p1084
Vvmlinuz
p1085
ss(Vimage
p1086
g1053
NVsh7785lcr
p1087
tp1088
(dp1089
Vrecommends
p1090
Vu-boot-tools
p1091
sVcheck-size
p1092
L4194304L
ss(g151
g1053
g119
tp1093
(dp1094
g154
(lp1095
Vsh7751r
p1096
aVsh7785lcr
p1097
asg158
I01
ss(Vbase
p1098
Vsparc
p1099
tp1100
(dp1101
Vfeaturesets
p1102
(lp1103
sVkernel-arch
p1104
Vsparc
p1105
ss(Vbase
p1106
Vsparc64
p1107
tp1108
(dp1109
g117
(lp1110
g119
asVkernel-arch
p1111
Vsparc
p1112
ss(Vbuild
p1113
g1107
tp1114
(dp1115
Vsigned-modules
p1116
I00
sVimage-file
p1117
Varch/sparc/boot/zImage
p1118
ss(Vimage
p1119
g1107
NVsparc64
p1120
tp1121
(dp1122
Vconfigs
p1123
(lp1124
Vkernelarch-sparc/config-up
p1125
ass(Vimage
p1126
g1107
NVsparc64-smp
p1127
tp1128
(dp1129
Vconfigs
p1130
(lp1131
Vkernelarch-sparc/config-smp
p1132
ass(Vimage
p1133
g1107
tp1134
(dp1135
Vsuggests
p1136
Vsilo, fdutils
p1137
sVinstall-stem
p1138
Vvmlinuz
p1139
sVconfigs
p1140
(lp1141
ss(Vdescription
p1142
g1107
NVsparc64-smp
p1143
tp1144
(dp1145
Vhardware
p1146
Vmultiprocessor 64-bit UltraSPARC
p1147
ss(Vdescription
p1148
g1107
NVsparc64
p1149
tp1150
(dp1151
Vhardware
p1152
Vuniprocessor 64-bit UltraSPARC
p1153
ss(g151
g1107
g119
tp1154
(dp1155
g154
(lp1156
Vsparc64
p1157
aVsparc64-smp
p1158
asg158
I01
ss(Vbase
p1159
Vtilegx
p1160
tp1161
(dp1162
Vfeaturesets
p1163
(lp1164
sVkernel-arch
p1165
Vtile
p1166
ss(Vbase
p1167
Vx32
p1168
tp1169
(dp1170
Vfeaturesets
p1171
(lp1172
sVkernel-arch
p1173
Vx86
p1174
ss(Vdescription
p1175
NVrt
p1176
tp1177
(dp1178
Vparts
p1179
(lp1180
Vrt
p1181
asVpart-long-rt
p1182
VThis kernel includes the PREEMPT_RT realtime patch set.
p1183
sVpart-short-rt
p1184
VPREEMPT_RT
p1185
ss(Vabi
p1186
Ng1176
tp1187
(dp1188
Vignore-changes
p1189
(lp1190
V*
p1191
ass(Vversion
p1192
tp1193
(dp1194
Vupstream
p1195
V4.9
p1196
sVsource
p1197
V4.9.18-1parrot18
p1198
sVabiname
p1199
V4.9.0-parrot18
p1200
sVabiname_base
p1201
V4.9.0
p1202
ss.