cdebian_linux.config
ConfigCore
p0
(tRp1
(Vbase
p2
tp3
(dp4
Varches
p5
(lp6
Valpha
p7
aVamd64
p8
aVarm64
p9
aVarmel
p10
aVarmhf
p11
aVhppa
p12
aVi386
p13
aVm68k
p14
aVmips
p15
aVmipsel
p16
aVmipsn32
p17
aVmipsn32el
p18
aVmips64
p19
aVmips64el
p20
aVpowerpc
p21
aVpowerpcspe
p22
aVppc64
p23
aVppc64el
p24
aVs390
p25
aVs390x
p26
aVsh3
p27
aVsh4
p28
aVsparc
p29
aVsparc64
p30
aVtilegx
p31
aVx32
p32
asVfeaturesets
p33
(lp34
Vnone
p35
aVrt
p36
asVcompiler
p37
Vgcc-6
p38
ss(Vbuild
p39
tp40
(dp41
Vsigned-modules
p42
I00
sVdebug-info
p43
I01
ss(Vbase
p44
NVrt
p45
tp46
(dp47
Venabled
p48
I01
ss(Vdescription
p49
tp50
(dp51
Vpart-long-up
p52
VThis kernel is not suitable for SMP (multi-processor,\u000amulti-core or hyper-threaded) systems.
p53
sVpart-long-xen
p54
VThis kernel also runs on a Xen hypervisor.\u000aIt supports both privileged (dom0) and unprivileged (domU) operation.
p55
ss(Vrelations
p56
tp57
(dp58
Vinitramfs-tools
p59
Vinitramfs-tools (>= 0.120+deb8u2)
p60
sVgcc-6
p61
Vgcc-6 <!stage1 !cross>, gcc-6-@gnu-type-package@ <!stage1 cross>
p62
sVinitramfs-fallback
p63
Vlinux-initramfs-tool
p64
ss(Vimage
p65
tp66
(dp67
Vinitramfs-generators
p68
(lp69
Vinitramfs-tools
p70
aVinitramfs-fallback
p71
ass(Vabi
p72
tp73
(dp74
Vabiname
p75
V1
p76
sVignore-changes
p77
(lp78
V__cpuhp_*
p79
aVbpf_analyzer
p80
aVcxl_*
p81
aVmm_iommu_*
p82
aVregister_cxl_calls
p83
aVunregister_cxl_calls
p84
aVmodule:arch/x86/kvm/*
p85
aVmodule:drivers/crypto/ccp/*
p86
aVmodule:drivers/hv/*
p87
aVmodule:drivers/iio/common/hid-sensors/*
p88
aVmodule:drivers/iio/common/st_sensors/**
p89
aVmodule:drivers/net/wireless/**
p90
aVmodule:drivers/nvdimm/*
p91
aVmodule:drivers/power/supply/bq27xxx_battery
p92
aVmodule:drivers/scsi/cxgbi/*
p93
aVmodule:drivers/scsi/libiscs*
p94
aVmodule:drivers/scsi/qla2xxx/qla2xxx
p95
aVmodule:drivers/scsi/ufs/*
p96
aVmodule:drivers/target/**
p97
aVmodule:drivers/usb/chipidea/**
p98
aVmodule:drivers/usb/host/**
p99
aVmodule:drivers/usb/musb/**
p100
aVmodule:net/ceph/libceph
p101
aVmodule:net/l2tp/l2tp_core
p102
aVmodule:sound/firewire/snd-firewire-lib
p103
aVbtree_*
p104
aVvisitor*
p105
aVcan_rx_register
p106
aVip6_xmit
p107
aVmodule:net/dccp/dccp
p108
aVmodule:net/rds/rds
p109
aVdevfreq_*
p110
aVdevm_devfreq_*
p111
aVupdate_devfreq
p112
aVmodule:drivers/infiniband/**
p113
aVacpi_ec_add_query_handler
p114
aVacpi_ec_remove_query_handler
p115
aVfirst_ec
p116
aVdebugfs_create_automount
p117
ass(Vbase
p118
Valpha
p119
tp120
(dp121
Vfeaturesets
p122
(lp123
Vnone
p124
asVkernel-arch
p125
Valpha
p126
ss(Vdescription
p127
g119
NValpha-smp
p128
tp129
(dp130
Vhardware
p131
VAlpha SMP
p132
sVhardware-long
p133
VDEC Alpha SMP systems with extended kernel start address (Wildfire, Titan, Marvel)
p134
ss(Vbuild
p135
g119
tp136
(dp137
Vsigned-modules
p138
I00
sVimage-file
p139
Varch/alpha/boot/vmlinux.gz
p140
ss(Vdescription
p141
g119
NValpha-generic
p142
tp143
(dp144
Vhardware
p145
VAlpha
p146
sVhardware-long
p147
VDEC Alpha systems with extended kernel start address (Wildfire, Titan, Marvel)
p148
ss(Vimage
p149
g119
tp150
(dp151
Vsuggests
p152
Vaboot, fdutils
p153
sVinstall-stem
p154
Vvmlinuz
p155
ss(Vbase
p156
g119
g124
tp157
(dp158
Vflavours
p159
(lp160
Valpha-generic
p161
aValpha-smp
p162
asVimplicit-flavour
p163
I01
ss(Vbase
p164
Vamd64
p165
tp166
(dp167
Vfeaturesets
p168
(lp169
Vnone
p170
aVrt
p171
asVkernel-arch
p172
Vx86
p173
ss(Vdescription
p174
g165
NVamd64
p175
tp176
(dp177
Vhardware
p178
V64-bit PCs
p179
sVhardware-long
p180
VPCs with AMD64, Intel 64 or VIA Nano processors
p181
ss(Vbuild
p182
g165
tp183
(dp184
Vvdso
p185
I01
sVimage-file
p186
Varch/x86/boot/bzImage
p187
sVdebug-info
p188
I01
ss(Vrelations
p189
g165
tp190
(dp191
Vheaders%gcc-6
p192
Vlinux-compiler-gcc-6-x86
p193
ss(Vimage
p194
g165
tp195
(dp196
Vbreaks
p197
Vxserver-xorg-input-vmmouse (<< 1:13.0.99)
p198
sVinstall-stem
p199
Vvmlinuz
p200
sVbootloaders
p201
(lp202
Vgrub-pc
p203
aVgrub-efi-amd64
p204
aVextlinux
p205
ass(Vbase
p206
g165
Vnone
p207
tp208
(dp209
Vflavours
p210
(lp211
Vamd64
p212
ass(Vdescription
p213
g165
g207
Vamd64
p214
tp215
(dp216
Vparts
p217
(lp218
Vxen
p219
ass(Vbase
p220
g165
Vrt
p221
tp222
(dp223
Vflavours
p224
(lp225
Vamd64
p226
ass(Vbase
p227
Varm64
p228
tp229
(dp230
Vfeaturesets
p231
(lp232
Vnone
p233
asVkernel-arch
p234
Varm64
p235
ss(Vdescription
p236
g228
NVarm64
p237
tp238
(dp239
Vhardware
p240
V64-bit ARMv8 machines
p241
ss(Vbuild
p242
g228
tp243
(dp244
Vvdso
p245
I01
sVimage-file
p246
Varch/arm64/boot/Image
p247
sVdebug-info
p248
I01
ss(Vimage
p249
g228
NVarm64
p250
tp251
(dp252
s(Vimage
p253
g228
tp254
(dp255
Vbreaks
p256
Vlibmozjs185-1.0, libmozjs-24-0 (<< 24.2.0-5.1~)
p257
sVinstall-stem
p258
Vvmlinuz
p259
ss(Vbase
p260
g228
Vnone
p261
tp262
(dp263
Vflavours
p264
(lp265
Varm64
p266
ass(Vbase
p267
Varmel
p268
tp269
(dp270
g122
(lp271
g124
asVkernel-arch
p272
Varm
p273
ss(Vbuild
p274
g268
tp275
(dp276
Vsigned-modules
p277
I00
sVimage-file
p278
Varch/arm/boot/zImage
p279
ss(Vimage
p280
g268
NVmarvell
p281
tp282
(dp283
Vrecommends
p284
Vu-boot-tools
p285
sVbreaks
p286
Vflash-kernel (<< 3.57~)
p287
sVcheck-size-with-dtb
p288
I01
sVcheck-size
p289
L2097080L
ss(Vdescription
p290
g268
NVmarvell
p291
tp292
(dp293
Vhardware
p294
VMarvell Kirkwood/Orion
p295
sVhardware-long
p296
VMarvell Kirkwood based systems (SheevaPlug, QNAP TS-119/TS-219, etc)\u000aand Orion 5181, 5182 and 5281 based systems (QNAP TS-109/TS-209, etc)
p297
ss(Vrelations
p298
g268
tp299
(dp300
Vheaders%gcc-6
p301
Vlinux-compiler-gcc-6-arm
p302
ss(Vimage
p303
g268
tp304
(dp305
Vinstall-stem
p306
Vvmlinuz
p307
ss(g156
g268
g124
tp308
(dp309
g159
(lp310
Vmarvell
p311
asg163
I01
ss(Vbase
p312
Varmhf
p313
tp314
(dp315
g122
(lp316
g124
asVkernel-arch
p317
Varm
p318
ss(Vdescription
p319
g313
NVarmmp
p320
tp321
(dp322
Vhardware
p323
VARMv7 multiplatform compatible SoCs
p324
sVhardware-long
p325
VARMv7 multiplatform kernel. See\u000ahttps://wiki.debian.org/DebianKernel/ARMMP for details of supported\u000aplatforms
p326
ss(Vbuild
p327
g313
tp328
(dp329
Vvdso
p330
I01
sVimage-file
p331
Varch/arm/boot/zImage
p332
ss(Vdescription
p333
g313
NVarmmp-lpae
p334
tp335
(dp336
Vhardware
p337
VARMv7 multiplatform compatible SoCs supporting LPAE
p338
sVhardware-long
p339
VARMv7 multiplatform kernel supporting LPAE. See\u000ahttps://wiki.debian.org/DebianKernel/ARMMP for details of supported\u000aplatforms.
p340
ss(Vrelations
p341
g313
tp342
(dp343
Vheaders%gcc-6
p344
Vlinux-compiler-gcc-6-arm
p345
ss(Vimage
p346
g313
tp347
(dp348
Vinstall-stem
p349
Vvmlinuz
p350
ss(g156
g313
g124
tp351
(dp352
g159
(lp353
Varmmp
p354
aVarmmp-lpae
p355
asg163
I01
ss(Vbase
p356
Vhppa
p357
tp358
(dp359
g122
(lp360
g124
asVkernel-arch
p361
Vparisc
p362
ss(Vbuild
p363
g357
tp364
(dp365
Vsigned-modules
p366
I00
sVimage-file
p367
Vvmlinux
p368
ss(Vdescription
p369
g357
NVparisc64-smp
p370
tp371
(dp372
Vhardware
p373
Vmultiprocessor 64-bit PA-RISC
p374
sVhardware-long
p375
VHP PA-RISC 64-bit SMP systems with support for more than 4 GB RAM
p376
ss(Vbase
p377
g357
NVparisc64-smp
p378
tp379
(dp380
Vcflags
p381
V-fno-cse-follow-jumps
p382
sVoverride-host-type
p383
Vhppa64-linux-gnu
p384
ss(Vrelations
p385
g357
tp386
(dp387
Vgcc-6
p388
Vgcc-6 <!stage1 !cross>, binutils-hppa64-linux-gnu <!stage1 !cross>, gcc-6-hppa64-linux-gnu <!stage1 !cross>, gcc-6-hppa-linux-gnu <!stage1 cross>, binutils-hppa64-linux-gnu <!stage1 cross>, gcc-6-hppa64-linux-gnu <!stage1 cross>
p389
ss(Vdescription
p390
g357
NVparisc
p391
tp392
(dp393
Vhardware
p394
V32-bit PA-RISC
p395
sVhardware-long
p396
VHP PA-RISC 32-bit systems with max 4 GB RAM
p397
ss(Vimage
p398
g357
tp399
(dp400
Vsuggests
p401
Vpalo
p402
sVinstall-stem
p403
Vvmlinux
p404
ss(g156
g357
g124
tp405
(dp406
g159
(lp407
Vparisc
p408
aVparisc64-smp
p409
asg163
I01
ss(Vbase
p410
Vi386
p411
tp412
(dp413
Vfeaturesets
p414
(lp415
Vnone
p416
aVrt
p417
asVkernel-arch
p418
Vx86
p419
ss(Vbuild
p420
g411
tp421
(dp422
Vvdso
p423
I01
sVimage-file
p424
Varch/x86/boot/bzImage
p425
ss(Vdescription
p426
g411
NV686-pae
p427
tp428
(dp429
Vhardware
p430
Vmodern PCs
p431
sVhardware-long
p432
VPCs with one or more processors supporting PAE
p433
sVparts
p434
(lp435
Vpae
p436
ass(Vdescription
p437
g411
tp438
(dp439
Vpart-long-pae
p440
VThis kernel requires PAE (Physical Address Extension).\u000aThis feature is supported by the Intel Pentium Pro/II/III/4/4M/D, Xeon,\u000aCore and Atom; AMD Geode NX, Athlon (K7), Duron, Opteron, Sempron,\u000aTurion or Phenom; Transmeta Efficeon; VIA C7; and some other processors.
p441
ss(Vbuild
p442
g411
NV686-pae
p443
tp444
(dp445
Vdebug-info
p446
I01
ss(Vdescription
p447
g411
NV686
p448
tp449
(dp450
Vhardware
p451
Volder PCs
p452
sVhardware-long
p453
VPCs with one or more processors not supporting PAE
p454
ss(Vrelations
p455
g411
tp456
(dp457
Vheaders%gcc-6
p458
Vlinux-compiler-gcc-6-x86
p459
ss(Vimage
p460
g411
tp461
(dp462
Vbreaks
p463
Vxserver-xorg-input-vmmouse (<< 1:13.0.99)
p464
sVinstall-stem
p465
Vvmlinuz
p466
sVbootloaders
p467
(lp468
Vgrub-pc
p469
aVextlinux
p470
ass(Vbase
p471
g411
Vnone
p472
tp473
(dp474
Vflavours
p475
(lp476
V686
p477
aV686-pae
p478
ass(Vdescription
p479
g411
g472
V686-pae
p480
tp481
(dp482
Vparts
p483
(lp484
Vxen
p485
ass(Vbase
p486
g411
Vrt
p487
tp488
(dp489
Vflavours
p490
(lp491
V686-pae
p492
ass(Vbase
p493
Vm68k
p494
tp495
(dp496
Vcflags
p497
V-ffreestanding
p498
sg122
(lp499
g124
asVkernel-arch
p500
Vm68k
p501
ss(Vbuild
p502
g494
tp503
(dp504
Vsigned-modules
p505
I00
sVimage-file
p506
Vvmlinux.gz
p507
ss(Vdescription
p508
g494
NVm68k
p509
tp510
(dp511
Vhardware
p512
VMotorola MC68020+ family
p513
ss(Vimage
p514
g494
tp515
(dp516
Vsuggests
p517
Vvmelilo, fdutils
p518
sVinstall-stem
p519
Vvmlinuz
p520
ss(g156
g494
g124
tp521
(dp522
g159
(lp523
Vm68k
p524
asg163
I01
ss(Vbase
p525
Vmips
p526
tp527
(dp528
g122
(lp529
g124
asVkernel-arch
p530
Vmips
p531
ss(Vbuild
p532
g526
tp533
(dp534
Vsigned-modules
p535
I00
sVimage-file
p536
Vvmlinux
p537
ss(Vimage
p538
g526
NV4kc-malta
p539
tp540
(dp541
Vconfigs
p542
(lp543
Vkernelarch-mips/config.malta
p544
aVkernelarch-mips/config.mips32r2
p545
ass(Vimage
p546
g526
NV5kc-malta
p547
tp548
(dp549
Vconfigs
p550
(lp551
Vkernelarch-mips/config.malta
p552
aVkernelarch-mips/config.mips64r2
p553
ass(Vdescription
p554
g526
NVocteon
p555
tp556
(dp557
Vhardware
p558
VOcteon
p559
sVhardware-long
p560
VCavium Networks Octeon
p561
ss(Vimage
p562
g526
NVocteon
p563
tp564
(dp565
Vconfigs
p566
(lp567
Vkernelarch-mips/config.octeon
p568
ass(Vimage
p569
g526
tp570
(dp571
Vinstall-stem
p572
Vvmlinux
p573
ss(Vdescription
p574
g526
NV5kc-malta
p575
tp576
(dp577
Vhardware
p578
VMIPS Malta (64-bit)
p579
sVhardware-long
p580
VMIPS Malta boards (64-bit)
p581
ss(Vdescription
p582
g526
NV4kc-malta
p583
tp584
(dp585
Vhardware
p586
VMIPS Malta
p587
sVhardware-long
p588
VMIPS Malta boards
p589
ss(g156
g526
g124
tp590
(dp591
g159
(lp592
V4kc-malta
p593
aV5kc-malta
p594
aVocteon
p595
asg163
I01
ss(Vbase
p596
Vmipsel
p597
tp598
(dp599
g122
(lp600
g124
asVkernel-arch
p601
Vmips
p602
ss(Vimage
p603
g597
NVloongson-3
p604
tp605
(dp606
Vconfigs
p607
(lp608
Vkernelarch-mips/config.loongson-3
p609
ass(Vbuild
p610
g597
tp611
(dp612
Vsigned-modules
p613
I00
sVimage-file
p614
Vvmlinux
p615
ss(Vimage
p616
g597
NV4kc-malta
p617
tp618
(dp619
Vconfigs
p620
(lp621
Vkernelarch-mips/config.malta
p622
aVkernelarch-mips/config.mips32r2
p623
ass(Vimage
p624
g597
NV5kc-malta
p625
tp626
(dp627
Vconfigs
p628
(lp629
Vkernelarch-mips/config.malta
p630
aVkernelarch-mips/config.mips64r2
p631
ass(Vdescription
p632
g597
NVocteon
p633
tp634
(dp635
Vhardware
p636
VOcteon
p637
sVhardware-long
p638
VCavium Networks Octeon
p639
ss(Vdescription
p640
g597
NVloongson-3
p641
tp642
(dp643
Vhardware
p644
VLoongson 3A/3B
p645
sVhardware-long
p646
VLoongson 3A or 3B based systems (e.g. from Loongson or Lemote)
p647
ss(Vimage
p648
g597
NVocteon
p649
tp650
(dp651
Vconfigs
p652
(lp653
Vkernelarch-mips/config.octeon
p654
ass(Vimage
p655
g597
tp656
(dp657
Vinstall-stem
p658
Vvmlinux
p659
ss(Vdescription
p660
g597
NV5kc-malta
p661
tp662
(dp663
Vhardware
p664
VMIPS Malta (64-bit)
p665
sVhardware-long
p666
VMIPS Malta boards (64-bit)
p667
ss(Vdescription
p668
g597
NV4kc-malta
p669
tp670
(dp671
Vhardware
p672
VMIPS Malta
p673
sVhardware-long
p674
VMIPS Malta boards
p675
ss(g156
g597
g124
tp676
(dp677
g159
(lp678
V4kc-malta
p679
aV5kc-malta
p680
aVloongson-3
p681
aVocteon
p682
asg163
I01
ss(Vbase
p683
Vmipsn32
p684
tp685
(dp686
Vfeaturesets
p687
(lp688
sVkernel-arch
p689
Vmips
p690
ss(Vbase
p691
Vmipsn32el
p692
tp693
(dp694
Vfeaturesets
p695
(lp696
sVkernel-arch
p697
Vmips
p698
ss(Vbase
p699
Vmips64
p700
tp701
(dp702
g122
(lp703
g124
asVkernel-arch
p704
Vmips
p705
ss(Vbuild
p706
g700
tp707
(dp708
Vsigned-modules
p709
I00
sVimage-file
p710
Vvmlinux
p711
ss(Vimage
p712
g700
NV5kc-malta
p713
tp714
(dp715
Vconfigs
p716
(lp717
Vkernelarch-mips/config.malta
p718
aVkernelarch-mips/config.mips64r2
p719
ass(Vdescription
p720
g700
NVocteon
p721
tp722
(dp723
Vhardware
p724
VOcteon
p725
sVhardware-long
p726
VCavium Networks Octeon
p727
ss(Vimage
p728
g700
tp729
(dp730
Vinstall-stem
p731
Vvmlinux
p732
ss(Vdescription
p733
g700
NV5kc-malta
p734
tp735
(dp736
Vhardware
p737
VMIPS Malta
p738
sVhardware-long
p739
VMIPS Malta boards
p740
ss(Vimage
p741
g700
NVocteon
p742
tp743
(dp744
Vconfigs
p745
(lp746
Vkernelarch-mips/config.octeon
p747
ass(g156
g700
g124
tp748
(dp749
g159
(lp750
V5kc-malta
p751
aVocteon
p752
asg163
I01
ss(Vbase
p753
Vmips64el
p754
tp755
(dp756
g122
(lp757
g124
asVkernel-arch
p758
Vmips
p759
ss(Vimage
p760
g754
NVloongson-3
p761
tp762
(dp763
Vconfigs
p764
(lp765
Vkernelarch-mips/config.loongson-3
p766
ass(Vbuild
p767
g754
tp768
(dp769
Vsigned-modules
p770
I00
sVimage-file
p771
Vvmlinux
p772
ss(Vimage
p773
g754
NV5kc-malta
p774
tp775
(dp776
Vconfigs
p777
(lp778
Vkernelarch-mips/config.malta
p779
aVkernelarch-mips/config.mips64r2
p780
ass(Vdescription
p781
g754
NVocteon
p782
tp783
(dp784
Vhardware
p785
VOcteon
p786
sVhardware-long
p787
VCavium Networks Octeon
p788
ss(Vdescription
p789
g754
NVloongson-3
p790
tp791
(dp792
Vhardware
p793
VLoongson 3A/3B
p794
sVhardware-long
p795
VLoongson 3A or 3B based systems (e.g. from Loongson or Lemote)
p796
ss(Vimage
p797
g754
tp798
(dp799
Vinstall-stem
p800
Vvmlinux
p801
ss(Vdescription
p802
g754
NV5kc-malta
p803
tp804
(dp805
Vhardware
p806
VMIPS Malta
p807
sVhardware-long
p808
VMIPS Malta boards
p809
ss(Vimage
p810
g754
NVocteon
p811
tp812
(dp813
Vconfigs
p814
(lp815
Vkernelarch-mips/config.octeon
p816
ass(g156
g754
g124
tp817
(dp818
g159
(lp819
V5kc-malta
p820
aVloongson-3
p821
aVocteon
p822
asg163
I01
ss(Vbase
p823
Vpowerpc
p824
tp825
(dp826
g122
(lp827
g124
asVkernel-arch
p828
Vpowerpc
p829
ss(Vdescription
p830
g824
NVpowerpc64
p831
tp832
(dp833
Vhardware
p834
V64-bit PowerPC
p835
ss(Vbuild
p836
g824
tp837
(dp838
Vvdso
p839
I01
sVimage-file
p840
Vvmlinux
p841
ss(Vimage
p842
g824
NVpowerpc-smp
p843
tp844
(dp845
Vconfigs
p846
(lp847
Vpowerpc/config.powerpc
p848
aVpowerpc/config.powerpc-smp
p849
ass(Vdescription
p850
g824
NVpowerpc
p851
tp852
(dp853
Vhardware
p854
Vuniprocessor 32-bit PowerPC
p855
ss(Vimage
p856
g824
NVpowerpc64
p857
tp858
(dp859
Vconfigs
p860
(lp861
Vkernelarch-powerpc/config-arch-64
p862
aVkernelarch-powerpc/config-arch-64-be
p863
ass(Vdescription
p864
g824
NVpowerpc-smp
p865
tp866
(dp867
Vhardware
p868
Vmultiprocessor 32-bit PowerPC
p869
ss(Vimage
p870
g824
tp871
(dp872
Vsuggests
p873
Vmkvmlinuz
p874
sVinstall-stem
p875
Vvmlinux
p876
sVconfigs
p877
(lp878
ss(g156
g824
g124
tp879
(dp880
g159
(lp881
Vpowerpc
p882
aVpowerpc-smp
p883
aVpowerpc64
p884
asg163
I01
ss(Vbase
p885
Vpowerpcspe
p886
tp887
(dp888
g122
(lp889
g124
asVkernel-arch
p890
Vpowerpc
p891
ss(Vbuild
p892
g886
tp893
(dp894
Vsigned-modules
p895
I00
sVimage-file
p896
Vvmlinux
p897
sVvdso
p898
I01
ss(Vimage
p899
g886
tp900
(dp901
Vsuggests
p902
Vmkvmlinuz
p903
sVinstall-stem
p904
Vvmlinux
p905
ss(Vdescription
p906
g886
tp907
(dp908
Vhardware
p909
V32-bit PowerPC with SPE (instead of AltiVec) with SMP support
p910
ss(g156
g886
g124
tp911
(dp912
g159
(lp913
Vpowerpcspe
p914
asg163
I01
ss(Vbase
p915
Vppc64
p916
tp917
(dp918
g122
(lp919
g124
asVkernel-arch
p920
Vpowerpc
p921
ss(Vdescription
p922
g916
NVpowerpc64
p923
tp924
(dp925
Vhardware
p926
V64-bit PowerPC
p927
ss(Vbuild
p928
g916
tp929
(dp930
Vsigned-modules
p931
I00
sVimage-file
p932
Vvmlinux
p933
sVvdso
p934
I01
ss(Vimage
p935
g916
NVpowerpc64
p936
tp937
(dp938
Vconfigs
p939
(lp940
Vkernelarch-powerpc/config-arch-64
p941
aVkernelarch-powerpc/config-arch-64-be
p942
ass(Vimage
p943
g916
tp944
(dp945
Vsuggests
p946
Vmkvmlinuz
p947
sVinstall-stem
p948
Vvmlinux
p949
sVconfigs
p950
(lp951
ss(g156
g916
g124
tp952
(dp953
g159
(lp954
Vpowerpc64
p955
asg163
I01
ss(Vbase
p956
Vppc64el
p957
tp958
(dp959
g122
(lp960
g124
asVkernel-arch
p961
Vpowerpc
p962
ss(Vdescription
p963
g957
NVpowerpc64le
p964
tp965
(dp966
Vhardware
p967
VLittle-endian 64-bit PowerPC
p968
ss(Vbuild
p969
g957
tp970
(dp971
Vvdso
p972
I01
sVimage-file
p973
Vvmlinux
p974
ss(Vimage
p975
g957
tp976
(dp977
Vsuggests
p978
Vmkvmlinuz
p979
sVinstall-stem
p980
Vvmlinux
p981
sVconfigs
p982
(lp983
ss(Vimage
p984
g957
NVpowerpc64le
p985
tp986
(dp987
Vconfigs
p988
(lp989
Vkernelarch-powerpc/config-arch-64
p990
aVkernelarch-powerpc/config-arch-64-le
p991
ass(g156
g957
g124
tp992
(dp993
g159
(lp994
Vpowerpc64le
p995
asg163
I01
ss(Vbase
p996
Vs390
p997
tp998
(dp999
Vfeaturesets
p1000
(lp1001
sVkernel-arch
p1002
Vs390
p1003
ss(Vbase
p1004
Vs390x
p1005
tp1006
(dp1007
g122
(lp1008
g124
asVkernel-arch
p1009
Vs390
p1010
ss(Vdescription
p1011
g1005
NVs390x
p1012
tp1013
(dp1014
Vhardware
p1015
VIBM zSeries
p1016
ss(Vbuild
p1017
g1005
tp1018
(dp1019
Vvdso
p1020
I01
sVimage-file
p1021
Varch/s390/boot/image
p1022
ss(Vbuild
p1023
g1005
NVs390x
p1024
tp1025
(dp1026
Vdebug-info
p1027
I01
ss(Vrelations
p1028
g1005
tp1029
(dp1030
Vheaders%gcc-6
p1031
Vlinux-compiler-gcc-6-s390
p1032
ss(Vimage
p1033
g1005
tp1034
(dp1035
Vinstall-stem
p1036
Vvmlinuz
p1037
sVbootloaders
p1038
(lp1039
Vs390-tools
p1040
ass(g156
g1005
g124
tp1041
(dp1042
g159
(lp1043
Vs390x
p1044
asg163
I01
ss(Vbase
p1045
Vsh3
p1046
tp1047
(dp1048
Vfeaturesets
p1049
(lp1050
sVkernel-arch
p1051
Vsh
p1052
ss(Vbase
p1053
Vsh4
p1054
tp1055
(dp1056
g122
(lp1057
g124
asVkernel-arch
p1058
Vsh
p1059
ss(Vbuild
p1060
g1054
tp1061
(dp1062
Vsigned-modules
p1063
I00
sVimage-file
p1064
Varch/sh/boot/zImage
p1065
ss(Vdescription
p1066
g1054
NVsh7751r
p1067
tp1068
(dp1069
Vhardware
p1070
Vsh7751r
p1071
sVhardware-long
p1072
VRenesas SH7751R R2D plus board
p1073
ss(Vdescription
p1074
g1054
NVsh7785lcr
p1075
tp1076
(dp1077
Vhardware
p1078
Vsh7785lcr
p1079
sVhardware-long
p1080
VRenesas SH7785 reference board
p1081
ss(Vimage
p1082
g1054
tp1083
(dp1084
Vinstall-stem
p1085
Vvmlinuz
p1086
ss(Vimage
p1087
g1054
NVsh7785lcr
p1088
tp1089
(dp1090
Vrecommends
p1091
Vu-boot-tools
p1092
sVcheck-size
p1093
L4194304L
ss(g156
g1054
g124
tp1094
(dp1095
g159
(lp1096
Vsh7751r
p1097
aVsh7785lcr
p1098
asg163
I01
ss(Vbase
p1099
Vsparc
p1100
tp1101
(dp1102
Vfeaturesets
p1103
(lp1104
sVkernel-arch
p1105
Vsparc
p1106
ss(Vbase
p1107
Vsparc64
p1108
tp1109
(dp1110
g122
(lp1111
g124
asVkernel-arch
p1112
Vsparc
p1113
ss(Vbuild
p1114
g1108
tp1115
(dp1116
Vsigned-modules
p1117
I00
sVimage-file
p1118
Varch/sparc/boot/zImage
p1119
ss(Vimage
p1120
g1108
NVsparc64
p1121
tp1122
(dp1123
Vconfigs
p1124
(lp1125
Vkernelarch-sparc/config-up
p1126
ass(Vimage
p1127
g1108
NVsparc64-smp
p1128
tp1129
(dp1130
Vconfigs
p1131
(lp1132
Vkernelarch-sparc/config-smp
p1133
ass(Vimage
p1134
g1108
tp1135
(dp1136
Vsuggests
p1137
Vsilo, fdutils
p1138
sVinstall-stem
p1139
Vvmlinuz
p1140
sVconfigs
p1141
(lp1142
ss(Vdescription
p1143
g1108
NVsparc64-smp
p1144
tp1145
(dp1146
Vhardware
p1147
Vmultiprocessor 64-bit UltraSPARC
p1148
ss(Vdescription
p1149
g1108
NVsparc64
p1150
tp1151
(dp1152
Vhardware
p1153
Vuniprocessor 64-bit UltraSPARC
p1154
ss(g156
g1108
g124
tp1155
(dp1156
g159
(lp1157
Vsparc64
p1158
aVsparc64-smp
p1159
asg163
I01
ss(Vbase
p1160
Vtilegx
p1161
tp1162
(dp1163
Vfeaturesets
p1164
(lp1165
sVkernel-arch
p1166
Vtile
p1167
ss(Vbase
p1168
Vx32
p1169
tp1170
(dp1171
Vfeaturesets
p1172
(lp1173
sVkernel-arch
p1174
Vx86
p1175
ss(Vdescription
p1176
NVrt
p1177
tp1178
(dp1179
Vparts
p1180
(lp1181
Vrt
p1182
asVpart-long-rt
p1183
VThis kernel includes the PREEMPT_RT realtime patch set.
p1184
sVpart-short-rt
p1185
VPREEMPT_RT
p1186
ss(Vabi
p1187
Ng1177
tp1188
(dp1189
Vignore-changes
p1190
(lp1191
V*
p1192
ass(Vversion
p1193
tp1194
(dp1195
Vupstream
p1196
V4.11
p1197
sVsource
p1198
V4.11.6-1
p1199
sVabiname
p1200
V4.11.0-1
p1201
sVabiname_base
p1202
V4.11.0
p1203
ss.