cdebian_linux.config
ConfigCore
p0
(tRp1
(Vabi
p2
tp3
(dp4
Vabiname
p5
Vparrot17
p6
sVignore-changes
p7
(lp8
V__cpuhp_*
p9
aV__xive_vm_h_*
p10
aVbpf_analyzer
p11
aVcxl_*
p12
aVdax_flush
p13
aVieee80211_nullfunc_get
p14
aVinet_add_protocol
p15
aVinet_del_protocol
p16
aViommu_device_*
p17
aVkvm_async_pf_task_wait
p18
aVkvmppc_*
p19
aVmm_iommu_*
p20
aVmv_mbus_*
p21
aVperf_*
p22
aVregister_cxl_calls
p23
aVregister_key_type
p24
aVunregister_cxl_calls
p25
aV*_hw_breakpoint
p26
aVmodule:arch/x86/kvm/*
p27
aVmodule:drivers/crypto/ccp/*
p28
aVmodule:drivers/hv/*
p29
aVmodule:drivers/gpu/drm/sun4i/*
p30
aVmodule:drivers/iio/**
p31
aVmodule:drivers/misc/cxl/*
p32
aVmodule:drivers/mtd/nand/*
p33
aVmodule:drivers/net/wireless/**
p34
aVmodule:drivers/nvdimm/*
p35
aVmodule:drivers/power/supply/bq27xxx_battery
p36
aVmodule:drivers/scsi/cxgbi/*
p37
aVmodule:drivers/scsi/libiscs*
p38
aVmodule:drivers/scsi/qla2xxx/qla2xxx
p39
aVmodule:drivers/scsi/ufs/*
p40
aVmodule:drivers/target/**
p41
aVmodule:drivers/usb/chipidea/**
p42
aVmodule:drivers/usb/gadget/**
p43
aVmodule:drivers/usb/host/**
p44
aVmodule:drivers/usb/musb/**
p45
aVmodule:fs/nfs/**
p46
aVmodule:net/ceph/libceph
p47
aVmodule:net/l2tp/**
p48
aVmodule:net/rxrpc/rxrpc
p49
aVmodule:sound/core/seq/**
p50
aVmodule:sound/firewire/snd-firewire-lib
p51
aVmodule:sound/pci/hda/*
p52
aVbtree_*
p53
aVvisitor*
p54
aVcan_rx_register
p55
aVip6_xmit
p56
aVmodule:net/dccp/dccp
p57
aVmodule:net/rds/rds
p58
aVdevfreq_*
p59
aVdevm_devfreq_*
p60
aVupdate_devfreq
p61
aVmodule:drivers/infiniband/**
p62
aVacpi_ec_add_query_handler
p63
aVacpi_ec_remove_query_handler
p64
aVfirst_ec
p65
aVdebugfs_create_automount
p66
aVmodule:drivers/iio/imu/inv_mpu6050/*
p67
aVdrm_crtc_accurate_vblank_count
p68
aVacpi_nfit_desc_init
p69
aVacpi_nfit_init
p70
aVloop_register_transfer
p71
ass(Vbase
p72
tp73
(dp74
Varches
p75
(lp76
Valpha
p77
aVamd64
p78
aVarm64
p79
aVarm64ilp32
p80
aVarmel
p81
aVarmhf
p82
aVhppa
p83
aVi386
p84
aVia64
p85
aVm68k
p86
aVmips
p87
aVmips64
p88
aVmips64el
p89
aVmips64r6
p90
aVmips64r6el
p91
aVmipsel
p92
aVmipsn32
p93
aVmipsn32el
p94
aVmipsn32r6
p95
aVmipsn32r6el
p96
aVmipsr6
p97
aVmipsr6el
p98
aVpowerpc
p99
aVpowerpcspe
p100
aVppc64
p101
aVppc64el
p102
aVriscv64
p103
aVs390
p104
aVs390x
p105
aVsh3
p106
aVsh4
p107
aVsparc
p108
aVsparc64
p109
aVtilegx
p110
aVx32
p111
asVcompiler
p112
Vgcc-7
p113
sVfeaturesets
p114
(lp115
Vnone
p116
aVrt
p117
ass(Vbuild
p118
tp119
(dp120
Vdebug-info
p121
I01
sVsigned-code
p122
I00
ss(Vbase
p123
NVrt
p124
tp125
(dp126
Venabled
p127
I00
ss(Vdescription
p128
tp129
(dp130
Vpart-long-up
p131
VThis kernel is not suitable for SMP (multi-processor,\u000amulti-core or hyper-threaded) systems.
p132
ss(Vimage
p133
tp134
(dp135
Vinitramfs-generators
p136
(lp137
Vinitramfs-tools
p138
aVinitramfs-fallback
p139
asVrecommends
p140
Vapparmor
p141
ss(Vrelations
p142
tp143
(dp144
Vgcc-7
p145
Vgcc-7 <!stage1 !cross>, gcc-7-@gnu-type-package@ <!stage1 cross>
p146
sVinitramfs-fallback
p147
Vlinux-initramfs-tool
p148
sVinitramfs-tools
p149
Vinitramfs-tools (>= 0.120+deb8u2)
p150
ss(Vbase
p151
Valpha
p152
tp153
(dp154
Vkernel-arch
p155
Valpha
p156
sVfeaturesets
p157
(lp158
Vnone
p159
ass(Vbuild
p160
g152
tp161
(dp162
Vimage-file
p163
Varch/alpha/boot/vmlinux.gz
p164
ss(Vimage
p165
g152
tp166
(dp167
Vsuggests
p168
Vaboot, fdutils
p169
sVinstall-stem
p170
Vvmlinuz
p171
ss(Vdescription
p172
g152
NValpha-generic
p173
tp174
(dp175
Vhardware
p176
VAlpha
p177
sVhardware-long
p178
VDEC Alpha systems with extended kernel start address (Wildfire, Titan, Marvel)
p179
ss(Vdescription
p180
g152
NValpha-smp
p181
tp182
(dp183
Vhardware
p184
VAlpha SMP
p185
sVhardware-long
p186
VDEC Alpha SMP systems with extended kernel start address (Wildfire, Titan, Marvel)
p187
ss(Vbase
p188
g152
g159
tp189
(dp190
Vflavours
p191
(lp192
Valpha-generic
p193
aValpha-smp
p194
asVimplicit-flavour
p195
I01
ss(Vbase
p196
Vamd64
p197
tp198
(dp199
Vfeaturesets
p200
(lp201
Vnone
p202
aVrt
p203
asVkernel-arch
p204
Vx86
p205
ss(Vbuild
p206
g197
tp207
(dp208
Vdebug-info
p209
I01
sVimage-file
p210
Varch/x86/boot/bzImage
p211
sVvdso
p212
I01
ss(Vimage
p213
g197
tp214
(dp215
Vbootloaders
p216
(lp217
Vgrub-pc
p218
aVgrub-efi-amd64
p219
aVextlinux
p220
asVinstall-stem
p221
Vvmlinuz
p222
sVbreaks
p223
Vxserver-xorg-input-vmmouse (<< 1:13.0.99)
p224
ss(Vrelations
p225
g197
tp226
(dp227
Vgcc-7
p228
Vgcc-7 (>= 7.2.0-20~) <!stage1 !cross>, gcc-7-x86-64-linux-gnu (>= 7.2.0-20~) <!stage1 cross>
p229
sVheaders%gcc-7
p230
Vlinux-compiler-gcc-7-x86 (>= 4.14.17-1~)
p231
ss(Vdescription
p232
g197
NVamd64
p233
tp234
(dp235
Vhardware
p236
V64-bit PCs
p237
sVhardware-long
p238
VPCs with AMD64, Intel 64 or VIA Nano processors
p239
ss(Vdescription
p240
g197
NVcloud-amd64
p241
tp242
(dp243
Vhardware
p244
Vx86-64 cloud
p245
sVhardware-long
p246
VAmazon EC2, Google Compute Engine and Microsoft Azure cloud platforms
p247
ss(Vbase
p248
g197
Vnone
p249
tp250
(dp251
Vflavours
p252
(lp253
Vamd64
p254
aVcloud-amd64
p255
ass(Vbase
p256
g197
Vrt
p257
tp258
(dp259
Vflavours
p260
(lp261
Vamd64
p262
ass(Vbase
p263
Varm64
p264
tp265
(dp266
Vkernel-arch
p267
Varm64
p268
sVfeaturesets
p269
(lp270
Vnone
p271
ass(Vbuild
p272
g264
tp273
(dp274
Vdebug-info
p275
I01
sVimage-file
p276
Varch/arm64/boot/Image
p277
sVvdso
p278
I01
ss(Vimage
p279
g264
tp280
(dp281
Vinstall-stem
p282
Vvmlinuz
p283
sVbreaks
p284
Vlibmozjs185-1.0, libmozjs-24-0 (<< 24.2.0-5.1~)
p285
ss(Vdescription
p286
g264
NVarm64
p287
tp288
(dp289
Vhardware
p290
V64-bit ARMv8 machines
p291
ss(Vimage
p292
g264
NVarm64
p293
tp294
(dp295
s(Vbase
p296
g264
Vnone
p297
tp298
(dp299
Vflavours
p300
(lp301
Varm64
p302
ass(Vbase
p303
Varm64ilp32
p304
tp305
(dp306
Vkernel-arch
p307
Varm64
p308
sVfeaturesets
p309
(lp310
ss(Vbase
p311
Varmel
p312
tp313
(dp314
Vkernel-arch
p315
Varm
p316
sg157
(lp317
g159
ass(Vbuild
p318
g312
tp319
(dp320
Vimage-file
p321
Varch/arm/boot/zImage
p322
sVuncompressed-image-file
p323
Varch/arm/boot/Image
p324
ss(Vimage
p325
g312
tp326
(dp327
Vinstall-stem
p328
Vvmlinuz
p329
ss(Vrelations
p330
g312
tp331
(dp332
Vheaders%gcc-7
p333
Vlinux-compiler-gcc-7-arm
p334
ss(Vdescription
p335
g312
NVmarvell
p336
tp337
(dp338
Vhardware
p339
VMarvell Kirkwood/Orion
p340
sVhardware-long
p341
VMarvell Kirkwood and Orion based systems (https://wiki.debian.org/ArmEabiPort#Supported_hardware)
p342
ss(Vimage
p343
g312
NVmarvell
p344
tp345
(dp346
Vrecommends
p347
Vu-boot-tools
p348
sVcheck-size
p349
L2097080L
sVcheck-size-with-dtb
p350
I01
sVcheck-uncompressed-size
p351
L7340032L
sVbreaks
p352
Vflash-kernel (<< 3.57~)
p353
ss(g188
g312
g159
tp354
(dp355
g191
(lp356
Vmarvell
p357
asg195
I01
ss(Vbase
p358
Varmhf
p359
tp360
(dp361
Vkernel-arch
p362
Varm
p363
sg157
(lp364
g159
ass(Vbuild
p365
g359
tp366
(dp367
Vimage-file
p368
Varch/arm/boot/zImage
p369
sVvdso
p370
I01
ss(Vimage
p371
g359
tp372
(dp373
Vinstall-stem
p374
Vvmlinuz
p375
ss(Vrelations
p376
g359
tp377
(dp378
Vheaders%gcc-7
p379
Vlinux-compiler-gcc-7-arm
p380
ss(Vdescription
p381
g359
NVarmmp
p382
tp383
(dp384
Vhardware
p385
VARMv7 multiplatform compatible SoCs
p386
sVhardware-long
p387
VARMv7 multiplatform kernel. See\u000ahttps://wiki.debian.org/DebianKernel/ARMMP for details of supported\u000aplatforms
p388
ss(Vdescription
p389
g359
NVarmmp-lpae
p390
tp391
(dp392
Vhardware
p393
VARMv7 multiplatform compatible SoCs supporting LPAE
p394
sVhardware-long
p395
VARMv7 multiplatform kernel supporting LPAE. See\u000ahttps://wiki.debian.org/DebianKernel/ARMMP for details of supported\u000aplatforms.
p396
ss(g188
g359
g159
tp397
(dp398
g191
(lp399
Varmmp
p400
aVarmmp-lpae
p401
asg195
I01
ss(Vbase
p402
Vhppa
p403
tp404
(dp405
Vkernel-arch
p406
Vparisc
p407
sg157
(lp408
g159
ass(Vbuild
p409
g403
tp410
(dp411
Vimage-file
p412
Varch/parisc/boot/bzImage
p413
sVdebug-info
p414
I00
ss(Vimage
p415
g403
tp416
(dp417
Vsuggests
p418
Vpalo
p419
sVinstall-stem
p420
Vvmlinuz
p421
ss(Vdescription
p422
g403
NVparisc
p423
tp424
(dp425
Vhardware
p426
V32-bit PA-RISC
p427
sVhardware-long
p428
VHP PA-RISC 32-bit systems with max 4 GB RAM
p429
ss(Vdescription
p430
g403
NVparisc-smp
p431
tp432
(dp433
Vhardware
p434
Vmultiprocessor 32-bit PA-RISC
p435
sVhardware-long
p436
VHP PA-RISC 32-bit SMP systems with max 4 GB RAM
p437
ss(Vbase
p438
g403
NVparisc64-smp
p439
tp440
(dp441
Vcflags
p442
V-fno-cse-follow-jumps
p443
sVoverride-host-type
p444
Vhppa64-linux-gnu
p445
ss(Vdescription
p446
g403
NVparisc64-smp
p447
tp448
(dp449
Vhardware
p450
Vmultiprocessor 64-bit PA-RISC
p451
sVhardware-long
p452
VHP PA-RISC 64-bit SMP systems with support for more than 4 GB RAM
p453
ss(Vrelations
p454
g403
tp455
(dp456
Vgcc-7
p457
Vgcc-7 <!stage1 !cross>, binutils-hppa64-linux-gnu <!stage1 !cross>, gcc-7-hppa64-linux-gnu <!stage1 !cross>, gcc-7-hppa-linux-gnu <!stage1 cross>, binutils-hppa64-linux-gnu <!stage1 cross>, gcc-7-hppa64-linux-gnu <!stage1 cross>
p458
ss(g188
g403
g159
tp459
(dp460
g191
(lp461
Vparisc
p462
aVparisc-smp
p463
aVparisc64-smp
p464
asg195
I01
ss(Vbase
p465
Vi386
p466
tp467
(dp468
Vfeaturesets
p469
(lp470
Vnone
p471
aVrt
p472
asVkernel-arch
p473
Vx86
p474
ss(Vbuild
p475
g466
tp476
(dp477
Vimage-file
p478
Varch/x86/boot/bzImage
p479
sVvdso
p480
I01
ss(Vdescription
p481
g466
tp482
(dp483
Vpart-long-pae
p484
VThis kernel requires PAE (Physical Address Extension).\u000aThis feature is supported by the Intel Pentium Pro/II/III/4/4M/D, Xeon,\u000aCore and Atom; AMD Geode NX, Athlon (K7), Duron, Opteron, Sempron,\u000aTurion or Phenom; Transmeta Efficeon; VIA C7; and some other processors.
p485
ss(Vimage
p486
g466
tp487
(dp488
Vbootloaders
p489
(lp490
Vgrub-pc
p491
aVextlinux
p492
asVinstall-stem
p493
Vvmlinuz
p494
sVbreaks
p495
Vxserver-xorg-input-vmmouse (<< 1:13.0.99)
p496
ss(Vrelations
p497
g466
tp498
(dp499
Vgcc-7
p500
Vgcc-7 (>= 7.2.0-20~) <!stage1 !cross>, gcc-7-i686-linux-gnu (>= 7.2.0-20~) <!stage1 cross>
p501
sVheaders%gcc-7
p502
Vlinux-compiler-gcc-7-x86 (>= 4.14.17-1~)
p503
ss(Vdescription
p504
g466
NV686
p505
tp506
(dp507
Vhardware
p508
Volder PCs
p509
sVhardware-long
p510
VPCs with one or more processors not supporting PAE
p511
ss(Vbuild
p512
g466
NV686-pae
p513
tp514
(dp515
Vdebug-info
p516
I01
ss(Vdescription
p517
g466
NV686-pae
p518
tp519
(dp520
Vhardware
p521
Vmodern PCs
p522
sVhardware-long
p523
VPCs with one or more processors supporting PAE
p524
sVparts
p525
(lp526
Vpae
p527
ass(Vbase
p528
g466
Vnone
p529
tp530
(dp531
Vflavours
p532
(lp533
V686
p534
aV686-pae
p535
ass(Vbase
p536
g466
Vrt
p537
tp538
(dp539
Vflavours
p540
(lp541
V686-pae
p542
ass(Vbase
p543
Via64
p544
tp545
(dp546
Vkernel-arch
p547
Via64
p548
sg157
(lp549
g159
ass(Vbuild
p550
g544
tp551
(dp552
Vimage-file
p553
Vvmlinux.gz
p554
ss(Vimage
p555
g544
tp556
(dp557
Vbootloaders
p558
(lp559
Velilo
p560
asVinstall-stem
p561
Vvmlinuz
p562
ss(Vdescription
p563
g544
NVitanium
p564
tp565
(dp566
Vhardware
p567
VItanium (Merced)
p568
sVhardware-long
p569
Vsystems with original Itanium (Merced) processors
p570
ss(Vdescription
p571
g544
NVmckinley
p572
tp573
(dp574
Vhardware
p575
VItanium 2+
p576
sVhardware-long
p577
Vsystems with Itanium 2 or 9300/9500/9700-series processors
p578
ss(g188
g544
g159
tp579
(dp580
g191
(lp581
Vitanium
p582
aVmckinley
p583
asg195
I01
ss(Vbase
p584
Vm68k
p585
tp586
(dp587
Vcflags
p588
V-ffreestanding
p589
sVkernel-arch
p590
Vm68k
p591
sg157
(lp592
g159
ass(Vbuild
p593
g585
tp594
(dp595
Vimage-file
p596
Vvmlinux
p597
ss(Vimage
p598
g585
tp599
(dp600
Vsuggests
p601
Vvmelilo, fdutils
p602
sVinstall-stem
p603
Vvmlinux
p604
ss(Vdescription
p605
g585
NVm68k
p606
tp607
(dp608
Vhardware
p609
VMotorola MC68020+ family
p610
ss(g188
g585
g159
tp611
(dp612
g191
(lp613
Vm68k
p614
asg195
I01
ss(Vbase
p615
Vmips
p616
tp617
(dp618
Vkernel-arch
p619
Vmips
p620
sg157
(lp621
g159
ass(Vbuild
p622
g616
tp623
(dp624
Vimage-file
p625
Vvmlinux
p626
ss(Vimage
p627
g616
tp628
(dp629
Vinstall-stem
p630
Vvmlinux
p631
ss(Vdescription
p632
g616
NV4kc-malta
p633
tp634
(dp635
Vhardware
p636
VMIPS Malta
p637
sVhardware-long
p638
VMIPS Malta boards
p639
ss(Vimage
p640
g616
NV4kc-malta
p641
tp642
(dp643
Vconfigs
p644
(lp645
Vkernelarch-mips/config.malta
p646
aVkernelarch-mips/config.mips32r2
p647
ass(Vdescription
p648
g616
NV5kc-malta
p649
tp650
(dp651
Vhardware
p652
VMIPS Malta (64-bit)
p653
sVhardware-long
p654
VMIPS Malta boards (64-bit)
p655
ss(Vimage
p656
g616
NV5kc-malta
p657
tp658
(dp659
Vconfigs
p660
(lp661
Vkernelarch-mips/config.malta
p662
aVkernelarch-mips/config.mips64r2
p663
ass(Vdescription
p664
g616
NVocteon
p665
tp666
(dp667
Vhardware
p668
VOcteon
p669
sVhardware-long
p670
VCavium Networks Octeon
p671
ss(Vimage
p672
g616
NVocteon
p673
tp674
(dp675
Vconfigs
p676
(lp677
Vkernelarch-mips/config.octeon
p678
ass(g188
g616
g159
tp679
(dp680
g191
(lp681
V4kc-malta
p682
aV5kc-malta
p683
aVocteon
p684
asg195
I01
ss(Vbase
p685
Vmips64
p686
tp687
(dp688
Vkernel-arch
p689
Vmips
p690
sg157
(lp691
g159
ass(Vbuild
p692
g686
tp693
(dp694
Vimage-file
p695
Vvmlinux
p696
ss(Vimage
p697
g686
tp698
(dp699
Vinstall-stem
p700
Vvmlinux
p701
ss(Vdescription
p702
g686
NV5kc-malta
p703
tp704
(dp705
Vhardware
p706
VMIPS Malta
p707
sVhardware-long
p708
VMIPS Malta boards
p709
ss(Vimage
p710
g686
NV5kc-malta
p711
tp712
(dp713
Vconfigs
p714
(lp715
Vkernelarch-mips/config.malta
p716
aVkernelarch-mips/config.mips64r2
p717
ass(Vdescription
p718
g686
NVocteon
p719
tp720
(dp721
Vhardware
p722
VOcteon
p723
sVhardware-long
p724
VCavium Networks Octeon
p725
ss(Vimage
p726
g686
NVocteon
p727
tp728
(dp729
Vconfigs
p730
(lp731
Vkernelarch-mips/config.octeon
p732
ass(g188
g686
g159
tp733
(dp734
g191
(lp735
V5kc-malta
p736
aVocteon
p737
asg195
I01
ss(Vbase
p738
Vmips64el
p739
tp740
(dp741
Vkernel-arch
p742
Vmips
p743
sg157
(lp744
g159
ass(Vbuild
p745
g739
tp746
(dp747
Vimage-file
p748
Vvmlinux
p749
ss(Vimage
p750
g739
tp751
(dp752
Vinstall-stem
p753
Vvmlinux
p754
ss(Vdescription
p755
g739
NV5kc-malta
p756
tp757
(dp758
Vhardware
p759
VMIPS Malta
p760
sVhardware-long
p761
VMIPS Malta boards
p762
ss(Vimage
p763
g739
NV5kc-malta
p764
tp765
(dp766
Vconfigs
p767
(lp768
Vkernelarch-mips/config.malta
p769
aVkernelarch-mips/config.mips64r2
p770
ass(Vdescription
p771
g739
NVloongson-3
p772
tp773
(dp774
Vhardware
p775
VLoongson 3A/3B
p776
sVhardware-long
p777
VLoongson 3A or 3B based systems (e.g. from Loongson or Lemote)
p778
ss(Vimage
p779
g739
NVloongson-3
p780
tp781
(dp782
Vconfigs
p783
(lp784
Vkernelarch-mips/config.loongson-3
p785
ass(Vdescription
p786
g739
NVocteon
p787
tp788
(dp789
Vhardware
p790
VOcteon
p791
sVhardware-long
p792
VCavium Networks Octeon
p793
ss(Vimage
p794
g739
NVocteon
p795
tp796
(dp797
Vconfigs
p798
(lp799
Vkernelarch-mips/config.octeon
p800
ass(g188
g739
g159
tp801
(dp802
g191
(lp803
V5kc-malta
p804
aVloongson-3
p805
aVocteon
p806
asg195
I01
ss(Vbase
p807
Vmips64r6
p808
tp809
(dp810
Vkernel-arch
p811
Vmips
p812
sg157
(lp813
g159
ass(Vbuild
p814
g808
tp815
(dp816
Vimage-file
p817
Vvmlinux
p818
ss(Vimage
p819
g808
tp820
(dp821
Vinstall-stem
p822
Vvmlinux
p823
ss(Vdescription
p824
g808
NVmips64r6
p825
tp826
(dp827
Vhardware
p828
VMIPS R6 (64 bit, big endian)
p829
sVhardware-long
p830
VMIPS R6 (64 bit, big endian)
p831
ss(Vimage
p832
g808
NVmips64r6
p833
tp834
(dp835
Vconfigs
p836
(lp837
Vkernelarch-mips/config.boston
p838
aVkernelarch-mips/config.mips64r6
p839
ass(g188
g808
g159
tp840
(dp841
g191
(lp842
Vmips64r6
p843
asg195
I01
ss(Vbase
p844
Vmips64r6el
p845
tp846
(dp847
Vkernel-arch
p848
Vmips
p849
sg157
(lp850
g159
ass(Vbuild
p851
g845
tp852
(dp853
Vimage-file
p854
Vvmlinux
p855
ss(Vimage
p856
g845
tp857
(dp858
Vinstall-stem
p859
Vvmlinux
p860
ss(Vdescription
p861
g845
NVmips64r6el
p862
tp863
(dp864
Vhardware
p865
VMIPS R6 (64 bit, little endian)
p866
sVhardware-long
p867
VMIPS R6 (64 bit, little endian)
p868
ss(Vimage
p869
g845
NVmips64r6el
p870
tp871
(dp872
Vconfigs
p873
(lp874
Vkernelarch-mips/config.boston
p875
aVkernelarch-mips/config.mips64r6
p876
ass(g188
g845
g159
tp877
(dp878
g191
(lp879
Vmips64r6el
p880
asg195
I01
ss(Vbase
p881
Vmipsel
p882
tp883
(dp884
Vkernel-arch
p885
Vmips
p886
sg157
(lp887
g159
ass(Vbuild
p888
g882
tp889
(dp890
Vimage-file
p891
Vvmlinux
p892
ss(Vimage
p893
g882
tp894
(dp895
Vinstall-stem
p896
Vvmlinux
p897
ss(Vdescription
p898
g882
NV4kc-malta
p899
tp900
(dp901
Vhardware
p902
VMIPS Malta
p903
sVhardware-long
p904
VMIPS Malta boards
p905
ss(Vimage
p906
g882
NV4kc-malta
p907
tp908
(dp909
Vconfigs
p910
(lp911
Vkernelarch-mips/config.malta
p912
aVkernelarch-mips/config.mips32r2
p913
ass(Vdescription
p914
g882
NV5kc-malta
p915
tp916
(dp917
Vhardware
p918
VMIPS Malta (64-bit)
p919
sVhardware-long
p920
VMIPS Malta boards (64-bit)
p921
ss(Vimage
p922
g882
NV5kc-malta
p923
tp924
(dp925
Vconfigs
p926
(lp927
Vkernelarch-mips/config.malta
p928
aVkernelarch-mips/config.mips64r2
p929
ass(Vdescription
p930
g882
NVloongson-3
p931
tp932
(dp933
Vhardware
p934
VLoongson 3A/3B
p935
sVhardware-long
p936
VLoongson 3A or 3B based systems (e.g. from Loongson or Lemote)
p937
ss(Vimage
p938
g882
NVloongson-3
p939
tp940
(dp941
Vconfigs
p942
(lp943
Vkernelarch-mips/config.loongson-3
p944
ass(Vdescription
p945
g882
NVocteon
p946
tp947
(dp948
Vhardware
p949
VOcteon
p950
sVhardware-long
p951
VCavium Networks Octeon
p952
ss(Vimage
p953
g882
NVocteon
p954
tp955
(dp956
Vconfigs
p957
(lp958
Vkernelarch-mips/config.octeon
p959
ass(g188
g882
g159
tp960
(dp961
g191
(lp962
V4kc-malta
p963
aV5kc-malta
p964
aVloongson-3
p965
aVocteon
p966
asg195
I01
ss(Vbase
p967
Vmipsn32
p968
tp969
(dp970
Vkernel-arch
p971
Vmips
p972
sVfeaturesets
p973
(lp974
ss(Vbase
p975
Vmipsn32el
p976
tp977
(dp978
Vkernel-arch
p979
Vmips
p980
sVfeaturesets
p981
(lp982
ss(Vbase
p983
Vmipsn32r6
p984
tp985
(dp986
Vkernel-arch
p987
Vmips
p988
sVfeaturesets
p989
(lp990
ss(Vbase
p991
Vmipsn32r6el
p992
tp993
(dp994
Vkernel-arch
p995
Vmips
p996
sVfeaturesets
p997
(lp998
ss(Vbase
p999
Vmipsr6
p1000
tp1001
(dp1002
Vkernel-arch
p1003
Vmips
p1004
sg157
(lp1005
g159
ass(Vbuild
p1006
g1000
tp1007
(dp1008
Vimage-file
p1009
Vvmlinux
p1010
ss(Vimage
p1011
g1000
tp1012
(dp1013
Vinstall-stem
p1014
Vvmlinux
p1015
ss(Vdescription
p1016
g1000
NVmips32r6
p1017
tp1018
(dp1019
Vhardware
p1020
VMIPS R6 (32 bit, big endian)
p1021
sVhardware-long
p1022
VMIPS R6 (32 bit, big endian)
p1023
ss(Vimage
p1024
g1000
NVmips32r6
p1025
tp1026
(dp1027
Vconfigs
p1028
(lp1029
Vkernelarch-mips/config.boston
p1030
aVkernelarch-mips/config.mips32r6
p1031
ass(Vdescription
p1032
g1000
NVmips64r6
p1033
tp1034
(dp1035
Vhardware
p1036
VMIPS R6 (64 bit, big endian)
p1037
sVhardware-long
p1038
VMIPS R6 (64 bit, big endian)
p1039
ss(Vimage
p1040
g1000
NVmips64r6
p1041
tp1042
(dp1043
Vconfigs
p1044
(lp1045
Vkernelarch-mips/config.boston
p1046
aVkernelarch-mips/config.mips64r6
p1047
ass(g188
g1000
g159
tp1048
(dp1049
g191
(lp1050
Vmips32r6
p1051
aVmips64r6
p1052
asg195
I01
ss(Vbase
p1053
Vmipsr6el
p1054
tp1055
(dp1056
Vkernel-arch
p1057
Vmips
p1058
sg157
(lp1059
g159
ass(Vbuild
p1060
g1054
tp1061
(dp1062
Vimage-file
p1063
Vvmlinux
p1064
ss(Vimage
p1065
g1054
tp1066
(dp1067
Vinstall-stem
p1068
Vvmlinux
p1069
ss(Vdescription
p1070
g1054
NVmips32r6el
p1071
tp1072
(dp1073
Vhardware
p1074
VMIPS R6 (32 bit, little endian)
p1075
sVhardware-long
p1076
VMIPS R6 (32 bit, little endian)
p1077
ss(Vimage
p1078
g1054
NVmips32r6el
p1079
tp1080
(dp1081
Vconfigs
p1082
(lp1083
Vkernelarch-mips/config.boston
p1084
aVkernelarch-mips/config.mips32r6
p1085
ass(Vdescription
p1086
g1054
NVmips64r6el
p1087
tp1088
(dp1089
Vhardware
p1090
VMIPS R6 (64 bit, little endian)
p1091
sVhardware-long
p1092
VMIPS R6 (64 bit, little endian)
p1093
ss(Vimage
p1094
g1054
NVmips64r6el
p1095
tp1096
(dp1097
Vconfigs
p1098
(lp1099
Vkernelarch-mips/config.boston
p1100
aVkernelarch-mips/config.mips64r6
p1101
ass(g188
g1054
g159
tp1102
(dp1103
g191
(lp1104
Vmips32r6el
p1105
aVmips64r6el
p1106
asg195
I01
ss(Vbase
p1107
Vpowerpc
p1108
tp1109
(dp1110
Vkernel-arch
p1111
Vpowerpc
p1112
sg157
(lp1113
g159
ass(Vbuild
p1114
g1108
tp1115
(dp1116
Vimage-file
p1117
Vvmlinux
p1118
sVvdso
p1119
I01
ss(Vimage
p1120
g1108
tp1121
(dp1122
Vconfigs
p1123
(lp1124
sVsuggests
p1125
Vmkvmlinuz
p1126
sVinstall-stem
p1127
Vvmlinux
p1128
ss(Vdescription
p1129
g1108
NVpowerpc
p1130
tp1131
(dp1132
Vhardware
p1133
Vuniprocessor 32-bit PowerPC
p1134
ss(Vdescription
p1135
g1108
NVpowerpc-smp
p1136
tp1137
(dp1138
Vhardware
p1139
Vmultiprocessor 32-bit PowerPC
p1140
ss(Vimage
p1141
g1108
NVpowerpc-smp
p1142
tp1143
(dp1144
Vconfigs
p1145
(lp1146
Vpowerpc/config.powerpc
p1147
aVpowerpc/config.powerpc-smp
p1148
ass(Vdescription
p1149
g1108
NVpowerpc64
p1150
tp1151
(dp1152
Vhardware
p1153
V64-bit PowerPC
p1154
ss(Vimage
p1155
g1108
NVpowerpc64
p1156
tp1157
(dp1158
Vconfigs
p1159
(lp1160
Vkernelarch-powerpc/config-arch-64
p1161
aVkernelarch-powerpc/config-arch-64-be
p1162
ass(g188
g1108
g159
tp1163
(dp1164
g191
(lp1165
Vpowerpc
p1166
aVpowerpc-smp
p1167
aVpowerpc64
p1168
asg195
I01
ss(Vbase
p1169
Vpowerpcspe
p1170
tp1171
(dp1172
Vkernel-arch
p1173
Vpowerpc
p1174
sg157
(lp1175
g159
ass(Vbuild
p1176
g1170
tp1177
(dp1178
Vimage-file
p1179
Vvmlinux
p1180
sVvdso
p1181
I01
ss(Vimage
p1182
g1170
tp1183
(dp1184
Vsuggests
p1185
Vmkvmlinuz
p1186
sVinstall-stem
p1187
Vvmlinux
p1188
ss(Vdescription
p1189
g1170
tp1190
(dp1191
Vhardware
p1192
V32-bit PowerPC with SPE (instead of AltiVec) with SMP support
p1193
ss(g188
g1170
g159
tp1194
(dp1195
g191
(lp1196
Vpowerpcspe
p1197
asg195
I01
ss(Vbase
p1198
Vppc64
p1199
tp1200
(dp1201
Vkernel-arch
p1202
Vpowerpc
p1203
sg157
(lp1204
g159
ass(Vbuild
p1205
g1199
tp1206
(dp1207
Vimage-file
p1208
Vvmlinux
p1209
sVvdso
p1210
I01
ss(Vimage
p1211
g1199
tp1212
(dp1213
Vconfigs
p1214
(lp1215
sVsuggests
p1216
Vmkvmlinuz
p1217
sVinstall-stem
p1218
Vvmlinux
p1219
ss(Vdescription
p1220
g1199
NVpowerpc64
p1221
tp1222
(dp1223
Vhardware
p1224
V64-bit PowerPC
p1225
ss(Vimage
p1226
g1199
NVpowerpc64
p1227
tp1228
(dp1229
Vconfigs
p1230
(lp1231
Vkernelarch-powerpc/config-arch-64
p1232
aVkernelarch-powerpc/config-arch-64-be
p1233
ass(g188
g1199
g159
tp1234
(dp1235
g191
(lp1236
Vpowerpc64
p1237
asg195
I01
ss(Vbase
p1238
Vppc64el
p1239
tp1240
(dp1241
Vkernel-arch
p1242
Vpowerpc
p1243
sg157
(lp1244
g159
ass(Vbuild
p1245
g1239
tp1246
(dp1247
Vimage-file
p1248
Vvmlinux
p1249
sVvdso
p1250
I01
ss(Vimage
p1251
g1239
tp1252
(dp1253
Vconfigs
p1254
(lp1255
sVsuggests
p1256
Vmkvmlinuz
p1257
sVinstall-stem
p1258
Vvmlinux
p1259
ss(Vdescription
p1260
g1239
NVpowerpc64le
p1261
tp1262
(dp1263
Vhardware
p1264
VLittle-endian 64-bit PowerPC
p1265
ss(Vimage
p1266
g1239
NVpowerpc64le
p1267
tp1268
(dp1269
Vconfigs
p1270
(lp1271
Vkernelarch-powerpc/config-arch-64
p1272
aVkernelarch-powerpc/config-arch-64-le
p1273
ass(g188
g1239
g159
tp1274
(dp1275
g191
(lp1276
Vpowerpc64le
p1277
asg195
I01
ss(Vbase
p1278
Vriscv64
p1279
tp1280
(dp1281
Vkernel-arch
p1282
Vriscv
p1283
sVfeaturesets
p1284
(lp1285
ss(Vbase
p1286
Vs390
p1287
tp1288
(dp1289
Vkernel-arch
p1290
Vs390
p1291
sVfeaturesets
p1292
(lp1293
ss(Vbase
p1294
Vs390x
p1295
tp1296
(dp1297
Vkernel-arch
p1298
Vs390
p1299
sg157
(lp1300
g159
ass(Vbuild
p1301
g1295
tp1302
(dp1303
Vimage-file
p1304
Varch/s390/boot/image
p1305
sVvdso
p1306
I01
ss(Vimage
p1307
g1295
tp1308
(dp1309
Vbootloaders
p1310
(lp1311
Vs390-tools
p1312
asVinstall-stem
p1313
Vvmlinuz
p1314
ss(Vrelations
p1315
g1295
tp1316
(dp1317
Vheaders%gcc-7
p1318
Vlinux-compiler-gcc-7-s390
p1319
ss(Vbuild
p1320
g1295
NVs390x
p1321
tp1322
(dp1323
Vdebug-info
p1324
I01
ss(Vdescription
p1325
g1295
NVs390x
p1326
tp1327
(dp1328
Vhardware
p1329
VIBM zSeries
p1330
ss(g188
g1295
g159
tp1331
(dp1332
g191
(lp1333
Vs390x
p1334
asg195
I01
ss(Vbase
p1335
Vsh3
p1336
tp1337
(dp1338
Vkernel-arch
p1339
Vsh
p1340
sVfeaturesets
p1341
(lp1342
ss(Vbase
p1343
Vsh4
p1344
tp1345
(dp1346
Vkernel-arch
p1347
Vsh
p1348
sg157
(lp1349
g159
ass(Vbuild
p1350
g1344
tp1351
(dp1352
Vimage-file
p1353
Varch/sh/boot/zImage
p1354
ss(Vimage
p1355
g1344
tp1356
(dp1357
Vinstall-stem
p1358
Vvmlinuz
p1359
ss(Vdescription
p1360
g1344
NVsh7751r
p1361
tp1362
(dp1363
Vhardware
p1364
Vsh7751r
p1365
sVhardware-long
p1366
VRenesas SH7751R R2D plus board
p1367
ss(Vdescription
p1368
g1344
NVsh7785lcr
p1369
tp1370
(dp1371
Vhardware
p1372
Vsh7785lcr
p1373
sVhardware-long
p1374
VRenesas SH7785 reference board
p1375
ss(Vimage
p1376
g1344
NVsh7785lcr
p1377
tp1378
(dp1379
Vrecommends
p1380
Vu-boot-tools
p1381
sVcheck-size
p1382
L4194304L
ss(g188
g1344
g159
tp1383
(dp1384
g191
(lp1385
Vsh7751r
p1386
aVsh7785lcr
p1387
asg195
I01
ss(Vbase
p1388
Vsparc
p1389
tp1390
(dp1391
Vkernel-arch
p1392
Vsparc
p1393
sVfeaturesets
p1394
(lp1395
ss(Vbase
p1396
Vsparc64
p1397
tp1398
(dp1399
Vkernel-arch
p1400
Vsparc
p1401
sg157
(lp1402
g159
ass(Vbuild
p1403
g1397
tp1404
(dp1405
Vimage-file
p1406
Varch/sparc/boot/zImage
p1407
ss(Vimage
p1408
g1397
tp1409
(dp1410
Vconfigs
p1411
(lp1412
sVsuggests
p1413
Vsilo, fdutils
p1414
sVinstall-stem
p1415
Vvmlinuz
p1416
ss(Vdescription
p1417
g1397
NVsparc64
p1418
tp1419
(dp1420
Vhardware
p1421
Vuniprocessor 64-bit UltraSPARC
p1422
ss(Vimage
p1423
g1397
NVsparc64
p1424
tp1425
(dp1426
Vconfigs
p1427
(lp1428
Vkernelarch-sparc/config-up
p1429
ass(Vdescription
p1430
g1397
NVsparc64-smp
p1431
tp1432
(dp1433
Vhardware
p1434
Vmultiprocessor 64-bit UltraSPARC
p1435
ss(Vimage
p1436
g1397
NVsparc64-smp
p1437
tp1438
(dp1439
Vconfigs
p1440
(lp1441
Vkernelarch-sparc/config-smp
p1442
ass(g188
g1397
g159
tp1443
(dp1444
g191
(lp1445
Vsparc64
p1446
aVsparc64-smp
p1447
asg195
I01
ss(Vbase
p1448
Vtilegx
p1449
tp1450
(dp1451
Vkernel-arch
p1452
Vtile
p1453
sVfeaturesets
p1454
(lp1455
ss(Vbase
p1456
Vx32
p1457
tp1458
(dp1459
Vkernel-arch
p1460
Vx86
p1461
sVfeaturesets
p1462
(lp1463
ss(Vabi
p1464
NVrt
p1465
tp1466
(dp1467
Vignore-changes
p1468
(lp1469
V*
p1470
ass(Vdescription
p1471
Ng1465
tp1472
(dp1473
Vpart-long-rt
p1474
VThis kernel includes the PREEMPT_RT realtime patch set.
p1475
sVpart-short-rt
p1476
VPREEMPT_RT
p1477
sVparts
p1478
(lp1479
Vrt
p1480
ass(Vversion
p1481
tp1482
(dp1483
Vsource
p1484
V4.17.17-1parrot17
p1485
sVupstream
p1486
V4.17
p1487
sVabiname_base
p1488
V4.17.0
p1489
sVabiname
p1490
V4.17.0-parrot17
p1491
ss.