cdebian_linux.config
ConfigCore
p0
(tRp1
(Vabi
p2
tp3
(dp4
Vabiname
p5
V3parrot5
p6
sVignore-changes
p7
(lp8
V__cpuhp_*
p9
aV__xive_vm_h_*
p10
aVbpf_analyzer
p11
aVcxl_*
p12
aVdax_flush
p13
aVieee80211_nullfunc_get
p14
aVinet_add_protocol
p15
aVinet_del_protocol
p16
aViommu_device_*
p17
aVkvm_async_pf_task_wait
p18
aVkvmppc_*
p19
aVmm_iommu_*
p20
aVmv_mbus_*
p21
aVperf_*
p22
aVregister_cxl_calls
p23
aVregister_key_type
p24
aVunregister_cxl_calls
p25
aV*_hw_breakpoint
p26
aVmodule:arch/x86/kvm/*
p27
aVmodule:drivers/crypto/ccp/*
p28
aVmodule:drivers/hv/*
p29
aVmodule:drivers/gpu/drm/sun4i/*
p30
aVmodule:drivers/iio/**
p31
aVmodule:drivers/misc/cxl/*
p32
aVmodule:drivers/mtd/nand/*
p33
aVmodule:drivers/net/ethernet/**
p34
aVmodule:drivers/net/wireless/**
p35
aVmodule:drivers/nvdimm/*
p36
aVmodule:drivers/power/supply/bq27xxx_battery
p37
aVmodule:drivers/scsi/cxgbi/*
p38
aVmodule:drivers/scsi/libiscs*
p39
aVmodule:drivers/scsi/qla2xxx/qla2xxx
p40
aVmodule:drivers/scsi/ufs/*
p41
aVmodule:drivers/target/**
p42
aVmodule:drivers/usb/chipidea/**
p43
aVmodule:drivers/usb/gadget/**
p44
aVmodule:drivers/usb/host/**
p45
aVmodule:drivers/usb/musb/**
p46
aVmodule:fs/nfs/**
p47
aVmodule:net/ceph/libceph
p48
aVmodule:net/l2tp/**
p49
aVmodule:net/rxrpc/rxrpc
p50
aVmodule:net/sctp/**
p51
aVmodule:sound/core/seq/**
p52
aVmodule:sound/firewire/snd-firewire-lib
p53
aVmodule:sound/pci/hda/*
p54
aVbtree_*
p55
aVvisitor*
p56
aVcan_rx_register
p57
aVip6_xmit
p58
aVmodule:net/dccp/dccp
p59
aVmodule:net/rds/rds
p60
aVdevfreq_*
p61
aVdevm_devfreq_*
p62
aVupdate_devfreq
p63
aVmodule:drivers/infiniband/**
p64
aVacpi_ec_add_query_handler
p65
aVacpi_ec_remove_query_handler
p66
aVfirst_ec
p67
aVdebugfs_create_automount
p68
aVmodule:drivers/iio/imu/inv_mpu6050/*
p69
aVdrm_crtc_accurate_vblank_count
p70
aVacpi_nfit_desc_init
p71
aVacpi_nfit_init
p72
aVloop_register_transfer
p73
aVxen_xlate_*
p74
aVnf_nat_masquerade_ipv4_register_notifier
p75
aVnf_nat_masquerade_ipv6_register_notifier
p76
ass(Vbase
p77
tp78
(dp79
Varches
p80
(lp81
Valpha
p82
aVamd64
p83
aVarm64
p84
aVarm64ilp32
p85
aVarmel
p86
aVarmhf
p87
aVhppa
p88
aVi386
p89
aVia64
p90
aVm68k
p91
aVmips
p92
aVmips64
p93
aVmips64el
p94
aVmips64r6
p95
aVmips64r6el
p96
aVmipsel
p97
aVmipsn32
p98
aVmipsn32el
p99
aVmipsn32r6
p100
aVmipsn32r6el
p101
aVmipsr6
p102
aVmipsr6el
p103
aVpowerpc
p104
aVpowerpcspe
p105
aVppc64
p106
aVppc64el
p107
aVriscv64
p108
aVs390
p109
aVs390x
p110
aVsh3
p111
aVsh4
p112
aVsparc
p113
aVsparc64
p114
aVx32
p115
asVcompiler
p116
Vgcc-8
p117
sVfeaturesets
p118
(lp119
Vnone
p120
aVrt
p121
ass(Vbuild
p122
tp123
(dp124
Vdebug-info
p125
I01
sVsigned-code
p126
I00
ss(Vbase
p127
NVrt
p128
tp129
(dp130
Venabled
p131
I01
ss(Vdescription
p132
tp133
(dp134
Vpart-long-up
p135
VThis kernel is not suitable for SMP (multi-processor,\u000amulti-core or hyper-threaded) systems.
p136
ss(Vimage
p137
tp138
(dp139
Vinitramfs-generators
p140
(lp141
Vinitramfs-tools
p142
aVinitramfs-fallback
p143
asVrecommends
p144
(lp145
Vapparmor
p146
ass(Vrelations
p147
tp148
(dp149
Vgcc-8
p150
Vgcc-8 <!stage1 !cross !pkg.linux.nokernel>, gcc-8-@gnu-type-package@ <!stage1 cross !pkg.linux.nokernel>
p151
sVinitramfs-fallback
p152
Vlinux-initramfs-tool
p153
sVinitramfs-tools
p154
Vinitramfs-tools (>= 0.120+deb8u2)
p155
ss(Vbase
p156
Valpha
p157
tp158
(dp159
Vkernel-arch
p160
Valpha
p161
sVfeaturesets
p162
(lp163
Vnone
p164
ass(Vbuild
p165
g157
tp166
(dp167
Vimage-file
p168
Varch/alpha/boot/vmlinux.gz
p169
ss(Vimage
p170
g157
tp171
(dp172
Vsuggests
p173
(lp174
Vaboot
p175
aVfdutils
p176
asVinstall-stem
p177
Vvmlinuz
p178
ss(Vdescription
p179
g157
NValpha-generic
p180
tp181
(dp182
Vhardware
p183
VAlpha
p184
sVhardware-long
p185
VDEC Alpha systems with extended kernel start address (Wildfire, Titan, Marvel)
p186
ss(Vdescription
p187
g157
NValpha-smp
p188
tp189
(dp190
Vhardware
p191
VAlpha SMP
p192
sVhardware-long
p193
VDEC Alpha SMP systems with extended kernel start address (Wildfire, Titan, Marvel)
p194
ss(Vbase
p195
g157
g164
tp196
(dp197
Vflavours
p198
(lp199
Valpha-generic
p200
aValpha-smp
p201
asVimplicit-flavour
p202
I01
ss(Vbase
p203
Vamd64
p204
tp205
(dp206
Vfeaturesets
p207
(lp208
Vnone
p209
aVrt
p210
asVkernel-arch
p211
Vx86
p212
ss(Vbuild
p213
g204
tp214
(dp215
Vdebug-info
p216
I01
sVimage-file
p217
Varch/x86/boot/bzImage
p218
sVsigned-code
p219
I00
sVvdso
p220
I01
ss(Vimage
p221
g204
tp222
(dp223
Vbootloaders
p224
(lp225
Vgrub-pc
p226
aVgrub-efi-amd64
p227
aVextlinux
p228
asVinstall-stem
p229
Vvmlinuz
p230
sVbreaks
p231
(lp232
Vxserver-xorg-input-vmmouse (<< 1:13.0.99)
p233
ass(Vrelations
p234
g204
tp235
(dp236
Vgcc-8
p237
Vgcc-8 (>= 8-20180123-1~) <!stage1 !cross !pkg.linux.nokernel>, gcc-8-x86-64-linux-gnu (>= 8-20180123-1~) <!stage1 cross !pkg.linux.nokernel>
p238
sVheaders%gcc-8
p239
Vlinux-compiler-gcc-8-x86
p240
ss(Vdescription
p241
g204
NVamd64
p242
tp243
(dp244
Vhardware
p245
V64-bit PCs
p246
sVhardware-long
p247
VPCs with AMD64, Intel 64 or VIA Nano processors
p248
ss(Vdescription
p249
g204
NVcloud-amd64
p250
tp251
(dp252
Vhardware
p253
Vx86-64 cloud
p254
sVhardware-long
p255
VAmazon EC2, Google Compute Engine and Microsoft Azure cloud platforms
p256
ss(Vbase
p257
g204
Vnone
p258
tp259
(dp260
Vflavours
p261
(lp262
Vamd64
p263
aVcloud-amd64
p264
ass(Vbase
p265
g204
Vrt
p266
tp267
(dp268
Vflavours
p269
(lp270
Vamd64
p271
ass(Vbase
p272
Varm64
p273
tp274
(dp275
Vkernel-arch
p276
Varm64
p277
sVfeaturesets
p278
(lp279
Vnone
p280
aVrt
p281
ass(Vbuild
p282
g273
tp283
(dp284
Vdebug-info
p285
I01
sVimage-file
p286
Varch/arm64/boot/Image
p287
sVsigned-code
p288
I00
sVvdso
p289
I01
ss(Vimage
p290
g273
tp291
(dp292
Vinstall-stem
p293
Vvmlinuz
p294
sVbreaks
p295
(lp296
Vlibmozjs185-1.0
p297
aVlibmozjs-24-0 (<< 24.2.0-5.1~)
p298
ass(Vdescription
p299
g273
NVarm64
p300
tp301
(dp302
Vhardware
p303
V64-bit ARMv8 machines
p304
ss(Vimage
p305
g273
NVarm64
p306
tp307
(dp308
s(Vbase
p309
g273
Vnone
p310
tp311
(dp312
Vflavours
p313
(lp314
Varm64
p315
ass(Vbase
p316
g273
Vrt
p317
tp318
(dp319
Vflavours
p320
(lp321
Varm64
p322
ass(Vbase
p323
Varm64ilp32
p324
tp325
(dp326
Vkernel-arch
p327
Varm64
p328
sVfeaturesets
p329
(lp330
ss(Vbase
p331
Varmel
p332
tp333
(dp334
Vkernel-arch
p335
Varm
p336
sg162
(lp337
g164
ass(Vbuild
p338
g332
tp339
(dp340
Vimage-file
p341
Varch/arm/boot/zImage
p342
sVuncompressed-image-file
p343
Varch/arm/boot/Image
p344
ss(Vimage
p345
g332
tp346
(dp347
Vinstall-stem
p348
Vvmlinuz
p349
ss(Vrelations
p350
g332
tp351
(dp352
Vheaders%gcc-8
p353
Vlinux-compiler-gcc-8-arm
p354
ss(Vdescription
p355
g332
NVmarvell
p356
tp357
(dp358
Vhardware
p359
VMarvell Kirkwood/Orion
p360
sVhardware-long
p361
VMarvell Kirkwood and Orion based systems (https://wiki.debian.org/ArmEabiPort#Supported_hardware)
p362
ss(Vdescription
p363
g332
NVrpi
p364
tp365
(dp366
Vhardware
p367
VRaspberry Pi and Pi Zero
p368
sVhardware-long
p369
VRaspberry Pi, Raspberry Pi Zero based systems
p370
ss(Vimage
p371
g332
NVmarvell
p372
tp373
(dp374
Vrecommends
p375
(lp376
Vu-boot-tools
p377
asVcheck-size
p378
I2097080
sVcheck-size-with-dtb
p379
I01
sVcheck-uncompressed-size
p380
I7340032
sVbreaks
p381
(lp382
Vflash-kernel (<< 3.57~)
p383
ass(g195
g332
g164
tp384
(dp385
g198
(lp386
Vmarvell
p387
aVrpi
p388
asg202
I01
ss(Vbase
p389
Varmhf
p390
tp391
(dp392
Vfeaturesets
p393
(lp394
Vnone
p395
aVrt
p396
asVkernel-arch
p397
Varm
p398
ss(Vbuild
p399
g390
tp400
(dp401
Vimage-file
p402
Varch/arm/boot/zImage
p403
sVvdso
p404
I01
ss(Vimage
p405
g390
tp406
(dp407
Vinstall-stem
p408
Vvmlinuz
p409
ss(Vrelations
p410
g390
tp411
(dp412
Vheaders%gcc-8
p413
Vlinux-compiler-gcc-8-arm
p414
ss(Vdescription
p415
g390
NVarmmp
p416
tp417
(dp418
Vhardware
p419
VARMv7 multiplatform compatible SoCs
p420
sVhardware-long
p421
VARMv7 multiplatform kernel. See\u000ahttps://wiki.debian.org/DebianKernel/ARMMP for details of supported\u000aplatforms
p422
ss(Vdescription
p423
g390
NVarmmp-lpae
p424
tp425
(dp426
Vhardware
p427
VARMv7 multiplatform compatible SoCs supporting LPAE
p428
sVhardware-long
p429
VARMv7 multiplatform kernel supporting LPAE. See\u000ahttps://wiki.debian.org/DebianKernel/ARMMP for details of supported\u000aplatforms.
p430
ss(Vbase
p431
g390
Vnone
p432
tp433
(dp434
Vflavours
p435
(lp436
Varmmp
p437
aVarmmp-lpae
p438
ass(Vbase
p439
g390
Vrt
p440
tp441
(dp442
Vflavours
p443
(lp444
Varmmp
p445
ass(Vbase
p446
Vhppa
p447
tp448
(dp449
Vkernel-arch
p450
Vparisc
p451
sg162
(lp452
g164
ass(Vbuild
p453
g447
tp454
(dp455
Vimage-file
p456
Varch/parisc/boot/bzImage
p457
sVdebug-info
p458
I00
ss(Vimage
p459
g447
tp460
(dp461
Vsuggests
p462
(lp463
Vpalo
p464
asVinstall-stem
p465
Vvmlinuz
p466
ss(Vdescription
p467
g447
NVparisc
p468
tp469
(dp470
Vhardware
p471
V32-bit PA-RISC
p472
sVhardware-long
p473
VHP PA-RISC 32-bit systems with max 4 GB RAM
p474
ss(Vdescription
p475
g447
NVparisc-smp
p476
tp477
(dp478
Vhardware
p479
Vmultiprocessor 32-bit PA-RISC
p480
sVhardware-long
p481
VHP PA-RISC 32-bit SMP systems with max 4 GB RAM
p482
ss(Vbase
p483
g447
NVparisc64-smp
p484
tp485
(dp486
Vcflags
p487
V-fno-cse-follow-jumps
p488
sVoverride-host-type
p489
Vhppa64-linux-gnu
p490
ss(Vdescription
p491
g447
NVparisc64-smp
p492
tp493
(dp494
Vhardware
p495
Vmultiprocessor 64-bit PA-RISC
p496
sVhardware-long
p497
VHP PA-RISC 64-bit SMP systems with support for more than 4 GB RAM
p498
ss(Vrelations
p499
g447
tp500
(dp501
Vgcc-8
p502
Vgcc-8 <!stage1 !cross !pkg.linux.nokernel>, gcc-8-hppa-linux-gnu <!stage1 cross !pkg.linux.nokernel>, binutils-hppa64-linux-gnu <!stage1 !pkg.linux.nokernel>, gcc-8-hppa64-linux-gnu <!stage1 !pkg.linux.nokernel>
p503
ss(g195
g447
g164
tp504
(dp505
g198
(lp506
Vparisc
p507
aVparisc-smp
p508
aVparisc64-smp
p509
asg202
I01
ss(Vbase
p510
Vi386
p511
tp512
(dp513
Vfeaturesets
p514
(lp515
Vnone
p516
aVrt
p517
asVkernel-arch
p518
Vx86
p519
ss(Vbuild
p520
g511
tp521
(dp522
Vimage-file
p523
Varch/x86/boot/bzImage
p524
sVsigned-code
p525
I00
sVvdso
p526
I01
ss(Vdescription
p527
g511
tp528
(dp529
Vpart-long-pae
p530
VThis kernel requires PAE (Physical Address Extension).\u000aThis feature is supported by the Intel Pentium Pro/II/III/4/4M/D, Xeon,\u000aCore and Atom; AMD Geode NX, Athlon (K7), Duron, Opteron, Sempron,\u000aTurion or Phenom; Transmeta Efficeon; VIA C7; and some other processors.
p531
ss(Vimage
p532
g511
tp533
(dp534
Vbootloaders
p535
(lp536
Vgrub-pc
p537
aVgrub-efi-ia32
p538
aVextlinux
p539
asVinstall-stem
p540
Vvmlinuz
p541
sVbreaks
p542
(lp543
Vxserver-xorg-input-vmmouse (<< 1:13.0.99)
p544
ass(Vrelations
p545
g511
tp546
(dp547
Vgcc-8
p548
Vgcc-8 (>= 8-20180123-1~) <!stage1 !cross !pkg.linux.nokernel>, gcc-8-i686-linux-gnu (>= 8-20180123-1~) <!stage1 cross !pkg.linux.nokernel>
p549
sVheaders%gcc-8
p550
Vlinux-compiler-gcc-8-x86
p551
ss(Vdescription
p552
g511
NV686
p553
tp554
(dp555
Vhardware
p556
Volder PCs
p557
sVhardware-long
p558
VPCs with one or more processors not supporting PAE
p559
ss(Vbuild
p560
g511
NV686-pae
p561
tp562
(dp563
Vdebug-info
p564
I01
ss(Vdescription
p565
g511
NV686-pae
p566
tp567
(dp568
Vhardware
p569
Vmodern PCs
p570
sVhardware-long
p571
VPCs with one or more processors supporting PAE
p572
sVparts
p573
(lp574
Vpae
p575
ass(Vbase
p576
g511
Vnone
p577
tp578
(dp579
Vflavours
p580
(lp581
V686
p582
aV686-pae
p583
ass(Vbase
p584
g511
Vrt
p585
tp586
(dp587
Vflavours
p588
(lp589
V686-pae
p590
ass(Vbase
p591
Via64
p592
tp593
(dp594
Vkernel-arch
p595
Via64
p596
sg162
(lp597
g164
ass(Vbuild
p598
g592
tp599
(dp600
Vimage-file
p601
Vvmlinux.gz
p602
ss(Vimage
p603
g592
tp604
(dp605
Vbootloaders
p606
(lp607
Vgrub-efi-ia64
p608
asVinstall-stem
p609
Vvmlinuz
p610
ss(Vdescription
p611
g592
NVitanium
p612
tp613
(dp614
Vhardware
p615
VItanium (Merced)
p616
sVhardware-long
p617
Vsystems with original Itanium (Merced) processors
p618
ss(Vdescription
p619
g592
NVmckinley
p620
tp621
(dp622
Vhardware
p623
VItanium 2+
p624
sVhardware-long
p625
Vsystems with Itanium 2 or 9300/9500/9700-series processors
p626
ss(g195
g592
g164
tp627
(dp628
g198
(lp629
Vitanium
p630
aVmckinley
p631
asg202
I01
ss(Vbase
p632
Vm68k
p633
tp634
(dp635
Vcflags
p636
V-ffreestanding
p637
sVkernel-arch
p638
Vm68k
p639
sg162
(lp640
g164
ass(Vbuild
p641
g633
tp642
(dp643
Vimage-file
p644
Vvmlinux
p645
ss(Vimage
p646
g633
tp647
(dp648
Vsuggests
p649
(lp650
Vvmelilo
p651
aVfdutils
p652
asVinstall-stem
p653
Vvmlinux
p654
ss(Vdescription
p655
g633
NVm68k
p656
tp657
(dp658
Vhardware
p659
VMotorola MC68020+ family
p660
ss(g195
g633
g164
tp661
(dp662
g198
(lp663
Vm68k
p664
asg202
I01
ss(Vbase
p665
Vmips
p666
tp667
(dp668
Vkernel-arch
p669
Vmips
p670
sg162
(lp671
g164
ass(Vbuild
p672
g666
tp673
(dp674
Vimage-file
p675
Vvmlinux
p676
ss(Vimage
p677
g666
tp678
(dp679
Vinstall-stem
p680
Vvmlinux
p681
ss(Vdescription
p682
g666
NV4kc-malta
p683
tp684
(dp685
Vhardware
p686
VMIPS Malta
p687
sVhardware-long
p688
VMIPS Malta boards
p689
ss(Vimage
p690
g666
NV4kc-malta
p691
tp692
(dp693
Vconfigs
p694
(lp695
Vkernelarch-mips/config.malta
p696
aVkernelarch-mips/config.mips32r2
p697
ass(Vdescription
p698
g666
NV5kc-malta
p699
tp700
(dp701
Vhardware
p702
VMIPS Malta (64-bit)
p703
sVhardware-long
p704
VMIPS Malta boards (64-bit)
p705
ss(Vimage
p706
g666
NV5kc-malta
p707
tp708
(dp709
Vconfigs
p710
(lp711
Vkernelarch-mips/config.malta
p712
aVkernelarch-mips/config.mips64r2
p713
ass(Vdescription
p714
g666
NVocteon
p715
tp716
(dp717
Vhardware
p718
VOcteon
p719
sVhardware-long
p720
VCavium Networks Octeon
p721
ss(Vimage
p722
g666
NVocteon
p723
tp724
(dp725
Vconfigs
p726
(lp727
Vkernelarch-mips/config.octeon
p728
ass(g195
g666
g164
tp729
(dp730
g198
(lp731
V4kc-malta
p732
aV5kc-malta
p733
aVocteon
p734
asg202
I01
ss(Vbase
p735
Vmips64
p736
tp737
(dp738
Vkernel-arch
p739
Vmips
p740
sg162
(lp741
g164
ass(Vbuild
p742
g736
tp743
(dp744
Vimage-file
p745
Vvmlinux
p746
ss(Vimage
p747
g736
tp748
(dp749
Vinstall-stem
p750
Vvmlinux
p751
ss(Vdescription
p752
g736
NV5kc-malta
p753
tp754
(dp755
Vhardware
p756
VMIPS Malta
p757
sVhardware-long
p758
VMIPS Malta boards
p759
ss(Vimage
p760
g736
NV5kc-malta
p761
tp762
(dp763
Vconfigs
p764
(lp765
Vkernelarch-mips/config.malta
p766
aVkernelarch-mips/config.mips64r2
p767
ass(Vdescription
p768
g736
NVocteon
p769
tp770
(dp771
Vhardware
p772
VOcteon
p773
sVhardware-long
p774
VCavium Networks Octeon
p775
ss(Vimage
p776
g736
NVocteon
p777
tp778
(dp779
Vconfigs
p780
(lp781
Vkernelarch-mips/config.octeon
p782
ass(g195
g736
g164
tp783
(dp784
g198
(lp785
V5kc-malta
p786
aVocteon
p787
asg202
I01
ss(Vbase
p788
Vmips64el
p789
tp790
(dp791
Vkernel-arch
p792
Vmips
p793
sg162
(lp794
g164
ass(Vbuild
p795
g789
tp796
(dp797
Vimage-file
p798
Vvmlinux
p799
ss(Vimage
p800
g789
tp801
(dp802
Vinstall-stem
p803
Vvmlinux
p804
ss(Vdescription
p805
g789
NV5kc-malta
p806
tp807
(dp808
Vhardware
p809
VMIPS Malta
p810
sVhardware-long
p811
VMIPS Malta boards
p812
ss(Vimage
p813
g789
NV5kc-malta
p814
tp815
(dp816
Vconfigs
p817
(lp818
Vkernelarch-mips/config.malta
p819
aVkernelarch-mips/config.mips64r2
p820
ass(Vdescription
p821
g789
NVloongson-3
p822
tp823
(dp824
Vhardware
p825
VLoongson 3A/3B
p826
sVhardware-long
p827
VLoongson 3A or 3B based systems (e.g. from Loongson or Lemote)
p828
ss(Vimage
p829
g789
NVloongson-3
p830
tp831
(dp832
Vconfigs
p833
(lp834
Vkernelarch-mips/config.loongson-3
p835
ass(Vdescription
p836
g789
NVocteon
p837
tp838
(dp839
Vhardware
p840
VOcteon
p841
sVhardware-long
p842
VCavium Networks Octeon
p843
ss(Vimage
p844
g789
NVocteon
p845
tp846
(dp847
Vconfigs
p848
(lp849
Vkernelarch-mips/config.octeon
p850
ass(g195
g789
g164
tp851
(dp852
g198
(lp853
V5kc-malta
p854
aVloongson-3
p855
aVocteon
p856
asg202
I01
ss(Vbase
p857
Vmips64r6
p858
tp859
(dp860
Vkernel-arch
p861
Vmips
p862
sg162
(lp863
g164
ass(Vbuild
p864
g858
tp865
(dp866
Vimage-file
p867
Vvmlinux
p868
ss(Vimage
p869
g858
tp870
(dp871
Vinstall-stem
p872
Vvmlinux
p873
ss(Vdescription
p874
g858
NVmips64r6
p875
tp876
(dp877
Vhardware
p878
VMIPS R6 (64 bit, big endian)
p879
sVhardware-long
p880
VMIPS R6 (64 bit, big endian)
p881
ss(Vimage
p882
g858
NVmips64r6
p883
tp884
(dp885
Vconfigs
p886
(lp887
Vkernelarch-mips/config.boston
p888
aVkernelarch-mips/config.mips64r6
p889
ass(g195
g858
g164
tp890
(dp891
g198
(lp892
Vmips64r6
p893
asg202
I01
ss(Vbase
p894
Vmips64r6el
p895
tp896
(dp897
Vkernel-arch
p898
Vmips
p899
sg162
(lp900
g164
ass(Vbuild
p901
g895
tp902
(dp903
Vimage-file
p904
Vvmlinux
p905
ss(Vimage
p906
g895
tp907
(dp908
Vinstall-stem
p909
Vvmlinux
p910
ss(Vdescription
p911
g895
NVmips64r6el
p912
tp913
(dp914
Vhardware
p915
VMIPS R6 (64 bit, little endian)
p916
sVhardware-long
p917
VMIPS R6 (64 bit, little endian)
p918
ss(Vimage
p919
g895
NVmips64r6el
p920
tp921
(dp922
Vconfigs
p923
(lp924
Vkernelarch-mips/config.boston
p925
aVkernelarch-mips/config.mips64r6
p926
ass(g195
g895
g164
tp927
(dp928
g198
(lp929
Vmips64r6el
p930
asg202
I01
ss(Vbase
p931
Vmipsel
p932
tp933
(dp934
Vkernel-arch
p935
Vmips
p936
sg162
(lp937
g164
ass(Vbuild
p938
g932
tp939
(dp940
Vimage-file
p941
Vvmlinux
p942
ss(Vimage
p943
g932
tp944
(dp945
Vinstall-stem
p946
Vvmlinux
p947
ss(Vdescription
p948
g932
NV4kc-malta
p949
tp950
(dp951
Vhardware
p952
VMIPS Malta
p953
sVhardware-long
p954
VMIPS Malta boards
p955
ss(Vimage
p956
g932
NV4kc-malta
p957
tp958
(dp959
Vconfigs
p960
(lp961
Vkernelarch-mips/config.malta
p962
aVkernelarch-mips/config.mips32r2
p963
ass(Vdescription
p964
g932
NV5kc-malta
p965
tp966
(dp967
Vhardware
p968
VMIPS Malta (64-bit)
p969
sVhardware-long
p970
VMIPS Malta boards (64-bit)
p971
ss(Vimage
p972
g932
NV5kc-malta
p973
tp974
(dp975
Vconfigs
p976
(lp977
Vkernelarch-mips/config.malta
p978
aVkernelarch-mips/config.mips64r2
p979
ass(Vdescription
p980
g932
NVloongson-3
p981
tp982
(dp983
Vhardware
p984
VLoongson 3A/3B
p985
sVhardware-long
p986
VLoongson 3A or 3B based systems (e.g. from Loongson or Lemote)
p987
ss(Vimage
p988
g932
NVloongson-3
p989
tp990
(dp991
Vconfigs
p992
(lp993
Vkernelarch-mips/config.loongson-3
p994
ass(Vdescription
p995
g932
NVocteon
p996
tp997
(dp998
Vhardware
p999
VOcteon
p1000
sVhardware-long
p1001
VCavium Networks Octeon
p1002
ss(Vimage
p1003
g932
NVocteon
p1004
tp1005
(dp1006
Vconfigs
p1007
(lp1008
Vkernelarch-mips/config.octeon
p1009
ass(g195
g932
g164
tp1010
(dp1011
g198
(lp1012
V4kc-malta
p1013
aV5kc-malta
p1014
aVloongson-3
p1015
aVocteon
p1016
asg202
I01
ss(Vbase
p1017
Vmipsn32
p1018
tp1019
(dp1020
Vkernel-arch
p1021
Vmips
p1022
sVfeaturesets
p1023
(lp1024
ss(Vbase
p1025
Vmipsn32el
p1026
tp1027
(dp1028
Vkernel-arch
p1029
Vmips
p1030
sVfeaturesets
p1031
(lp1032
ss(Vbase
p1033
Vmipsn32r6
p1034
tp1035
(dp1036
Vkernel-arch
p1037
Vmips
p1038
sVfeaturesets
p1039
(lp1040
ss(Vbase
p1041
Vmipsn32r6el
p1042
tp1043
(dp1044
Vkernel-arch
p1045
Vmips
p1046
sVfeaturesets
p1047
(lp1048
ss(Vbase
p1049
Vmipsr6
p1050
tp1051
(dp1052
Vkernel-arch
p1053
Vmips
p1054
sg162
(lp1055
g164
ass(Vbuild
p1056
g1050
tp1057
(dp1058
Vimage-file
p1059
Vvmlinux
p1060
ss(Vimage
p1061
g1050
tp1062
(dp1063
Vinstall-stem
p1064
Vvmlinux
p1065
ss(Vdescription
p1066
g1050
NVmips32r6
p1067
tp1068
(dp1069
Vhardware
p1070
VMIPS R6 (32 bit, big endian)
p1071
sVhardware-long
p1072
VMIPS R6 (32 bit, big endian)
p1073
ss(Vimage
p1074
g1050
NVmips32r6
p1075
tp1076
(dp1077
Vconfigs
p1078
(lp1079
Vkernelarch-mips/config.boston
p1080
aVkernelarch-mips/config.mips32r6
p1081
ass(Vdescription
p1082
g1050
NVmips64r6
p1083
tp1084
(dp1085
Vhardware
p1086
VMIPS R6 (64 bit, big endian)
p1087
sVhardware-long
p1088
VMIPS R6 (64 bit, big endian)
p1089
ss(Vimage
p1090
g1050
NVmips64r6
p1091
tp1092
(dp1093
Vconfigs
p1094
(lp1095
Vkernelarch-mips/config.boston
p1096
aVkernelarch-mips/config.mips64r6
p1097
ass(g195
g1050
g164
tp1098
(dp1099
g198
(lp1100
Vmips32r6
p1101
aVmips64r6
p1102
asg202
I01
ss(Vbase
p1103
Vmipsr6el
p1104
tp1105
(dp1106
Vkernel-arch
p1107
Vmips
p1108
sg162
(lp1109
g164
ass(Vbuild
p1110
g1104
tp1111
(dp1112
Vimage-file
p1113
Vvmlinux
p1114
ss(Vimage
p1115
g1104
tp1116
(dp1117
Vinstall-stem
p1118
Vvmlinux
p1119
ss(Vdescription
p1120
g1104
NVmips32r6el
p1121
tp1122
(dp1123
Vhardware
p1124
VMIPS R6 (32 bit, little endian)
p1125
sVhardware-long
p1126
VMIPS R6 (32 bit, little endian)
p1127
ss(Vimage
p1128
g1104
NVmips32r6el
p1129
tp1130
(dp1131
Vconfigs
p1132
(lp1133
Vkernelarch-mips/config.boston
p1134
aVkernelarch-mips/config.mips32r6
p1135
ass(Vdescription
p1136
g1104
NVmips64r6el
p1137
tp1138
(dp1139
Vhardware
p1140
VMIPS R6 (64 bit, little endian)
p1141
sVhardware-long
p1142
VMIPS R6 (64 bit, little endian)
p1143
ss(Vimage
p1144
g1104
NVmips64r6el
p1145
tp1146
(dp1147
Vconfigs
p1148
(lp1149
Vkernelarch-mips/config.boston
p1150
aVkernelarch-mips/config.mips64r6
p1151
ass(g195
g1104
g164
tp1152
(dp1153
g198
(lp1154
Vmips32r6el
p1155
aVmips64r6el
p1156
asg202
I01
ss(Vbase
p1157
Vpowerpc
p1158
tp1159
(dp1160
Vkernel-arch
p1161
Vpowerpc
p1162
sg162
(lp1163
g164
ass(Vbuild
p1164
g1158
tp1165
(dp1166
Vimage-file
p1167
Vvmlinux
p1168
sVvdso
p1169
I01
ss(Vimage
p1170
g1158
tp1171
(dp1172
Vconfigs
p1173
(lp1174
sVbootloaders
p1175
(lp1176
Vgrub-ieee1275
p1177
asVsuggests
p1178
(lp1179
Vmkvmlinuz
p1180
asVinstall-stem
p1181
Vvmlinux
p1182
ss(Vdescription
p1183
g1158
NVpowerpc
p1184
tp1185
(dp1186
Vhardware
p1187
Vuniprocessor 32-bit PowerPC
p1188
ss(Vdescription
p1189
g1158
NVpowerpc-smp
p1190
tp1191
(dp1192
Vhardware
p1193
Vmultiprocessor 32-bit PowerPC
p1194
ss(Vimage
p1195
g1158
NVpowerpc-smp
p1196
tp1197
(dp1198
Vconfigs
p1199
(lp1200
Vpowerpc/config.powerpc
p1201
aVpowerpc/config.powerpc-smp
p1202
ass(Vdescription
p1203
g1158
NVpowerpc64
p1204
tp1205
(dp1206
Vhardware
p1207
V64-bit PowerPC
p1208
ss(Vimage
p1209
g1158
NVpowerpc64
p1210
tp1211
(dp1212
Vconfigs
p1213
(lp1214
Vkernelarch-powerpc/config-arch-64
p1215
aVkernelarch-powerpc/config-arch-64-be
p1216
ass(g195
g1158
g164
tp1217
(dp1218
g198
(lp1219
Vpowerpc
p1220
aVpowerpc-smp
p1221
aVpowerpc64
p1222
asg202
I01
ss(Vbase
p1223
Vpowerpcspe
p1224
tp1225
(dp1226
Vkernel-arch
p1227
Vpowerpc
p1228
sg162
(lp1229
g164
ass(Vbuild
p1230
g1224
tp1231
(dp1232
Vimage-file
p1233
Vvmlinux
p1234
sVvdso
p1235
I01
ss(Vimage
p1236
g1224
tp1237
(dp1238
Vsuggests
p1239
(lp1240
Vmkvmlinuz
p1241
asVinstall-stem
p1242
Vvmlinux
p1243
ss(Vdescription
p1244
g1224
tp1245
(dp1246
Vhardware
p1247
V32-bit PowerPC with SPE (instead of AltiVec) with SMP support
p1248
ss(g195
g1224
g164
tp1249
(dp1250
g198
(lp1251
Vpowerpcspe
p1252
asg202
I01
ss(Vbase
p1253
Vppc64
p1254
tp1255
(dp1256
Vkernel-arch
p1257
Vpowerpc
p1258
sg162
(lp1259
g164
ass(Vbuild
p1260
g1254
tp1261
(dp1262
Vimage-file
p1263
Vvmlinux
p1264
sVvdso
p1265
I01
ss(Vimage
p1266
g1254
tp1267
(dp1268
Vconfigs
p1269
(lp1270
sVbootloaders
p1271
(lp1272
Vgrub-ieee1275
p1273
asVsuggests
p1274
(lp1275
Vmkvmlinuz
p1276
asVinstall-stem
p1277
Vvmlinux
p1278
ss(Vdescription
p1279
g1254
NVpowerpc64
p1280
tp1281
(dp1282
Vhardware
p1283
V64-bit PowerPC
p1284
ss(Vimage
p1285
g1254
NVpowerpc64
p1286
tp1287
(dp1288
Vconfigs
p1289
(lp1290
Vkernelarch-powerpc/config-arch-64
p1291
aVkernelarch-powerpc/config-arch-64-be
p1292
ass(g195
g1254
g164
tp1293
(dp1294
g198
(lp1295
Vpowerpc64
p1296
asg202
I01
ss(Vbase
p1297
Vppc64el
p1298
tp1299
(dp1300
Vkernel-arch
p1301
Vpowerpc
p1302
sg162
(lp1303
g164
ass(Vbuild
p1304
g1298
tp1305
(dp1306
Vimage-file
p1307
Vvmlinux
p1308
sVvdso
p1309
I01
ss(Vimage
p1310
g1298
tp1311
(dp1312
Vconfigs
p1313
(lp1314
sVbootloaders
p1315
(lp1316
Vgrub-ieee1275
p1317
asVsuggests
p1318
(lp1319
Vmkvmlinuz
p1320
asVinstall-stem
p1321
Vvmlinux
p1322
ss(Vdescription
p1323
g1298
NVpowerpc64le
p1324
tp1325
(dp1326
Vhardware
p1327
VLittle-endian 64-bit PowerPC
p1328
ss(Vimage
p1329
g1298
NVpowerpc64le
p1330
tp1331
(dp1332
Vconfigs
p1333
(lp1334
Vkernelarch-powerpc/config-arch-64
p1335
aVkernelarch-powerpc/config-arch-64-le
p1336
ass(g195
g1298
g164
tp1337
(dp1338
g198
(lp1339
Vpowerpc64le
p1340
asg202
I01
ss(Vbase
p1341
Vriscv64
p1342
tp1343
(dp1344
Vkernel-arch
p1345
Vriscv
p1346
sVfeaturesets
p1347
(lp1348
Vnone
p1349
ass(Vbuild
p1350
g1342
tp1351
(dp1352
Vimage-file
p1353
Vvmlinux
p1354
sVvdso
p1355
I01
ss(Vimage
p1356
g1342
tp1357
(dp1358
Vinstall-stem
p1359
Vvmlinux
p1360
ss(Vdescription
p1361
g1342
NVriscv64
p1362
tp1363
(dp1364
Vhardware
p1365
V64-bit RISC-V platforms
p1366
sVhardware-long
p1367
V64-bit RISC-V platforms
p1368
ss(Vbase
p1369
g1342
Vnone
p1370
tp1371
(dp1372
Vflavours
p1373
(lp1374
Vriscv64
p1375
ass(Vbase
p1376
Vs390
p1377
tp1378
(dp1379
Vkernel-arch
p1380
Vs390
p1381
sVfeaturesets
p1382
(lp1383
ss(Vbase
p1384
Vs390x
p1385
tp1386
(dp1387
Vkernel-arch
p1388
Vs390
p1389
sg162
(lp1390
g164
ass(Vbuild
p1391
g1385
tp1392
(dp1393
Vimage-file
p1394
Varch/s390/boot/bzImage
p1395
sVvdso
p1396
I01
ss(Vimage
p1397
g1385
tp1398
(dp1399
Vbootloaders
p1400
(lp1401
Vs390-tools
p1402
asVinstall-stem
p1403
Vvmlinuz
p1404
ss(Vrelations
p1405
g1385
tp1406
(dp1407
Vheaders%gcc-8
p1408
Vlinux-compiler-gcc-8-s390
p1409
ss(Vbuild
p1410
g1385
NVs390x
p1411
tp1412
(dp1413
Vdebug-info
p1414
I01
ss(Vdescription
p1415
g1385
NVs390x
p1416
tp1417
(dp1418
Vhardware
p1419
VIBM zSeries
p1420
ss(g195
g1385
g164
tp1421
(dp1422
g198
(lp1423
Vs390x
p1424
asg202
I01
ss(Vbase
p1425
Vsh3
p1426
tp1427
(dp1428
Vkernel-arch
p1429
Vsh
p1430
sVfeaturesets
p1431
(lp1432
ss(Vbase
p1433
Vsh4
p1434
tp1435
(dp1436
Vkernel-arch
p1437
Vsh
p1438
sg162
(lp1439
g164
ass(Vbuild
p1440
g1434
tp1441
(dp1442
Vimage-file
p1443
Varch/sh/boot/zImage
p1444
ss(Vimage
p1445
g1434
tp1446
(dp1447
Vinstall-stem
p1448
Vvmlinuz
p1449
ss(Vdescription
p1450
g1434
NVsh7751r
p1451
tp1452
(dp1453
Vhardware
p1454
Vsh7751r
p1455
sVhardware-long
p1456
VRenesas SH7751R R2D plus board
p1457
ss(Vdescription
p1458
g1434
NVsh7785lcr
p1459
tp1460
(dp1461
Vhardware
p1462
Vsh7785lcr
p1463
sVhardware-long
p1464
VRenesas SH7785 reference board
p1465
ss(Vimage
p1466
g1434
NVsh7785lcr
p1467
tp1468
(dp1469
Vrecommends
p1470
(lp1471
Vu-boot-tools
p1472
asVcheck-size
p1473
I4194304
ss(g195
g1434
g164
tp1474
(dp1475
g198
(lp1476
Vsh7751r
p1477
aVsh7785lcr
p1478
asg202
I01
ss(Vbase
p1479
Vsparc
p1480
tp1481
(dp1482
Vkernel-arch
p1483
Vsparc
p1484
sVfeaturesets
p1485
(lp1486
ss(Vbase
p1487
Vsparc64
p1488
tp1489
(dp1490
Vkernel-arch
p1491
Vsparc
p1492
sg162
(lp1493
g164
ass(Vbuild
p1494
g1488
tp1495
(dp1496
Vimage-file
p1497
Vvmlinux
p1498
ss(Vimage
p1499
g1488
tp1500
(dp1501
Vconfigs
p1502
(lp1503
sVbootloaders
p1504
(lp1505
Vgrub-ieee1275
p1506
asVsuggests
p1507
(lp1508
Vfdutils
p1509
asVinstall-stem
p1510
Vvmlinux
p1511
ss(Vdescription
p1512
g1488
NVsparc64
p1513
tp1514
(dp1515
Vhardware
p1516
Vuniprocessor 64-bit UltraSPARC
p1517
ss(Vimage
p1518
g1488
NVsparc64
p1519
tp1520
(dp1521
Vconfigs
p1522
(lp1523
Vkernelarch-sparc/config-up
p1524
ass(Vdescription
p1525
g1488
NVsparc64-smp
p1526
tp1527
(dp1528
Vhardware
p1529
Vmultiprocessor 64-bit UltraSPARC
p1530
ss(Vimage
p1531
g1488
NVsparc64-smp
p1532
tp1533
(dp1534
Vconfigs
p1535
(lp1536
Vkernelarch-sparc/config-smp
p1537
ass(g195
g1488
g164
tp1538
(dp1539
g198
(lp1540
Vsparc64
p1541
aVsparc64-smp
p1542
asg202
I01
ss(Vbase
p1543
Vx32
p1544
tp1545
(dp1546
Vkernel-arch
p1547
Vx86
p1548
sVfeaturesets
p1549
(lp1550
ss(Vabi
p1551
NVrt
p1552
tp1553
(dp1554
Vignore-changes
p1555
(lp1556
V*
p1557
ass(Vdescription
p1558
Ng1552
tp1559
(dp1560
Vpart-long-rt
p1561
VThis kernel includes the PREEMPT_RT realtime patch set.
p1562
sVpart-short-rt
p1563
VPREEMPT_RT
p1564
sVparts
p1565
(lp1566
Vrt
p1567
ass(Vversion
p1568
tp1569
(dp1570
Vsource
p1571
V4.19.37-3parrot5
p1572
sVupstream
p1573
V4.19.37
p1574
sVabiname_base
p1575
g1574
sVabiname
p1576
V4.19.37-3parrot5
p1577
ss.