cdebian_linux.config
ConfigCore
p0
(tRp1
(Vabi
p2
tp3
(dp4
Vabiname
p5
Vparrot13
p6
sVignore-changes
p7
(lp8
V__cpuhp_*
p9
aV__xive_vm_h_*
p10
aVbpf_analyzer
p11
aVcxl_*
p12
aVdax_flush
p13
aVinet_add_protocol
p14
aVinet_del_protocol
p15
aViommu_device_*
p16
aVkvm_async_pf_task_wait
p17
aVkvmppc_*
p18
aVmm_iommu_*
p19
aVmv_mbus_*
p20
aVperf_*
p21
aVregister_cxl_calls
p22
aVregister_key_type
p23
aVunregister_cxl_calls
p24
aV*_hw_breakpoint
p25
aVmodule:arch/x86/kvm/*
p26
aVmodule:drivers/crypto/ccp/*
p27
aVmodule:drivers/hv/*
p28
aVmodule:drivers/iio/common/hid-sensors/*
p29
aVmodule:drivers/iio/common/st_sensors/**
p30
aVmodule:drivers/mtd/nand/*
p31
aVmodule:drivers/net/wireless/**
p32
aVmodule:drivers/nvdimm/*
p33
aVmodule:drivers/power/supply/bq27xxx_battery
p34
aVmodule:drivers/scsi/cxgbi/*
p35
aVmodule:drivers/scsi/libiscs*
p36
aVmodule:drivers/scsi/qla2xxx/qla2xxx
p37
aVmodule:drivers/scsi/ufs/*
p38
aVmodule:drivers/target/**
p39
aVmodule:drivers/usb/chipidea/**
p40
aVmodule:drivers/usb/gadget/**
p41
aVmodule:drivers/usb/host/**
p42
aVmodule:drivers/usb/musb/**
p43
aVmodule:fs/nfs/**
p44
aVmodule:net/ceph/libceph
p45
aVmodule:net/l2tp/**
p46
aVmodule:sound/core/seq/**
p47
aVmodule:sound/firewire/snd-firewire-lib
p48
aVbtree_*
p49
aVvisitor*
p50
aVcan_rx_register
p51
aVip6_xmit
p52
aVmodule:net/dccp/dccp
p53
aVmodule:net/rds/rds
p54
aVdevfreq_*
p55
aVdevm_devfreq_*
p56
aVupdate_devfreq
p57
aVmodule:drivers/infiniband/**
p58
aVacpi_ec_add_query_handler
p59
aVacpi_ec_remove_query_handler
p60
aVfirst_ec
p61
aVdebugfs_create_automount
p62
aVmodule:drivers/iio/imu/inv_mpu6050/*
p63
ass(Vbase
p64
tp65
(dp66
Varches
p67
(lp68
Valpha
p69
aVamd64
p70
aVarm64
p71
aVarm64ilp32
p72
aVarmel
p73
aVarmhf
p74
aVhppa
p75
aVi386
p76
aVm68k
p77
aVmips
p78
aVmips64
p79
aVmips64el
p80
aVmips64r6
p81
aVmips64r6el
p82
aVmipsel
p83
aVmipsn32
p84
aVmipsn32el
p85
aVmipsn32r6
p86
aVmipsn32r6el
p87
aVmipsr6
p88
aVmipsr6el
p89
aVpowerpc
p90
aVpowerpcspe
p91
aVppc64
p92
aVppc64el
p93
aVs390
p94
aVs390x
p95
aVsh3
p96
aVsh4
p97
aVsparc
p98
aVsparc64
p99
aVtilegx
p100
aVx32
p101
asVcompiler
p102
Vgcc-6
p103
sVfeaturesets
p104
(lp105
Vnone
p106
aVrt
p107
ass(Vbuild
p108
tp109
(dp110
Vdebug-info
p111
I01
sVsigned-modules
p112
I00
ss(Vbase
p113
NVrt
p114
tp115
(dp116
Venabled
p117
I00
ss(Vdescription
p118
tp119
(dp120
Vpart-long-up
p121
VThis kernel is not suitable for SMP (multi-processor,\u000amulti-core or hyper-threaded) systems.
p122
sVpart-long-xen
p123
VThis kernel also runs on a Xen hypervisor.\u000aIt supports both privileged (dom0) and unprivileged (domU) operation.
p124
ss(Vimage
p125
tp126
(dp127
Vinitramfs-generators
p128
(lp129
Vinitramfs-tools
p130
aVinitramfs-fallback
p131
asVrecommends
p132
Vapparmor
p133
ss(Vrelations
p134
tp135
(dp136
Vgcc-6
p137
Vgcc-6 <!stage1 !cross>, gcc-6-@gnu-type-package@ <!stage1 cross>
p138
sVinitramfs-fallback
p139
Vlinux-initramfs-tool
p140
sVinitramfs-tools
p141
Vinitramfs-tools (>= 0.120+deb8u2)
p142
ss(Vbase
p143
Valpha
p144
tp145
(dp146
Vkernel-arch
p147
Valpha
p148
sVfeaturesets
p149
(lp150
Vnone
p151
ass(Vbuild
p152
g144
tp153
(dp154
Vimage-file
p155
Varch/alpha/boot/vmlinux.gz
p156
sVsigned-modules
p157
I00
ss(Vimage
p158
g144
tp159
(dp160
Vsuggests
p161
Vaboot, fdutils
p162
sVinstall-stem
p163
Vvmlinuz
p164
ss(Vdescription
p165
g144
NValpha-generic
p166
tp167
(dp168
Vhardware
p169
VAlpha
p170
sVhardware-long
p171
VDEC Alpha systems with extended kernel start address (Wildfire, Titan, Marvel)
p172
ss(Vdescription
p173
g144
NValpha-smp
p174
tp175
(dp176
Vhardware
p177
VAlpha SMP
p178
sVhardware-long
p179
VDEC Alpha SMP systems with extended kernel start address (Wildfire, Titan, Marvel)
p180
ss(Vbase
p181
g144
g151
tp182
(dp183
Vflavours
p184
(lp185
Valpha-generic
p186
aValpha-smp
p187
asVimplicit-flavour
p188
I01
ss(Vbase
p189
Vamd64
p190
tp191
(dp192
Vfeaturesets
p193
(lp194
Vnone
p195
aVrt
p196
asVkernel-arch
p197
Vx86
p198
ss(Vbuild
p199
g190
tp200
(dp201
Vdebug-info
p202
I01
sVimage-file
p203
Varch/x86/boot/bzImage
p204
sVvdso
p205
I01
sVsigned-modules
p206
I00
ss(Vimage
p207
g190
tp208
(dp209
Vbootloaders
p210
(lp211
Vgrub-pc
p212
aVgrub-efi-amd64
p213
aVextlinux
p214
asVinstall-stem
p215
Vvmlinuz
p216
sVbreaks
p217
Vxserver-xorg-input-vmmouse (<< 1:13.0.99)
p218
ss(Vrelations
p219
g190
tp220
(dp221
Vheaders%gcc-6
p222
Vlinux-compiler-gcc-6-x86
p223
ss(Vdescription
p224
g190
NVamd64
p225
tp226
(dp227
Vhardware
p228
V64-bit PCs
p229
sVhardware-long
p230
VPCs with AMD64, Intel 64 or VIA Nano processors
p231
ss(Vbase
p232
g190
Vnone
p233
tp234
(dp235
Vflavours
p236
(lp237
Vamd64
p238
ass(Vdescription
p239
g190
g233
Vamd64
p240
tp241
(dp242
Vparts
p243
(lp244
Vxen
p245
ass(Vbase
p246
g190
Vrt
p247
tp248
(dp249
Vflavours
p250
(lp251
Vamd64
p252
ass(Vbase
p253
Varm64
p254
tp255
(dp256
Vkernel-arch
p257
Varm64
p258
sVfeaturesets
p259
(lp260
Vnone
p261
ass(Vbuild
p262
g254
tp263
(dp264
Vdebug-info
p265
I01
sVimage-file
p266
Varch/arm64/boot/Image
p267
sVvdso
p268
I01
sVsigned-modules
p269
I00
ss(Vimage
p270
g254
tp271
(dp272
Vinstall-stem
p273
Vvmlinuz
p274
sVbreaks
p275
Vlibmozjs185-1.0, libmozjs-24-0 (<< 24.2.0-5.1~)
p276
ss(Vdescription
p277
g254
NVarm64
p278
tp279
(dp280
Vhardware
p281
V64-bit ARMv8 machines
p282
ss(Vimage
p283
g254
NVarm64
p284
tp285
(dp286
s(Vbase
p287
g254
Vnone
p288
tp289
(dp290
Vflavours
p291
(lp292
Varm64
p293
ass(Vbase
p294
Varm64ilp32
p295
tp296
(dp297
Vkernel-arch
p298
Varm64
p299
sVfeaturesets
p300
(lp301
ss(Vabi
p302
Varmel
p303
tp304
(dp305
Vignore-changes
p306
(lp307
Vselinux_is_enabled
p308
ass(Vbase
p309
g303
tp310
(dp311
Vkernel-arch
p312
Varm
p313
sg149
(lp314
g151
ass(Vbuild
p315
g303
tp316
(dp317
Vimage-file
p318
Varch/arm/boot/zImage
p319
sVsigned-modules
p320
I00
sVuncompressed-image-file
p321
Varch/arm/boot/Image
p322
ss(Vimage
p323
g303
tp324
(dp325
Vinstall-stem
p326
Vvmlinuz
p327
ss(Vrelations
p328
g303
tp329
(dp330
Vheaders%gcc-6
p331
Vlinux-compiler-gcc-6-arm
p332
ss(Vdescription
p333
g303
NVmarvell
p334
tp335
(dp336
Vhardware
p337
VMarvell Kirkwood/Orion
p338
sVhardware-long
p339
VMarvell Kirkwood based systems (SheevaPlug, QNAP TS-119/TS-219, etc)\u000aand Orion 5181, 5182 and 5281 based systems (QNAP TS-109/TS-209, etc)
p340
ss(Vimage
p341
g303
NVmarvell
p342
tp343
(dp344
Vrecommends
p345
Vu-boot-tools
p346
sVcheck-size
p347
L2097080L
sVcheck-size-with-dtb
p348
I01
sVcheck-uncompressed-size
p349
L7340032L
sVbreaks
p350
Vflash-kernel (<< 3.57~)
p351
ss(g181
g303
g151
tp352
(dp353
g184
(lp354
Vmarvell
p355
asg188
I01
ss(Vbase
p356
Varmhf
p357
tp358
(dp359
Vkernel-arch
p360
Varm
p361
sg149
(lp362
g151
ass(Vbuild
p363
g357
tp364
(dp365
Vimage-file
p366
Varch/arm/boot/zImage
p367
sVvdso
p368
I01
sVsigned-modules
p369
I00
ss(Vimage
p370
g357
tp371
(dp372
Vinstall-stem
p373
Vvmlinuz
p374
ss(Vrelations
p375
g357
tp376
(dp377
Vheaders%gcc-6
p378
Vlinux-compiler-gcc-6-arm
p379
ss(Vdescription
p380
g357
NVarmmp
p381
tp382
(dp383
Vhardware
p384
VARMv7 multiplatform compatible SoCs
p385
sVhardware-long
p386
VARMv7 multiplatform kernel. See\u000ahttps://wiki.debian.org/DebianKernel/ARMMP for details of supported\u000aplatforms
p387
ss(Vdescription
p388
g357
NVarmmp-lpae
p389
tp390
(dp391
Vhardware
p392
VARMv7 multiplatform compatible SoCs supporting LPAE
p393
sVhardware-long
p394
VARMv7 multiplatform kernel supporting LPAE. See\u000ahttps://wiki.debian.org/DebianKernel/ARMMP for details of supported\u000aplatforms.
p395
ss(g181
g357
g151
tp396
(dp397
g184
(lp398
Varmmp
p399
aVarmmp-lpae
p400
asg188
I01
ss(Vbase
p401
Vhppa
p402
tp403
(dp404
Vkernel-arch
p405
Vparisc
p406
sg149
(lp407
g151
ass(Vbuild
p408
g402
tp409
(dp410
Vimage-file
p411
Vvmlinux
p412
sVsigned-modules
p413
I00
ss(Vimage
p414
g402
tp415
(dp416
Vsuggests
p417
Vpalo
p418
sVinstall-stem
p419
Vvmlinux
p420
ss(Vdescription
p421
g402
NVparisc
p422
tp423
(dp424
Vhardware
p425
V32-bit PA-RISC
p426
sVhardware-long
p427
VHP PA-RISC 32-bit systems with max 4 GB RAM
p428
ss(Vbase
p429
g402
NVparisc64-smp
p430
tp431
(dp432
Vcflags
p433
V-fno-cse-follow-jumps
p434
sVoverride-host-type
p435
Vhppa64-linux-gnu
p436
ss(Vdescription
p437
g402
NVparisc64-smp
p438
tp439
(dp440
Vhardware
p441
Vmultiprocessor 64-bit PA-RISC
p442
sVhardware-long
p443
VHP PA-RISC 64-bit SMP systems with support for more than 4 GB RAM
p444
ss(Vrelations
p445
g402
tp446
(dp447
Vgcc-6
p448
Vgcc-6 <!stage1 !cross>, binutils-hppa64-linux-gnu <!stage1 !cross>, gcc-6-hppa64-linux-gnu <!stage1 !cross>, gcc-6-hppa-linux-gnu <!stage1 cross>, binutils-hppa64-linux-gnu <!stage1 cross>, gcc-6-hppa64-linux-gnu <!stage1 cross>
p449
ss(g181
g402
g151
tp450
(dp451
g184
(lp452
Vparisc
p453
aVparisc64-smp
p454
asg188
I01
ss(Vbase
p455
Vi386
p456
tp457
(dp458
Vfeaturesets
p459
(lp460
Vnone
p461
aVrt
p462
asVkernel-arch
p463
Vx86
p464
ss(Vbuild
p465
g456
tp466
(dp467
Vimage-file
p468
Varch/x86/boot/bzImage
p469
sVvdso
p470
I01
sVsigned-modules
p471
I00
ss(Vdescription
p472
g456
tp473
(dp474
Vpart-long-pae
p475
VThis kernel requires PAE (Physical Address Extension).\u000aThis feature is supported by the Intel Pentium Pro/II/III/4/4M/D, Xeon,\u000aCore and Atom; AMD Geode NX, Athlon (K7), Duron, Opteron, Sempron,\u000aTurion or Phenom; Transmeta Efficeon; VIA C7; and some other processors.
p476
ss(Vimage
p477
g456
tp478
(dp479
Vbootloaders
p480
(lp481
Vgrub-pc
p482
aVextlinux
p483
asVinstall-stem
p484
Vvmlinuz
p485
sVbreaks
p486
Vxserver-xorg-input-vmmouse (<< 1:13.0.99)
p487
ss(Vrelations
p488
g456
tp489
(dp490
Vheaders%gcc-6
p491
Vlinux-compiler-gcc-6-x86
p492
ss(Vdescription
p493
g456
NV686
p494
tp495
(dp496
Vhardware
p497
Volder PCs
p498
sVhardware-long
p499
VPCs with one or more processors not supporting PAE
p500
ss(Vbuild
p501
g456
NV686-pae
p502
tp503
(dp504
Vdebug-info
p505
I01
ss(Vdescription
p506
g456
NV686-pae
p507
tp508
(dp509
Vhardware
p510
Vmodern PCs
p511
sVhardware-long
p512
VPCs with one or more processors supporting PAE
p513
sVparts
p514
(lp515
Vpae
p516
ass(Vbase
p517
g456
Vnone
p518
tp519
(dp520
Vflavours
p521
(lp522
V686
p523
aV686-pae
p524
ass(Vdescription
p525
g456
g518
V686-pae
p526
tp527
(dp528
Vparts
p529
(lp530
Vxen
p531
ass(Vbase
p532
g456
Vrt
p533
tp534
(dp535
Vflavours
p536
(lp537
V686-pae
p538
ass(Vbase
p539
Vm68k
p540
tp541
(dp542
Vcflags
p543
V-ffreestanding
p544
sVkernel-arch
p545
Vm68k
p546
sg149
(lp547
g151
ass(Vbuild
p548
g540
tp549
(dp550
Vimage-file
p551
Vvmlinux.gz
p552
sVsigned-modules
p553
I00
ss(Vimage
p554
g540
tp555
(dp556
Vsuggests
p557
Vvmelilo, fdutils
p558
sVinstall-stem
p559
Vvmlinuz
p560
ss(Vdescription
p561
g540
NVm68k
p562
tp563
(dp564
Vhardware
p565
VMotorola MC68020+ family
p566
ss(g181
g540
g151
tp567
(dp568
g184
(lp569
Vm68k
p570
asg188
I01
ss(Vbase
p571
Vmips
p572
tp573
(dp574
Vkernel-arch
p575
Vmips
p576
sg149
(lp577
g151
ass(Vbuild
p578
g572
tp579
(dp580
Vimage-file
p581
Vvmlinux
p582
sVsigned-modules
p583
I00
ss(Vimage
p584
g572
tp585
(dp586
Vinstall-stem
p587
Vvmlinux
p588
ss(Vdescription
p589
g572
NV4kc-malta
p590
tp591
(dp592
Vhardware
p593
VMIPS Malta
p594
sVhardware-long
p595
VMIPS Malta boards
p596
ss(Vimage
p597
g572
NV4kc-malta
p598
tp599
(dp600
Vconfigs
p601
(lp602
Vkernelarch-mips/config.malta
p603
aVkernelarch-mips/config.mips32r2
p604
ass(Vdescription
p605
g572
NV5kc-malta
p606
tp607
(dp608
Vhardware
p609
VMIPS Malta (64-bit)
p610
sVhardware-long
p611
VMIPS Malta boards (64-bit)
p612
ss(Vimage
p613
g572
NV5kc-malta
p614
tp615
(dp616
Vconfigs
p617
(lp618
Vkernelarch-mips/config.malta
p619
aVkernelarch-mips/config.mips64r2
p620
ass(Vdescription
p621
g572
NVocteon
p622
tp623
(dp624
Vhardware
p625
VOcteon
p626
sVhardware-long
p627
VCavium Networks Octeon
p628
ss(Vimage
p629
g572
NVocteon
p630
tp631
(dp632
Vconfigs
p633
(lp634
Vkernelarch-mips/config.octeon
p635
ass(g181
g572
g151
tp636
(dp637
g184
(lp638
V4kc-malta
p639
aV5kc-malta
p640
aVocteon
p641
asg188
I01
ss(Vbase
p642
Vmips64
p643
tp644
(dp645
Vkernel-arch
p646
Vmips
p647
sg149
(lp648
g151
ass(Vbuild
p649
g643
tp650
(dp651
Vimage-file
p652
Vvmlinux
p653
sVsigned-modules
p654
I00
ss(Vimage
p655
g643
tp656
(dp657
Vinstall-stem
p658
Vvmlinux
p659
ss(Vdescription
p660
g643
NV5kc-malta
p661
tp662
(dp663
Vhardware
p664
VMIPS Malta
p665
sVhardware-long
p666
VMIPS Malta boards
p667
ss(Vimage
p668
g643
NV5kc-malta
p669
tp670
(dp671
Vconfigs
p672
(lp673
Vkernelarch-mips/config.malta
p674
aVkernelarch-mips/config.mips64r2
p675
ass(Vdescription
p676
g643
NVocteon
p677
tp678
(dp679
Vhardware
p680
VOcteon
p681
sVhardware-long
p682
VCavium Networks Octeon
p683
ss(Vimage
p684
g643
NVocteon
p685
tp686
(dp687
Vconfigs
p688
(lp689
Vkernelarch-mips/config.octeon
p690
ass(g181
g643
g151
tp691
(dp692
g184
(lp693
V5kc-malta
p694
aVocteon
p695
asg188
I01
ss(Vbase
p696
Vmips64el
p697
tp698
(dp699
Vkernel-arch
p700
Vmips
p701
sg149
(lp702
g151
ass(Vbuild
p703
g697
tp704
(dp705
Vimage-file
p706
Vvmlinux
p707
sVsigned-modules
p708
I00
ss(Vimage
p709
g697
tp710
(dp711
Vinstall-stem
p712
Vvmlinux
p713
ss(Vdescription
p714
g697
NV5kc-malta
p715
tp716
(dp717
Vhardware
p718
VMIPS Malta
p719
sVhardware-long
p720
VMIPS Malta boards
p721
ss(Vimage
p722
g697
NV5kc-malta
p723
tp724
(dp725
Vconfigs
p726
(lp727
Vkernelarch-mips/config.malta
p728
aVkernelarch-mips/config.mips64r2
p729
ass(Vdescription
p730
g697
NVloongson-3
p731
tp732
(dp733
Vhardware
p734
VLoongson 3A/3B
p735
sVhardware-long
p736
VLoongson 3A or 3B based systems (e.g. from Loongson or Lemote)
p737
ss(Vimage
p738
g697
NVloongson-3
p739
tp740
(dp741
Vconfigs
p742
(lp743
Vkernelarch-mips/config.loongson-3
p744
ass(Vdescription
p745
g697
NVocteon
p746
tp747
(dp748
Vhardware
p749
VOcteon
p750
sVhardware-long
p751
VCavium Networks Octeon
p752
ss(Vimage
p753
g697
NVocteon
p754
tp755
(dp756
Vconfigs
p757
(lp758
Vkernelarch-mips/config.octeon
p759
ass(g181
g697
g151
tp760
(dp761
g184
(lp762
V5kc-malta
p763
aVloongson-3
p764
aVocteon
p765
asg188
I01
ss(Vbase
p766
Vmips64r6
p767
tp768
(dp769
Vkernel-arch
p770
Vmips
p771
sg149
(lp772
g151
ass(Vbuild
p773
g767
tp774
(dp775
Vimage-file
p776
Vvmlinux
p777
sVsigned-modules
p778
I00
ss(Vimage
p779
g767
tp780
(dp781
Vinstall-stem
p782
Vvmlinux
p783
ss(Vdescription
p784
g767
NVmips64r6
p785
tp786
(dp787
Vhardware
p788
VMIPS R6 (64 bit, big endian)
p789
sVhardware-long
p790
VMIPS R6 (64 bit, big endian)
p791
ss(Vimage
p792
g767
NVmips64r6
p793
tp794
(dp795
Vconfigs
p796
(lp797
Vkernelarch-mips/config.malta
p798
aVkernelarch-mips/config.mips64r6
p799
ass(g181
g767
g151
tp800
(dp801
g184
(lp802
Vmips64r6
p803
asg188
I01
ss(Vbase
p804
Vmips64r6el
p805
tp806
(dp807
Vkernel-arch
p808
Vmips
p809
sg149
(lp810
g151
ass(Vbuild
p811
g805
tp812
(dp813
Vimage-file
p814
Vvmlinux
p815
sVsigned-modules
p816
I00
ss(Vimage
p817
g805
tp818
(dp819
Vinstall-stem
p820
Vvmlinux
p821
ss(Vdescription
p822
g805
NVmips64r6el
p823
tp824
(dp825
Vhardware
p826
VMIPS R6 (64 bit, little endian)
p827
sVhardware-long
p828
VMIPS R6 (64 bit, little endian)
p829
ss(Vimage
p830
g805
NVmips64r6el
p831
tp832
(dp833
Vconfigs
p834
(lp835
Vkernelarch-mips/config.malta
p836
aVkernelarch-mips/config.mips64r6
p837
ass(g181
g805
g151
tp838
(dp839
g184
(lp840
Vmips64r6el
p841
asg188
I01
ss(Vbase
p842
Vmipsel
p843
tp844
(dp845
Vkernel-arch
p846
Vmips
p847
sg149
(lp848
g151
ass(Vbuild
p849
g843
tp850
(dp851
Vimage-file
p852
Vvmlinux
p853
sVsigned-modules
p854
I00
ss(Vimage
p855
g843
tp856
(dp857
Vinstall-stem
p858
Vvmlinux
p859
ss(Vdescription
p860
g843
NV4kc-malta
p861
tp862
(dp863
Vhardware
p864
VMIPS Malta
p865
sVhardware-long
p866
VMIPS Malta boards
p867
ss(Vimage
p868
g843
NV4kc-malta
p869
tp870
(dp871
Vconfigs
p872
(lp873
Vkernelarch-mips/config.malta
p874
aVkernelarch-mips/config.mips32r2
p875
ass(Vdescription
p876
g843
NV5kc-malta
p877
tp878
(dp879
Vhardware
p880
VMIPS Malta (64-bit)
p881
sVhardware-long
p882
VMIPS Malta boards (64-bit)
p883
ss(Vimage
p884
g843
NV5kc-malta
p885
tp886
(dp887
Vconfigs
p888
(lp889
Vkernelarch-mips/config.malta
p890
aVkernelarch-mips/config.mips64r2
p891
ass(Vdescription
p892
g843
NVloongson-3
p893
tp894
(dp895
Vhardware
p896
VLoongson 3A/3B
p897
sVhardware-long
p898
VLoongson 3A or 3B based systems (e.g. from Loongson or Lemote)
p899
ss(Vimage
p900
g843
NVloongson-3
p901
tp902
(dp903
Vconfigs
p904
(lp905
Vkernelarch-mips/config.loongson-3
p906
ass(Vdescription
p907
g843
NVocteon
p908
tp909
(dp910
Vhardware
p911
VOcteon
p912
sVhardware-long
p913
VCavium Networks Octeon
p914
ss(Vimage
p915
g843
NVocteon
p916
tp917
(dp918
Vconfigs
p919
(lp920
Vkernelarch-mips/config.octeon
p921
ass(g181
g843
g151
tp922
(dp923
g184
(lp924
V4kc-malta
p925
aV5kc-malta
p926
aVloongson-3
p927
aVocteon
p928
asg188
I01
ss(Vbase
p929
Vmipsn32
p930
tp931
(dp932
Vkernel-arch
p933
Vmips
p934
sVfeaturesets
p935
(lp936
ss(Vbase
p937
Vmipsn32el
p938
tp939
(dp940
Vkernel-arch
p941
Vmips
p942
sVfeaturesets
p943
(lp944
ss(Vbase
p945
Vmipsn32r6
p946
tp947
(dp948
Vkernel-arch
p949
Vmips
p950
sVfeaturesets
p951
(lp952
ss(Vbase
p953
Vmipsn32r6el
p954
tp955
(dp956
Vkernel-arch
p957
Vmips
p958
sVfeaturesets
p959
(lp960
ss(Vbase
p961
Vmipsr6
p962
tp963
(dp964
Vkernel-arch
p965
Vmips
p966
sg149
(lp967
g151
ass(Vbuild
p968
g962
tp969
(dp970
Vimage-file
p971
Vvmlinux
p972
sVsigned-modules
p973
I00
ss(Vimage
p974
g962
tp975
(dp976
Vinstall-stem
p977
Vvmlinux
p978
ss(Vdescription
p979
g962
NVmips32r6
p980
tp981
(dp982
Vhardware
p983
VMIPS R6 (32 bit, big endian)
p984
sVhardware-long
p985
VMIPS R6 (32 bit, big endian)
p986
ss(Vimage
p987
g962
NVmips32r6
p988
tp989
(dp990
Vconfigs
p991
(lp992
Vkernelarch-mips/config.malta
p993
aVkernelarch-mips/config.mips32r6
p994
ass(Vdescription
p995
g962
NVmips64r6
p996
tp997
(dp998
Vhardware
p999
VMIPS R6 (64 bit, big endian)
p1000
sVhardware-long
p1001
VMIPS R6 (64 bit, big endian)
p1002
ss(Vimage
p1003
g962
NVmips64r6
p1004
tp1005
(dp1006
Vconfigs
p1007
(lp1008
Vkernelarch-mips/config.malta
p1009
aVkernelarch-mips/config.mips64r6
p1010
ass(g181
g962
g151
tp1011
(dp1012
g184
(lp1013
Vmips32r6
p1014
aVmips64r6
p1015
asg188
I01
ss(Vbase
p1016
Vmipsr6el
p1017
tp1018
(dp1019
Vkernel-arch
p1020
Vmips
p1021
sg149
(lp1022
g151
ass(Vbuild
p1023
g1017
tp1024
(dp1025
Vimage-file
p1026
Vvmlinux
p1027
sVsigned-modules
p1028
I00
ss(Vimage
p1029
g1017
tp1030
(dp1031
Vinstall-stem
p1032
Vvmlinux
p1033
ss(Vdescription
p1034
g1017
NVmips32r6el
p1035
tp1036
(dp1037
Vhardware
p1038
VMIPS R6 (32 bit, little endian)
p1039
sVhardware-long
p1040
VMIPS R6 (32 bit, little endian)
p1041
ss(Vimage
p1042
g1017
NVmips32r6el
p1043
tp1044
(dp1045
Vconfigs
p1046
(lp1047
Vkernelarch-mips/config.malta
p1048
aVkernelarch-mips/config.mips32r6
p1049
ass(Vdescription
p1050
g1017
NVmips64r6el
p1051
tp1052
(dp1053
Vhardware
p1054
VMIPS R6 (64 bit, little endian)
p1055
sVhardware-long
p1056
VMIPS R6 (64 bit, little endian)
p1057
ss(Vimage
p1058
g1017
NVmips64r6el
p1059
tp1060
(dp1061
Vconfigs
p1062
(lp1063
Vkernelarch-mips/config.malta
p1064
aVkernelarch-mips/config.mips64r6
p1065
ass(g181
g1017
g151
tp1066
(dp1067
g184
(lp1068
Vmips32r6el
p1069
aVmips64r6el
p1070
asg188
I01
ss(Vbase
p1071
Vpowerpc
p1072
tp1073
(dp1074
Vkernel-arch
p1075
Vpowerpc
p1076
sg149
(lp1077
g151
ass(Vbuild
p1078
g1072
tp1079
(dp1080
Vimage-file
p1081
Vvmlinux
p1082
sVvdso
p1083
I01
ss(Vimage
p1084
g1072
tp1085
(dp1086
Vconfigs
p1087
(lp1088
sVsuggests
p1089
Vmkvmlinuz
p1090
sVinstall-stem
p1091
Vvmlinux
p1092
ss(Vdescription
p1093
g1072
NVpowerpc
p1094
tp1095
(dp1096
Vhardware
p1097
Vuniprocessor 32-bit PowerPC
p1098
ss(Vdescription
p1099
g1072
NVpowerpc-smp
p1100
tp1101
(dp1102
Vhardware
p1103
Vmultiprocessor 32-bit PowerPC
p1104
ss(Vimage
p1105
g1072
NVpowerpc-smp
p1106
tp1107
(dp1108
Vconfigs
p1109
(lp1110
Vpowerpc/config.powerpc
p1111
aVpowerpc/config.powerpc-smp
p1112
ass(Vdescription
p1113
g1072
NVpowerpc64
p1114
tp1115
(dp1116
Vhardware
p1117
V64-bit PowerPC
p1118
ss(Vimage
p1119
g1072
NVpowerpc64
p1120
tp1121
(dp1122
Vconfigs
p1123
(lp1124
Vkernelarch-powerpc/config-arch-64
p1125
aVkernelarch-powerpc/config-arch-64-be
p1126
ass(g181
g1072
g151
tp1127
(dp1128
g184
(lp1129
Vpowerpc
p1130
aVpowerpc-smp
p1131
aVpowerpc64
p1132
asg188
I01
ss(Vbase
p1133
Vpowerpcspe
p1134
tp1135
(dp1136
Vkernel-arch
p1137
Vpowerpc
p1138
sg149
(lp1139
g151
ass(Vbuild
p1140
g1134
tp1141
(dp1142
Vimage-file
p1143
Vvmlinux
p1144
sVsigned-modules
p1145
I00
sVvdso
p1146
I01
ss(Vimage
p1147
g1134
tp1148
(dp1149
Vsuggests
p1150
Vmkvmlinuz
p1151
sVinstall-stem
p1152
Vvmlinux
p1153
ss(Vdescription
p1154
g1134
tp1155
(dp1156
Vhardware
p1157
V32-bit PowerPC with SPE (instead of AltiVec) with SMP support
p1158
ss(g181
g1134
g151
tp1159
(dp1160
g184
(lp1161
Vpowerpcspe
p1162
asg188
I01
ss(Vbase
p1163
Vppc64
p1164
tp1165
(dp1166
Vkernel-arch
p1167
Vpowerpc
p1168
sg149
(lp1169
g151
ass(Vbuild
p1170
g1164
tp1171
(dp1172
Vimage-file
p1173
Vvmlinux
p1174
sVsigned-modules
p1175
I00
sVvdso
p1176
I01
ss(Vimage
p1177
g1164
tp1178
(dp1179
Vconfigs
p1180
(lp1181
sVsuggests
p1182
Vmkvmlinuz
p1183
sVinstall-stem
p1184
Vvmlinux
p1185
ss(Vdescription
p1186
g1164
NVpowerpc64
p1187
tp1188
(dp1189
Vhardware
p1190
V64-bit PowerPC
p1191
ss(Vimage
p1192
g1164
NVpowerpc64
p1193
tp1194
(dp1195
Vconfigs
p1196
(lp1197
Vkernelarch-powerpc/config-arch-64
p1198
aVkernelarch-powerpc/config-arch-64-be
p1199
ass(g181
g1164
g151
tp1200
(dp1201
g184
(lp1202
Vpowerpc64
p1203
asg188
I01
ss(Vbase
p1204
Vppc64el
p1205
tp1206
(dp1207
Vkernel-arch
p1208
Vpowerpc
p1209
sg149
(lp1210
g151
ass(Vbuild
p1211
g1205
tp1212
(dp1213
Vimage-file
p1214
Vvmlinux
p1215
sVvdso
p1216
I01
ss(Vimage
p1217
g1205
tp1218
(dp1219
Vconfigs
p1220
(lp1221
sVsuggests
p1222
Vmkvmlinuz
p1223
sVinstall-stem
p1224
Vvmlinux
p1225
ss(Vdescription
p1226
g1205
NVpowerpc64le
p1227
tp1228
(dp1229
Vhardware
p1230
VLittle-endian 64-bit PowerPC
p1231
ss(Vimage
p1232
g1205
NVpowerpc64le
p1233
tp1234
(dp1235
Vconfigs
p1236
(lp1237
Vkernelarch-powerpc/config-arch-64
p1238
aVkernelarch-powerpc/config-arch-64-le
p1239
ass(g181
g1205
g151
tp1240
(dp1241
g184
(lp1242
Vpowerpc64le
p1243
asg188
I01
ss(Vbase
p1244
Vs390
p1245
tp1246
(dp1247
Vkernel-arch
p1248
Vs390
p1249
sVfeaturesets
p1250
(lp1251
ss(Vbase
p1252
Vs390x
p1253
tp1254
(dp1255
Vkernel-arch
p1256
Vs390
p1257
sg149
(lp1258
g151
ass(Vbuild
p1259
g1253
tp1260
(dp1261
Vimage-file
p1262
Varch/s390/boot/image
p1263
sVvdso
p1264
I01
ss(Vimage
p1265
g1253
tp1266
(dp1267
Vbootloaders
p1268
(lp1269
Vs390-tools
p1270
asVinstall-stem
p1271
Vvmlinuz
p1272
ss(Vrelations
p1273
g1253
tp1274
(dp1275
Vheaders%gcc-6
p1276
Vlinux-compiler-gcc-6-s390
p1277
ss(Vbuild
p1278
g1253
NVs390x
p1279
tp1280
(dp1281
Vdebug-info
p1282
I01
ss(Vdescription
p1283
g1253
NVs390x
p1284
tp1285
(dp1286
Vhardware
p1287
VIBM zSeries
p1288
ss(g181
g1253
g151
tp1289
(dp1290
g184
(lp1291
Vs390x
p1292
asg188
I01
ss(Vbase
p1293
Vsh3
p1294
tp1295
(dp1296
Vkernel-arch
p1297
Vsh
p1298
sVfeaturesets
p1299
(lp1300
ss(Vbase
p1301
Vsh4
p1302
tp1303
(dp1304
Vkernel-arch
p1305
Vsh
p1306
sg149
(lp1307
g151
ass(Vbuild
p1308
g1302
tp1309
(dp1310
Vimage-file
p1311
Varch/sh/boot/zImage
p1312
sVsigned-modules
p1313
I00
ss(Vimage
p1314
g1302
tp1315
(dp1316
Vinstall-stem
p1317
Vvmlinuz
p1318
ss(Vdescription
p1319
g1302
NVsh7751r
p1320
tp1321
(dp1322
Vhardware
p1323
Vsh7751r
p1324
sVhardware-long
p1325
VRenesas SH7751R R2D plus board
p1326
ss(Vdescription
p1327
g1302
NVsh7785lcr
p1328
tp1329
(dp1330
Vhardware
p1331
Vsh7785lcr
p1332
sVhardware-long
p1333
VRenesas SH7785 reference board
p1334
ss(Vimage
p1335
g1302
NVsh7785lcr
p1336
tp1337
(dp1338
Vrecommends
p1339
Vu-boot-tools
p1340
sVcheck-size
p1341
L4194304L
ss(g181
g1302
g151
tp1342
(dp1343
g184
(lp1344
Vsh7751r
p1345
aVsh7785lcr
p1346
asg188
I01
ss(Vbase
p1347
Vsparc
p1348
tp1349
(dp1350
Vkernel-arch
p1351
Vsparc
p1352
sVfeaturesets
p1353
(lp1354
ss(Vbase
p1355
Vsparc64
p1356
tp1357
(dp1358
Vkernel-arch
p1359
Vsparc
p1360
sg149
(lp1361
g151
ass(Vbuild
p1362
g1356
tp1363
(dp1364
Vimage-file
p1365
Varch/sparc/boot/zImage
p1366
sVsigned-modules
p1367
I00
ss(Vimage
p1368
g1356
tp1369
(dp1370
Vconfigs
p1371
(lp1372
sVsuggests
p1373
Vsilo, fdutils
p1374
sVinstall-stem
p1375
Vvmlinuz
p1376
ss(Vdescription
p1377
g1356
NVsparc64
p1378
tp1379
(dp1380
Vhardware
p1381
Vuniprocessor 64-bit UltraSPARC
p1382
ss(Vimage
p1383
g1356
NVsparc64
p1384
tp1385
(dp1386
Vconfigs
p1387
(lp1388
Vkernelarch-sparc/config-up
p1389
ass(Vdescription
p1390
g1356
NVsparc64-smp
p1391
tp1392
(dp1393
Vhardware
p1394
Vmultiprocessor 64-bit UltraSPARC
p1395
ss(Vimage
p1396
g1356
NVsparc64-smp
p1397
tp1398
(dp1399
Vconfigs
p1400
(lp1401
Vkernelarch-sparc/config-smp
p1402
ass(g181
g1356
g151
tp1403
(dp1404
g184
(lp1405
Vsparc64
p1406
aVsparc64-smp
p1407
asg188
I01
ss(Vbase
p1408
Vtilegx
p1409
tp1410
(dp1411
Vkernel-arch
p1412
Vtile
p1413
sVfeaturesets
p1414
(lp1415
ss(Vbase
p1416
Vx32
p1417
tp1418
(dp1419
Vkernel-arch
p1420
Vx86
p1421
sVfeaturesets
p1422
(lp1423
ss(Vabi
p1424
NVrt
p1425
tp1426
(dp1427
Vignore-changes
p1428
(lp1429
V*
p1430
ass(Vdescription
p1431
Ng1425
tp1432
(dp1433
Vpart-long-rt
p1434
VThis kernel includes the PREEMPT_RT realtime patch set.
p1435
sVpart-short-rt
p1436
VPREEMPT_RT
p1437
sVparts
p1438
(lp1439
Vrt
p1440
ass(Vversion
p1441
tp1442
(dp1443
Vsource
p1444
V4.13.13-1parrot13
p1445
sVupstream
p1446
V4.13
p1447
sVabiname_base
p1448
V4.13.0
p1449
sVabiname
p1450
V4.13.0-parrot13
p1451
ss.