cdebian_linux.config
ConfigCore
p0
(tRp1
(Vbase
p2
tp3
(dp4
Varches
p5
(lp6
Valpha
p7
aVamd64
p8
aVarm64
p9
aVarmel
p10
aVarmhf
p11
aVhppa
p12
aVi386
p13
aVm68k
p14
aVmips
p15
aVmipsel
p16
aVmipsn32
p17
aVmipsn32el
p18
aVmips64
p19
aVmips64el
p20
aVpowerpc
p21
aVpowerpcspe
p22
aVppc64
p23
aVppc64el
p24
aVs390
p25
aVs390x
p26
aVsh3
p27
aVsh4
p28
aVsparc
p29
aVsparc64
p30
aVtilegx
p31
aVx32
p32
asVfeaturesets
p33
(lp34
Vnone
p35
aVrt
p36
asVcompiler
p37
Vgcc-6
p38
ss(Vbuild
p39
tp40
(dp41
Vsigned-modules
p42
I01
sVdebug-info
p43
I01
ss(Vbase
p44
NVrt
p45
tp46
(dp47
Venabled
p48
I01
ss(Vdescription
p49
tp50
(dp51
Vpart-long-up
p52
VThis kernel is not suitable for SMP (multi-processor,\u000amulti-core or hyper-threaded) systems.
p53
sVpart-long-xen
p54
VThis kernel also runs on a Xen hypervisor.\u000aIt supports both privileged (dom0) and unprivileged (domU) operation.
p55
ss(Vrelations
p56
tp57
(dp58
Vinitramfs-tools
p59
Vinitramfs-tools (>= 0.120+deb8u2)
p60
sVgcc-6
p61
Vgcc-6 <!stage1 !cross>, gcc-6-@gnu-type-package@:native <!stage1 cross>
p62
sVinitramfs-fallback
p63
Vlinux-initramfs-tool
p64
ss(Vimage
p65
tp66
(dp67
Vinitramfs-generators
p68
(lp69
Vinitramfs-tools
p70
aVinitramfs-fallback
p71
ass(Vabi
p72
tp73
(dp74
Vabiname
p75
V2
p76
sVignore-changes
p77
(lp78
V__cpuhp_*
p79
aVmodule:drivers/iio/common/st_sensors/**
p80
aVmodule:drivers/net/wireless/**
p81
aVmodule:drivers/power/supply/bq27xxx_battery
p82
aVmodule:drivers/usb/host/**
p83
aVmodule:drivers/usb/musb/**
p84
aVmodule:net/ceph/libceph
p85
aVbtree_*
p86
aVvisitor*
p87
aVcan_rx_register
p88
aVip6_xmit
p89
ass(Vbase
p90
Valpha
p91
tp92
(dp93
Vfeaturesets
p94
(lp95
Vnone
p96
asVkernel-arch
p97
Valpha
p98
ss(Vdescription
p99
g91
NValpha-smp
p100
tp101
(dp102
Vhardware
p103
VAlpha SMP
p104
sVhardware-long
p105
VDEC Alpha SMP systems with extended kernel start address (Wildfire, Titan, Marvel)
p106
ss(Vbuild
p107
g91
tp108
(dp109
Vsigned-modules
p110
I00
sVimage-file
p111
Varch/alpha/boot/vmlinux.gz
p112
ss(Vdescription
p113
g91
NValpha-generic
p114
tp115
(dp116
Vhardware
p117
VAlpha
p118
sVhardware-long
p119
VDEC Alpha systems with extended kernel start address (Wildfire, Titan, Marvel)
p120
ss(Vimage
p121
g91
tp122
(dp123
Vsuggests
p124
Vaboot, fdutils
p125
sVinstall-stem
p126
Vvmlinuz
p127
ss(Vbase
p128
g91
g96
tp129
(dp130
Vflavours
p131
(lp132
Valpha-generic
p133
aValpha-smp
p134
asVimplicit-flavour
p135
I01
ss(Vbase
p136
Vamd64
p137
tp138
(dp139
Vfeaturesets
p140
(lp141
Vnone
p142
aVrt
p143
asVkernel-arch
p144
Vx86
p145
ss(Vdescription
p146
g137
NVamd64
p147
tp148
(dp149
Vhardware
p150
V64-bit PCs
p151
sVhardware-long
p152
VPCs with AMD64, Intel 64 or VIA Nano processors
p153
ss(Vbuild
p154
g137
tp155
(dp156
Vvdso
p157
I01
sVimage-file
p158
Varch/x86/boot/bzImage
p159
sVdebug-info
p160
I01
ss(Vrelations
p161
g137
tp162
(dp163
Vheaders%gcc-6
p164
Vlinux-compiler-gcc-6-x86
p165
ss(Vimage
p166
g137
tp167
(dp168
Vbreaks
p169
Vxserver-xorg-input-vmmouse (<< 1:13.0.99)
p170
sVinstall-stem
p171
Vvmlinuz
p172
sVbootloaders
p173
(lp174
Vgrub-pc
p175
aVgrub-efi-amd64
p176
aVextlinux
p177
ass(Vbase
p178
g137
Vnone
p179
tp180
(dp181
Vflavours
p182
(lp183
Vamd64
p184
ass(Vdescription
p185
g137
g179
Vamd64
p186
tp187
(dp188
Vparts
p189
(lp190
Vxen
p191
ass(Vbase
p192
g137
Vrt
p193
tp194
(dp195
Vflavours
p196
(lp197
Vamd64
p198
ass(Vbase
p199
Varm64
p200
tp201
(dp202
Vfeaturesets
p203
(lp204
Vnone
p205
asVkernel-arch
p206
Varm64
p207
ss(Vdescription
p208
g200
NVarm64
p209
tp210
(dp211
Vhardware
p212
V64-bit ARMv8 machines
p213
ss(Vbuild
p214
g200
tp215
(dp216
Vvdso
p217
I01
sVimage-file
p218
Varch/arm64/boot/Image
p219
sVdebug-info
p220
I01
ss(Vimage
p221
g200
NVarm64
p222
tp223
(dp224
s(Vimage
p225
g200
tp226
(dp227
Vbreaks
p228
Vlibmozjs185-1.0, libmozjs-24-0 (<< 24.2.0-5.1~)
p229
sVinstall-stem
p230
Vvmlinuz
p231
ss(Vbase
p232
g200
Vnone
p233
tp234
(dp235
Vflavours
p236
(lp237
Varm64
p238
ass(Vbase
p239
Varmel
p240
tp241
(dp242
g94
(lp243
g96
asVkernel-arch
p244
Varm
p245
ss(Vbuild
p246
g240
tp247
(dp248
Vsigned-modules
p249
I00
sVimage-file
p250
Varch/arm/boot/zImage
p251
ss(Vimage
p252
g240
NVmarvell
p253
tp254
(dp255
Vrecommends
p256
Vu-boot-tools
p257
sVbreaks
p258
Vflash-kernel (<< 3.57~)
p259
sVcheck-size-with-dtb
p260
I01
sVcheck-size
p261
L2097080L
ss(Vdescription
p262
g240
NVmarvell
p263
tp264
(dp265
Vhardware
p266
VMarvell Kirkwood/Orion
p267
sVhardware-long
p268
VMarvell Kirkwood based systems (SheevaPlug, QNAP TS-119/TS-219, etc)\u000aand Orion 5181, 5182 and 5281 based systems (QNAP TS-109/TS-209, etc)
p269
ss(Vrelations
p270
g240
tp271
(dp272
Vheaders%gcc-6
p273
Vlinux-compiler-gcc-6-arm
p274
ss(Vimage
p275
g240
tp276
(dp277
Vinstall-stem
p278
Vvmlinuz
p279
ss(g128
g240
g96
tp280
(dp281
g131
(lp282
Vmarvell
p283
asg135
I01
ss(Vbase
p284
Varmhf
p285
tp286
(dp287
g94
(lp288
g96
asVkernel-arch
p289
Varm
p290
ss(Vdescription
p291
g285
NVarmmp
p292
tp293
(dp294
Vhardware
p295
VARMv7 multiplatform compatible SoCs
p296
sVhardware-long
p297
VARMv7 multiplatform kernel. See\u000ahttps://wiki.debian.org/DebianKernel/ARMMP for details of supported\u000aplatforms
p298
ss(Vbuild
p299
g285
tp300
(dp301
Vvdso
p302
I01
sVimage-file
p303
Varch/arm/boot/zImage
p304
ss(Vdescription
p305
g285
NVarmmp-lpae
p306
tp307
(dp308
Vhardware
p309
VARMv7 multiplatform compatible SoCs supporting LPAE
p310
sVhardware-long
p311
VARMv7 multiplatform kernel supporting LPAE. See\u000ahttps://wiki.debian.org/DebianKernel/ARMMP for details of supported\u000aplatforms.
p312
ss(Vrelations
p313
g285
tp314
(dp315
Vheaders%gcc-6
p316
Vlinux-compiler-gcc-6-arm
p317
ss(Vimage
p318
g285
tp319
(dp320
Vinstall-stem
p321
Vvmlinuz
p322
ss(g128
g285
g96
tp323
(dp324
g131
(lp325
Varmmp
p326
aVarmmp-lpae
p327
asg135
I01
ss(Vbase
p328
Vhppa
p329
tp330
(dp331
g94
(lp332
g96
asVkernel-arch
p333
Vparisc
p334
ss(Vbuild
p335
g329
tp336
(dp337
Vsigned-modules
p338
I00
sVimage-file
p339
Vvmlinux
p340
ss(Vdescription
p341
g329
NVparisc64-smp
p342
tp343
(dp344
Vhardware
p345
Vmultiprocessor 64-bit PA-RISC
p346
sVhardware-long
p347
VHP PA-RISC 64-bit SMP systems with support for more than 4 GB RAM
p348
ss(Vbase
p349
g329
NVparisc64-smp
p350
tp351
(dp352
Vcflags
p353
V-fno-cse-follow-jumps
p354
sVoverride-host-type
p355
Vhppa64-linux-gnu
p356
ss(Vrelations
p357
g329
tp358
(dp359
Vgcc-6
p360
Vgcc-6 <!stage1 !cross>, binutils-hppa64-linux-gnu <!stage1 !cross>, gcc-6-hppa64-linux-gnu <!stage1 !cross>, gcc-6-hppa-linux-gnu:native <!stage1 cross>, binutils-hppa64-linux-gnu:native <!stage1 cross>, gcc-6-hppa64-linux-gnu:native <!stage1 cross>
p361
ss(Vdescription
p362
g329
NVparisc
p363
tp364
(dp365
Vhardware
p366
V32-bit PA-RISC
p367
sVhardware-long
p368
VHP PA-RISC 32-bit systems with max 4 GB RAM
p369
ss(Vimage
p370
g329
tp371
(dp372
Vsuggests
p373
Vpalo
p374
sVinstall-stem
p375
Vvmlinux
p376
ss(g128
g329
g96
tp377
(dp378
g131
(lp379
Vparisc
p380
aVparisc64-smp
p381
asg135
I01
ss(Vbase
p382
Vi386
p383
tp384
(dp385
Vfeaturesets
p386
(lp387
Vnone
p388
aVrt
p389
asVkernel-arch
p390
Vx86
p391
ss(Vbuild
p392
g383
tp393
(dp394
Vvdso
p395
I01
sVimage-file
p396
Varch/x86/boot/bzImage
p397
ss(Vdescription
p398
g383
NV686-pae
p399
tp400
(dp401
Vhardware
p402
Vmodern PCs
p403
sVhardware-long
p404
VPCs with one or more processors supporting PAE
p405
sVparts
p406
(lp407
Vpae
p408
ass(Vdescription
p409
g383
tp410
(dp411
Vpart-long-pae
p412
VThis kernel requires PAE (Physical Address Extension).\u000aThis feature is supported by the Intel Pentium Pro/II/III/4/4M/D, Xeon,\u000aCore and Atom; AMD Geode NX, Athlon (K7), Duron, Opteron, Sempron,\u000aTurion or Phenom; Transmeta Efficeon; VIA C7; and some other processors.
p413
ss(Vbuild
p414
g383
NV686-pae
p415
tp416
(dp417
Vdebug-info
p418
I01
ss(Vdescription
p419
g383
NV686
p420
tp421
(dp422
Vhardware
p423
Volder PCs
p424
sVhardware-long
p425
VPCs with one or more processors not supporting PAE
p426
ss(Vrelations
p427
g383
tp428
(dp429
Vheaders%gcc-6
p430
Vlinux-compiler-gcc-6-x86
p431
ss(Vimage
p432
g383
tp433
(dp434
Vbreaks
p435
Vxserver-xorg-input-vmmouse (<< 1:13.0.99)
p436
sVinstall-stem
p437
Vvmlinuz
p438
sVbootloaders
p439
(lp440
Vgrub-pc
p441
aVextlinux
p442
ass(Vbase
p443
g383
Vnone
p444
tp445
(dp446
Vflavours
p447
(lp448
V686
p449
aV686-pae
p450
ass(Vdescription
p451
g383
g444
V686-pae
p452
tp453
(dp454
Vparts
p455
(lp456
Vxen
p457
ass(Vbase
p458
g383
Vrt
p459
tp460
(dp461
Vflavours
p462
(lp463
V686-pae
p464
ass(Vbase
p465
Vm68k
p466
tp467
(dp468
Vcflags
p469
V-ffreestanding
p470
sg94
(lp471
g96
asVkernel-arch
p472
Vm68k
p473
ss(Vbuild
p474
g466
tp475
(dp476
Vsigned-modules
p477
I00
sVimage-file
p478
Vvmlinux.gz
p479
ss(Vdescription
p480
g466
NVm68k
p481
tp482
(dp483
Vhardware
p484
VMotorola MC68020+ family
p485
ss(Vimage
p486
g466
tp487
(dp488
Vsuggests
p489
Vvmelilo, fdutils
p490
sVinstall-stem
p491
Vvmlinuz
p492
ss(g128
g466
g96
tp493
(dp494
g131
(lp495
Vm68k
p496
asg135
I01
ss(Vbase
p497
Vmips
p498
tp499
(dp500
g94
(lp501
g96
asVkernel-arch
p502
Vmips
p503
ss(Vbuild
p504
g498
tp505
(dp506
Vsigned-modules
p507
I00
sVimage-file
p508
Vvmlinux
p509
ss(Vimage
p510
g498
NV4kc-malta
p511
tp512
(dp513
Vconfigs
p514
(lp515
Vkernelarch-mips/config.malta
p516
aVkernelarch-mips/config.mips32r2
p517
ass(Vimage
p518
g498
NV5kc-malta
p519
tp520
(dp521
Vconfigs
p522
(lp523
Vkernelarch-mips/config.malta
p524
aVkernelarch-mips/config.mips64r2
p525
ass(Vdescription
p526
g498
NVocteon
p527
tp528
(dp529
Vhardware
p530
VOcteon
p531
sVhardware-long
p532
VCavium Networks Octeon
p533
ss(Vimage
p534
g498
NVocteon
p535
tp536
(dp537
Vconfigs
p538
(lp539
Vkernelarch-mips/config.octeon
p540
ass(Vimage
p541
g498
tp542
(dp543
Vinstall-stem
p544
Vvmlinux
p545
ss(Vdescription
p546
g498
NV5kc-malta
p547
tp548
(dp549
Vhardware
p550
VMIPS Malta (64-bit)
p551
sVhardware-long
p552
VMIPS Malta boards (64-bit)
p553
ss(Vdescription
p554
g498
NV4kc-malta
p555
tp556
(dp557
Vhardware
p558
VMIPS Malta
p559
sVhardware-long
p560
VMIPS Malta boards
p561
ss(g128
g498
g96
tp562
(dp563
g131
(lp564
V4kc-malta
p565
aV5kc-malta
p566
aVocteon
p567
asg135
I01
ss(Vbase
p568
Vmipsel
p569
tp570
(dp571
g94
(lp572
g96
asVkernel-arch
p573
Vmips
p574
ss(Vimage
p575
g569
NVloongson-3
p576
tp577
(dp578
Vconfigs
p579
(lp580
Vkernelarch-mips/config.loongson-3
p581
ass(Vbuild
p582
g569
tp583
(dp584
Vsigned-modules
p585
I00
sVimage-file
p586
Vvmlinux
p587
ss(Vimage
p588
g569
NV4kc-malta
p589
tp590
(dp591
Vconfigs
p592
(lp593
Vkernelarch-mips/config.malta
p594
aVkernelarch-mips/config.mips32r2
p595
ass(Vimage
p596
g569
NV5kc-malta
p597
tp598
(dp599
Vconfigs
p600
(lp601
Vkernelarch-mips/config.malta
p602
aVkernelarch-mips/config.mips64r2
p603
ass(Vdescription
p604
g569
NVocteon
p605
tp606
(dp607
Vhardware
p608
VOcteon
p609
sVhardware-long
p610
VCavium Networks Octeon
p611
ss(Vdescription
p612
g569
NVloongson-3
p613
tp614
(dp615
Vhardware
p616
VLoongson 3A/3B
p617
sVhardware-long
p618
VLoongson 3A or 3B based systems (e.g. from Loongson or Lemote)
p619
ss(Vimage
p620
g569
NVocteon
p621
tp622
(dp623
Vconfigs
p624
(lp625
Vkernelarch-mips/config.octeon
p626
ass(Vimage
p627
g569
tp628
(dp629
Vinstall-stem
p630
Vvmlinux
p631
ss(Vdescription
p632
g569
NV5kc-malta
p633
tp634
(dp635
Vhardware
p636
VMIPS Malta (64-bit)
p637
sVhardware-long
p638
VMIPS Malta boards (64-bit)
p639
ss(Vdescription
p640
g569
NV4kc-malta
p641
tp642
(dp643
Vhardware
p644
VMIPS Malta
p645
sVhardware-long
p646
VMIPS Malta boards
p647
ss(g128
g569
g96
tp648
(dp649
g131
(lp650
V4kc-malta
p651
aV5kc-malta
p652
aVloongson-3
p653
aVocteon
p654
asg135
I01
ss(Vbase
p655
Vmipsn32
p656
tp657
(dp658
Vfeaturesets
p659
(lp660
sVkernel-arch
p661
Vmips
p662
ss(Vbase
p663
Vmipsn32el
p664
tp665
(dp666
Vfeaturesets
p667
(lp668
sVkernel-arch
p669
Vmips
p670
ss(Vbase
p671
Vmips64
p672
tp673
(dp674
g94
(lp675
g96
asVkernel-arch
p676
Vmips
p677
ss(Vbuild
p678
g672
tp679
(dp680
Vsigned-modules
p681
I00
sVimage-file
p682
Vvmlinux
p683
ss(Vimage
p684
g672
NV5kc-malta
p685
tp686
(dp687
Vconfigs
p688
(lp689
Vkernelarch-mips/config.malta
p690
aVkernelarch-mips/config.mips64r2
p691
ass(Vdescription
p692
g672
NVocteon
p693
tp694
(dp695
Vhardware
p696
VOcteon
p697
sVhardware-long
p698
VCavium Networks Octeon
p699
ss(Vimage
p700
g672
tp701
(dp702
Vinstall-stem
p703
Vvmlinux
p704
ss(Vdescription
p705
g672
NV5kc-malta
p706
tp707
(dp708
Vhardware
p709
VMIPS Malta
p710
sVhardware-long
p711
VMIPS Malta boards
p712
ss(Vimage
p713
g672
NVocteon
p714
tp715
(dp716
Vconfigs
p717
(lp718
Vkernelarch-mips/config.octeon
p719
ass(g128
g672
g96
tp720
(dp721
g131
(lp722
V5kc-malta
p723
aVocteon
p724
asg135
I01
ss(Vbase
p725
Vmips64el
p726
tp727
(dp728
g94
(lp729
g96
asVkernel-arch
p730
Vmips
p731
ss(Vimage
p732
g726
NVloongson-3
p733
tp734
(dp735
Vconfigs
p736
(lp737
Vkernelarch-mips/config.loongson-3
p738
ass(Vbuild
p739
g726
tp740
(dp741
Vsigned-modules
p742
I00
sVimage-file
p743
Vvmlinux
p744
ss(Vimage
p745
g726
NV5kc-malta
p746
tp747
(dp748
Vconfigs
p749
(lp750
Vkernelarch-mips/config.malta
p751
aVkernelarch-mips/config.mips64r2
p752
ass(Vdescription
p753
g726
NVocteon
p754
tp755
(dp756
Vhardware
p757
VOcteon
p758
sVhardware-long
p759
VCavium Networks Octeon
p760
ss(Vdescription
p761
g726
NVloongson-3
p762
tp763
(dp764
Vhardware
p765
VLoongson 3A/3B
p766
sVhardware-long
p767
VLoongson 3A or 3B based systems (e.g. from Loongson or Lemote)
p768
ss(Vimage
p769
g726
tp770
(dp771
Vinstall-stem
p772
Vvmlinux
p773
ss(Vdescription
p774
g726
NV5kc-malta
p775
tp776
(dp777
Vhardware
p778
VMIPS Malta
p779
sVhardware-long
p780
VMIPS Malta boards
p781
ss(Vimage
p782
g726
NVocteon
p783
tp784
(dp785
Vconfigs
p786
(lp787
Vkernelarch-mips/config.octeon
p788
ass(g128
g726
g96
tp789
(dp790
g131
(lp791
V5kc-malta
p792
aVloongson-3
p793
aVocteon
p794
asg135
I01
ss(Vbase
p795
Vpowerpc
p796
tp797
(dp798
g94
(lp799
g96
asVkernel-arch
p800
Vpowerpc
p801
ss(Vdescription
p802
g796
NVpowerpc64
p803
tp804
(dp805
Vhardware
p806
V64-bit PowerPC
p807
ss(Vbuild
p808
g796
tp809
(dp810
Vvdso
p811
I01
sVimage-file
p812
Vvmlinux
p813
ss(Vimage
p814
g796
NVpowerpc-smp
p815
tp816
(dp817
Vconfigs
p818
(lp819
Vpowerpc/config.powerpc
p820
aVpowerpc/config.powerpc-smp
p821
ass(Vdescription
p822
g796
NVpowerpc
p823
tp824
(dp825
Vhardware
p826
Vuniprocessor 32-bit PowerPC
p827
ss(Vimage
p828
g796
NVpowerpc64
p829
tp830
(dp831
Vconfigs
p832
(lp833
Vkernelarch-powerpc/config-arch-64
p834
aVkernelarch-powerpc/config-arch-64-be
p835
ass(Vdescription
p836
g796
NVpowerpc-smp
p837
tp838
(dp839
Vhardware
p840
Vmultiprocessor 32-bit PowerPC
p841
ss(Vimage
p842
g796
tp843
(dp844
Vsuggests
p845
Vmkvmlinuz
p846
sVinstall-stem
p847
Vvmlinux
p848
sVconfigs
p849
(lp850
ss(g128
g796
g96
tp851
(dp852
g131
(lp853
Vpowerpc
p854
aVpowerpc-smp
p855
aVpowerpc64
p856
asg135
I01
ss(Vbase
p857
Vpowerpcspe
p858
tp859
(dp860
g94
(lp861
g96
asVkernel-arch
p862
Vpowerpc
p863
ss(Vbuild
p864
g858
tp865
(dp866
Vsigned-modules
p867
I00
sVimage-file
p868
Vvmlinux
p869
sVvdso
p870
I01
ss(Vimage
p871
g858
tp872
(dp873
Vsuggests
p874
Vmkvmlinuz
p875
sVinstall-stem
p876
Vvmlinux
p877
ss(Vdescription
p878
g858
tp879
(dp880
Vhardware
p881
V32-bit PowerPC with SPE (instead of AltiVec) with SMP support
p882
ss(g128
g858
g96
tp883
(dp884
g131
(lp885
Vpowerpcspe
p886
asg135
I01
ss(Vbase
p887
Vppc64
p888
tp889
(dp890
g94
(lp891
g96
asVkernel-arch
p892
Vpowerpc
p893
ss(Vdescription
p894
g888
NVpowerpc64
p895
tp896
(dp897
Vhardware
p898
V64-bit PowerPC
p899
ss(Vbuild
p900
g888
tp901
(dp902
Vsigned-modules
p903
I00
sVimage-file
p904
Vvmlinux
p905
sVvdso
p906
I01
ss(Vimage
p907
g888
NVpowerpc64
p908
tp909
(dp910
Vconfigs
p911
(lp912
Vkernelarch-powerpc/config-arch-64
p913
aVkernelarch-powerpc/config-arch-64-be
p914
ass(Vimage
p915
g888
tp916
(dp917
Vsuggests
p918
Vmkvmlinuz
p919
sVinstall-stem
p920
Vvmlinux
p921
sVconfigs
p922
(lp923
ss(g128
g888
g96
tp924
(dp925
g131
(lp926
Vpowerpc64
p927
asg135
I01
ss(Vbase
p928
Vppc64el
p929
tp930
(dp931
g94
(lp932
g96
asVkernel-arch
p933
Vpowerpc
p934
ss(Vdescription
p935
g929
NVpowerpc64le
p936
tp937
(dp938
Vhardware
p939
VLittle-endian 64-bit PowerPC
p940
ss(Vbuild
p941
g929
tp942
(dp943
Vvdso
p944
I01
sVimage-file
p945
Vvmlinux
p946
ss(Vimage
p947
g929
tp948
(dp949
Vsuggests
p950
Vmkvmlinuz
p951
sVinstall-stem
p952
Vvmlinux
p953
sVconfigs
p954
(lp955
ss(Vimage
p956
g929
NVpowerpc64le
p957
tp958
(dp959
Vconfigs
p960
(lp961
Vkernelarch-powerpc/config-arch-64
p962
aVkernelarch-powerpc/config-arch-64-le
p963
ass(g128
g929
g96
tp964
(dp965
g131
(lp966
Vpowerpc64le
p967
asg135
I01
ss(Vbase
p968
Vs390
p969
tp970
(dp971
Vfeaturesets
p972
(lp973
sVkernel-arch
p974
Vs390
p975
ss(Vbase
p976
Vs390x
p977
tp978
(dp979
g94
(lp980
g96
asVkernel-arch
p981
Vs390
p982
ss(Vdescription
p983
g977
NVs390x
p984
tp985
(dp986
Vhardware
p987
VIBM zSeries
p988
ss(Vbuild
p989
g977
tp990
(dp991
Vvdso
p992
I01
sVimage-file
p993
Varch/s390/boot/image
p994
ss(Vbuild
p995
g977
NVs390x
p996
tp997
(dp998
Vdebug-info
p999
I01
ss(Vrelations
p1000
g977
tp1001
(dp1002
Vheaders%gcc-6
p1003
Vlinux-compiler-gcc-6-s390
p1004
ss(Vimage
p1005
g977
tp1006
(dp1007
Vinstall-stem
p1008
Vvmlinuz
p1009
sVbootloaders
p1010
(lp1011
Vs390-tools
p1012
ass(g128
g977
g96
tp1013
(dp1014
g131
(lp1015
Vs390x
p1016
asg135
I01
ss(Vbase
p1017
Vsh3
p1018
tp1019
(dp1020
Vfeaturesets
p1021
(lp1022
sVkernel-arch
p1023
Vsh
p1024
ss(Vbase
p1025
Vsh4
p1026
tp1027
(dp1028
g94
(lp1029
g96
asVkernel-arch
p1030
Vsh
p1031
ss(Vbuild
p1032
g1026
tp1033
(dp1034
Vsigned-modules
p1035
I00
sVimage-file
p1036
Varch/sh/boot/zImage
p1037
ss(Vdescription
p1038
g1026
NVsh7751r
p1039
tp1040
(dp1041
Vhardware
p1042
Vsh7751r
p1043
sVhardware-long
p1044
VRenesas SH7751R R2D plus board
p1045
ss(Vdescription
p1046
g1026
NVsh7785lcr
p1047
tp1048
(dp1049
Vhardware
p1050
Vsh7785lcr
p1051
sVhardware-long
p1052
VRenesas SH7785 reference board
p1053
ss(Vimage
p1054
g1026
tp1055
(dp1056
Vinstall-stem
p1057
Vvmlinuz
p1058
ss(Vimage
p1059
g1026
NVsh7785lcr
p1060
tp1061
(dp1062
Vrecommends
p1063
Vu-boot-tools
p1064
sVcheck-size
p1065
L4194304L
ss(g128
g1026
g96
tp1066
(dp1067
g131
(lp1068
Vsh7751r
p1069
aVsh7785lcr
p1070
asg135
I01
ss(Vbase
p1071
Vsparc
p1072
tp1073
(dp1074
Vfeaturesets
p1075
(lp1076
sVkernel-arch
p1077
Vsparc
p1078
ss(Vbase
p1079
Vsparc64
p1080
tp1081
(dp1082
g94
(lp1083
g96
asVkernel-arch
p1084
Vsparc
p1085
ss(Vbuild
p1086
g1080
tp1087
(dp1088
Vsigned-modules
p1089
I00
sVimage-file
p1090
Varch/sparc/boot/zImage
p1091
ss(Vimage
p1092
g1080
NVsparc64
p1093
tp1094
(dp1095
Vconfigs
p1096
(lp1097
Vkernelarch-sparc/config-up
p1098
ass(Vimage
p1099
g1080
NVsparc64-smp
p1100
tp1101
(dp1102
Vconfigs
p1103
(lp1104
Vkernelarch-sparc/config-smp
p1105
ass(Vimage
p1106
g1080
tp1107
(dp1108
Vsuggests
p1109
Vsilo, fdutils
p1110
sVinstall-stem
p1111
Vvmlinuz
p1112
sVconfigs
p1113
(lp1114
ss(Vdescription
p1115
g1080
NVsparc64-smp
p1116
tp1117
(dp1118
Vhardware
p1119
Vmultiprocessor 64-bit UltraSPARC
p1120
ss(Vdescription
p1121
g1080
NVsparc64
p1122
tp1123
(dp1124
Vhardware
p1125
Vuniprocessor 64-bit UltraSPARC
p1126
ss(g128
g1080
g96
tp1127
(dp1128
g131
(lp1129
Vsparc64
p1130
aVsparc64-smp
p1131
asg135
I01
ss(Vbase
p1132
Vtilegx
p1133
tp1134
(dp1135
Vfeaturesets
p1136
(lp1137
sVkernel-arch
p1138
Vtile
p1139
ss(Vbase
p1140
Vx32
p1141
tp1142
(dp1143
Vfeaturesets
p1144
(lp1145
sVkernel-arch
p1146
Vx86
p1147
ss(Vdescription
p1148
NVrt
p1149
tp1150
(dp1151
Vparts
p1152
(lp1153
Vrt
p1154
asVpart-long-rt
p1155
VThis kernel includes the PREEMPT_RT realtime patch set.
p1156
sVpart-short-rt
p1157
VPREEMPT_RT
p1158
ss(Vabi
p1159
Ng1149
tp1160
(dp1161
Vignore-changes
p1162
(lp1163
V*
p1164
ass(Vversion
p1165
tp1166
(dp1167
Vupstream
p1168
V4.9
p1169
sVsource
p1170
V4.9.13-1
p1171
sVabiname
p1172
V4.9.0-2
p1173
sVabiname_base
p1174
V4.9.0
p1175
ss.