cdebian_linux.config
ConfigCore
p0
(tRp1
(Vabi
p2
tp3
(dp4
Vabiname
p5
V9parrot1
p6
sVignore-changes
p7
(lp8
V__cpuhp_*
p9
aV__udp_gso_segment
p10
aVbpf_analyzer
p11
aVbpf_offload_dev_create
p12
aVbpf_verifier_log_write
p13
aVcxl_*
p14
aVdax_flush
p15
aVieee80211_nullfunc_get
p16
aVinet_add_protocol
p17
aVinet_del_protocol
p18
aViommu_device_*
p19
aVmm_iommu_*
p20
aVmv_mbus_*
p21
aVperf_*
p22
aVregister_cxl_calls
p23
aVregister_key_type
p24
aVunregister_cxl_calls
p25
aV*_hw_breakpoint
p26
aVmodule:drivers/crypto/ccp/*
p27
aVmodule:drivers/hv/*
p28
aVmodule:drivers/gpu/drm/sun4i/*
p29
aVmodule:drivers/iio/**
p30
aVmodule:drivers/misc/cxl/*
p31
aVmodule:drivers/misc/lis3lv02d/*
p32
aVmodule:drivers/mtd/nand/*
p33
aVmodule:drivers/net/ethernet/**
p34
aVmodule:drivers/net/wireless/**
p35
aVmodule:drivers/nvdimm/*
p36
aVmodule:drivers/nvme/**
p37
aVmodule:drivers/power/supply/bq27xxx_battery
p38
aVmodule:drivers/scsi/cxgbi/*
p39
aVmodule:drivers/scsi/libiscs*
p40
aVmodule:drivers/scsi/qla2xxx/qla2xxx
p41
aVmodule:drivers/scsi/ufs/*
p42
aVmodule:drivers/target/**
p43
aVmodule:drivers/usb/chipidea/**
p44
aVmodule:drivers/usb/gadget/**
p45
aVmodule:drivers/usb/host/**
p46
aVmodule:drivers/usb/musb/**
p47
aVmodule:fs/nfs/**
p48
aVmodule:net/ceph/libceph
p49
aVmodule:net/l2tp/**
p50
aVmodule:net/openvswitch/**
p51
aVmodule:net/rxrpc/rxrpc
p52
aVmodule:net/sctp/**
p53
aVmodule:sound/core/seq/**
p54
aVmodule:sound/firewire/snd-firewire-lib
p55
aVmodule:sound/pci/hda/*
p56
aVbtree_*
p57
aVvisitor*
p58
aVcan_rx_register
p59
aVip6_xmit
p60
aVmodule:net/dccp/dccp
p61
aVmodule:net/rds/rds
p62
aVdevfreq_*
p63
aVdevm_devfreq_*
p64
aVupdate_devfreq
p65
aVmodule:drivers/infiniband/**
p66
aVacpi_ec_add_query_handler
p67
aVacpi_ec_remove_query_handler
p68
aVfirst_ec
p69
aVdebugfs_create_automount
p70
aVmodule:drivers/iio/imu/inv_mpu6050/*
p71
aVdrm_crtc_accurate_vblank_count
p72
aVacpi_nfit_desc_init
p73
aVacpi_nfit_init
p74
aVloop_register_transfer
p75
aVxen_xlate_*
p76
aVnf_nat_masquerade_ipv4_register_notifier
p77
aVnf_nat_masquerade_ipv6_register_notifier
p78
aVdfltcc_*
p79
aVmodule:drivers/scsi/hisi_sas/*
p80
aV__gfn_*
p81
aV__kvmhv_*
p82
aV__kvm_*
p83
aV__xive_vm_h_*
p84
aVgfn_*
p85
aVh_ipi_redirect
p86
aVhalt_poll_ns*
p87
aVkvm_*
p88
aVkvmhv_*
p89
aVkvmppc_*
p90
aVmark_page_dirty
p91
aVvcpu_*
p92
aVmodule:arch/powerpc/kvm/*
p93
aVmodule:arch/s390/kvm/*
p94
aVmodule:arch/x86/kvm/*
p95
aVuv_info
p96
aVxhci_init_driver
p97
ass(Vbase
p98
tp99
(dp100
Varches
p101
(lp102
Valpha
p103
aVamd64
p104
aVarm64
p105
aVarm64ilp32
p106
aVarmel
p107
aVarmhf
p108
aVhppa
p109
aVi386
p110
aVia64
p111
aVm68k
p112
aVmips
p113
aVmips64
p114
aVmips64el
p115
aVmips64r6
p116
aVmips64r6el
p117
aVmipsel
p118
aVmipsn32
p119
aVmipsn32el
p120
aVmipsn32r6
p121
aVmipsn32r6el
p122
aVmipsr6
p123
aVmipsr6el
p124
aVpowerpc
p125
aVppc64
p126
aVppc64el
p127
aVriscv64
p128
aVs390
p129
aVs390x
p130
aVsh3
p131
aVsh4
p132
aVsparc
p133
aVsparc64
p134
aVx32
p135
asVcompiler
p136
Vgcc-10
p137
sVfeaturesets
p138
(lp139
Vnone
p140
aVrt
p141
ass(Vbuild
p142
tp143
(dp144
Vdebug-info
p145
I01
sVsigned-code
p146
I00
sVtrusted-certs
p147
Vdebian/certs/debian-uefi-certs.pem
p148
ss(Vbase
p149
NVrt
p150
tp151
(dp152
Venabled
p153
I00
ss(Vdescription
p154
tp155
(dp156
Vpart-long-up
p157
VThis kernel is not suitable for SMP (multi-processor,\u000amulti-core or hyper-threaded) systems.
p158
ss(Vimage
p159
tp160
(dp161
Vinitramfs-generators
p162
(lp163
Vinitramfs-tools
p164
aVinitramfs-fallback
p165
asVbreaks
p166
(lp167
Vfwupdate (<< 12-7)
p168
aVwireless-regdb (<< 2019.06.03-1~)
p169
asVrecommends
p170
(lp171
Vapparmor
p172
ass(Vrelations
p173
tp174
(dp175
Vgcc-10
p176
Vgcc-10 <!stage1 !cross !pkg.linux.nokernel>, gcc-10-@gnu-type-package@ <!stage1 cross !pkg.linux.nokernel>
p177
sVinitramfs-fallback
p178
Vlinux-initramfs-tool
p179
sVinitramfs-tools
p180
Vinitramfs-tools (>= 0.120+deb8u2)
p181
ss(Vbase
p182
Valpha
p183
tp184
(dp185
Vdefault-flavour
p186
Valpha-smp
p187
sVkernel-arch
p188
Valpha
p189
sVfeaturesets
p190
(lp191
Vnone
p192
ass(Vbuild
p193
g183
tp194
(dp195
Vimage-file
p196
Varch/alpha/boot/vmlinux.gz
p197
ss(Vimage
p198
g183
tp199
(dp200
Vsuggests
p201
(lp202
Vaboot
p203
aVfdutils
p204
asVinstall-stem
p205
Vvmlinuz
p206
ss(Vdescription
p207
g183
NValpha-generic
p208
tp209
(dp210
Vhardware
p211
VAlpha
p212
sVhardware-long
p213
VDEC Alpha systems with extended kernel start address (Wildfire, Titan, Marvel)
p214
ss(Vdescription
p215
g183
NValpha-smp
p216
tp217
(dp218
Vhardware
p219
VAlpha SMP
p220
sVhardware-long
p221
VDEC Alpha SMP systems with extended kernel start address (Wildfire, Titan, Marvel)
p222
ss(Vbase
p223
g183
g192
tp224
(dp225
Vflavours
p226
(lp227
Valpha-generic
p228
aValpha-smp
p229
asVimplicit-flavour
p230
I01
ss(Vbase
p231
Vamd64
p232
tp233
(dp234
Vfeaturesets
p235
(lp236
Vnone
p237
aVrt
p238
asVkernel-arch
p239
Vx86
p240
ss(Vbuild
p241
g232
tp242
(dp243
Vimage-file
p244
Varch/x86/boot/bzImage
p245
sVsigned-code
p246
I00
sVvdso
p247
I01
ss(Vimage
p248
g232
tp249
(dp250
Vbootloaders
p251
(lp252
Vgrub-pc
p253
aVgrub-efi-amd64
p254
aVextlinux
p255
asVinstall-stem
p256
Vvmlinuz
p257
sVbreaks
p258
(lp259
Vxserver-xorg-input-vmmouse (<< 1:13.0.99)
p260
ass(Vrelations
p261
g232
tp262
(dp263
Vheaders%gcc-10
p264
Vlinux-compiler-gcc-10-x86
p265
ss(Vdescription
p266
g232
NVamd64
p267
tp268
(dp269
Vhardware
p270
V64-bit PCs
p271
sVhardware-long
p272
VPCs with AMD64, Intel 64 or VIA Nano processors
p273
ss(Vdescription
p274
g232
NVcloud-amd64
p275
tp276
(dp277
Vhardware
p278
Vx86-64 cloud
p279
sVhardware-long
p280
Vcloud platforms including Amazon EC2, Microsoft Azure, and Google Compute Engine
p281
ss(Vbase
p282
g232
Vnone
p283
tp284
(dp285
Vflavours
p286
(lp287
Vamd64
p288
aVcloud-amd64
p289
asVdefault-flavour
p290
Vamd64
p291
ss(Vimage
p292
g232
g283
Vcloud-amd64
p293
tp294
(dp295
Vconfigs
p296
(lp297
Vconfig.cloud
p298
aVamd64/config.cloud-amd64
p299
ass(Vbase
p300
g232
Vrt
p301
tp302
(dp303
Vflavours
p304
(lp305
Vamd64
p306
ass(Vbase
p307
Varm64
p308
tp309
(dp310
Vcross-compile-compat
p311
Varm-linux-gnueabihf-
p312
sVkernel-arch
p313
Varm64
p314
sVfeaturesets
p315
(lp316
Vnone
p317
aVrt
p318
ass(Vbuild
p319
g308
tp320
(dp321
Vimage-file
p322
Varch/arm64/boot/Image
p323
sVsigned-code
p324
I00
sVvdso
p325
I01
ss(Vimage
p326
g308
tp327
(dp328
Vinstall-stem
p329
Vvmlinuz
p330
sVbreaks
p331
(lp332
Vlibmozjs185-1.0
p333
aVlibmozjs-24-0 (<< 24.2.0-5.1~)
p334
ass(Vdescription
p335
g308
NVarm64
p336
tp337
(dp338
Vhardware
p339
V64-bit ARMv8 machines
p340
ss(Vdescription
p341
g308
NVcloud-arm64
p342
tp343
(dp344
Vhardware
p345
Varm64 cloud
p346
sVhardware-long
p347
Vcloud platforms supporting arm64 virtual machines
p348
ss(Vimage
p349
g308
NVarm64
p350
tp351
(dp352
s(Vrelations
p353
g308
tp354
(dp355
Vgcc-10
p356
Vgcc-10 <!stage1 !cross !pkg.linux.nokernel>, gcc-10-aarch64-linux-gnu <!stage1 cross !pkg.linux.nokernel>, gcc-arm-linux-gnueabihf <!stage1 !pkg.linux.nokernel>
p357
sVheaders%gcc-10
p358
Vgcc-10
p359
ss(Vbase
p360
g308
Vnone
p361
tp362
(dp363
Vflavours
p364
(lp365
Varm64
p366
aVcloud-arm64
p367
asVdefault-flavour
p368
Varm64
p369
ss(Vimage
p370
g308
g361
Vcloud-arm64
p371
tp372
(dp373
Vconfigs
p374
(lp375
Vconfig.cloud
p376
aVarm64/config.cloud-arm64
p377
ass(Vbase
p378
g308
Vrt
p379
tp380
(dp381
Vflavours
p382
(lp383
Varm64
p384
ass(Vbase
p385
Varm64ilp32
p386
tp387
(dp388
Vkernel-arch
p389
Varm64
p390
sVfeaturesets
p391
(lp392
ss(Vbase
p393
Varmel
p394
tp395
(dp396
Vkernel-arch
p397
Varm
p398
sg190
(lp399
g192
ass(Vbuild
p400
g394
tp401
(dp402
Vimage-file
p403
Varch/arm/boot/zImage
p404
sVuncompressed-image-file
p405
Varch/arm/boot/Image
p406
ss(Vimage
p407
g394
tp408
(dp409
Vinstall-stem
p410
Vvmlinuz
p411
ss(Vrelations
p412
g394
tp413
(dp414
Vheaders%gcc-10
p415
Vlinux-compiler-gcc-10-arm
p416
ss(Vdescription
p417
g394
NVmarvell
p418
tp419
(dp420
Vhardware
p421
VMarvell Kirkwood/Orion
p422
sVhardware-long
p423
VMarvell Kirkwood and Orion based systems (https://wiki.debian.org/ArmEabiPort#Supported_hardware)
p424
ss(Vdescription
p425
g394
NVrpi
p426
tp427
(dp428
Vhardware
p429
VRaspberry Pi and Pi Zero
p430
sVhardware-long
p431
VRaspberry Pi, Raspberry Pi Zero based systems
p432
ss(Vimage
p433
g394
NVmarvell
p434
tp435
(dp436
Vrecommends
p437
(lp438
Vu-boot-tools
p439
asVcheck-size
p440
I2729712
sVcheck-size-with-dtb
p441
I01
sVbreaks
p442
(lp443
Vflash-kernel (<< 3.57~)
p444
ass(g223
g394
g192
tp445
(dp446
g226
(lp447
Vmarvell
p448
aVrpi
p449
asg230
I01
ss(Vbase
p450
Varmhf
p451
tp452
(dp453
Vfeaturesets
p454
(lp455
Vnone
p456
aVrt
p457
asVkernel-arch
p458
Varm
p459
ss(Vbuild
p460
g451
tp461
(dp462
Vimage-file
p463
Varch/arm/boot/zImage
p464
sVvdso
p465
I01
ss(Vimage
p466
g451
tp467
(dp468
Vinstall-stem
p469
Vvmlinuz
p470
ss(Vrelations
p471
g451
tp472
(dp473
Vheaders%gcc-10
p474
Vlinux-compiler-gcc-10-arm
p475
ss(Vdescription
p476
g451
NVarmmp
p477
tp478
(dp479
Vhardware
p480
VARMv7 multiplatform compatible SoCs
p481
sVhardware-long
p482
VARMv7 multiplatform kernel. See\u000ahttps://wiki.debian.org/DebianKernel/ARMMP for details of supported\u000aplatforms
p483
ss(Vdescription
p484
g451
NVarmmp-lpae
p485
tp486
(dp487
Vhardware
p488
VARMv7 multiplatform compatible SoCs supporting LPAE
p489
sVhardware-long
p490
VARMv7 multiplatform kernel supporting LPAE. See\u000ahttps://wiki.debian.org/DebianKernel/ARMMP for details of supported\u000aplatforms.
p491
ss(Vbase
p492
g451
Vnone
p493
tp494
(dp495
Vflavours
p496
(lp497
Varmmp
p498
aVarmmp-lpae
p499
asVdefault-flavour
p500
Varmmp
p501
ss(Vbase
p502
g451
Vrt
p503
tp504
(dp505
Vflavours
p506
(lp507
Varmmp
p508
ass(Vbase
p509
Vhppa
p510
tp511
(dp512
Vdefault-flavour
p513
Vparisc
p514
sVkernel-arch
p515
Vparisc
p516
sg190
(lp517
g192
ass(Vbuild
p518
g510
tp519
(dp520
Vimage-file
p521
Varch/parisc/boot/bzImage
p522
sVdebug-info
p523
I00
ss(Vimage
p524
g510
tp525
(dp526
Vsuggests
p527
(lp528
Vpalo
p529
asVinstall-stem
p530
Vvmlinuz
p531
ss(Vdescription
p532
g510
NVparisc
p533
tp534
(dp535
Vhardware
p536
V32-bit PA-RISC
p537
sVhardware-long
p538
VHP PA-RISC 32-bit systems with max 4 GB RAM
p539
ss(Vbase
p540
g510
NVparisc64
p541
tp542
(dp543
Vcflags
p544
V-fno-cse-follow-jumps
p545
sVoverride-host-type
p546
Vhppa64-linux-gnu
p547
ss(Vdescription
p548
g510
NVparisc64
p549
tp550
(dp551
Vhardware
p552
V64-bit PA-RISC
p553
sVhardware-long
p554
VHP PA-RISC 64-bit systems with support for more than 4 GB RAM
p555
ss(Vrelations
p556
g510
tp557
(dp558
Vgcc-10
p559
Vgcc-10 <!stage1 !cross !pkg.linux.nokernel>, gcc-10-hppa-linux-gnu <!stage1 cross !pkg.linux.nokernel>, binutils-hppa64-linux-gnu <!stage1 !pkg.linux.nokernel>, gcc-10-hppa64-linux-gnu <!stage1 !pkg.linux.nokernel>
p560
ss(g223
g510
g192
tp561
(dp562
g226
(lp563
Vparisc
p564
aVparisc64
p565
asg230
I01
ss(Vbase
p566
Vi386
p567
tp568
(dp569
Vfeaturesets
p570
(lp571
Vnone
p572
aVrt
p573
asVkernel-arch
p574
Vx86
p575
ss(Vbuild
p576
g567
tp577
(dp578
Vimage-file
p579
Varch/x86/boot/bzImage
p580
sVsigned-code
p581
I00
sVvdso
p582
I01
ss(Vdescription
p583
g567
tp584
(dp585
Vpart-long-pae
p586
VThis kernel requires PAE (Physical Address Extension).\u000aThis feature is supported by the Intel Pentium Pro/II/III/4/4M/D, Xeon,\u000aCore and Atom; AMD Geode NX, Athlon (K7), Duron, Opteron, Sempron,\u000aTurion or Phenom; Transmeta Efficeon; VIA C7; and some other processors.
p587
ss(Vimage
p588
g567
tp589
(dp590
Vbootloaders
p591
(lp592
Vgrub-pc
p593
aVgrub-efi-ia32
p594
aVextlinux
p595
asVinstall-stem
p596
Vvmlinuz
p597
sVbreaks
p598
(lp599
Vxserver-xorg-input-vmmouse (<< 1:13.0.99)
p600
ass(Vrelations
p601
g567
tp602
(dp603
Vheaders%gcc-10
p604
Vlinux-compiler-gcc-10-x86
p605
ss(Vdescription
p606
g567
NV686
p607
tp608
(dp609
Vhardware
p610
Volder PCs
p611
sVhardware-long
p612
VPCs with one or more processors not supporting PAE
p613
ss(Vdescription
p614
g567
NV686-pae
p615
tp616
(dp617
Vhardware
p618
Vmodern PCs
p619
sVhardware-long
p620
VPCs with one or more processors supporting PAE
p621
sVparts
p622
(lp623
Vpae
p624
ass(Vbase
p625
g567
Vnone
p626
tp627
(dp628
Vflavours
p629
(lp630
V686
p631
aV686-pae
p632
asVdefault-flavour
p633
V686-pae
p634
ss(Vbase
p635
g567
Vrt
p636
tp637
(dp638
Vflavours
p639
(lp640
V686-pae
p641
ass(Vbase
p642
Via64
p643
tp644
(dp645
Vdefault-flavour
p646
Vitanium
p647
sVkernel-arch
p648
Via64
p649
sg190
(lp650
g192
ass(Vbuild
p651
g643
tp652
(dp653
Vimage-file
p654
Vvmlinux.gz
p655
ss(Vimage
p656
g643
tp657
(dp658
Vbootloaders
p659
(lp660
Vgrub-efi-ia64
p661
asVinstall-stem
p662
Vvmlinuz
p663
ss(Vdescription
p664
g643
NVitanium
p665
tp666
(dp667
Vhardware
p668
VItanium (Merced)
p669
sVhardware-long
p670
Vsystems with original Itanium (Merced) processors
p671
ss(Vdescription
p672
g643
NVmckinley
p673
tp674
(dp675
Vhardware
p676
VItanium 2+
p677
sVhardware-long
p678
Vsystems with Itanium 2 or 9300/9500/9700-series processors
p679
ss(g223
g643
g192
tp680
(dp681
g226
(lp682
Vitanium
p683
aVmckinley
p684
asg230
I01
ss(Vbase
p685
Vm68k
p686
tp687
(dp688
Vcflags
p689
V-ffreestanding
p690
sVdefault-flavour
p691
Vm68k
p692
sVkernel-arch
p693
Vm68k
p694
sg190
(lp695
g192
ass(Vbuild
p696
g686
tp697
(dp698
Vimage-file
p699
Vvmlinux
p700
ss(Vimage
p701
g686
tp702
(dp703
Vsuggests
p704
(lp705
Vvmelilo
p706
aVfdutils
p707
asVinstall-stem
p708
Vvmlinux
p709
ss(Vdescription
p710
g686
NVm68k
p711
tp712
(dp713
Vhardware
p714
VMotorola MC68020+ family
p715
ss(g223
g686
g192
tp716
(dp717
g226
(lp718
Vm68k
p719
asg230
I01
ss(Vbase
p720
Vmips
p721
tp722
(dp723
Vkernel-arch
p724
Vmips
p725
sg190
(lp726
g192
ass(Vbuild
p727
g721
tp728
(dp729
Vimage-file
p730
Vvmlinuz
p731
ss(Vimage
p732
g721
tp733
(dp734
Vinstall-stem
p735
Vvmlinuz
p736
ss(Vdescription
p737
g721
NV4kc-malta
p738
tp739
(dp740
Vhardware
p741
VMIPS Malta
p742
sVhardware-long
p743
VMIPS Malta boards
p744
ss(Vimage
p745
g721
NV4kc-malta
p746
tp747
(dp748
Vconfigs
p749
(lp750
Vkernelarch-mips/config.malta
p751
aVkernelarch-mips/config.mips32r2
p752
ass(Vdescription
p753
g721
NV5kc-malta
p754
tp755
(dp756
Vhardware
p757
VMIPS Malta (64-bit)
p758
sVhardware-long
p759
VMIPS Malta boards (64-bit)
p760
ss(Vimage
p761
g721
NV5kc-malta
p762
tp763
(dp764
Vconfigs
p765
(lp766
Vkernelarch-mips/config.malta
p767
aVkernelarch-mips/config.mips64r2
p768
ass(Vdescription
p769
g721
NVocteon
p770
tp771
(dp772
Vhardware
p773
VOcteon
p774
sVhardware-long
p775
VCavium Networks Octeon
p776
ss(Vbuild
p777
g721
NVocteon
p778
tp779
(dp780
Vimage-file
p781
Vvmlinux
p782
ss(Vimage
p783
g721
NVocteon
p784
tp785
(dp786
Vinstall-stem
p787
Vvmlinux
p788
sVconfigs
p789
(lp790
Vkernelarch-mips/config.octeon
p791
ass(g223
g721
g192
tp792
(dp793
g226
(lp794
V4kc-malta
p795
aV5kc-malta
p796
aVocteon
p797
asg230
I01
ss(Vbase
p798
Vmips64
p799
tp800
(dp801
Vkernel-arch
p802
Vmips
p803
sg190
(lp804
g192
ass(Vbuild
p805
g799
tp806
(dp807
Vimage-file
p808
Vvmlinuz
p809
ss(Vimage
p810
g799
tp811
(dp812
Vinstall-stem
p813
Vvmlinuz
p814
ss(Vdescription
p815
g799
NV5kc-malta
p816
tp817
(dp818
Vhardware
p819
VMIPS Malta
p820
sVhardware-long
p821
VMIPS Malta boards
p822
ss(Vimage
p823
g799
NV5kc-malta
p824
tp825
(dp826
Vconfigs
p827
(lp828
Vkernelarch-mips/config.malta
p829
aVkernelarch-mips/config.mips64r2
p830
ass(Vdescription
p831
g799
NVocteon
p832
tp833
(dp834
Vhardware
p835
VOcteon
p836
sVhardware-long
p837
VCavium Networks Octeon
p838
ss(Vbuild
p839
g799
NVocteon
p840
tp841
(dp842
Vimage-file
p843
Vvmlinux
p844
ss(Vimage
p845
g799
NVocteon
p846
tp847
(dp848
Vinstall-stem
p849
Vvmlinux
p850
sVconfigs
p851
(lp852
Vkernelarch-mips/config.octeon
p853
ass(g223
g799
g192
tp854
(dp855
g226
(lp856
V5kc-malta
p857
aVocteon
p858
asg230
I01
ss(Vbase
p859
Vmips64el
p860
tp861
(dp862
Vkernel-arch
p863
Vmips
p864
sg190
(lp865
g192
ass(Vbuild
p866
g860
tp867
(dp868
Vimage-file
p869
Vvmlinuz
p870
ss(Vimage
p871
g860
tp872
(dp873
Vinstall-stem
p874
Vvmlinuz
p875
ss(Vdescription
p876
g860
NV5kc-malta
p877
tp878
(dp879
Vhardware
p880
VMIPS Malta
p881
sVhardware-long
p882
VMIPS Malta boards
p883
ss(Vimage
p884
g860
NV5kc-malta
p885
tp886
(dp887
Vconfigs
p888
(lp889
Vkernelarch-mips/config.malta
p890
aVkernelarch-mips/config.mips64r2
p891
ass(Vdescription
p892
g860
NVloongson-3
p893
tp894
(dp895
Vhardware
p896
VLoongson 3A/3B
p897
sVhardware-long
p898
VLoongson 3A or 3B based systems (e.g. from Loongson or Lemote)
p899
ss(Vimage
p900
g860
NVloongson-3
p901
tp902
(dp903
Vconfigs
p904
(lp905
Vkernelarch-mips/config.loongson-3
p906
ass(Vdescription
p907
g860
NVocteon
p908
tp909
(dp910
Vhardware
p911
VOcteon
p912
sVhardware-long
p913
VCavium Networks Octeon
p914
ss(Vbuild
p915
g860
NVocteon
p916
tp917
(dp918
Vimage-file
p919
Vvmlinux
p920
ss(Vimage
p921
g860
NVocteon
p922
tp923
(dp924
Vinstall-stem
p925
Vvmlinux
p926
sVconfigs
p927
(lp928
Vkernelarch-mips/config.octeon
p929
ass(g223
g860
g192
tp930
(dp931
g226
(lp932
V5kc-malta
p933
aVloongson-3
p934
aVocteon
p935
asg230
I01
ss(Vbase
p936
Vmips64r6
p937
tp938
(dp939
Vdefault-flavour
p940
Vmips64r6
p941
sVkernel-arch
p942
Vmips
p943
sg190
(lp944
g192
ass(Vbuild
p945
g937
tp946
(dp947
Vimage-file
p948
Vvmlinux
p949
ss(Vimage
p950
g937
tp951
(dp952
Vinstall-stem
p953
Vvmlinux
p954
ss(Vdescription
p955
g937
NVmips64r6
p956
tp957
(dp958
Vhardware
p959
VMIPS R6 (64 bit, big endian)
p960
sVhardware-long
p961
VMIPS R6 (64 bit, big endian)
p962
ss(Vimage
p963
g937
NVmips64r6
p964
tp965
(dp966
Vconfigs
p967
(lp968
Vkernelarch-mips/config.boston
p969
aVkernelarch-mips/config.mips64r6
p970
ass(g223
g937
g192
tp971
(dp972
g226
(lp973
Vmips64r6
p974
asg230
I01
ss(Vbase
p975
Vmips64r6el
p976
tp977
(dp978
Vdefault-flavour
p979
Vmips64r6el
p980
sVkernel-arch
p981
Vmips
p982
sg190
(lp983
g192
ass(Vbuild
p984
g976
tp985
(dp986
Vimage-file
p987
Vvmlinux
p988
ss(Vimage
p989
g976
tp990
(dp991
Vinstall-stem
p992
Vvmlinux
p993
ss(Vdescription
p994
g976
NVmips64r6el
p995
tp996
(dp997
Vhardware
p998
VMIPS R6 (64 bit, little endian)
p999
sVhardware-long
p1000
VMIPS R6 (64 bit, little endian)
p1001
ss(Vimage
p1002
g976
NVmips64r6el
p1003
tp1004
(dp1005
Vconfigs
p1006
(lp1007
Vkernelarch-mips/config.boston
p1008
aVkernelarch-mips/config.mips64r6
p1009
ass(g223
g976
g192
tp1010
(dp1011
g226
(lp1012
Vmips64r6el
p1013
asg230
I01
ss(Vbase
p1014
Vmipsel
p1015
tp1016
(dp1017
Vkernel-arch
p1018
Vmips
p1019
sg190
(lp1020
g192
ass(Vbuild
p1021
g1015
tp1022
(dp1023
Vimage-file
p1024
Vvmlinuz
p1025
ss(Vimage
p1026
g1015
tp1027
(dp1028
Vinstall-stem
p1029
Vvmlinuz
p1030
ss(Vdescription
p1031
g1015
NV4kc-malta
p1032
tp1033
(dp1034
Vhardware
p1035
VMIPS Malta
p1036
sVhardware-long
p1037
VMIPS Malta boards
p1038
ss(Vimage
p1039
g1015
NV4kc-malta
p1040
tp1041
(dp1042
Vconfigs
p1043
(lp1044
Vkernelarch-mips/config.malta
p1045
aVkernelarch-mips/config.mips32r2
p1046
ass(Vdescription
p1047
g1015
NV5kc-malta
p1048
tp1049
(dp1050
Vhardware
p1051
VMIPS Malta (64-bit)
p1052
sVhardware-long
p1053
VMIPS Malta boards (64-bit)
p1054
ss(Vimage
p1055
g1015
NV5kc-malta
p1056
tp1057
(dp1058
Vconfigs
p1059
(lp1060
Vkernelarch-mips/config.malta
p1061
aVkernelarch-mips/config.mips64r2
p1062
ass(Vdescription
p1063
g1015
NVloongson-3
p1064
tp1065
(dp1066
Vhardware
p1067
VLoongson 3A/3B
p1068
sVhardware-long
p1069
VLoongson 3A or 3B based systems (e.g. from Loongson or Lemote)
p1070
ss(Vimage
p1071
g1015
NVloongson-3
p1072
tp1073
(dp1074
Vconfigs
p1075
(lp1076
Vkernelarch-mips/config.loongson-3
p1077
ass(Vdescription
p1078
g1015
NVocteon
p1079
tp1080
(dp1081
Vhardware
p1082
VOcteon
p1083
sVhardware-long
p1084
VCavium Networks Octeon
p1085
ss(Vbuild
p1086
g1015
NVocteon
p1087
tp1088
(dp1089
Vimage-file
p1090
Vvmlinux
p1091
ss(Vimage
p1092
g1015
NVocteon
p1093
tp1094
(dp1095
Vinstall-stem
p1096
Vvmlinux
p1097
sVconfigs
p1098
(lp1099
Vkernelarch-mips/config.octeon
p1100
ass(g223
g1015
g192
tp1101
(dp1102
g226
(lp1103
V4kc-malta
p1104
aV5kc-malta
p1105
aVloongson-3
p1106
aVocteon
p1107
asg230
I01
ss(Vbase
p1108
Vmipsn32
p1109
tp1110
(dp1111
Vkernel-arch
p1112
Vmips
p1113
sVfeaturesets
p1114
(lp1115
ss(Vbase
p1116
Vmipsn32el
p1117
tp1118
(dp1119
Vkernel-arch
p1120
Vmips
p1121
sVfeaturesets
p1122
(lp1123
ss(Vbase
p1124
Vmipsn32r6
p1125
tp1126
(dp1127
Vkernel-arch
p1128
Vmips
p1129
sVfeaturesets
p1130
(lp1131
ss(Vbase
p1132
Vmipsn32r6el
p1133
tp1134
(dp1135
Vkernel-arch
p1136
Vmips
p1137
sVfeaturesets
p1138
(lp1139
ss(Vbase
p1140
Vmipsr6
p1141
tp1142
(dp1143
Vdefault-flavour
p1144
Vmips32r6
p1145
sVkernel-arch
p1146
Vmips
p1147
sg190
(lp1148
g192
ass(Vbuild
p1149
g1141
tp1150
(dp1151
Vimage-file
p1152
Vvmlinux
p1153
ss(Vimage
p1154
g1141
tp1155
(dp1156
Vinstall-stem
p1157
Vvmlinux
p1158
ss(Vdescription
p1159
g1141
NVmips32r6
p1160
tp1161
(dp1162
Vhardware
p1163
VMIPS R6 (32 bit, big endian)
p1164
sVhardware-long
p1165
VMIPS R6 (32 bit, big endian)
p1166
ss(Vimage
p1167
g1141
NVmips32r6
p1168
tp1169
(dp1170
Vconfigs
p1171
(lp1172
Vkernelarch-mips/config.boston
p1173
aVkernelarch-mips/config.mips32r6
p1174
ass(Vdescription
p1175
g1141
NVmips64r6
p1176
tp1177
(dp1178
Vhardware
p1179
VMIPS R6 (64 bit, big endian)
p1180
sVhardware-long
p1181
VMIPS R6 (64 bit, big endian)
p1182
ss(Vimage
p1183
g1141
NVmips64r6
p1184
tp1185
(dp1186
Vconfigs
p1187
(lp1188
Vkernelarch-mips/config.boston
p1189
aVkernelarch-mips/config.mips64r6
p1190
ass(g223
g1141
g192
tp1191
(dp1192
g226
(lp1193
Vmips32r6
p1194
aVmips64r6
p1195
asg230
I01
ss(Vbase
p1196
Vmipsr6el
p1197
tp1198
(dp1199
Vdefault-flavour
p1200
Vmips32r6el
p1201
sVkernel-arch
p1202
Vmips
p1203
sg190
(lp1204
g192
ass(Vbuild
p1205
g1197
tp1206
(dp1207
Vimage-file
p1208
Vvmlinux
p1209
ss(Vimage
p1210
g1197
tp1211
(dp1212
Vinstall-stem
p1213
Vvmlinux
p1214
ss(Vdescription
p1215
g1197
NVmips32r6el
p1216
tp1217
(dp1218
Vhardware
p1219
VMIPS R6 (32 bit, little endian)
p1220
sVhardware-long
p1221
VMIPS R6 (32 bit, little endian)
p1222
ss(Vimage
p1223
g1197
NVmips32r6el
p1224
tp1225
(dp1226
Vconfigs
p1227
(lp1228
Vkernelarch-mips/config.boston
p1229
aVkernelarch-mips/config.mips32r6
p1230
ass(Vdescription
p1231
g1197
NVmips64r6el
p1232
tp1233
(dp1234
Vhardware
p1235
VMIPS R6 (64 bit, little endian)
p1236
sVhardware-long
p1237
VMIPS R6 (64 bit, little endian)
p1238
ss(Vimage
p1239
g1197
NVmips64r6el
p1240
tp1241
(dp1242
Vconfigs
p1243
(lp1244
Vkernelarch-mips/config.boston
p1245
aVkernelarch-mips/config.mips64r6
p1246
ass(g223
g1197
g192
tp1247
(dp1248
g226
(lp1249
Vmips32r6el
p1250
aVmips64r6el
p1251
asg230
I01
ss(Vbase
p1252
Vpowerpc
p1253
tp1254
(dp1255
Vkernel-arch
p1256
Vpowerpc
p1257
sg190
(lp1258
g192
ass(Vbuild
p1259
g1253
tp1260
(dp1261
Vimage-file
p1262
Vvmlinux
p1263
ss(Vimage
p1264
g1253
tp1265
(dp1266
Vconfigs
p1267
(lp1268
sVbootloaders
p1269
(lp1270
Vgrub-ieee1275
p1271
asVsuggests
p1272
(lp1273
Vmkvmlinuz
p1274
asVinstall-stem
p1275
Vvmlinux
p1276
ss(Vdescription
p1277
g1253
NVpowerpc
p1278
tp1279
(dp1280
Vhardware
p1281
Vuniprocessor 32-bit PowerPC
p1282
ss(Vdescription
p1283
g1253
NVpowerpc-smp
p1284
tp1285
(dp1286
Vhardware
p1287
Vmultiprocessor 32-bit PowerPC
p1288
ss(Vimage
p1289
g1253
NVpowerpc-smp
p1290
tp1291
(dp1292
Vconfigs
p1293
(lp1294
Vpowerpc/config.powerpc
p1295
aVpowerpc/config.powerpc-smp
p1296
ass(Vdescription
p1297
g1253
NVpowerpc64
p1298
tp1299
(dp1300
Vhardware
p1301
V64-bit PowerPC
p1302
ss(Vimage
p1303
g1253
NVpowerpc64
p1304
tp1305
(dp1306
Vconfigs
p1307
(lp1308
Vkernelarch-powerpc/config-arch-64
p1309
aVkernelarch-powerpc/config-arch-64-be
p1310
ass(g223
g1253
g192
tp1311
(dp1312
g226
(lp1313
Vpowerpc
p1314
aVpowerpc-smp
p1315
aVpowerpc64
p1316
asg230
I01
ss(Vbase
p1317
Vppc64
p1318
tp1319
(dp1320
Vdefault-flavour
p1321
Vpowerpc64
p1322
sVkernel-arch
p1323
Vpowerpc
p1324
sg190
(lp1325
g192
ass(Vbuild
p1326
g1318
tp1327
(dp1328
Vimage-file
p1329
Vvmlinux
p1330
ss(Vimage
p1331
g1318
tp1332
(dp1333
Vconfigs
p1334
(lp1335
sVbootloaders
p1336
(lp1337
Vgrub-ieee1275
p1338
asVsuggests
p1339
(lp1340
Vmkvmlinuz
p1341
asVinstall-stem
p1342
Vvmlinux
p1343
ss(Vdescription
p1344
g1318
NVpowerpc64
p1345
tp1346
(dp1347
Vhardware
p1348
V64-bit PowerPC
p1349
ss(Vimage
p1350
g1318
NVpowerpc64
p1351
tp1352
(dp1353
Vconfigs
p1354
(lp1355
Vkernelarch-powerpc/config-arch-64
p1356
aVkernelarch-powerpc/config-arch-64-be
p1357
ass(g223
g1318
g192
tp1358
(dp1359
g226
(lp1360
Vpowerpc64
p1361
asg230
I01
ss(Vbase
p1362
Vppc64el
p1363
tp1364
(dp1365
Vdefault-flavour
p1366
Vpowerpc64le
p1367
sVkernel-arch
p1368
Vpowerpc
p1369
sg190
(lp1370
g192
ass(Vbuild
p1371
g1363
tp1372
(dp1373
Vimage-file
p1374
Vvmlinux
p1375
ss(Vimage
p1376
g1363
tp1377
(dp1378
Vconfigs
p1379
(lp1380
sVbootloaders
p1381
(lp1382
Vgrub-ieee1275
p1383
asVsuggests
p1384
(lp1385
Vmkvmlinuz
p1386
asVinstall-stem
p1387
Vvmlinux
p1388
ss(Vdescription
p1389
g1363
NVpowerpc64le
p1390
tp1391
(dp1392
Vhardware
p1393
VLittle-endian 64-bit PowerPC
p1394
ss(Vimage
p1395
g1363
NVpowerpc64le
p1396
tp1397
(dp1398
Vconfigs
p1399
(lp1400
Vkernelarch-powerpc/config-arch-64
p1401
aVkernelarch-powerpc/config-arch-64-le
p1402
ass(g223
g1363
g192
tp1403
(dp1404
g226
(lp1405
Vpowerpc64le
p1406
asg230
I01
ss(Vbase
p1407
Vriscv64
p1408
tp1409
(dp1410
Vkernel-arch
p1411
Vriscv
p1412
sVfeaturesets
p1413
(lp1414
Vnone
p1415
ass(Vbuild
p1416
g1408
tp1417
(dp1418
Vimage-file
p1419
Varch/riscv/boot/Image
p1420
sVvdso
p1421
I01
ss(Vimage
p1422
g1408
tp1423
(dp1424
Vinstall-stem
p1425
Vvmlinux
p1426
ss(Vdescription
p1427
g1408
NVriscv64
p1428
tp1429
(dp1430
Vhardware
p1431
V64-bit RISC-V platforms
p1432
sVhardware-long
p1433
V64-bit RISC-V platforms
p1434
ss(Vbase
p1435
g1408
Vnone
p1436
tp1437
(dp1438
Vflavours
p1439
(lp1440
Vriscv64
p1441
asVdefault-flavour
p1442
Vriscv64
p1443
ss(Vbase
p1444
Vs390
p1445
tp1446
(dp1447
Vkernel-arch
p1448
Vs390
p1449
sVfeaturesets
p1450
(lp1451
ss(Vbase
p1452
Vs390x
p1453
tp1454
(dp1455
Vdefault-flavour
p1456
Vs390x
p1457
sVkernel-arch
p1458
Vs390
p1459
sg190
(lp1460
g192
ass(Vbuild
p1461
g1453
tp1462
(dp1463
Vimage-file
p1464
Varch/s390/boot/bzImage
p1465
sVvdso
p1466
I01
ss(Vimage
p1467
g1453
tp1468
(dp1469
Vbootloaders
p1470
(lp1471
Vs390-tools
p1472
asVinstall-stem
p1473
Vvmlinuz
p1474
ss(Vrelations
p1475
g1453
tp1476
(dp1477
Vheaders%gcc-10
p1478
Vlinux-compiler-gcc-10-s390
p1479
ss(Vdescription
p1480
g1453
NVs390x
p1481
tp1482
(dp1483
Vhardware
p1484
VIBM zSeries
p1485
ss(g223
g1453
g192
tp1486
(dp1487
g226
(lp1488
Vs390x
p1489
asg230
I01
ss(Vbase
p1490
Vsh3
p1491
tp1492
(dp1493
Vkernel-arch
p1494
Vsh
p1495
sVfeaturesets
p1496
(lp1497
ss(Vbase
p1498
Vsh4
p1499
tp1500
(dp1501
Vkernel-arch
p1502
Vsh
p1503
sg190
(lp1504
g192
ass(Vbuild
p1505
g1499
tp1506
(dp1507
Vimage-file
p1508
Varch/sh/boot/zImage
p1509
ss(Vimage
p1510
g1499
tp1511
(dp1512
Vinstall-stem
p1513
Vvmlinuz
p1514
ss(Vdescription
p1515
g1499
NVsh7751r
p1516
tp1517
(dp1518
Vhardware
p1519
Vsh7751r
p1520
sVhardware-long
p1521
VRenesas SH7751R R2D plus board
p1522
ss(Vdescription
p1523
g1499
NVsh7785lcr
p1524
tp1525
(dp1526
Vhardware
p1527
Vsh7785lcr
p1528
sVhardware-long
p1529
VRenesas SH7785 reference board
p1530
ss(Vimage
p1531
g1499
NVsh7785lcr
p1532
tp1533
(dp1534
Vrecommends
p1535
(lp1536
Vu-boot-tools
p1537
asVcheck-size
p1538
I4194304
ss(g223
g1499
g192
tp1539
(dp1540
g226
(lp1541
Vsh7751r
p1542
aVsh7785lcr
p1543
asg230
I01
ss(Vbase
p1544
Vsparc
p1545
tp1546
(dp1547
Vkernel-arch
p1548
Vsparc
p1549
sVfeaturesets
p1550
(lp1551
ss(Vbase
p1552
Vsparc64
p1553
tp1554
(dp1555
Vdefault-flavour
p1556
Vsparc64-smp
p1557
sVkernel-arch
p1558
Vsparc
p1559
sg190
(lp1560
g192
ass(Vbuild
p1561
g1553
tp1562
(dp1563
Vimage-file
p1564
Vvmlinux
p1565
ss(Vimage
p1566
g1553
tp1567
(dp1568
Vconfigs
p1569
(lp1570
sVbootloaders
p1571
(lp1572
Vgrub-ieee1275
p1573
asVsuggests
p1574
(lp1575
Vfdutils
p1576
asVinstall-stem
p1577
Vvmlinux
p1578
ss(Vdescription
p1579
g1553
NVsparc64
p1580
tp1581
(dp1582
Vhardware
p1583
Vuniprocessor 64-bit UltraSPARC
p1584
ss(Vimage
p1585
g1553
NVsparc64
p1586
tp1587
(dp1588
Vconfigs
p1589
(lp1590
Vkernelarch-sparc/config-up
p1591
ass(Vdescription
p1592
g1553
NVsparc64-smp
p1593
tp1594
(dp1595
Vhardware
p1596
Vmultiprocessor 64-bit UltraSPARC
p1597
ss(Vimage
p1598
g1553
NVsparc64-smp
p1599
tp1600
(dp1601
Vconfigs
p1602
(lp1603
Vkernelarch-sparc/config-smp
p1604
ass(g223
g1553
g192
tp1605
(dp1606
g226
(lp1607
Vsparc64
p1608
aVsparc64-smp
p1609
asg230
I01
ss(Vbase
p1610
Vx32
p1611
tp1612
(dp1613
Vkernel-arch
p1614
Vx86
p1615
sVfeaturesets
p1616
(lp1617
ss(Vabi
p1618
NVrt
p1619
tp1620
(dp1621
Vignore-changes
p1622
(lp1623
V*
p1624
ass(Vdescription
p1625
Ng1619
tp1626
(dp1627
Vpart-long-rt
p1628
VThis kernel includes the PREEMPT_RT realtime patch set.
p1629
sVpart-short-rt
p1630
VPREEMPT_RT
p1631
sVparts
p1632
(lp1633
Vrt
p1634
ass(Vversion
p1635
tp1636
(dp1637
Vsource
p1638
V5.14.9-9parrot1
p1639
sVupstream
p1640
V5.14
p1641
sVabiname_base
p1642
V5.14.0
p1643
sVabiname
p1644
V5.14.0-9parrot1
p1645
ss.