cdebian_linux.config
ConfigCore
p0
(tRp1
(Vabi
p2
tp3
(dp4
Vabiname
p5
Vparrot8
p6
sVignore-changes
p7
(lp8
V__cpuhp_*
p9
aV__xive_vm_h_*
p10
aVbpf_analyzer
p11
aVcxl_*
p12
aVdax_flush
p13
aVieee80211_nullfunc_get
p14
aVinet_add_protocol
p15
aVinet_del_protocol
p16
aViommu_device_*
p17
aVkvm_async_pf_task_wait
p18
aVkvmppc_*
p19
aVmm_iommu_*
p20
aVmv_mbus_*
p21
aVperf_*
p22
aVregister_cxl_calls
p23
aVregister_key_type
p24
aVunregister_cxl_calls
p25
aV*_hw_breakpoint
p26
aVmodule:arch/x86/kvm/*
p27
aVmodule:drivers/crypto/ccp/*
p28
aVmodule:drivers/hv/*
p29
aVmodule:drivers/gpu/drm/sun4i/*
p30
aVmodule:drivers/iio/**
p31
aVmodule:drivers/misc/cxl/*
p32
aVmodule:drivers/mtd/nand/*
p33
aVmodule:drivers/net/wireless/**
p34
aVmodule:drivers/nvdimm/*
p35
aVmodule:drivers/power/supply/bq27xxx_battery
p36
aVmodule:drivers/scsi/cxgbi/*
p37
aVmodule:drivers/scsi/libiscs*
p38
aVmodule:drivers/scsi/qla2xxx/qla2xxx
p39
aVmodule:drivers/scsi/ufs/*
p40
aVmodule:drivers/target/**
p41
aVmodule:drivers/usb/chipidea/**
p42
aVmodule:drivers/usb/gadget/**
p43
aVmodule:drivers/usb/host/**
p44
aVmodule:drivers/usb/musb/**
p45
aVmodule:fs/nfs/**
p46
aVmodule:net/ceph/libceph
p47
aVmodule:net/l2tp/**
p48
aVmodule:net/rxrpc/rxrpc
p49
aVmodule:sound/core/seq/**
p50
aVmodule:sound/firewire/snd-firewire-lib
p51
aVmodule:sound/pci/hda/*
p52
aVbtree_*
p53
aVvisitor*
p54
aVcan_rx_register
p55
aVip6_xmit
p56
aVmodule:net/dccp/dccp
p57
aVmodule:net/rds/rds
p58
aVdevfreq_*
p59
aVdevm_devfreq_*
p60
aVupdate_devfreq
p61
aVmodule:drivers/infiniband/**
p62
aVacpi_ec_add_query_handler
p63
aVacpi_ec_remove_query_handler
p64
aVfirst_ec
p65
aVdebugfs_create_automount
p66
aVmodule:drivers/iio/imu/inv_mpu6050/*
p67
aVdrm_crtc_accurate_vblank_count
p68
aVacpi_nfit_desc_init
p69
aVacpi_nfit_init
p70
aVloop_register_transfer
p71
ass(Vbase
p72
tp73
(dp74
Varches
p75
(lp76
Valpha
p77
aVamd64
p78
aVarm64
p79
aVarm64ilp32
p80
aVarmel
p81
aVarmhf
p82
aVhppa
p83
aVi386
p84
aVia64
p85
aVm68k
p86
aVmips
p87
aVmips64
p88
aVmips64el
p89
aVmips64r6
p90
aVmips64r6el
p91
aVmipsel
p92
aVmipsn32
p93
aVmipsn32el
p94
aVmipsn32r6
p95
aVmipsn32r6el
p96
aVmipsr6
p97
aVmipsr6el
p98
aVpowerpc
p99
aVpowerpcspe
p100
aVppc64
p101
aVppc64el
p102
aVriscv64
p103
aVs390
p104
aVs390x
p105
aVsh3
p106
aVsh4
p107
aVsparc
p108
aVsparc64
p109
aVx32
p110
asVcompiler
p111
Vgcc-7
p112
sVfeaturesets
p113
(lp114
Vnone
p115
aVrt
p116
ass(Vbuild
p117
tp118
(dp119
Vdebug-info
p120
I01
sVsigned-code
p121
I00
ss(Vbase
p122
NVrt
p123
tp124
(dp125
Venabled
p126
I01
ss(Vdescription
p127
tp128
(dp129
Vpart-long-up
p130
VThis kernel is not suitable for SMP (multi-processor,\u000amulti-core or hyper-threaded) systems.
p131
ss(Vimage
p132
tp133
(dp134
Vinitramfs-generators
p135
(lp136
Vinitramfs-tools
p137
aVinitramfs-fallback
p138
asVrecommends
p139
Vapparmor
p140
ss(Vrelations
p141
tp142
(dp143
Vgcc-7
p144
Vgcc-7 <!stage1 !cross>, gcc-7-@gnu-type-package@ <!stage1 cross>
p145
sVinitramfs-fallback
p146
Vlinux-initramfs-tool
p147
sVinitramfs-tools
p148
Vinitramfs-tools (>= 0.120+deb8u2)
p149
ss(Vbase
p150
Valpha
p151
tp152
(dp153
Vkernel-arch
p154
Valpha
p155
sVfeaturesets
p156
(lp157
Vnone
p158
ass(Vbuild
p159
g151
tp160
(dp161
Vimage-file
p162
Varch/alpha/boot/vmlinux.gz
p163
ss(Vimage
p164
g151
tp165
(dp166
Vsuggests
p167
Vaboot, fdutils
p168
sVinstall-stem
p169
Vvmlinuz
p170
ss(Vdescription
p171
g151
NValpha-generic
p172
tp173
(dp174
Vhardware
p175
VAlpha
p176
sVhardware-long
p177
VDEC Alpha systems with extended kernel start address (Wildfire, Titan, Marvel)
p178
ss(Vdescription
p179
g151
NValpha-smp
p180
tp181
(dp182
Vhardware
p183
VAlpha SMP
p184
sVhardware-long
p185
VDEC Alpha SMP systems with extended kernel start address (Wildfire, Titan, Marvel)
p186
ss(Vbase
p187
g151
g158
tp188
(dp189
Vflavours
p190
(lp191
Valpha-generic
p192
aValpha-smp
p193
asVimplicit-flavour
p194
I01
ss(Vbase
p195
Vamd64
p196
tp197
(dp198
Vfeaturesets
p199
(lp200
Vnone
p201
aVrt
p202
asVkernel-arch
p203
Vx86
p204
ss(Vbuild
p205
g196
tp206
(dp207
Vdebug-info
p208
I01
sVimage-file
p209
Varch/x86/boot/bzImage
p210
sVvdso
p211
I01
ss(Vimage
p212
g196
tp213
(dp214
Vbootloaders
p215
(lp216
Vgrub-pc
p217
aVgrub-efi-amd64
p218
aVextlinux
p219
asVinstall-stem
p220
Vvmlinuz
p221
sVbreaks
p222
Vxserver-xorg-input-vmmouse (<< 1:13.0.99)
p223
ss(Vrelations
p224
g196
tp225
(dp226
Vgcc-7
p227
Vgcc-7 (>= 7.2.0-20~) <!stage1 !cross>, gcc-7-x86-64-linux-gnu (>= 7.2.0-20~) <!stage1 cross>
p228
sVheaders%gcc-7
p229
Vlinux-compiler-gcc-7-x86 (>= 4.14.17-1~)
p230
ss(Vdescription
p231
g196
NVamd64
p232
tp233
(dp234
Vhardware
p235
V64-bit PCs
p236
sVhardware-long
p237
VPCs with AMD64, Intel 64 or VIA Nano processors
p238
ss(Vdescription
p239
g196
NVcloud-amd64
p240
tp241
(dp242
Vhardware
p243
Vx86-64 cloud
p244
sVhardware-long
p245
VAmazon EC2, Google Compute Engine and Microsoft Azure cloud platforms
p246
ss(Vbase
p247
g196
Vnone
p248
tp249
(dp250
Vflavours
p251
(lp252
Vamd64
p253
aVcloud-amd64
p254
ass(Vbase
p255
g196
Vrt
p256
tp257
(dp258
Vflavours
p259
(lp260
Vamd64
p261
ass(Vbase
p262
Varm64
p263
tp264
(dp265
Vkernel-arch
p266
Varm64
p267
sVfeaturesets
p268
(lp269
Vnone
p270
aVrt
p271
ass(Vbuild
p272
g263
tp273
(dp274
Vdebug-info
p275
I01
sVimage-file
p276
Varch/arm64/boot/Image
p277
sVvdso
p278
I01
ss(Vimage
p279
g263
tp280
(dp281
Vinstall-stem
p282
Vvmlinuz
p283
sVbreaks
p284
Vlibmozjs185-1.0, libmozjs-24-0 (<< 24.2.0-5.1~)
p285
ss(Vdescription
p286
g263
NVarm64
p287
tp288
(dp289
Vhardware
p290
V64-bit ARMv8 machines
p291
ss(Vimage
p292
g263
NVarm64
p293
tp294
(dp295
s(Vbase
p296
g263
Vnone
p297
tp298
(dp299
Vflavours
p300
(lp301
Varm64
p302
ass(Vbase
p303
g263
Vrt
p304
tp305
(dp306
Vflavours
p307
(lp308
Varm64
p309
ass(Vbase
p310
Varm64ilp32
p311
tp312
(dp313
Vkernel-arch
p314
Varm64
p315
sVfeaturesets
p316
(lp317
ss(Vbase
p318
Varmel
p319
tp320
(dp321
Vkernel-arch
p322
Varm
p323
sg156
(lp324
g158
ass(Vbuild
p325
g319
tp326
(dp327
Vimage-file
p328
Varch/arm/boot/zImage
p329
sVuncompressed-image-file
p330
Varch/arm/boot/Image
p331
ss(Vimage
p332
g319
tp333
(dp334
Vinstall-stem
p335
Vvmlinuz
p336
ss(Vrelations
p337
g319
tp338
(dp339
Vheaders%gcc-7
p340
Vlinux-compiler-gcc-7-arm
p341
ss(Vdescription
p342
g319
NVmarvell
p343
tp344
(dp345
Vhardware
p346
VMarvell Kirkwood/Orion
p347
sVhardware-long
p348
VMarvell Kirkwood and Orion based systems (https://wiki.debian.org/ArmEabiPort#Supported_hardware)
p349
ss(Vimage
p350
g319
NVmarvell
p351
tp352
(dp353
Vrecommends
p354
Vu-boot-tools
p355
sVcheck-size
p356
L2097080L
sVcheck-size-with-dtb
p357
I01
sVcheck-uncompressed-size
p358
L7340032L
sVbreaks
p359
Vflash-kernel (<< 3.57~)
p360
ss(g187
g319
g158
tp361
(dp362
g190
(lp363
Vmarvell
p364
asg194
I01
ss(Vbase
p365
Varmhf
p366
tp367
(dp368
Vfeaturesets
p369
(lp370
Vnone
p371
aVrt
p372
asVkernel-arch
p373
Varm
p374
ss(Vbuild
p375
g366
tp376
(dp377
Vimage-file
p378
Varch/arm/boot/zImage
p379
sVvdso
p380
I01
ss(Vimage
p381
g366
tp382
(dp383
Vinstall-stem
p384
Vvmlinuz
p385
ss(Vrelations
p386
g366
tp387
(dp388
Vheaders%gcc-7
p389
Vlinux-compiler-gcc-7-arm
p390
ss(Vdescription
p391
g366
NVarmmp
p392
tp393
(dp394
Vhardware
p395
VARMv7 multiplatform compatible SoCs
p396
sVhardware-long
p397
VARMv7 multiplatform kernel. See\u000ahttps://wiki.debian.org/DebianKernel/ARMMP for details of supported\u000aplatforms
p398
ss(Vdescription
p399
g366
NVarmmp-lpae
p400
tp401
(dp402
Vhardware
p403
VARMv7 multiplatform compatible SoCs supporting LPAE
p404
sVhardware-long
p405
VARMv7 multiplatform kernel supporting LPAE. See\u000ahttps://wiki.debian.org/DebianKernel/ARMMP for details of supported\u000aplatforms.
p406
ss(Vbase
p407
g366
Vnone
p408
tp409
(dp410
Vflavours
p411
(lp412
Varmmp
p413
aVarmmp-lpae
p414
ass(Vbase
p415
g366
Vrt
p416
tp417
(dp418
Vflavours
p419
(lp420
Varmmp
p421
ass(Vbase
p422
Vhppa
p423
tp424
(dp425
Vkernel-arch
p426
Vparisc
p427
sg156
(lp428
g158
ass(Vbuild
p429
g423
tp430
(dp431
Vimage-file
p432
Varch/parisc/boot/bzImage
p433
sVdebug-info
p434
I00
ss(Vimage
p435
g423
tp436
(dp437
Vsuggests
p438
Vpalo
p439
sVinstall-stem
p440
Vvmlinuz
p441
ss(Vdescription
p442
g423
NVparisc
p443
tp444
(dp445
Vhardware
p446
V32-bit PA-RISC
p447
sVhardware-long
p448
VHP PA-RISC 32-bit systems with max 4 GB RAM
p449
ss(Vdescription
p450
g423
NVparisc-smp
p451
tp452
(dp453
Vhardware
p454
Vmultiprocessor 32-bit PA-RISC
p455
sVhardware-long
p456
VHP PA-RISC 32-bit SMP systems with max 4 GB RAM
p457
ss(Vbase
p458
g423
NVparisc64-smp
p459
tp460
(dp461
Vcflags
p462
V-fno-cse-follow-jumps
p463
sVoverride-host-type
p464
Vhppa64-linux-gnu
p465
ss(Vdescription
p466
g423
NVparisc64-smp
p467
tp468
(dp469
Vhardware
p470
Vmultiprocessor 64-bit PA-RISC
p471
sVhardware-long
p472
VHP PA-RISC 64-bit SMP systems with support for more than 4 GB RAM
p473
ss(Vrelations
p474
g423
tp475
(dp476
Vgcc-7
p477
Vgcc-7 <!stage1 !cross>, binutils-hppa64-linux-gnu <!stage1 !cross>, gcc-7-hppa64-linux-gnu <!stage1 !cross>, gcc-7-hppa-linux-gnu <!stage1 cross>, binutils-hppa64-linux-gnu <!stage1 cross>, gcc-7-hppa64-linux-gnu <!stage1 cross>
p478
ss(g187
g423
g158
tp479
(dp480
g190
(lp481
Vparisc
p482
aVparisc-smp
p483
aVparisc64-smp
p484
asg194
I01
ss(Vbase
p485
Vi386
p486
tp487
(dp488
Vfeaturesets
p489
(lp490
Vnone
p491
aVrt
p492
asVkernel-arch
p493
Vx86
p494
ss(Vbuild
p495
g486
tp496
(dp497
Vimage-file
p498
Varch/x86/boot/bzImage
p499
sVvdso
p500
I01
ss(Vdescription
p501
g486
tp502
(dp503
Vpart-long-pae
p504
VThis kernel requires PAE (Physical Address Extension).\u000aThis feature is supported by the Intel Pentium Pro/II/III/4/4M/D, Xeon,\u000aCore and Atom; AMD Geode NX, Athlon (K7), Duron, Opteron, Sempron,\u000aTurion or Phenom; Transmeta Efficeon; VIA C7; and some other processors.
p505
ss(Vimage
p506
g486
tp507
(dp508
Vbootloaders
p509
(lp510
Vgrub-pc
p511
aVextlinux
p512
asVinstall-stem
p513
Vvmlinuz
p514
sVbreaks
p515
Vxserver-xorg-input-vmmouse (<< 1:13.0.99)
p516
ss(Vrelations
p517
g486
tp518
(dp519
Vgcc-7
p520
Vgcc-7 (>= 7.2.0-20~) <!stage1 !cross>, gcc-7-i686-linux-gnu (>= 7.2.0-20~) <!stage1 cross>
p521
sVheaders%gcc-7
p522
Vlinux-compiler-gcc-7-x86 (>= 4.14.17-1~)
p523
ss(Vdescription
p524
g486
NV686
p525
tp526
(dp527
Vhardware
p528
Volder PCs
p529
sVhardware-long
p530
VPCs with one or more processors not supporting PAE
p531
ss(Vbuild
p532
g486
NV686-pae
p533
tp534
(dp535
Vdebug-info
p536
I01
ss(Vdescription
p537
g486
NV686-pae
p538
tp539
(dp540
Vhardware
p541
Vmodern PCs
p542
sVhardware-long
p543
VPCs with one or more processors supporting PAE
p544
sVparts
p545
(lp546
Vpae
p547
ass(Vbase
p548
g486
Vnone
p549
tp550
(dp551
Vflavours
p552
(lp553
V686
p554
aV686-pae
p555
ass(Vbase
p556
g486
Vrt
p557
tp558
(dp559
Vflavours
p560
(lp561
V686-pae
p562
ass(Vbase
p563
Via64
p564
tp565
(dp566
Vkernel-arch
p567
Via64
p568
sg156
(lp569
g158
ass(Vbuild
p570
g564
tp571
(dp572
Vimage-file
p573
Vvmlinux.gz
p574
ss(Vimage
p575
g564
tp576
(dp577
Vbootloaders
p578
(lp579
Velilo
p580
asVinstall-stem
p581
Vvmlinuz
p582
ss(Vdescription
p583
g564
NVitanium
p584
tp585
(dp586
Vhardware
p587
VItanium (Merced)
p588
sVhardware-long
p589
Vsystems with original Itanium (Merced) processors
p590
ss(Vdescription
p591
g564
NVmckinley
p592
tp593
(dp594
Vhardware
p595
VItanium 2+
p596
sVhardware-long
p597
Vsystems with Itanium 2 or 9300/9500/9700-series processors
p598
ss(g187
g564
g158
tp599
(dp600
g190
(lp601
Vitanium
p602
aVmckinley
p603
asg194
I01
ss(Vbase
p604
Vm68k
p605
tp606
(dp607
Vcflags
p608
V-ffreestanding
p609
sVkernel-arch
p610
Vm68k
p611
sg156
(lp612
g158
ass(Vbuild
p613
g605
tp614
(dp615
Vimage-file
p616
Vvmlinux
p617
ss(Vimage
p618
g605
tp619
(dp620
Vsuggests
p621
Vvmelilo, fdutils
p622
sVinstall-stem
p623
Vvmlinux
p624
ss(Vdescription
p625
g605
NVm68k
p626
tp627
(dp628
Vhardware
p629
VMotorola MC68020+ family
p630
ss(g187
g605
g158
tp631
(dp632
g190
(lp633
Vm68k
p634
asg194
I01
ss(Vbase
p635
Vmips
p636
tp637
(dp638
Vkernel-arch
p639
Vmips
p640
sg156
(lp641
g158
ass(Vbuild
p642
g636
tp643
(dp644
Vimage-file
p645
Vvmlinux
p646
ss(Vimage
p647
g636
tp648
(dp649
Vinstall-stem
p650
Vvmlinux
p651
ss(Vdescription
p652
g636
NV4kc-malta
p653
tp654
(dp655
Vhardware
p656
VMIPS Malta
p657
sVhardware-long
p658
VMIPS Malta boards
p659
ss(Vimage
p660
g636
NV4kc-malta
p661
tp662
(dp663
Vconfigs
p664
(lp665
Vkernelarch-mips/config.malta
p666
aVkernelarch-mips/config.mips32r2
p667
ass(Vdescription
p668
g636
NV5kc-malta
p669
tp670
(dp671
Vhardware
p672
VMIPS Malta (64-bit)
p673
sVhardware-long
p674
VMIPS Malta boards (64-bit)
p675
ss(Vimage
p676
g636
NV5kc-malta
p677
tp678
(dp679
Vconfigs
p680
(lp681
Vkernelarch-mips/config.malta
p682
aVkernelarch-mips/config.mips64r2
p683
ass(Vdescription
p684
g636
NVocteon
p685
tp686
(dp687
Vhardware
p688
VOcteon
p689
sVhardware-long
p690
VCavium Networks Octeon
p691
ss(Vimage
p692
g636
NVocteon
p693
tp694
(dp695
Vconfigs
p696
(lp697
Vkernelarch-mips/config.octeon
p698
ass(g187
g636
g158
tp699
(dp700
g190
(lp701
V4kc-malta
p702
aV5kc-malta
p703
aVocteon
p704
asg194
I01
ss(Vbase
p705
Vmips64
p706
tp707
(dp708
Vkernel-arch
p709
Vmips
p710
sg156
(lp711
g158
ass(Vbuild
p712
g706
tp713
(dp714
Vimage-file
p715
Vvmlinux
p716
ss(Vimage
p717
g706
tp718
(dp719
Vinstall-stem
p720
Vvmlinux
p721
ss(Vdescription
p722
g706
NV5kc-malta
p723
tp724
(dp725
Vhardware
p726
VMIPS Malta
p727
sVhardware-long
p728
VMIPS Malta boards
p729
ss(Vimage
p730
g706
NV5kc-malta
p731
tp732
(dp733
Vconfigs
p734
(lp735
Vkernelarch-mips/config.malta
p736
aVkernelarch-mips/config.mips64r2
p737
ass(Vdescription
p738
g706
NVocteon
p739
tp740
(dp741
Vhardware
p742
VOcteon
p743
sVhardware-long
p744
VCavium Networks Octeon
p745
ss(Vimage
p746
g706
NVocteon
p747
tp748
(dp749
Vconfigs
p750
(lp751
Vkernelarch-mips/config.octeon
p752
ass(g187
g706
g158
tp753
(dp754
g190
(lp755
V5kc-malta
p756
aVocteon
p757
asg194
I01
ss(Vbase
p758
Vmips64el
p759
tp760
(dp761
Vkernel-arch
p762
Vmips
p763
sg156
(lp764
g158
ass(Vbuild
p765
g759
tp766
(dp767
Vimage-file
p768
Vvmlinux
p769
ss(Vimage
p770
g759
tp771
(dp772
Vinstall-stem
p773
Vvmlinux
p774
ss(Vdescription
p775
g759
NV5kc-malta
p776
tp777
(dp778
Vhardware
p779
VMIPS Malta
p780
sVhardware-long
p781
VMIPS Malta boards
p782
ss(Vimage
p783
g759
NV5kc-malta
p784
tp785
(dp786
Vconfigs
p787
(lp788
Vkernelarch-mips/config.malta
p789
aVkernelarch-mips/config.mips64r2
p790
ass(Vdescription
p791
g759
NVloongson-3
p792
tp793
(dp794
Vhardware
p795
VLoongson 3A/3B
p796
sVhardware-long
p797
VLoongson 3A or 3B based systems (e.g. from Loongson or Lemote)
p798
ss(Vimage
p799
g759
NVloongson-3
p800
tp801
(dp802
Vconfigs
p803
(lp804
Vkernelarch-mips/config.loongson-3
p805
ass(Vdescription
p806
g759
NVocteon
p807
tp808
(dp809
Vhardware
p810
VOcteon
p811
sVhardware-long
p812
VCavium Networks Octeon
p813
ss(Vimage
p814
g759
NVocteon
p815
tp816
(dp817
Vconfigs
p818
(lp819
Vkernelarch-mips/config.octeon
p820
ass(g187
g759
g158
tp821
(dp822
g190
(lp823
V5kc-malta
p824
aVloongson-3
p825
aVocteon
p826
asg194
I01
ss(Vbase
p827
Vmips64r6
p828
tp829
(dp830
Vkernel-arch
p831
Vmips
p832
sg156
(lp833
g158
ass(Vbuild
p834
g828
tp835
(dp836
Vimage-file
p837
Vvmlinux
p838
ss(Vimage
p839
g828
tp840
(dp841
Vinstall-stem
p842
Vvmlinux
p843
ss(Vdescription
p844
g828
NVmips64r6
p845
tp846
(dp847
Vhardware
p848
VMIPS R6 (64 bit, big endian)
p849
sVhardware-long
p850
VMIPS R6 (64 bit, big endian)
p851
ss(Vimage
p852
g828
NVmips64r6
p853
tp854
(dp855
Vconfigs
p856
(lp857
Vkernelarch-mips/config.boston
p858
aVkernelarch-mips/config.mips64r6
p859
ass(g187
g828
g158
tp860
(dp861
g190
(lp862
Vmips64r6
p863
asg194
I01
ss(Vbase
p864
Vmips64r6el
p865
tp866
(dp867
Vkernel-arch
p868
Vmips
p869
sg156
(lp870
g158
ass(Vbuild
p871
g865
tp872
(dp873
Vimage-file
p874
Vvmlinux
p875
ss(Vimage
p876
g865
tp877
(dp878
Vinstall-stem
p879
Vvmlinux
p880
ss(Vdescription
p881
g865
NVmips64r6el
p882
tp883
(dp884
Vhardware
p885
VMIPS R6 (64 bit, little endian)
p886
sVhardware-long
p887
VMIPS R6 (64 bit, little endian)
p888
ss(Vimage
p889
g865
NVmips64r6el
p890
tp891
(dp892
Vconfigs
p893
(lp894
Vkernelarch-mips/config.boston
p895
aVkernelarch-mips/config.mips64r6
p896
ass(g187
g865
g158
tp897
(dp898
g190
(lp899
Vmips64r6el
p900
asg194
I01
ss(Vbase
p901
Vmipsel
p902
tp903
(dp904
Vkernel-arch
p905
Vmips
p906
sg156
(lp907
g158
ass(Vbuild
p908
g902
tp909
(dp910
Vimage-file
p911
Vvmlinux
p912
ss(Vimage
p913
g902
tp914
(dp915
Vinstall-stem
p916
Vvmlinux
p917
ss(Vdescription
p918
g902
NV4kc-malta
p919
tp920
(dp921
Vhardware
p922
VMIPS Malta
p923
sVhardware-long
p924
VMIPS Malta boards
p925
ss(Vimage
p926
g902
NV4kc-malta
p927
tp928
(dp929
Vconfigs
p930
(lp931
Vkernelarch-mips/config.malta
p932
aVkernelarch-mips/config.mips32r2
p933
ass(Vdescription
p934
g902
NV5kc-malta
p935
tp936
(dp937
Vhardware
p938
VMIPS Malta (64-bit)
p939
sVhardware-long
p940
VMIPS Malta boards (64-bit)
p941
ss(Vimage
p942
g902
NV5kc-malta
p943
tp944
(dp945
Vconfigs
p946
(lp947
Vkernelarch-mips/config.malta
p948
aVkernelarch-mips/config.mips64r2
p949
ass(Vdescription
p950
g902
NVloongson-3
p951
tp952
(dp953
Vhardware
p954
VLoongson 3A/3B
p955
sVhardware-long
p956
VLoongson 3A or 3B based systems (e.g. from Loongson or Lemote)
p957
ss(Vimage
p958
g902
NVloongson-3
p959
tp960
(dp961
Vconfigs
p962
(lp963
Vkernelarch-mips/config.loongson-3
p964
ass(Vdescription
p965
g902
NVocteon
p966
tp967
(dp968
Vhardware
p969
VOcteon
p970
sVhardware-long
p971
VCavium Networks Octeon
p972
ss(Vimage
p973
g902
NVocteon
p974
tp975
(dp976
Vconfigs
p977
(lp978
Vkernelarch-mips/config.octeon
p979
ass(g187
g902
g158
tp980
(dp981
g190
(lp982
V4kc-malta
p983
aV5kc-malta
p984
aVloongson-3
p985
aVocteon
p986
asg194
I01
ss(Vbase
p987
Vmipsn32
p988
tp989
(dp990
Vkernel-arch
p991
Vmips
p992
sVfeaturesets
p993
(lp994
ss(Vbase
p995
Vmipsn32el
p996
tp997
(dp998
Vkernel-arch
p999
Vmips
p1000
sVfeaturesets
p1001
(lp1002
ss(Vbase
p1003
Vmipsn32r6
p1004
tp1005
(dp1006
Vkernel-arch
p1007
Vmips
p1008
sVfeaturesets
p1009
(lp1010
ss(Vbase
p1011
Vmipsn32r6el
p1012
tp1013
(dp1014
Vkernel-arch
p1015
Vmips
p1016
sVfeaturesets
p1017
(lp1018
ss(Vbase
p1019
Vmipsr6
p1020
tp1021
(dp1022
Vkernel-arch
p1023
Vmips
p1024
sg156
(lp1025
g158
ass(Vbuild
p1026
g1020
tp1027
(dp1028
Vimage-file
p1029
Vvmlinux
p1030
ss(Vimage
p1031
g1020
tp1032
(dp1033
Vinstall-stem
p1034
Vvmlinux
p1035
ss(Vdescription
p1036
g1020
NVmips32r6
p1037
tp1038
(dp1039
Vhardware
p1040
VMIPS R6 (32 bit, big endian)
p1041
sVhardware-long
p1042
VMIPS R6 (32 bit, big endian)
p1043
ss(Vimage
p1044
g1020
NVmips32r6
p1045
tp1046
(dp1047
Vconfigs
p1048
(lp1049
Vkernelarch-mips/config.boston
p1050
aVkernelarch-mips/config.mips32r6
p1051
ass(Vdescription
p1052
g1020
NVmips64r6
p1053
tp1054
(dp1055
Vhardware
p1056
VMIPS R6 (64 bit, big endian)
p1057
sVhardware-long
p1058
VMIPS R6 (64 bit, big endian)
p1059
ss(Vimage
p1060
g1020
NVmips64r6
p1061
tp1062
(dp1063
Vconfigs
p1064
(lp1065
Vkernelarch-mips/config.boston
p1066
aVkernelarch-mips/config.mips64r6
p1067
ass(g187
g1020
g158
tp1068
(dp1069
g190
(lp1070
Vmips32r6
p1071
aVmips64r6
p1072
asg194
I01
ss(Vbase
p1073
Vmipsr6el
p1074
tp1075
(dp1076
Vkernel-arch
p1077
Vmips
p1078
sg156
(lp1079
g158
ass(Vbuild
p1080
g1074
tp1081
(dp1082
Vimage-file
p1083
Vvmlinux
p1084
ss(Vimage
p1085
g1074
tp1086
(dp1087
Vinstall-stem
p1088
Vvmlinux
p1089
ss(Vdescription
p1090
g1074
NVmips32r6el
p1091
tp1092
(dp1093
Vhardware
p1094
VMIPS R6 (32 bit, little endian)
p1095
sVhardware-long
p1096
VMIPS R6 (32 bit, little endian)
p1097
ss(Vimage
p1098
g1074
NVmips32r6el
p1099
tp1100
(dp1101
Vconfigs
p1102
(lp1103
Vkernelarch-mips/config.boston
p1104
aVkernelarch-mips/config.mips32r6
p1105
ass(Vdescription
p1106
g1074
NVmips64r6el
p1107
tp1108
(dp1109
Vhardware
p1110
VMIPS R6 (64 bit, little endian)
p1111
sVhardware-long
p1112
VMIPS R6 (64 bit, little endian)
p1113
ss(Vimage
p1114
g1074
NVmips64r6el
p1115
tp1116
(dp1117
Vconfigs
p1118
(lp1119
Vkernelarch-mips/config.boston
p1120
aVkernelarch-mips/config.mips64r6
p1121
ass(g187
g1074
g158
tp1122
(dp1123
g190
(lp1124
Vmips32r6el
p1125
aVmips64r6el
p1126
asg194
I01
ss(Vbase
p1127
Vpowerpc
p1128
tp1129
(dp1130
Vkernel-arch
p1131
Vpowerpc
p1132
sg156
(lp1133
g158
ass(Vbuild
p1134
g1128
tp1135
(dp1136
Vimage-file
p1137
Vvmlinux
p1138
sVvdso
p1139
I01
ss(Vimage
p1140
g1128
tp1141
(dp1142
Vconfigs
p1143
(lp1144
sVsuggests
p1145
Vmkvmlinuz
p1146
sVinstall-stem
p1147
Vvmlinux
p1148
ss(Vdescription
p1149
g1128
NVpowerpc
p1150
tp1151
(dp1152
Vhardware
p1153
Vuniprocessor 32-bit PowerPC
p1154
ss(Vdescription
p1155
g1128
NVpowerpc-smp
p1156
tp1157
(dp1158
Vhardware
p1159
Vmultiprocessor 32-bit PowerPC
p1160
ss(Vimage
p1161
g1128
NVpowerpc-smp
p1162
tp1163
(dp1164
Vconfigs
p1165
(lp1166
Vpowerpc/config.powerpc
p1167
aVpowerpc/config.powerpc-smp
p1168
ass(Vdescription
p1169
g1128
NVpowerpc64
p1170
tp1171
(dp1172
Vhardware
p1173
V64-bit PowerPC
p1174
ss(Vimage
p1175
g1128
NVpowerpc64
p1176
tp1177
(dp1178
Vconfigs
p1179
(lp1180
Vkernelarch-powerpc/config-arch-64
p1181
aVkernelarch-powerpc/config-arch-64-be
p1182
ass(g187
g1128
g158
tp1183
(dp1184
g190
(lp1185
Vpowerpc
p1186
aVpowerpc-smp
p1187
aVpowerpc64
p1188
asg194
I01
ss(Vbase
p1189
Vpowerpcspe
p1190
tp1191
(dp1192
Vkernel-arch
p1193
Vpowerpc
p1194
sg156
(lp1195
g158
ass(Vbuild
p1196
g1190
tp1197
(dp1198
Vimage-file
p1199
Vvmlinux
p1200
sVvdso
p1201
I01
ss(Vimage
p1202
g1190
tp1203
(dp1204
Vsuggests
p1205
Vmkvmlinuz
p1206
sVinstall-stem
p1207
Vvmlinux
p1208
ss(Vdescription
p1209
g1190
tp1210
(dp1211
Vhardware
p1212
V32-bit PowerPC with SPE (instead of AltiVec) with SMP support
p1213
ss(g187
g1190
g158
tp1214
(dp1215
g190
(lp1216
Vpowerpcspe
p1217
asg194
I01
ss(Vbase
p1218
Vppc64
p1219
tp1220
(dp1221
Vkernel-arch
p1222
Vpowerpc
p1223
sg156
(lp1224
g158
ass(Vbuild
p1225
g1219
tp1226
(dp1227
Vimage-file
p1228
Vvmlinux
p1229
sVvdso
p1230
I01
ss(Vimage
p1231
g1219
tp1232
(dp1233
Vconfigs
p1234
(lp1235
sVsuggests
p1236
Vmkvmlinuz
p1237
sVinstall-stem
p1238
Vvmlinux
p1239
ss(Vdescription
p1240
g1219
NVpowerpc64
p1241
tp1242
(dp1243
Vhardware
p1244
V64-bit PowerPC
p1245
ss(Vimage
p1246
g1219
NVpowerpc64
p1247
tp1248
(dp1249
Vconfigs
p1250
(lp1251
Vkernelarch-powerpc/config-arch-64
p1252
aVkernelarch-powerpc/config-arch-64-be
p1253
ass(g187
g1219
g158
tp1254
(dp1255
g190
(lp1256
Vpowerpc64
p1257
asg194
I01
ss(Vbase
p1258
Vppc64el
p1259
tp1260
(dp1261
Vkernel-arch
p1262
Vpowerpc
p1263
sg156
(lp1264
g158
ass(Vbuild
p1265
g1259
tp1266
(dp1267
Vimage-file
p1268
Vvmlinux
p1269
sVvdso
p1270
I01
ss(Vimage
p1271
g1259
tp1272
(dp1273
Vconfigs
p1274
(lp1275
sVsuggests
p1276
Vmkvmlinuz
p1277
sVinstall-stem
p1278
Vvmlinux
p1279
ss(Vdescription
p1280
g1259
NVpowerpc64le
p1281
tp1282
(dp1283
Vhardware
p1284
VLittle-endian 64-bit PowerPC
p1285
ss(Vimage
p1286
g1259
NVpowerpc64le
p1287
tp1288
(dp1289
Vconfigs
p1290
(lp1291
Vkernelarch-powerpc/config-arch-64
p1292
aVkernelarch-powerpc/config-arch-64-le
p1293
ass(g187
g1259
g158
tp1294
(dp1295
g190
(lp1296
Vpowerpc64le
p1297
asg194
I01
ss(Vbase
p1298
Vriscv64
p1299
tp1300
(dp1301
Vkernel-arch
p1302
Vriscv
p1303
sVfeaturesets
p1304
(lp1305
ss(Vbase
p1306
Vs390
p1307
tp1308
(dp1309
Vkernel-arch
p1310
Vs390
p1311
sVfeaturesets
p1312
(lp1313
ss(Vbase
p1314
Vs390x
p1315
tp1316
(dp1317
Vkernel-arch
p1318
Vs390
p1319
sg156
(lp1320
g158
ass(Vbuild
p1321
g1315
tp1322
(dp1323
Vimage-file
p1324
Varch/s390/boot/image
p1325
sVvdso
p1326
I01
ss(Vimage
p1327
g1315
tp1328
(dp1329
Vbootloaders
p1330
(lp1331
Vs390-tools
p1332
asVinstall-stem
p1333
Vvmlinuz
p1334
ss(Vrelations
p1335
g1315
tp1336
(dp1337
Vheaders%gcc-7
p1338
Vlinux-compiler-gcc-7-s390
p1339
ss(Vbuild
p1340
g1315
NVs390x
p1341
tp1342
(dp1343
Vdebug-info
p1344
I01
ss(Vdescription
p1345
g1315
NVs390x
p1346
tp1347
(dp1348
Vhardware
p1349
VIBM zSeries
p1350
ss(g187
g1315
g158
tp1351
(dp1352
g190
(lp1353
Vs390x
p1354
asg194
I01
ss(Vbase
p1355
Vsh3
p1356
tp1357
(dp1358
Vkernel-arch
p1359
Vsh
p1360
sVfeaturesets
p1361
(lp1362
ss(Vbase
p1363
Vsh4
p1364
tp1365
(dp1366
Vkernel-arch
p1367
Vsh
p1368
sg156
(lp1369
g158
ass(Vbuild
p1370
g1364
tp1371
(dp1372
Vimage-file
p1373
Varch/sh/boot/zImage
p1374
ss(Vimage
p1375
g1364
tp1376
(dp1377
Vinstall-stem
p1378
Vvmlinuz
p1379
ss(Vdescription
p1380
g1364
NVsh7751r
p1381
tp1382
(dp1383
Vhardware
p1384
Vsh7751r
p1385
sVhardware-long
p1386
VRenesas SH7751R R2D plus board
p1387
ss(Vdescription
p1388
g1364
NVsh7785lcr
p1389
tp1390
(dp1391
Vhardware
p1392
Vsh7785lcr
p1393
sVhardware-long
p1394
VRenesas SH7785 reference board
p1395
ss(Vimage
p1396
g1364
NVsh7785lcr
p1397
tp1398
(dp1399
Vrecommends
p1400
Vu-boot-tools
p1401
sVcheck-size
p1402
L4194304L
ss(g187
g1364
g158
tp1403
(dp1404
g190
(lp1405
Vsh7751r
p1406
aVsh7785lcr
p1407
asg194
I01
ss(Vbase
p1408
Vsparc
p1409
tp1410
(dp1411
Vkernel-arch
p1412
Vsparc
p1413
sVfeaturesets
p1414
(lp1415
ss(Vbase
p1416
Vsparc64
p1417
tp1418
(dp1419
Vkernel-arch
p1420
Vsparc
p1421
sg156
(lp1422
g158
ass(Vbuild
p1423
g1417
tp1424
(dp1425
Vimage-file
p1426
Varch/sparc/boot/zImage
p1427
ss(Vimage
p1428
g1417
tp1429
(dp1430
Vconfigs
p1431
(lp1432
sVsuggests
p1433
Vsilo, fdutils
p1434
sVinstall-stem
p1435
Vvmlinuz
p1436
ss(Vdescription
p1437
g1417
NVsparc64
p1438
tp1439
(dp1440
Vhardware
p1441
Vuniprocessor 64-bit UltraSPARC
p1442
ss(Vimage
p1443
g1417
NVsparc64
p1444
tp1445
(dp1446
Vconfigs
p1447
(lp1448
Vkernelarch-sparc/config-up
p1449
ass(Vdescription
p1450
g1417
NVsparc64-smp
p1451
tp1452
(dp1453
Vhardware
p1454
Vmultiprocessor 64-bit UltraSPARC
p1455
ss(Vimage
p1456
g1417
NVsparc64-smp
p1457
tp1458
(dp1459
Vconfigs
p1460
(lp1461
Vkernelarch-sparc/config-smp
p1462
ass(g187
g1417
g158
tp1463
(dp1464
g190
(lp1465
Vsparc64
p1466
aVsparc64-smp
p1467
asg194
I01
ss(Vbase
p1468
Vx32
p1469
tp1470
(dp1471
Vkernel-arch
p1472
Vx86
p1473
sVfeaturesets
p1474
(lp1475
ss(Vabi
p1476
NVrt
p1477
tp1478
(dp1479
Vignore-changes
p1480
(lp1481
V*
p1482
ass(Vdescription
p1483
Ng1477
tp1484
(dp1485
Vpart-long-rt
p1486
VThis kernel includes the PREEMPT_RT realtime patch set.
p1487
sVpart-short-rt
p1488
VPREEMPT_RT
p1489
sVparts
p1490
(lp1491
Vrt
p1492
ass(Vversion
p1493
tp1494
(dp1495
Vsource
p1496
V4.18.6-1parrot8
p1497
sVupstream
p1498
V4.18
p1499
sVabiname_base
p1500
V4.18.0
p1501
sVabiname
p1502
V4.18.0-parrot8
p1503
ss.