cdebian_linux.config
ConfigCore
p0
(tRp1
(Vabi
p2
tp3
(dp4
Vabiname
p5
V1parrot1
p6
sVignore-changes
p7
(lp8
V__cpuhp_*
p9
aV__xive_vm_h_*
p10
aVbpf_analyzer
p11
aVcxl_*
p12
aVdax_flush
p13
aVieee80211_nullfunc_get
p14
aVinet_add_protocol
p15
aVinet_del_protocol
p16
aViommu_device_*
p17
aVkvm_async_pf_task_wait
p18
aVkvmppc_*
p19
aVmm_iommu_*
p20
aVmv_mbus_*
p21
aVperf_*
p22
aVregister_cxl_calls
p23
aVregister_key_type
p24
aVunregister_cxl_calls
p25
aV*_hw_breakpoint
p26
aVmodule:arch/x86/kvm/*
p27
aVmodule:drivers/crypto/ccp/*
p28
aVmodule:drivers/hv/*
p29
aVmodule:drivers/gpu/drm/sun4i/*
p30
aVmodule:drivers/iio/**
p31
aVmodule:drivers/misc/cxl/*
p32
aVmodule:drivers/mtd/nand/*
p33
aVmodule:drivers/net/ethernet/**
p34
aVmodule:drivers/net/wireless/**
p35
aVmodule:drivers/nvdimm/*
p36
aVmodule:drivers/power/supply/bq27xxx_battery
p37
aVmodule:drivers/scsi/cxgbi/*
p38
aVmodule:drivers/scsi/libiscs*
p39
aVmodule:drivers/scsi/qla2xxx/qla2xxx
p40
aVmodule:drivers/scsi/ufs/*
p41
aVmodule:drivers/target/**
p42
aVmodule:drivers/usb/chipidea/**
p43
aVmodule:drivers/usb/gadget/**
p44
aVmodule:drivers/usb/host/**
p45
aVmodule:drivers/usb/musb/**
p46
aVmodule:fs/nfs/**
p47
aVmodule:net/ceph/libceph
p48
aVmodule:net/l2tp/**
p49
aVmodule:net/rxrpc/rxrpc
p50
aVmodule:net/sctp/**
p51
aVmodule:sound/core/seq/**
p52
aVmodule:sound/firewire/snd-firewire-lib
p53
aVmodule:sound/pci/hda/*
p54
aVbtree_*
p55
aVvisitor*
p56
aVcan_rx_register
p57
aVip6_xmit
p58
aVmodule:net/dccp/dccp
p59
aVmodule:net/rds/rds
p60
aVdevfreq_*
p61
aVdevm_devfreq_*
p62
aVupdate_devfreq
p63
aVmodule:drivers/infiniband/**
p64
aVacpi_ec_add_query_handler
p65
aVacpi_ec_remove_query_handler
p66
aVfirst_ec
p67
aVdebugfs_create_automount
p68
aVmodule:drivers/iio/imu/inv_mpu6050/*
p69
aVdrm_crtc_accurate_vblank_count
p70
aVacpi_nfit_desc_init
p71
aVacpi_nfit_init
p72
aVloop_register_transfer
p73
aVxen_xlate_*
p74
aVnf_nat_masquerade_ipv4_register_notifier
p75
aVnf_nat_masquerade_ipv6_register_notifier
p76
aVmodule:drivers/scsi/hisi_sas/*
p77
ass(Vbase
p78
tp79
(dp80
Varches
p81
(lp82
Valpha
p83
aVamd64
p84
aVarm64
p85
aVarm64ilp32
p86
aVarmel
p87
aVarmhf
p88
aVhppa
p89
aVi386
p90
aVia64
p91
aVm68k
p92
aVmips
p93
aVmips64
p94
aVmips64el
p95
aVmips64r6
p96
aVmips64r6el
p97
aVmipsel
p98
aVmipsn32
p99
aVmipsn32el
p100
aVmipsn32r6
p101
aVmipsn32r6el
p102
aVmipsr6
p103
aVmipsr6el
p104
aVpowerpc
p105
aVppc64
p106
aVppc64el
p107
aVriscv64
p108
aVs390
p109
aVs390x
p110
aVsh3
p111
aVsh4
p112
aVsparc
p113
aVsparc64
p114
aVx32
p115
asVcompiler
p116
Vgcc-9
p117
sVfeaturesets
p118
(lp119
Vnone
p120
aVrt
p121
ass(Vbuild
p122
tp123
(dp124
Vdebug-info
p125
I01
sVsigned-code
p126
I00
ss(Vbase
p127
NVrt
p128
tp129
(dp130
Venabled
p131
I00
ss(Vdescription
p132
tp133
(dp134
Vpart-long-up
p135
VThis kernel is not suitable for SMP (multi-processor,\u000amulti-core or hyper-threaded) systems.
p136
ss(Vimage
p137
tp138
(dp139
Vinitramfs-generators
p140
(lp141
Vinitramfs-tools
p142
aVinitramfs-fallback
p143
asVrecommends
p144
(lp145
Vapparmor
p146
ass(Vrelations
p147
tp148
(dp149
Vgcc-9
p150
Vgcc-9 <!stage1 !cross !pkg.linux.nokernel>, gcc-9-@gnu-type-package@ <!stage1 cross !pkg.linux.nokernel>
p151
sVinitramfs-fallback
p152
Vlinux-initramfs-tool
p153
sVinitramfs-tools
p154
Vinitramfs-tools (>= 0.120+deb8u2)
p155
ss(Vbase
p156
Valpha
p157
tp158
(dp159
Vkernel-arch
p160
Valpha
p161
sVfeaturesets
p162
(lp163
Vnone
p164
ass(Vbuild
p165
g157
tp166
(dp167
Vimage-file
p168
Varch/alpha/boot/vmlinux.gz
p169
ss(Vimage
p170
g157
tp171
(dp172
Vsuggests
p173
(lp174
Vaboot
p175
aVfdutils
p176
asVinstall-stem
p177
Vvmlinuz
p178
ss(Vdescription
p179
g157
NValpha-generic
p180
tp181
(dp182
Vhardware
p183
VAlpha
p184
sVhardware-long
p185
VDEC Alpha systems with extended kernel start address (Wildfire, Titan, Marvel)
p186
ss(Vdescription
p187
g157
NValpha-smp
p188
tp189
(dp190
Vhardware
p191
VAlpha SMP
p192
sVhardware-long
p193
VDEC Alpha SMP systems with extended kernel start address (Wildfire, Titan, Marvel)
p194
ss(Vbase
p195
g157
g164
tp196
(dp197
Vflavours
p198
(lp199
Valpha-generic
p200
aValpha-smp
p201
asVimplicit-flavour
p202
I01
ss(Vbase
p203
Vamd64
p204
tp205
(dp206
Vfeaturesets
p207
(lp208
Vnone
p209
aVrt
p210
asVkernel-arch
p211
Vx86
p212
ss(Vbuild
p213
g204
tp214
(dp215
Vdebug-info
p216
I01
sVimage-file
p217
Varch/x86/boot/bzImage
p218
sVsigned-code
p219
I00
sVvdso
p220
I01
ss(Vimage
p221
g204
tp222
(dp223
Vbootloaders
p224
(lp225
Vgrub-pc
p226
aVgrub-efi-amd64
p227
aVextlinux
p228
asVinstall-stem
p229
Vvmlinuz
p230
sVbreaks
p231
(lp232
Vxserver-xorg-input-vmmouse (<< 1:13.0.99)
p233
ass(Vrelations
p234
g204
tp235
(dp236
Vheaders%gcc-9
p237
Vlinux-compiler-gcc-9-x86
p238
ss(Vdescription
p239
g204
NVamd64
p240
tp241
(dp242
Vhardware
p243
V64-bit PCs
p244
sVhardware-long
p245
VPCs with AMD64, Intel 64 or VIA Nano processors
p246
ss(Vdescription
p247
g204
NVcloud-amd64
p248
tp249
(dp250
Vhardware
p251
Vx86-64 cloud
p252
sVhardware-long
p253
VAmazon EC2, Google Compute Engine and Microsoft Azure cloud platforms
p254
ss(Vbase
p255
g204
Vnone
p256
tp257
(dp258
Vflavours
p259
(lp260
Vamd64
p261
aVcloud-amd64
p262
ass(Vbase
p263
g204
Vrt
p264
tp265
(dp266
Vflavours
p267
(lp268
Vamd64
p269
ass(Vbase
p270
Varm64
p271
tp272
(dp273
Vkernel-arch
p274
Varm64
p275
sVfeaturesets
p276
(lp277
Vnone
p278
aVrt
p279
ass(Vbuild
p280
g271
tp281
(dp282
Vdebug-info
p283
I01
sVimage-file
p284
Varch/arm64/boot/Image
p285
sVsigned-code
p286
I00
sVvdso
p287
I01
ss(Vimage
p288
g271
tp289
(dp290
Vinstall-stem
p291
Vvmlinuz
p292
sVbreaks
p293
(lp294
Vlibmozjs185-1.0
p295
aVlibmozjs-24-0 (<< 24.2.0-5.1~)
p296
ass(Vdescription
p297
g271
NVarm64
p298
tp299
(dp300
Vhardware
p301
V64-bit ARMv8 machines
p302
ss(Vimage
p303
g271
NVarm64
p304
tp305
(dp306
s(Vrelations
p307
g271
tp308
(dp309
Vgcc-9
p310
Vgcc-9 <!stage1 !cross !pkg.linux.nokernel>, gcc-9-aarch64-linux-gnu <!stage1 cross !pkg.linux.nokernel>, gcc-arm-linux-gnueabihf <!stage1 !pkg.linux.nokernel>
p311
sVheaders%gcc-9
p312
Vgcc-9
p313
ss(Vbase
p314
g271
Vnone
p315
tp316
(dp317
Vflavours
p318
(lp319
Varm64
p320
ass(Vbase
p321
g271
Vrt
p322
tp323
(dp324
Vflavours
p325
(lp326
Varm64
p327
ass(Vbase
p328
Varm64ilp32
p329
tp330
(dp331
Vkernel-arch
p332
Varm64
p333
sVfeaturesets
p334
(lp335
ss(Vbase
p336
Varmel
p337
tp338
(dp339
Vkernel-arch
p340
Varm
p341
sg162
(lp342
g164
ass(Vbuild
p343
g337
tp344
(dp345
Vimage-file
p346
Varch/arm/boot/zImage
p347
sVuncompressed-image-file
p348
Varch/arm/boot/Image
p349
ss(Vimage
p350
g337
tp351
(dp352
Vinstall-stem
p353
Vvmlinuz
p354
ss(Vrelations
p355
g337
tp356
(dp357
Vheaders%gcc-9
p358
Vlinux-compiler-gcc-9-arm
p359
ss(Vdescription
p360
g337
NVmarvell
p361
tp362
(dp363
Vhardware
p364
VMarvell Kirkwood/Orion
p365
sVhardware-long
p366
VMarvell Kirkwood and Orion based systems (https://wiki.debian.org/ArmEabiPort#Supported_hardware)
p367
ss(Vdescription
p368
g337
NVrpi
p369
tp370
(dp371
Vhardware
p372
VRaspberry Pi and Pi Zero
p373
sVhardware-long
p374
VRaspberry Pi, Raspberry Pi Zero based systems
p375
ss(Vimage
p376
g337
NVmarvell
p377
tp378
(dp379
Vrecommends
p380
(lp381
Vu-boot-tools
p382
asVcheck-size
p383
I2729712
sVcheck-size-with-dtb
p384
I01
sVcheck-uncompressed-size
p385
I7340032
sVbreaks
p386
(lp387
Vflash-kernel (<< 3.57~)
p388
ass(g195
g337
g164
tp389
(dp390
g198
(lp391
Vmarvell
p392
aVrpi
p393
asg202
I01
ss(Vbase
p394
Varmhf
p395
tp396
(dp397
Vfeaturesets
p398
(lp399
Vnone
p400
aVrt
p401
asVkernel-arch
p402
Varm
p403
ss(Vbuild
p404
g395
tp405
(dp406
Vimage-file
p407
Varch/arm/boot/zImage
p408
sVvdso
p409
I01
ss(Vimage
p410
g395
tp411
(dp412
Vinstall-stem
p413
Vvmlinuz
p414
ss(Vrelations
p415
g395
tp416
(dp417
Vheaders%gcc-9
p418
Vlinux-compiler-gcc-9-arm
p419
ss(Vdescription
p420
g395
NVarmmp
p421
tp422
(dp423
Vhardware
p424
VARMv7 multiplatform compatible SoCs
p425
sVhardware-long
p426
VARMv7 multiplatform kernel. See\u000ahttps://wiki.debian.org/DebianKernel/ARMMP for details of supported\u000aplatforms
p427
ss(Vdescription
p428
g395
NVarmmp-lpae
p429
tp430
(dp431
Vhardware
p432
VARMv7 multiplatform compatible SoCs supporting LPAE
p433
sVhardware-long
p434
VARMv7 multiplatform kernel supporting LPAE. See\u000ahttps://wiki.debian.org/DebianKernel/ARMMP for details of supported\u000aplatforms.
p435
ss(Vbase
p436
g395
Vnone
p437
tp438
(dp439
Vflavours
p440
(lp441
Varmmp
p442
aVarmmp-lpae
p443
ass(Vbase
p444
g395
Vrt
p445
tp446
(dp447
Vflavours
p448
(lp449
Varmmp
p450
ass(Vbase
p451
Vhppa
p452
tp453
(dp454
Vkernel-arch
p455
Vparisc
p456
sg162
(lp457
g164
ass(Vbuild
p458
g452
tp459
(dp460
Vimage-file
p461
Varch/parisc/boot/bzImage
p462
sVdebug-info
p463
I00
ss(Vimage
p464
g452
tp465
(dp466
Vsuggests
p467
(lp468
Vpalo
p469
asVinstall-stem
p470
Vvmlinuz
p471
ss(Vdescription
p472
g452
NVparisc
p473
tp474
(dp475
Vhardware
p476
V32-bit PA-RISC
p477
sVhardware-long
p478
VHP PA-RISC 32-bit systems with max 4 GB RAM
p479
ss(Vbase
p480
g452
NVparisc64
p481
tp482
(dp483
Vcflags
p484
V-fno-cse-follow-jumps
p485
sVoverride-host-type
p486
Vhppa64-linux-gnu
p487
ss(Vdescription
p488
g452
NVparisc64
p489
tp490
(dp491
Vhardware
p492
V64-bit PA-RISC
p493
sVhardware-long
p494
VHP PA-RISC 64-bit systems with support for more than 4 GB RAM
p495
ss(Vrelations
p496
g452
tp497
(dp498
Vgcc-9
p499
Vgcc-9 <!stage1 !cross !pkg.linux.nokernel>, gcc-9-hppa-linux-gnu <!stage1 cross !pkg.linux.nokernel>, binutils-hppa64-linux-gnu <!stage1 !pkg.linux.nokernel>, gcc-9-hppa64-linux-gnu <!stage1 !pkg.linux.nokernel>
p500
ss(g195
g452
g164
tp501
(dp502
g198
(lp503
Vparisc
p504
aVparisc64
p505
asg202
I01
ss(Vbase
p506
Vi386
p507
tp508
(dp509
Vfeaturesets
p510
(lp511
Vnone
p512
aVrt
p513
asVkernel-arch
p514
Vx86
p515
ss(Vbuild
p516
g507
tp517
(dp518
Vimage-file
p519
Varch/x86/boot/bzImage
p520
sVsigned-code
p521
I00
sVvdso
p522
I01
ss(Vdescription
p523
g507
tp524
(dp525
Vpart-long-pae
p526
VThis kernel requires PAE (Physical Address Extension).\u000aThis feature is supported by the Intel Pentium Pro/II/III/4/4M/D, Xeon,\u000aCore and Atom; AMD Geode NX, Athlon (K7), Duron, Opteron, Sempron,\u000aTurion or Phenom; Transmeta Efficeon; VIA C7; and some other processors.
p527
ss(Vimage
p528
g507
tp529
(dp530
Vbootloaders
p531
(lp532
Vgrub-pc
p533
aVgrub-efi-ia32
p534
aVextlinux
p535
asVinstall-stem
p536
Vvmlinuz
p537
sVbreaks
p538
(lp539
Vxserver-xorg-input-vmmouse (<< 1:13.0.99)
p540
ass(Vrelations
p541
g507
tp542
(dp543
Vheaders%gcc-9
p544
Vlinux-compiler-gcc-9-x86
p545
ss(Vdescription
p546
g507
NV686
p547
tp548
(dp549
Vhardware
p550
Volder PCs
p551
sVhardware-long
p552
VPCs with one or more processors not supporting PAE
p553
ss(Vbuild
p554
g507
NV686-pae
p555
tp556
(dp557
Vdebug-info
p558
I01
ss(Vdescription
p559
g507
NV686-pae
p560
tp561
(dp562
Vhardware
p563
Vmodern PCs
p564
sVhardware-long
p565
VPCs with one or more processors supporting PAE
p566
sVparts
p567
(lp568
Vpae
p569
ass(Vbase
p570
g507
Vnone
p571
tp572
(dp573
Vflavours
p574
(lp575
V686
p576
aV686-pae
p577
ass(Vbase
p578
g507
Vrt
p579
tp580
(dp581
Vflavours
p582
(lp583
V686-pae
p584
ass(Vbase
p585
Via64
p586
tp587
(dp588
Vkernel-arch
p589
Via64
p590
sg162
(lp591
g164
ass(Vbuild
p592
g586
tp593
(dp594
Vimage-file
p595
Vvmlinux.gz
p596
ss(Vimage
p597
g586
tp598
(dp599
Vbootloaders
p600
(lp601
Vgrub-efi-ia64
p602
asVinstall-stem
p603
Vvmlinuz
p604
ss(Vdescription
p605
g586
NVitanium
p606
tp607
(dp608
Vhardware
p609
VItanium (Merced)
p610
sVhardware-long
p611
Vsystems with original Itanium (Merced) processors
p612
ss(Vdescription
p613
g586
NVmckinley
p614
tp615
(dp616
Vhardware
p617
VItanium 2+
p618
sVhardware-long
p619
Vsystems with Itanium 2 or 9300/9500/9700-series processors
p620
ss(g195
g586
g164
tp621
(dp622
g198
(lp623
Vitanium
p624
aVmckinley
p625
asg202
I01
ss(Vbase
p626
Vm68k
p627
tp628
(dp629
Vcflags
p630
V-ffreestanding
p631
sVkernel-arch
p632
Vm68k
p633
sg162
(lp634
g164
ass(Vbuild
p635
g627
tp636
(dp637
Vimage-file
p638
Vvmlinux
p639
ss(Vimage
p640
g627
tp641
(dp642
Vsuggests
p643
(lp644
Vvmelilo
p645
aVfdutils
p646
asVinstall-stem
p647
Vvmlinux
p648
ss(Vdescription
p649
g627
NVm68k
p650
tp651
(dp652
Vhardware
p653
VMotorola MC68020+ family
p654
ss(g195
g627
g164
tp655
(dp656
g198
(lp657
Vm68k
p658
asg202
I01
ss(Vbase
p659
Vmips
p660
tp661
(dp662
Vkernel-arch
p663
Vmips
p664
sg162
(lp665
g164
ass(Vbuild
p666
g660
tp667
(dp668
Vimage-file
p669
Vvmlinux
p670
ss(Vimage
p671
g660
tp672
(dp673
Vinstall-stem
p674
Vvmlinux
p675
ss(Vdescription
p676
g660
NV4kc-malta
p677
tp678
(dp679
Vhardware
p680
VMIPS Malta
p681
sVhardware-long
p682
VMIPS Malta boards
p683
ss(Vimage
p684
g660
NV4kc-malta
p685
tp686
(dp687
Vconfigs
p688
(lp689
Vkernelarch-mips/config.malta
p690
aVkernelarch-mips/config.mips32r2
p691
ass(Vdescription
p692
g660
NV5kc-malta
p693
tp694
(dp695
Vhardware
p696
VMIPS Malta (64-bit)
p697
sVhardware-long
p698
VMIPS Malta boards (64-bit)
p699
ss(Vimage
p700
g660
NV5kc-malta
p701
tp702
(dp703
Vconfigs
p704
(lp705
Vkernelarch-mips/config.malta
p706
aVkernelarch-mips/config.mips64r2
p707
ass(Vdescription
p708
g660
NVocteon
p709
tp710
(dp711
Vhardware
p712
VOcteon
p713
sVhardware-long
p714
VCavium Networks Octeon
p715
ss(Vimage
p716
g660
NVocteon
p717
tp718
(dp719
Vconfigs
p720
(lp721
Vkernelarch-mips/config.octeon
p722
ass(g195
g660
g164
tp723
(dp724
g198
(lp725
V4kc-malta
p726
aV5kc-malta
p727
aVocteon
p728
asg202
I01
ss(Vbase
p729
Vmips64
p730
tp731
(dp732
Vkernel-arch
p733
Vmips
p734
sg162
(lp735
g164
ass(Vbuild
p736
g730
tp737
(dp738
Vimage-file
p739
Vvmlinux
p740
ss(Vimage
p741
g730
tp742
(dp743
Vinstall-stem
p744
Vvmlinux
p745
ss(Vdescription
p746
g730
NV5kc-malta
p747
tp748
(dp749
Vhardware
p750
VMIPS Malta
p751
sVhardware-long
p752
VMIPS Malta boards
p753
ss(Vimage
p754
g730
NV5kc-malta
p755
tp756
(dp757
Vconfigs
p758
(lp759
Vkernelarch-mips/config.malta
p760
aVkernelarch-mips/config.mips64r2
p761
ass(Vdescription
p762
g730
NVocteon
p763
tp764
(dp765
Vhardware
p766
VOcteon
p767
sVhardware-long
p768
VCavium Networks Octeon
p769
ss(Vimage
p770
g730
NVocteon
p771
tp772
(dp773
Vconfigs
p774
(lp775
Vkernelarch-mips/config.octeon
p776
ass(g195
g730
g164
tp777
(dp778
g198
(lp779
V5kc-malta
p780
aVocteon
p781
asg202
I01
ss(Vbase
p782
Vmips64el
p783
tp784
(dp785
Vkernel-arch
p786
Vmips
p787
sg162
(lp788
g164
ass(Vbuild
p789
g783
tp790
(dp791
Vimage-file
p792
Vvmlinux
p793
ss(Vimage
p794
g783
tp795
(dp796
Vinstall-stem
p797
Vvmlinux
p798
ss(Vdescription
p799
g783
NV5kc-malta
p800
tp801
(dp802
Vhardware
p803
VMIPS Malta
p804
sVhardware-long
p805
VMIPS Malta boards
p806
ss(Vimage
p807
g783
NV5kc-malta
p808
tp809
(dp810
Vconfigs
p811
(lp812
Vkernelarch-mips/config.malta
p813
aVkernelarch-mips/config.mips64r2
p814
ass(Vdescription
p815
g783
NVloongson-3
p816
tp817
(dp818
Vhardware
p819
VLoongson 3A/3B
p820
sVhardware-long
p821
VLoongson 3A or 3B based systems (e.g. from Loongson or Lemote)
p822
ss(Vimage
p823
g783
NVloongson-3
p824
tp825
(dp826
Vconfigs
p827
(lp828
Vkernelarch-mips/config.loongson-3
p829
ass(Vdescription
p830
g783
NVocteon
p831
tp832
(dp833
Vhardware
p834
VOcteon
p835
sVhardware-long
p836
VCavium Networks Octeon
p837
ss(Vimage
p838
g783
NVocteon
p839
tp840
(dp841
Vconfigs
p842
(lp843
Vkernelarch-mips/config.octeon
p844
ass(g195
g783
g164
tp845
(dp846
g198
(lp847
V5kc-malta
p848
aVloongson-3
p849
aVocteon
p850
asg202
I01
ss(Vbase
p851
Vmips64r6
p852
tp853
(dp854
Vkernel-arch
p855
Vmips
p856
sg162
(lp857
g164
ass(Vbuild
p858
g852
tp859
(dp860
Vimage-file
p861
Vvmlinux
p862
ss(Vimage
p863
g852
tp864
(dp865
Vinstall-stem
p866
Vvmlinux
p867
ss(Vdescription
p868
g852
NVmips64r6
p869
tp870
(dp871
Vhardware
p872
VMIPS R6 (64 bit, big endian)
p873
sVhardware-long
p874
VMIPS R6 (64 bit, big endian)
p875
ss(Vimage
p876
g852
NVmips64r6
p877
tp878
(dp879
Vconfigs
p880
(lp881
Vkernelarch-mips/config.boston
p882
aVkernelarch-mips/config.mips64r6
p883
ass(g195
g852
g164
tp884
(dp885
g198
(lp886
Vmips64r6
p887
asg202
I01
ss(Vbase
p888
Vmips64r6el
p889
tp890
(dp891
Vkernel-arch
p892
Vmips
p893
sg162
(lp894
g164
ass(Vbuild
p895
g889
tp896
(dp897
Vimage-file
p898
Vvmlinux
p899
ss(Vimage
p900
g889
tp901
(dp902
Vinstall-stem
p903
Vvmlinux
p904
ss(Vdescription
p905
g889
NVmips64r6el
p906
tp907
(dp908
Vhardware
p909
VMIPS R6 (64 bit, little endian)
p910
sVhardware-long
p911
VMIPS R6 (64 bit, little endian)
p912
ss(Vimage
p913
g889
NVmips64r6el
p914
tp915
(dp916
Vconfigs
p917
(lp918
Vkernelarch-mips/config.boston
p919
aVkernelarch-mips/config.mips64r6
p920
ass(g195
g889
g164
tp921
(dp922
g198
(lp923
Vmips64r6el
p924
asg202
I01
ss(Vbase
p925
Vmipsel
p926
tp927
(dp928
Vkernel-arch
p929
Vmips
p930
sg162
(lp931
g164
ass(Vbuild
p932
g926
tp933
(dp934
Vimage-file
p935
Vvmlinux
p936
ss(Vimage
p937
g926
tp938
(dp939
Vinstall-stem
p940
Vvmlinux
p941
ss(Vdescription
p942
g926
NV4kc-malta
p943
tp944
(dp945
Vhardware
p946
VMIPS Malta
p947
sVhardware-long
p948
VMIPS Malta boards
p949
ss(Vimage
p950
g926
NV4kc-malta
p951
tp952
(dp953
Vconfigs
p954
(lp955
Vkernelarch-mips/config.malta
p956
aVkernelarch-mips/config.mips32r2
p957
ass(Vdescription
p958
g926
NV5kc-malta
p959
tp960
(dp961
Vhardware
p962
VMIPS Malta (64-bit)
p963
sVhardware-long
p964
VMIPS Malta boards (64-bit)
p965
ss(Vimage
p966
g926
NV5kc-malta
p967
tp968
(dp969
Vconfigs
p970
(lp971
Vkernelarch-mips/config.malta
p972
aVkernelarch-mips/config.mips64r2
p973
ass(Vdescription
p974
g926
NVloongson-3
p975
tp976
(dp977
Vhardware
p978
VLoongson 3A/3B
p979
sVhardware-long
p980
VLoongson 3A or 3B based systems (e.g. from Loongson or Lemote)
p981
ss(Vimage
p982
g926
NVloongson-3
p983
tp984
(dp985
Vconfigs
p986
(lp987
Vkernelarch-mips/config.loongson-3
p988
ass(Vdescription
p989
g926
NVocteon
p990
tp991
(dp992
Vhardware
p993
VOcteon
p994
sVhardware-long
p995
VCavium Networks Octeon
p996
ss(Vimage
p997
g926
NVocteon
p998
tp999
(dp1000
Vconfigs
p1001
(lp1002
Vkernelarch-mips/config.octeon
p1003
ass(g195
g926
g164
tp1004
(dp1005
g198
(lp1006
V4kc-malta
p1007
aV5kc-malta
p1008
aVloongson-3
p1009
aVocteon
p1010
asg202
I01
ss(Vbase
p1011
Vmipsn32
p1012
tp1013
(dp1014
Vkernel-arch
p1015
Vmips
p1016
sVfeaturesets
p1017
(lp1018
ss(Vbase
p1019
Vmipsn32el
p1020
tp1021
(dp1022
Vkernel-arch
p1023
Vmips
p1024
sVfeaturesets
p1025
(lp1026
ss(Vbase
p1027
Vmipsn32r6
p1028
tp1029
(dp1030
Vkernel-arch
p1031
Vmips
p1032
sVfeaturesets
p1033
(lp1034
ss(Vbase
p1035
Vmipsn32r6el
p1036
tp1037
(dp1038
Vkernel-arch
p1039
Vmips
p1040
sVfeaturesets
p1041
(lp1042
ss(Vbase
p1043
Vmipsr6
p1044
tp1045
(dp1046
Vkernel-arch
p1047
Vmips
p1048
sg162
(lp1049
g164
ass(Vbuild
p1050
g1044
tp1051
(dp1052
Vimage-file
p1053
Vvmlinux
p1054
ss(Vimage
p1055
g1044
tp1056
(dp1057
Vinstall-stem
p1058
Vvmlinux
p1059
ss(Vdescription
p1060
g1044
NVmips32r6
p1061
tp1062
(dp1063
Vhardware
p1064
VMIPS R6 (32 bit, big endian)
p1065
sVhardware-long
p1066
VMIPS R6 (32 bit, big endian)
p1067
ss(Vimage
p1068
g1044
NVmips32r6
p1069
tp1070
(dp1071
Vconfigs
p1072
(lp1073
Vkernelarch-mips/config.boston
p1074
aVkernelarch-mips/config.mips32r6
p1075
ass(Vdescription
p1076
g1044
NVmips64r6
p1077
tp1078
(dp1079
Vhardware
p1080
VMIPS R6 (64 bit, big endian)
p1081
sVhardware-long
p1082
VMIPS R6 (64 bit, big endian)
p1083
ss(Vimage
p1084
g1044
NVmips64r6
p1085
tp1086
(dp1087
Vconfigs
p1088
(lp1089
Vkernelarch-mips/config.boston
p1090
aVkernelarch-mips/config.mips64r6
p1091
ass(g195
g1044
g164
tp1092
(dp1093
g198
(lp1094
Vmips32r6
p1095
aVmips64r6
p1096
asg202
I01
ss(Vbase
p1097
Vmipsr6el
p1098
tp1099
(dp1100
Vkernel-arch
p1101
Vmips
p1102
sg162
(lp1103
g164
ass(Vbuild
p1104
g1098
tp1105
(dp1106
Vimage-file
p1107
Vvmlinux
p1108
ss(Vimage
p1109
g1098
tp1110
(dp1111
Vinstall-stem
p1112
Vvmlinux
p1113
ss(Vdescription
p1114
g1098
NVmips32r6el
p1115
tp1116
(dp1117
Vhardware
p1118
VMIPS R6 (32 bit, little endian)
p1119
sVhardware-long
p1120
VMIPS R6 (32 bit, little endian)
p1121
ss(Vimage
p1122
g1098
NVmips32r6el
p1123
tp1124
(dp1125
Vconfigs
p1126
(lp1127
Vkernelarch-mips/config.boston
p1128
aVkernelarch-mips/config.mips32r6
p1129
ass(Vdescription
p1130
g1098
NVmips64r6el
p1131
tp1132
(dp1133
Vhardware
p1134
VMIPS R6 (64 bit, little endian)
p1135
sVhardware-long
p1136
VMIPS R6 (64 bit, little endian)
p1137
ss(Vimage
p1138
g1098
NVmips64r6el
p1139
tp1140
(dp1141
Vconfigs
p1142
(lp1143
Vkernelarch-mips/config.boston
p1144
aVkernelarch-mips/config.mips64r6
p1145
ass(g195
g1098
g164
tp1146
(dp1147
g198
(lp1148
Vmips32r6el
p1149
aVmips64r6el
p1150
asg202
I01
ss(Vbase
p1151
Vpowerpc
p1152
tp1153
(dp1154
Vkernel-arch
p1155
Vpowerpc
p1156
sg162
(lp1157
g164
ass(Vbuild
p1158
g1152
tp1159
(dp1160
Vimage-file
p1161
Vvmlinux
p1162
sVvdso
p1163
I01
ss(Vimage
p1164
g1152
tp1165
(dp1166
Vconfigs
p1167
(lp1168
sVbootloaders
p1169
(lp1170
Vgrub-ieee1275
p1171
asVsuggests
p1172
(lp1173
Vmkvmlinuz
p1174
asVinstall-stem
p1175
Vvmlinux
p1176
ss(Vdescription
p1177
g1152
NVpowerpc
p1178
tp1179
(dp1180
Vhardware
p1181
Vuniprocessor 32-bit PowerPC
p1182
ss(Vdescription
p1183
g1152
NVpowerpc-smp
p1184
tp1185
(dp1186
Vhardware
p1187
Vmultiprocessor 32-bit PowerPC
p1188
ss(Vimage
p1189
g1152
NVpowerpc-smp
p1190
tp1191
(dp1192
Vconfigs
p1193
(lp1194
Vpowerpc/config.powerpc
p1195
aVpowerpc/config.powerpc-smp
p1196
ass(Vdescription
p1197
g1152
NVpowerpc64
p1198
tp1199
(dp1200
Vhardware
p1201
V64-bit PowerPC
p1202
ss(Vimage
p1203
g1152
NVpowerpc64
p1204
tp1205
(dp1206
Vconfigs
p1207
(lp1208
Vkernelarch-powerpc/config-arch-64
p1209
aVkernelarch-powerpc/config-arch-64-be
p1210
ass(g195
g1152
g164
tp1211
(dp1212
g198
(lp1213
Vpowerpc
p1214
aVpowerpc-smp
p1215
aVpowerpc64
p1216
asg202
I01
ss(Vbase
p1217
Vppc64
p1218
tp1219
(dp1220
Vkernel-arch
p1221
Vpowerpc
p1222
sg162
(lp1223
g164
ass(Vbuild
p1224
g1218
tp1225
(dp1226
Vimage-file
p1227
Vvmlinux
p1228
sVvdso
p1229
I01
ss(Vimage
p1230
g1218
tp1231
(dp1232
Vconfigs
p1233
(lp1234
sVbootloaders
p1235
(lp1236
Vgrub-ieee1275
p1237
asVsuggests
p1238
(lp1239
Vmkvmlinuz
p1240
asVinstall-stem
p1241
Vvmlinux
p1242
ss(Vdescription
p1243
g1218
NVpowerpc64
p1244
tp1245
(dp1246
Vhardware
p1247
V64-bit PowerPC
p1248
ss(Vimage
p1249
g1218
NVpowerpc64
p1250
tp1251
(dp1252
Vconfigs
p1253
(lp1254
Vkernelarch-powerpc/config-arch-64
p1255
aVkernelarch-powerpc/config-arch-64-be
p1256
ass(g195
g1218
g164
tp1257
(dp1258
g198
(lp1259
Vpowerpc64
p1260
asg202
I01
ss(Vbase
p1261
Vppc64el
p1262
tp1263
(dp1264
Vkernel-arch
p1265
Vpowerpc
p1266
sg162
(lp1267
g164
ass(Vbuild
p1268
g1262
tp1269
(dp1270
Vimage-file
p1271
Vvmlinux
p1272
sVvdso
p1273
I01
ss(Vimage
p1274
g1262
tp1275
(dp1276
Vconfigs
p1277
(lp1278
sVbootloaders
p1279
(lp1280
Vgrub-ieee1275
p1281
asVsuggests
p1282
(lp1283
Vmkvmlinuz
p1284
asVinstall-stem
p1285
Vvmlinux
p1286
ss(Vdescription
p1287
g1262
NVpowerpc64le
p1288
tp1289
(dp1290
Vhardware
p1291
VLittle-endian 64-bit PowerPC
p1292
ss(Vimage
p1293
g1262
NVpowerpc64le
p1294
tp1295
(dp1296
Vconfigs
p1297
(lp1298
Vkernelarch-powerpc/config-arch-64
p1299
aVkernelarch-powerpc/config-arch-64-le
p1300
ass(g195
g1262
g164
tp1301
(dp1302
g198
(lp1303
Vpowerpc64le
p1304
asg202
I01
ss(Vbase
p1305
Vriscv64
p1306
tp1307
(dp1308
Vkernel-arch
p1309
Vriscv
p1310
sVfeaturesets
p1311
(lp1312
Vnone
p1313
ass(Vbuild
p1314
g1306
tp1315
(dp1316
Vimage-file
p1317
Varch/riscv/boot/Image
p1318
sVvdso
p1319
I01
ss(Vimage
p1320
g1306
tp1321
(dp1322
Vinstall-stem
p1323
Vvmlinux
p1324
ss(Vdescription
p1325
g1306
NVriscv64
p1326
tp1327
(dp1328
Vhardware
p1329
V64-bit RISC-V platforms
p1330
sVhardware-long
p1331
V64-bit RISC-V platforms
p1332
ss(Vbase
p1333
g1306
Vnone
p1334
tp1335
(dp1336
Vflavours
p1337
(lp1338
Vriscv64
p1339
ass(Vbase
p1340
Vs390
p1341
tp1342
(dp1343
Vkernel-arch
p1344
Vs390
p1345
sVfeaturesets
p1346
(lp1347
ss(Vbase
p1348
Vs390x
p1349
tp1350
(dp1351
Vkernel-arch
p1352
Vs390
p1353
sg162
(lp1354
g164
ass(Vbuild
p1355
g1349
tp1356
(dp1357
Vimage-file
p1358
Varch/s390/boot/bzImage
p1359
sVvdso
p1360
I01
ss(Vimage
p1361
g1349
tp1362
(dp1363
Vbootloaders
p1364
(lp1365
Vs390-tools
p1366
asVinstall-stem
p1367
Vvmlinuz
p1368
ss(Vrelations
p1369
g1349
tp1370
(dp1371
Vheaders%gcc-9
p1372
Vlinux-compiler-gcc-9-s390
p1373
ss(Vbuild
p1374
g1349
NVs390x
p1375
tp1376
(dp1377
Vdebug-info
p1378
I01
ss(Vdescription
p1379
g1349
NVs390x
p1380
tp1381
(dp1382
Vhardware
p1383
VIBM zSeries
p1384
ss(g195
g1349
g164
tp1385
(dp1386
g198
(lp1387
Vs390x
p1388
asg202
I01
ss(Vbase
p1389
Vsh3
p1390
tp1391
(dp1392
Vkernel-arch
p1393
Vsh
p1394
sVfeaturesets
p1395
(lp1396
ss(Vbase
p1397
Vsh4
p1398
tp1399
(dp1400
Vkernel-arch
p1401
Vsh
p1402
sg162
(lp1403
g164
ass(Vbuild
p1404
g1398
tp1405
(dp1406
Vimage-file
p1407
Varch/sh/boot/zImage
p1408
ss(Vimage
p1409
g1398
tp1410
(dp1411
Vinstall-stem
p1412
Vvmlinuz
p1413
ss(Vdescription
p1414
g1398
NVsh7751r
p1415
tp1416
(dp1417
Vhardware
p1418
Vsh7751r
p1419
sVhardware-long
p1420
VRenesas SH7751R R2D plus board
p1421
ss(Vdescription
p1422
g1398
NVsh7785lcr
p1423
tp1424
(dp1425
Vhardware
p1426
Vsh7785lcr
p1427
sVhardware-long
p1428
VRenesas SH7785 reference board
p1429
ss(Vimage
p1430
g1398
NVsh7785lcr
p1431
tp1432
(dp1433
Vrecommends
p1434
(lp1435
Vu-boot-tools
p1436
asVcheck-size
p1437
I4194304
ss(g195
g1398
g164
tp1438
(dp1439
g198
(lp1440
Vsh7751r
p1441
aVsh7785lcr
p1442
asg202
I01
ss(Vbase
p1443
Vsparc
p1444
tp1445
(dp1446
Vkernel-arch
p1447
Vsparc
p1448
sVfeaturesets
p1449
(lp1450
ss(Vbase
p1451
Vsparc64
p1452
tp1453
(dp1454
Vkernel-arch
p1455
Vsparc
p1456
sg162
(lp1457
g164
ass(Vbuild
p1458
g1452
tp1459
(dp1460
Vimage-file
p1461
Vvmlinux
p1462
ss(Vimage
p1463
g1452
tp1464
(dp1465
Vconfigs
p1466
(lp1467
sVbootloaders
p1468
(lp1469
Vgrub-ieee1275
p1470
asVsuggests
p1471
(lp1472
Vfdutils
p1473
asVinstall-stem
p1474
Vvmlinux
p1475
ss(Vdescription
p1476
g1452
NVsparc64
p1477
tp1478
(dp1479
Vhardware
p1480
Vuniprocessor 64-bit UltraSPARC
p1481
ss(Vimage
p1482
g1452
NVsparc64
p1483
tp1484
(dp1485
Vconfigs
p1486
(lp1487
Vkernelarch-sparc/config-up
p1488
ass(Vdescription
p1489
g1452
NVsparc64-smp
p1490
tp1491
(dp1492
Vhardware
p1493
Vmultiprocessor 64-bit UltraSPARC
p1494
ss(Vimage
p1495
g1452
NVsparc64-smp
p1496
tp1497
(dp1498
Vconfigs
p1499
(lp1500
Vkernelarch-sparc/config-smp
p1501
ass(g195
g1452
g164
tp1502
(dp1503
g198
(lp1504
Vsparc64
p1505
aVsparc64-smp
p1506
asg202
I01
ss(Vbase
p1507
Vx32
p1508
tp1509
(dp1510
Vkernel-arch
p1511
Vx86
p1512
sVfeaturesets
p1513
(lp1514
ss(Vabi
p1515
NVrt
p1516
tp1517
(dp1518
Vignore-changes
p1519
(lp1520
V*
p1521
ass(Vdescription
p1522
Ng1516
tp1523
(dp1524
Vpart-long-rt
p1525
VThis kernel includes the PREEMPT_RT realtime patch set.
p1526
sVpart-short-rt
p1527
VPREEMPT_RT
p1528
sVparts
p1529
(lp1530
Vrt
p1531
ass(Vversion
p1532
tp1533
(dp1534
Vsource
p1535
V5.3.7-1parrot1
p1536
sVupstream
p1537
V5.3
p1538
sVabiname_base
p1539
V5.3.0
p1540
sVabiname
p1541
V5.3.0-1parrot1
p1542
ss.