cdebian_linux.config
ConfigCore
p0
(tRp1
(Vbase
p2
tp3
(dp4
Varches
p5
(lp6
Valpha
p7
aVamd64
p8
aVarm64
p9
aVarmel
p10
aVarmhf
p11
aVhppa
p12
aVi386
p13
aVm68k
p14
aVmips
p15
aVmipsel
p16
aVmipsn32
p17
aVmipsn32el
p18
aVmips64
p19
aVmips64el
p20
aVpowerpc
p21
aVpowerpcspe
p22
aVppc64
p23
aVppc64el
p24
aVs390
p25
aVs390x
p26
aVsh3
p27
aVsh4
p28
aVsparc
p29
aVsparc64
p30
aVtilegx
p31
aVx32
p32
asVfeaturesets
p33
(lp34
Vnone
p35
aVrt
p36
asVcompiler
p37
Vgcc-6
p38
ss(Vbuild
p39
tp40
(dp41
Vsigned-modules
p42
I01
sVdebug-info
p43
I01
ss(Vbase
p44
NVrt
p45
tp46
(dp47
Venabled
p48
I01
ss(Vdescription
p49
tp50
(dp51
Vpart-long-up
p52
VThis kernel is not suitable for SMP (multi-processor,\u000amulti-core or hyper-threaded) systems.
p53
sVpart-long-xen
p54
VThis kernel also runs on a Xen hypervisor.\u000aIt supports both privileged (dom0) and unprivileged (domU) operation.
p55
ss(Vrelations
p56
tp57
(dp58
Vinitramfs-tools
p59
Vinitramfs-tools (>= 0.120+deb8u2)
p60
sVgcc-6
p61
Vgcc-6 <!stage1 !cross>, gcc-6-@gnu-type-package@:native <!stage1 cross>
p62
sVinitramfs-fallback
p63
Vlinux-initramfs-tool
p64
ss(Vimage
p65
tp66
(dp67
Vinitramfs-generators
p68
(lp69
Vinitramfs-tools
p70
aVinitramfs-fallback
p71
ass(Vabi
p72
tp73
(dp74
Vabiname
p75
Vparrot16
p76
sVignore-changes
p77
(lp78
V__cpuhp_*
p79
aVmodule:drivers/hv/*
p80
aVmodule:drivers/iio/common/st_sensors/**
p81
aVmodule:drivers/net/wireless/**
p82
aVmodule:drivers/nvdimm/*
p83
aVmodule:drivers/power/supply/bq27xxx_battery
p84
aVmodule:drivers/scsi/qla2xxx/qla2xxx
p85
aVmodule:drivers/scsi/ufs/*
p86
aVmodule:drivers/target/**
p87
aVmodule:drivers/usb/host/**
p88
aVmodule:drivers/usb/musb/**
p89
aVmodule:net/ceph/libceph
p90
aVbtree_*
p91
aVvisitor*
p92
aVcan_rx_register
p93
aVip6_xmit
p94
aVmodule:net/rds/rds
p95
aVdevfreq_*
p96
aVdevm_devfreq_*
p97
aVupdate_devfreq
p98
aVmodule:drivers/infiniband/**
p99
aVacpi_ec_add_query_handler
p100
aVacpi_ec_remove_query_handler
p101
aVfirst_ec
p102
aVdebugfs_create_automount
p103
ass(Vbase
p104
Valpha
p105
tp106
(dp107
Vfeaturesets
p108
(lp109
Vnone
p110
asVkernel-arch
p111
Valpha
p112
ss(Vdescription
p113
g105
NValpha-smp
p114
tp115
(dp116
Vhardware
p117
VAlpha SMP
p118
sVhardware-long
p119
VDEC Alpha SMP systems with extended kernel start address (Wildfire, Titan, Marvel)
p120
ss(Vbuild
p121
g105
tp122
(dp123
Vsigned-modules
p124
I00
sVimage-file
p125
Varch/alpha/boot/vmlinux.gz
p126
ss(Vdescription
p127
g105
NValpha-generic
p128
tp129
(dp130
Vhardware
p131
VAlpha
p132
sVhardware-long
p133
VDEC Alpha systems with extended kernel start address (Wildfire, Titan, Marvel)
p134
ss(Vimage
p135
g105
tp136
(dp137
Vsuggests
p138
Vaboot, fdutils
p139
sVinstall-stem
p140
Vvmlinuz
p141
ss(Vbase
p142
g105
g110
tp143
(dp144
Vflavours
p145
(lp146
Valpha-generic
p147
aValpha-smp
p148
asVimplicit-flavour
p149
I01
ss(Vbase
p150
Vamd64
p151
tp152
(dp153
Vfeaturesets
p154
(lp155
Vnone
p156
aVrt
p157
asVkernel-arch
p158
Vx86
p159
ss(Vdescription
p160
g151
NVamd64
p161
tp162
(dp163
Vhardware
p164
V64-bit PCs
p165
sVhardware-long
p166
VPCs with AMD64, Intel 64 or VIA Nano processors
p167
ss(Vbuild
p168
g151
tp169
(dp170
Vvdso
p171
I01
sVimage-file
p172
Varch/x86/boot/bzImage
p173
sVdebug-info
p174
I01
sVsigned-modules
p175
I00
ss(Vrelations
p176
g151
tp177
(dp178
Vheaders%gcc-6
p179
Vlinux-compiler-gcc-6-x86
p180
ss(Vimage
p181
g151
tp182
(dp183
Vbreaks
p184
Vxserver-xorg-input-vmmouse (<< 1:13.0.99)
p185
sVinstall-stem
p186
Vvmlinuz
p187
sVbootloaders
p188
(lp189
Vgrub-pc
p190
aVgrub-efi-amd64
p191
aVextlinux
p192
ass(Vbase
p193
g151
Vnone
p194
tp195
(dp196
Vflavours
p197
(lp198
Vamd64
p199
ass(Vdescription
p200
g151
g194
Vamd64
p201
tp202
(dp203
Vparts
p204
(lp205
Vxen
p206
ass(Vbase
p207
g151
Vrt
p208
tp209
(dp210
Vflavours
p211
(lp212
Vamd64
p213
ass(Vbase
p214
Varm64
p215
tp216
(dp217
Vfeaturesets
p218
(lp219
Vnone
p220
asVkernel-arch
p221
Varm64
p222
ss(Vdescription
p223
g215
NVarm64
p224
tp225
(dp226
Vhardware
p227
V64-bit ARMv8 machines
p228
ss(Vbuild
p229
g215
tp230
(dp231
Vvdso
p232
I01
sVimage-file
p233
Varch/arm64/boot/Image
p234
sVdebug-info
p235
I01
sVsigned-modules
p236
I00
ss(Vimage
p237
g215
NVarm64
p238
tp239
(dp240
s(Vimage
p241
g215
tp242
(dp243
Vbreaks
p244
Vlibmozjs185-1.0, libmozjs-24-0 (<< 24.2.0-5.1~)
p245
sVinstall-stem
p246
Vvmlinuz
p247
ss(Vbase
p248
g215
Vnone
p249
tp250
(dp251
Vflavours
p252
(lp253
Varm64
p254
ass(Vbase
p255
Varmel
p256
tp257
(dp258
g108
(lp259
g110
asVkernel-arch
p260
Varm
p261
ss(Vbuild
p262
g256
tp263
(dp264
Vsigned-modules
p265
I00
sVimage-file
p266
Varch/arm/boot/zImage
p267
ss(Vimage
p268
g256
NVmarvell
p269
tp270
(dp271
Vrecommends
p272
Vu-boot-tools
p273
sVbreaks
p274
Vflash-kernel (<< 3.57~)
p275
sVcheck-size-with-dtb
p276
I01
sVcheck-size
p277
L2097080L
ss(Vdescription
p278
g256
NVmarvell
p279
tp280
(dp281
Vhardware
p282
VMarvell Kirkwood/Orion
p283
sVhardware-long
p284
VMarvell Kirkwood based systems (SheevaPlug, QNAP TS-119/TS-219, etc)\u000aand Orion 5181, 5182 and 5281 based systems (QNAP TS-109/TS-209, etc)
p285
ss(Vrelations
p286
g256
tp287
(dp288
Vheaders%gcc-6
p289
Vlinux-compiler-gcc-6-arm
p290
ss(Vimage
p291
g256
tp292
(dp293
Vinstall-stem
p294
Vvmlinuz
p295
ss(g142
g256
g110
tp296
(dp297
g145
(lp298
Vmarvell
p299
asg149
I01
ss(Vbase
p300
Varmhf
p301
tp302
(dp303
g108
(lp304
g110
asVkernel-arch
p305
Varm
p306
ss(Vdescription
p307
g301
NVarmmp
p308
tp309
(dp310
Vhardware
p311
VARMv7 multiplatform compatible SoCs
p312
sVhardware-long
p313
VARMv7 multiplatform kernel. See\u000ahttps://wiki.debian.org/DebianKernel/ARMMP for details of supported\u000aplatforms
p314
ss(Vbuild
p315
g301
tp316
(dp317
Vvdso
p318
I01
sVimage-file
p319
Varch/arm/boot/zImage
p320
sVsigned-modules
p321
I00
ss(Vdescription
p322
g301
NVarmmp-lpae
p323
tp324
(dp325
Vhardware
p326
VARMv7 multiplatform compatible SoCs supporting LPAE
p327
sVhardware-long
p328
VARMv7 multiplatform kernel supporting LPAE. See\u000ahttps://wiki.debian.org/DebianKernel/ARMMP for details of supported\u000aplatforms.
p329
ss(Vrelations
p330
g301
tp331
(dp332
Vheaders%gcc-6
p333
Vlinux-compiler-gcc-6-arm
p334
ss(Vimage
p335
g301
tp336
(dp337
Vinstall-stem
p338
Vvmlinuz
p339
ss(g142
g301
g110
tp340
(dp341
g145
(lp342
Varmmp
p343
aVarmmp-lpae
p344
asg149
I01
ss(Vbase
p345
Vhppa
p346
tp347
(dp348
g108
(lp349
g110
asVkernel-arch
p350
Vparisc
p351
ss(Vbuild
p352
g346
tp353
(dp354
Vsigned-modules
p355
I00
sVimage-file
p356
Vvmlinux
p357
ss(Vdescription
p358
g346
NVparisc64-smp
p359
tp360
(dp361
Vhardware
p362
Vmultiprocessor 64-bit PA-RISC
p363
sVhardware-long
p364
VHP PA-RISC 64-bit SMP systems with support for more than 4 GB RAM
p365
ss(Vbase
p366
g346
NVparisc64-smp
p367
tp368
(dp369
Vcflags
p370
V-fno-cse-follow-jumps
p371
sVoverride-host-type
p372
Vhppa64-linux-gnu
p373
ss(Vrelations
p374
g346
tp375
(dp376
Vgcc-6
p377
Vgcc-6 <!stage1 !cross>, binutils-hppa64-linux-gnu <!stage1 !cross>, gcc-6-hppa64-linux-gnu <!stage1 !cross>, gcc-6-hppa-linux-gnu:native <!stage1 cross>, binutils-hppa64-linux-gnu:native <!stage1 cross>, gcc-6-hppa64-linux-gnu:native <!stage1 cross>
p378
ss(Vdescription
p379
g346
NVparisc
p380
tp381
(dp382
Vhardware
p383
V32-bit PA-RISC
p384
sVhardware-long
p385
VHP PA-RISC 32-bit systems with max 4 GB RAM
p386
ss(Vimage
p387
g346
tp388
(dp389
Vsuggests
p390
Vpalo
p391
sVinstall-stem
p392
Vvmlinux
p393
ss(g142
g346
g110
tp394
(dp395
g145
(lp396
Vparisc
p397
aVparisc64-smp
p398
asg149
I01
ss(Vbase
p399
Vi386
p400
tp401
(dp402
Vfeaturesets
p403
(lp404
Vnone
p405
aVrt
p406
asVkernel-arch
p407
Vx86
p408
ss(Vbuild
p409
g400
tp410
(dp411
Vvdso
p412
I01
sVimage-file
p413
Varch/x86/boot/bzImage
p414
sVsigned-modules
p415
I00
ss(Vdescription
p416
g400
NV686-pae
p417
tp418
(dp419
Vhardware
p420
Vmodern PCs
p421
sVhardware-long
p422
VPCs with one or more processors supporting PAE
p423
sVparts
p424
(lp425
Vpae
p426
ass(Vdescription
p427
g400
tp428
(dp429
Vpart-long-pae
p430
VThis kernel requires PAE (Physical Address Extension).\u000aThis feature is supported by the Intel Pentium Pro/II/III/4/4M/D, Xeon,\u000aCore and Atom; AMD Geode NX, Athlon (K7), Duron, Opteron, Sempron,\u000aTurion or Phenom; Transmeta Efficeon; VIA C7; and some other processors.
p431
ss(Vbuild
p432
g400
NV686-pae
p433
tp434
(dp435
Vdebug-info
p436
I01
ss(Vdescription
p437
g400
NV686
p438
tp439
(dp440
Vhardware
p441
Volder PCs
p442
sVhardware-long
p443
VPCs with one or more processors not supporting PAE
p444
ss(Vrelations
p445
g400
tp446
(dp447
Vheaders%gcc-6
p448
Vlinux-compiler-gcc-6-x86
p449
ss(Vimage
p450
g400
tp451
(dp452
Vbreaks
p453
Vxserver-xorg-input-vmmouse (<< 1:13.0.99)
p454
sVinstall-stem
p455
Vvmlinuz
p456
sVbootloaders
p457
(lp458
Vgrub-pc
p459
aVextlinux
p460
ass(Vbase
p461
g400
Vnone
p462
tp463
(dp464
Vflavours
p465
(lp466
V686
p467
aV686-pae
p468
ass(Vdescription
p469
g400
g462
V686-pae
p470
tp471
(dp472
Vparts
p473
(lp474
Vxen
p475
ass(Vbase
p476
g400
Vrt
p477
tp478
(dp479
Vflavours
p480
(lp481
V686-pae
p482
ass(Vbase
p483
Vm68k
p484
tp485
(dp486
Vcflags
p487
V-ffreestanding
p488
sg108
(lp489
g110
asVkernel-arch
p490
Vm68k
p491
ss(Vbuild
p492
g484
tp493
(dp494
Vsigned-modules
p495
I00
sVimage-file
p496
Vvmlinux.gz
p497
ss(Vdescription
p498
g484
NVm68k
p499
tp500
(dp501
Vhardware
p502
VMotorola MC68020+ family
p503
ss(Vimage
p504
g484
tp505
(dp506
Vsuggests
p507
Vvmelilo, fdutils
p508
sVinstall-stem
p509
Vvmlinuz
p510
ss(g142
g484
g110
tp511
(dp512
g145
(lp513
Vm68k
p514
asg149
I01
ss(Vbase
p515
Vmips
p516
tp517
(dp518
g108
(lp519
g110
asVkernel-arch
p520
Vmips
p521
ss(Vbuild
p522
g516
tp523
(dp524
Vsigned-modules
p525
I00
sVimage-file
p526
Vvmlinux
p527
ss(Vimage
p528
g516
NV4kc-malta
p529
tp530
(dp531
Vconfigs
p532
(lp533
Vkernelarch-mips/config.malta
p534
aVkernelarch-mips/config.mips32r2
p535
ass(Vimage
p536
g516
NV5kc-malta
p537
tp538
(dp539
Vconfigs
p540
(lp541
Vkernelarch-mips/config.malta
p542
aVkernelarch-mips/config.mips64r2
p543
ass(Vdescription
p544
g516
NVocteon
p545
tp546
(dp547
Vhardware
p548
VOcteon
p549
sVhardware-long
p550
VCavium Networks Octeon
p551
ss(Vimage
p552
g516
NVocteon
p553
tp554
(dp555
Vconfigs
p556
(lp557
Vkernelarch-mips/config.octeon
p558
ass(Vimage
p559
g516
tp560
(dp561
Vinstall-stem
p562
Vvmlinux
p563
ss(Vdescription
p564
g516
NV5kc-malta
p565
tp566
(dp567
Vhardware
p568
VMIPS Malta (64-bit)
p569
sVhardware-long
p570
VMIPS Malta boards (64-bit)
p571
ss(Vdescription
p572
g516
NV4kc-malta
p573
tp574
(dp575
Vhardware
p576
VMIPS Malta
p577
sVhardware-long
p578
VMIPS Malta boards
p579
ss(g142
g516
g110
tp580
(dp581
g145
(lp582
V4kc-malta
p583
aV5kc-malta
p584
aVocteon
p585
asg149
I01
ss(Vbase
p586
Vmipsel
p587
tp588
(dp589
g108
(lp590
g110
asVkernel-arch
p591
Vmips
p592
ss(Vimage
p593
g587
NVloongson-3
p594
tp595
(dp596
Vconfigs
p597
(lp598
Vkernelarch-mips/config.loongson-3
p599
ass(Vbuild
p600
g587
tp601
(dp602
Vsigned-modules
p603
I00
sVimage-file
p604
Vvmlinux
p605
ss(Vimage
p606
g587
NV4kc-malta
p607
tp608
(dp609
Vconfigs
p610
(lp611
Vkernelarch-mips/config.malta
p612
aVkernelarch-mips/config.mips32r2
p613
ass(Vimage
p614
g587
NV5kc-malta
p615
tp616
(dp617
Vconfigs
p618
(lp619
Vkernelarch-mips/config.malta
p620
aVkernelarch-mips/config.mips64r2
p621
ass(Vdescription
p622
g587
NVocteon
p623
tp624
(dp625
Vhardware
p626
VOcteon
p627
sVhardware-long
p628
VCavium Networks Octeon
p629
ss(Vdescription
p630
g587
NVloongson-3
p631
tp632
(dp633
Vhardware
p634
VLoongson 3A/3B
p635
sVhardware-long
p636
VLoongson 3A or 3B based systems (e.g. from Loongson or Lemote)
p637
ss(Vimage
p638
g587
NVocteon
p639
tp640
(dp641
Vconfigs
p642
(lp643
Vkernelarch-mips/config.octeon
p644
ass(Vimage
p645
g587
tp646
(dp647
Vinstall-stem
p648
Vvmlinux
p649
ss(Vdescription
p650
g587
NV5kc-malta
p651
tp652
(dp653
Vhardware
p654
VMIPS Malta (64-bit)
p655
sVhardware-long
p656
VMIPS Malta boards (64-bit)
p657
ss(Vdescription
p658
g587
NV4kc-malta
p659
tp660
(dp661
Vhardware
p662
VMIPS Malta
p663
sVhardware-long
p664
VMIPS Malta boards
p665
ss(g142
g587
g110
tp666
(dp667
g145
(lp668
V4kc-malta
p669
aV5kc-malta
p670
aVloongson-3
p671
aVocteon
p672
asg149
I01
ss(Vbase
p673
Vmipsn32
p674
tp675
(dp676
Vfeaturesets
p677
(lp678
sVkernel-arch
p679
Vmips
p680
ss(Vbase
p681
Vmipsn32el
p682
tp683
(dp684
Vfeaturesets
p685
(lp686
sVkernel-arch
p687
Vmips
p688
ss(Vbase
p689
Vmips64
p690
tp691
(dp692
g108
(lp693
g110
asVkernel-arch
p694
Vmips
p695
ss(Vbuild
p696
g690
tp697
(dp698
Vsigned-modules
p699
I00
sVimage-file
p700
Vvmlinux
p701
ss(Vimage
p702
g690
NV5kc-malta
p703
tp704
(dp705
Vconfigs
p706
(lp707
Vkernelarch-mips/config.malta
p708
aVkernelarch-mips/config.mips64r2
p709
ass(Vdescription
p710
g690
NVocteon
p711
tp712
(dp713
Vhardware
p714
VOcteon
p715
sVhardware-long
p716
VCavium Networks Octeon
p717
ss(Vimage
p718
g690
tp719
(dp720
Vinstall-stem
p721
Vvmlinux
p722
ss(Vdescription
p723
g690
NV5kc-malta
p724
tp725
(dp726
Vhardware
p727
VMIPS Malta
p728
sVhardware-long
p729
VMIPS Malta boards
p730
ss(Vimage
p731
g690
NVocteon
p732
tp733
(dp734
Vconfigs
p735
(lp736
Vkernelarch-mips/config.octeon
p737
ass(g142
g690
g110
tp738
(dp739
g145
(lp740
V5kc-malta
p741
aVocteon
p742
asg149
I01
ss(Vbase
p743
Vmips64el
p744
tp745
(dp746
g108
(lp747
g110
asVkernel-arch
p748
Vmips
p749
ss(Vimage
p750
g744
NVloongson-3
p751
tp752
(dp753
Vconfigs
p754
(lp755
Vkernelarch-mips/config.loongson-3
p756
ass(Vbuild
p757
g744
tp758
(dp759
Vsigned-modules
p760
I00
sVimage-file
p761
Vvmlinux
p762
ss(Vimage
p763
g744
NV5kc-malta
p764
tp765
(dp766
Vconfigs
p767
(lp768
Vkernelarch-mips/config.malta
p769
aVkernelarch-mips/config.mips64r2
p770
ass(Vdescription
p771
g744
NVocteon
p772
tp773
(dp774
Vhardware
p775
VOcteon
p776
sVhardware-long
p777
VCavium Networks Octeon
p778
ss(Vdescription
p779
g744
NVloongson-3
p780
tp781
(dp782
Vhardware
p783
VLoongson 3A/3B
p784
sVhardware-long
p785
VLoongson 3A or 3B based systems (e.g. from Loongson or Lemote)
p786
ss(Vimage
p787
g744
tp788
(dp789
Vinstall-stem
p790
Vvmlinux
p791
ss(Vdescription
p792
g744
NV5kc-malta
p793
tp794
(dp795
Vhardware
p796
VMIPS Malta
p797
sVhardware-long
p798
VMIPS Malta boards
p799
ss(Vimage
p800
g744
NVocteon
p801
tp802
(dp803
Vconfigs
p804
(lp805
Vkernelarch-mips/config.octeon
p806
ass(g142
g744
g110
tp807
(dp808
g145
(lp809
V5kc-malta
p810
aVloongson-3
p811
aVocteon
p812
asg149
I01
ss(Vbase
p813
Vpowerpc
p814
tp815
(dp816
g108
(lp817
g110
asVkernel-arch
p818
Vpowerpc
p819
ss(Vdescription
p820
g814
NVpowerpc64
p821
tp822
(dp823
Vhardware
p824
V64-bit PowerPC
p825
ss(Vbuild
p826
g814
tp827
(dp828
Vvdso
p829
I01
sVimage-file
p830
Vvmlinux
p831
ss(Vimage
p832
g814
NVpowerpc-smp
p833
tp834
(dp835
Vconfigs
p836
(lp837
Vpowerpc/config.powerpc
p838
aVpowerpc/config.powerpc-smp
p839
ass(Vdescription
p840
g814
NVpowerpc
p841
tp842
(dp843
Vhardware
p844
Vuniprocessor 32-bit PowerPC
p845
ss(Vimage
p846
g814
NVpowerpc64
p847
tp848
(dp849
Vconfigs
p850
(lp851
Vkernelarch-powerpc/config-arch-64
p852
aVkernelarch-powerpc/config-arch-64-be
p853
ass(Vdescription
p854
g814
NVpowerpc-smp
p855
tp856
(dp857
Vhardware
p858
Vmultiprocessor 32-bit PowerPC
p859
ss(Vimage
p860
g814
tp861
(dp862
Vsuggests
p863
Vmkvmlinuz
p864
sVinstall-stem
p865
Vvmlinux
p866
sVconfigs
p867
(lp868
ss(g142
g814
g110
tp869
(dp870
g145
(lp871
Vpowerpc
p872
aVpowerpc-smp
p873
aVpowerpc64
p874
asg149
I01
ss(Vbase
p875
Vpowerpcspe
p876
tp877
(dp878
g108
(lp879
g110
asVkernel-arch
p880
Vpowerpc
p881
ss(Vbuild
p882
g876
tp883
(dp884
Vsigned-modules
p885
I00
sVimage-file
p886
Vvmlinux
p887
sVvdso
p888
I01
ss(Vimage
p889
g876
tp890
(dp891
Vsuggests
p892
Vmkvmlinuz
p893
sVinstall-stem
p894
Vvmlinux
p895
ss(Vdescription
p896
g876
tp897
(dp898
Vhardware
p899
V32-bit PowerPC with SPE (instead of AltiVec) with SMP support
p900
ss(g142
g876
g110
tp901
(dp902
g145
(lp903
Vpowerpcspe
p904
asg149
I01
ss(Vbase
p905
Vppc64
p906
tp907
(dp908
g108
(lp909
g110
asVkernel-arch
p910
Vpowerpc
p911
ss(Vdescription
p912
g906
NVpowerpc64
p913
tp914
(dp915
Vhardware
p916
V64-bit PowerPC
p917
ss(Vbuild
p918
g906
tp919
(dp920
Vsigned-modules
p921
I00
sVimage-file
p922
Vvmlinux
p923
sVvdso
p924
I01
ss(Vimage
p925
g906
NVpowerpc64
p926
tp927
(dp928
Vconfigs
p929
(lp930
Vkernelarch-powerpc/config-arch-64
p931
aVkernelarch-powerpc/config-arch-64-be
p932
ass(Vimage
p933
g906
tp934
(dp935
Vsuggests
p936
Vmkvmlinuz
p937
sVinstall-stem
p938
Vvmlinux
p939
sVconfigs
p940
(lp941
ss(g142
g906
g110
tp942
(dp943
g145
(lp944
Vpowerpc64
p945
asg149
I01
ss(Vbase
p946
Vppc64el
p947
tp948
(dp949
g108
(lp950
g110
asVkernel-arch
p951
Vpowerpc
p952
ss(Vdescription
p953
g947
NVpowerpc64le
p954
tp955
(dp956
Vhardware
p957
VLittle-endian 64-bit PowerPC
p958
ss(Vbuild
p959
g947
tp960
(dp961
Vvdso
p962
I01
sVimage-file
p963
Vvmlinux
p964
ss(Vimage
p965
g947
tp966
(dp967
Vsuggests
p968
Vmkvmlinuz
p969
sVinstall-stem
p970
Vvmlinux
p971
sVconfigs
p972
(lp973
ss(Vimage
p974
g947
NVpowerpc64le
p975
tp976
(dp977
Vconfigs
p978
(lp979
Vkernelarch-powerpc/config-arch-64
p980
aVkernelarch-powerpc/config-arch-64-le
p981
ass(g142
g947
g110
tp982
(dp983
g145
(lp984
Vpowerpc64le
p985
asg149
I01
ss(Vbase
p986
Vs390
p987
tp988
(dp989
Vfeaturesets
p990
(lp991
sVkernel-arch
p992
Vs390
p993
ss(Vbase
p994
Vs390x
p995
tp996
(dp997
g108
(lp998
g110
asVkernel-arch
p999
Vs390
p1000
ss(Vdescription
p1001
g995
NVs390x
p1002
tp1003
(dp1004
Vhardware
p1005
VIBM zSeries
p1006
ss(Vbuild
p1007
g995
tp1008
(dp1009
Vvdso
p1010
I01
sVimage-file
p1011
Varch/s390/boot/image
p1012
ss(Vbuild
p1013
g995
NVs390x
p1014
tp1015
(dp1016
Vdebug-info
p1017
I01
ss(Vrelations
p1018
g995
tp1019
(dp1020
Vheaders%gcc-6
p1021
Vlinux-compiler-gcc-6-s390
p1022
ss(Vimage
p1023
g995
tp1024
(dp1025
Vinstall-stem
p1026
Vvmlinuz
p1027
sVbootloaders
p1028
(lp1029
Vs390-tools
p1030
ass(g142
g995
g110
tp1031
(dp1032
g145
(lp1033
Vs390x
p1034
asg149
I01
ss(Vbase
p1035
Vsh3
p1036
tp1037
(dp1038
Vfeaturesets
p1039
(lp1040
sVkernel-arch
p1041
Vsh
p1042
ss(Vbase
p1043
Vsh4
p1044
tp1045
(dp1046
g108
(lp1047
g110
asVkernel-arch
p1048
Vsh
p1049
ss(Vbuild
p1050
g1044
tp1051
(dp1052
Vsigned-modules
p1053
I00
sVimage-file
p1054
Varch/sh/boot/zImage
p1055
ss(Vdescription
p1056
g1044
NVsh7751r
p1057
tp1058
(dp1059
Vhardware
p1060
Vsh7751r
p1061
sVhardware-long
p1062
VRenesas SH7751R R2D plus board
p1063
ss(Vdescription
p1064
g1044
NVsh7785lcr
p1065
tp1066
(dp1067
Vhardware
p1068
Vsh7785lcr
p1069
sVhardware-long
p1070
VRenesas SH7785 reference board
p1071
ss(Vimage
p1072
g1044
tp1073
(dp1074
Vinstall-stem
p1075
Vvmlinuz
p1076
ss(Vimage
p1077
g1044
NVsh7785lcr
p1078
tp1079
(dp1080
Vrecommends
p1081
Vu-boot-tools
p1082
sVcheck-size
p1083
L4194304L
ss(g142
g1044
g110
tp1084
(dp1085
g145
(lp1086
Vsh7751r
p1087
aVsh7785lcr
p1088
asg149
I01
ss(Vbase
p1089
Vsparc
p1090
tp1091
(dp1092
Vfeaturesets
p1093
(lp1094
sVkernel-arch
p1095
Vsparc
p1096
ss(Vbase
p1097
Vsparc64
p1098
tp1099
(dp1100
g108
(lp1101
g110
asVkernel-arch
p1102
Vsparc
p1103
ss(Vbuild
p1104
g1098
tp1105
(dp1106
Vsigned-modules
p1107
I00
sVimage-file
p1108
Varch/sparc/boot/zImage
p1109
ss(Vimage
p1110
g1098
NVsparc64
p1111
tp1112
(dp1113
Vconfigs
p1114
(lp1115
Vkernelarch-sparc/config-up
p1116
ass(Vimage
p1117
g1098
NVsparc64-smp
p1118
tp1119
(dp1120
Vconfigs
p1121
(lp1122
Vkernelarch-sparc/config-smp
p1123
ass(Vimage
p1124
g1098
tp1125
(dp1126
Vsuggests
p1127
Vsilo, fdutils
p1128
sVinstall-stem
p1129
Vvmlinuz
p1130
sVconfigs
p1131
(lp1132
ss(Vdescription
p1133
g1098
NVsparc64-smp
p1134
tp1135
(dp1136
Vhardware
p1137
Vmultiprocessor 64-bit UltraSPARC
p1138
ss(Vdescription
p1139
g1098
NVsparc64
p1140
tp1141
(dp1142
Vhardware
p1143
Vuniprocessor 64-bit UltraSPARC
p1144
ss(g142
g1098
g110
tp1145
(dp1146
g145
(lp1147
Vsparc64
p1148
aVsparc64-smp
p1149
asg149
I01
ss(Vbase
p1150
Vtilegx
p1151
tp1152
(dp1153
Vfeaturesets
p1154
(lp1155
sVkernel-arch
p1156
Vtile
p1157
ss(Vbase
p1158
Vx32
p1159
tp1160
(dp1161
Vfeaturesets
p1162
(lp1163
sVkernel-arch
p1164
Vx86
p1165
ss(Vdescription
p1166
NVrt
p1167
tp1168
(dp1169
Vparts
p1170
(lp1171
Vrt
p1172
asVpart-long-rt
p1173
VThis kernel includes the PREEMPT_RT realtime patch set.
p1174
sVpart-short-rt
p1175
VPREEMPT_RT
p1176
ss(Vabi
p1177
Ng1167
tp1178
(dp1179
Vignore-changes
p1180
(lp1181
V*
p1182
ass(Vversion
p1183
tp1184
(dp1185
Vupstream
p1186
V4.9
p1187
sVsource
p1188
V4.9.16-1
p1189
sVabiname
p1190
V4.9.0-parrot16
p1191
sVabiname_base
p1192
V4.9.0
p1193
ss.