cdebian_linux.config
ConfigCore
p0
(tRp1
(Vbase
p2
tp3
(dp4
Varches
p5
(lp6
Valpha
p7
aVamd64
p8
aVarm64
p9
aVarmel
p10
aVarmhf
p11
aVhppa
p12
aVi386
p13
aVm68k
p14
aVmips
p15
aVmipsel
p16
aVmipsn32
p17
aVmipsn32el
p18
aVmips64
p19
aVmips64el
p20
aVor1k
p21
aVpowerpc
p22
aVpowerpcspe
p23
aVppc64
p24
aVppc64el
p25
aVs390
p26
aVs390x
p27
aVsh3
p28
aVsh4
p29
aVsparc
p30
aVsparc64
p31
aVtilegx
p32
aVx32
p33
asVfeaturesets
p34
(lp35
Vnone
p36
aVrt
p37
asVcompiler
p38
Vgcc-6
p39
ss(Vbuild
p40
tp41
(dp42
Vsigned-modules
p43
I01
sVdebug-info
p44
I01
ss(Vbase
p45
NVrt
p46
tp47
(dp48
Venabled
p49
I01
ss(Vdescription
p50
tp51
(dp52
Vpart-long-up
p53
VThis kernel is not suitable for SMP (multi-processor,\u000amulti-core or hyper-threaded) systems.
p54
sVpart-long-xen
p55
VThis kernel also runs on a Xen hypervisor.\u000aIt supports both privileged (dom0) and unprivileged (domU) operation.
p56
ss(Vrelations
p57
tp58
(dp59
Vinitramfs-tools
p60
Vinitramfs-tools (>= 0.120+deb8u2)
p61
sVgcc-6
p62
Vgcc-6 <!stage1 !cross>, gcc-6-@gnu-type-package@:native <!stage1 cross>
p63
sVinitramfs-fallback
p64
Vlinux-initramfs-tool
p65
ss(Vimage
p66
tp67
(dp68
Vinitramfs-generators
p69
(lp70
Vinitramfs-tools
p71
aVinitramfs-fallback
p72
ass(Vabi
p73
tp74
(dp75
Vabiname
p76
Vparrot
p77
sVignore-changes
p78
(lp79
V__cpuhp_*
p80
aVmodule:drivers/iio/common/st_sensors/**
p81
aVmodule:drivers/net/wireless/**
p82
aVmodule:drivers/power/supply/bq27xxx_battery
p83
aVmodule:drivers/usb/host/**
p84
aVmodule:drivers/usb/musb/**
p85
aVmodule:net/ceph/libceph
p86
aVbtree_*
p87
aVvisitor*
p88
ass(Vbase
p89
Valpha
p90
tp91
(dp92
Vfeaturesets
p93
(lp94
Vnone
p95
asVkernel-arch
p96
Valpha
p97
ss(Vdescription
p98
g90
NValpha-smp
p99
tp100
(dp101
Vhardware
p102
VAlpha SMP
p103
sVhardware-long
p104
VDEC Alpha SMP systems with extended kernel start address (Wildfire, Titan, Marvel)
p105
ss(Vbuild
p106
g90
tp107
(dp108
Vsigned-modules
p109
I00
sVimage-file
p110
Varch/alpha/boot/vmlinux.gz
p111
ss(Vdescription
p112
g90
NValpha-generic
p113
tp114
(dp115
Vhardware
p116
VAlpha
p117
sVhardware-long
p118
VDEC Alpha systems with extended kernel start address (Wildfire, Titan, Marvel)
p119
ss(Vimage
p120
g90
tp121
(dp122
Vsuggests
p123
Vaboot, fdutils
p124
sVinstall-stem
p125
Vvmlinuz
p126
ss(Vbase
p127
g90
g95
tp128
(dp129
Vflavours
p130
(lp131
Valpha-generic
p132
aValpha-smp
p133
asVimplicit-flavour
p134
I01
ss(Vbase
p135
Vamd64
p136
tp137
(dp138
Vfeaturesets
p139
(lp140
Vnone
p141
aVrt
p142
asVkernel-arch
p143
Vx86
p144
ss(Vdescription
p145
g136
NVamd64
p146
tp147
(dp148
Vhardware
p149
V64-bit PCs
p150
sVhardware-long
p151
VPCs with AMD64, Intel 64 or VIA Nano processors
p152
ss(Vbuild
p153
g136
tp154
(dp155
Vvdso
p156
I01
sVimage-file
p157
Varch/x86/boot/bzImage
p158
sVdebug-info
p159
I01
sVsigned-modules
p160
I00
ss(Vrelations
p161
g136
tp162
(dp163
Vheaders%gcc-6
p164
Vlinux-compiler-gcc-6-x86
p165
ss(Vimage
p166
g136
tp167
(dp168
Vbreaks
p169
Vxserver-xorg-input-vmmouse (<< 1:13.0.99)
p170
sVinstall-stem
p171
Vvmlinuz
p172
sVbootloaders
p173
(lp174
Vgrub-pc
p175
aVgrub-efi-amd64
p176
aVextlinux
p177
ass(Vbase
p178
g136
Vnone
p179
tp180
(dp181
Vflavours
p182
(lp183
Vamd64
p184
ass(Vdescription
p185
g136
g179
Vamd64
p186
tp187
(dp188
Vparts
p189
(lp190
Vxen
p191
ass(Vbase
p192
g136
Vrt
p193
tp194
(dp195
Vflavours
p196
(lp197
Vamd64
p198
ass(Vbase
p199
Varm64
p200
tp201
(dp202
Vfeaturesets
p203
(lp204
Vnone
p205
asVkernel-arch
p206
Varm64
p207
ss(Vdescription
p208
g200
NVarm64
p209
tp210
(dp211
Vhardware
p212
V64-bit ARMv8 machines
p213
ss(Vbuild
p214
g200
tp215
(dp216
Vvdso
p217
I01
sVimage-file
p218
Varch/arm64/boot/Image
p219
sVdebug-info
p220
I01
sVsigned-modules
p221
I00
ss(Vimage
p222
g200
NVarm64
p223
tp224
(dp225
s(Vimage
p226
g200
tp227
(dp228
Vbreaks
p229
Vlibmozjs185-1.0, libmozjs-24-0 (<< 24.2.0-5.1~)
p230
sVinstall-stem
p231
Vvmlinuz
p232
ss(Vbase
p233
g200
Vnone
p234
tp235
(dp236
Vflavours
p237
(lp238
Varm64
p239
ass(Vbase
p240
Varmel
p241
tp242
(dp243
g93
(lp244
g95
asVkernel-arch
p245
Varm
p246
ss(Vbuild
p247
g241
tp248
(dp249
Vsigned-modules
p250
I00
sVimage-file
p251
Varch/arm/boot/zImage
p252
ss(Vimage
p253
g241
NVmarvell
p254
tp255
(dp256
Vrecommends
p257
Vu-boot-tools
p258
sVbreaks
p259
Vflash-kernel (<< 3.57~)
p260
sVcheck-size-with-dtb
p261
I01
sVcheck-size
p262
L2097080L
ss(Vdescription
p263
g241
NVmarvell
p264
tp265
(dp266
Vhardware
p267
VMarvell Kirkwood/Orion
p268
sVhardware-long
p269
VMarvell Kirkwood based systems (SheevaPlug, QNAP TS-119/TS-219, etc)\u000aand Orion 5181, 5182 and 5281 based systems (QNAP TS-109/TS-209, etc)
p270
ss(Vrelations
p271
g241
tp272
(dp273
Vheaders%gcc-6
p274
Vlinux-compiler-gcc-6-arm
p275
ss(Vimage
p276
g241
tp277
(dp278
Vinstall-stem
p279
Vvmlinuz
p280
ss(g127
g241
g95
tp281
(dp282
g130
(lp283
Vmarvell
p284
asg134
I01
ss(Vbase
p285
Varmhf
p286
tp287
(dp288
g93
(lp289
g95
asVkernel-arch
p290
Varm
p291
ss(Vdescription
p292
g286
NVarmmp
p293
tp294
(dp295
Vhardware
p296
VARMv7 multiplatform compatible SoCs
p297
sVhardware-long
p298
VARMv7 multiplatform kernel. See\u000ahttps://wiki.debian.org/DebianKernel/ARMMP for details of supported\u000aplatforms
p299
ss(Vbuild
p300
g286
tp301
(dp302
Vvdso
p303
I01
sVimage-file
p304
Varch/arm/boot/zImage
p305
sVsigned-modules
p306
I00
ss(Vdescription
p307
g286
NVarmmp-lpae
p308
tp309
(dp310
Vhardware
p311
VARMv7 multiplatform compatible SoCs supporting LPAE
p312
sVhardware-long
p313
VARMv7 multiplatform kernel supporting LPAE. See\u000ahttps://wiki.debian.org/DebianKernel/ARMMP for details of supported\u000aplatforms.
p314
ss(Vrelations
p315
g286
tp316
(dp317
Vheaders%gcc-6
p318
Vlinux-compiler-gcc-6-arm
p319
ss(Vimage
p320
g286
tp321
(dp322
Vinstall-stem
p323
Vvmlinuz
p324
ss(g127
g286
g95
tp325
(dp326
g130
(lp327
Varmmp
p328
aVarmmp-lpae
p329
asg134
I01
ss(Vbase
p330
Vhppa
p331
tp332
(dp333
g93
(lp334
g95
asVkernel-arch
p335
Vparisc
p336
ss(Vbuild
p337
g331
tp338
(dp339
Vsigned-modules
p340
I00
sVimage-file
p341
Vvmlinux
p342
ss(Vdescription
p343
g331
NVparisc64-smp
p344
tp345
(dp346
Vhardware
p347
Vmultiprocessor 64-bit PA-RISC
p348
sVhardware-long
p349
VHP PA-RISC 64-bit SMP systems with support for more than 4 GB RAM
p350
ss(Vbase
p351
g331
NVparisc64-smp
p352
tp353
(dp354
Vcflags
p355
V-fno-cse-follow-jumps
p356
sVoverride-host-type
p357
Vhppa64-linux-gnu
p358
ss(Vrelations
p359
g331
tp360
(dp361
Vgcc-6
p362
Vgcc-6 <!stage1 !cross>, binutils-hppa64-linux-gnu <!stage1 !cross>, gcc-6-hppa64-linux-gnu <!stage1 !cross>, gcc-6-hppa-linux-gnu:native <!stage1 cross>, binutils-hppa64-linux-gnu:native <!stage1 cross>, gcc-6-hppa64-linux-gnu:native <!stage1 cross>
p363
ss(Vdescription
p364
g331
NVparisc
p365
tp366
(dp367
Vhardware
p368
V32-bit PA-RISC
p369
sVhardware-long
p370
VHP PA-RISC 32-bit systems with max 4 GB RAM
p371
ss(Vimage
p372
g331
tp373
(dp374
Vsuggests
p375
Vpalo
p376
sVinstall-stem
p377
Vvmlinux
p378
ss(g127
g331
g95
tp379
(dp380
g130
(lp381
Vparisc
p382
aVparisc64-smp
p383
asg134
I01
ss(Vbase
p384
Vi386
p385
tp386
(dp387
Vfeaturesets
p388
(lp389
Vnone
p390
aVrt
p391
asVkernel-arch
p392
Vx86
p393
ss(Vbuild
p394
g385
tp395
(dp396
Vvdso
p397
I01
sVimage-file
p398
Varch/x86/boot/bzImage
p399
sVsigned-modules
p400
I00
ss(Vdescription
p401
g385
NV686-pae
p402
tp403
(dp404
Vhardware
p405
Vmodern PCs
p406
sVhardware-long
p407
VPCs with one or more processors supporting PAE
p408
sVparts
p409
(lp410
Vpae
p411
ass(Vdescription
p412
g385
tp413
(dp414
Vpart-long-pae
p415
VThis kernel requires PAE (Physical Address Extension).\u000aThis feature is supported by the Intel Pentium Pro/II/III/4/4M/D, Xeon,\u000aCore and Atom; AMD Geode NX, Athlon (K7), Duron, Opteron, Sempron,\u000aTurion or Phenom; Transmeta Efficeon; VIA C7; and some other processors.
p416
ss(Vbuild
p417
g385
NV686-pae
p418
tp419
(dp420
Vdebug-info
p421
I01
ss(Vdescription
p422
g385
NV686
p423
tp424
(dp425
Vhardware
p426
Volder PCs
p427
sVhardware-long
p428
VPCs with one or more processors not supporting PAE
p429
ss(Vrelations
p430
g385
tp431
(dp432
Vheaders%gcc-6
p433
Vlinux-compiler-gcc-6-x86
p434
ss(Vimage
p435
g385
tp436
(dp437
Vbreaks
p438
Vxserver-xorg-input-vmmouse (<< 1:13.0.99)
p439
sVinstall-stem
p440
Vvmlinuz
p441
sVbootloaders
p442
(lp443
Vgrub-pc
p444
aVextlinux
p445
ass(Vbase
p446
g385
Vnone
p447
tp448
(dp449
Vflavours
p450
(lp451
V686
p452
aV686-pae
p453
ass(Vdescription
p454
g385
g447
V686-pae
p455
tp456
(dp457
Vparts
p458
(lp459
Vxen
p460
ass(Vbase
p461
g385
Vrt
p462
tp463
(dp464
Vflavours
p465
(lp466
V686-pae
p467
ass(Vbase
p468
Vm68k
p469
tp470
(dp471
Vcflags
p472
V-ffreestanding
p473
sg93
(lp474
g95
asVkernel-arch
p475
Vm68k
p476
ss(Vbuild
p477
g469
tp478
(dp479
Vsigned-modules
p480
I00
sVimage-file
p481
Vvmlinux.gz
p482
ss(Vdescription
p483
g469
NVm68k
p484
tp485
(dp486
Vhardware
p487
VMotorola MC68020+ family
p488
ss(Vimage
p489
g469
tp490
(dp491
Vsuggests
p492
Vvmelilo, fdutils
p493
sVinstall-stem
p494
Vvmlinuz
p495
ss(g127
g469
g95
tp496
(dp497
g130
(lp498
Vm68k
p499
asg134
I01
ss(Vbase
p500
Vmips
p501
tp502
(dp503
g93
(lp504
g95
asVkernel-arch
p505
Vmips
p506
ss(Vbuild
p507
g501
tp508
(dp509
Vsigned-modules
p510
I00
sVimage-file
p511
Vvmlinux
p512
ss(Vimage
p513
g501
NV4kc-malta
p514
tp515
(dp516
Vconfigs
p517
(lp518
Vkernelarch-mips/config.malta
p519
aVkernelarch-mips/config.mips32r2
p520
ass(Vimage
p521
g501
NV5kc-malta
p522
tp523
(dp524
Vconfigs
p525
(lp526
Vkernelarch-mips/config.malta
p527
aVkernelarch-mips/config.mips64r2
p528
ass(Vdescription
p529
g501
NVocteon
p530
tp531
(dp532
Vhardware
p533
VOcteon
p534
sVhardware-long
p535
VCavium Networks Octeon
p536
ss(Vimage
p537
g501
NVocteon
p538
tp539
(dp540
Vconfigs
p541
(lp542
Vkernelarch-mips/config.octeon
p543
ass(Vimage
p544
g501
tp545
(dp546
Vinstall-stem
p547
Vvmlinux
p548
ss(Vdescription
p549
g501
NV5kc-malta
p550
tp551
(dp552
Vhardware
p553
VMIPS Malta (64-bit)
p554
sVhardware-long
p555
VMIPS Malta boards (64-bit)
p556
ss(Vdescription
p557
g501
NV4kc-malta
p558
tp559
(dp560
Vhardware
p561
VMIPS Malta
p562
sVhardware-long
p563
VMIPS Malta boards
p564
ss(g127
g501
g95
tp565
(dp566
g130
(lp567
V4kc-malta
p568
aV5kc-malta
p569
aVocteon
p570
asg134
I01
ss(Vbase
p571
Vmipsel
p572
tp573
(dp574
g93
(lp575
g95
asVkernel-arch
p576
Vmips
p577
ss(Vimage
p578
g572
NVloongson-3
p579
tp580
(dp581
Vconfigs
p582
(lp583
Vkernelarch-mips/config.loongson-3
p584
ass(Vbuild
p585
g572
tp586
(dp587
Vsigned-modules
p588
I00
sVimage-file
p589
Vvmlinux
p590
ss(Vimage
p591
g572
NV4kc-malta
p592
tp593
(dp594
Vconfigs
p595
(lp596
Vkernelarch-mips/config.malta
p597
aVkernelarch-mips/config.mips32r2
p598
ass(Vimage
p599
g572
NV5kc-malta
p600
tp601
(dp602
Vconfigs
p603
(lp604
Vkernelarch-mips/config.malta
p605
aVkernelarch-mips/config.mips64r2
p606
ass(Vdescription
p607
g572
NVocteon
p608
tp609
(dp610
Vhardware
p611
VOcteon
p612
sVhardware-long
p613
VCavium Networks Octeon
p614
ss(Vdescription
p615
g572
NVloongson-3
p616
tp617
(dp618
Vhardware
p619
VLoongson 3A/3B
p620
sVhardware-long
p621
VLoongson 3A or 3B based systems (e.g. from Loongson or Lemote)
p622
ss(Vimage
p623
g572
NVocteon
p624
tp625
(dp626
Vconfigs
p627
(lp628
Vkernelarch-mips/config.octeon
p629
ass(Vimage
p630
g572
tp631
(dp632
Vinstall-stem
p633
Vvmlinux
p634
ss(Vdescription
p635
g572
NV5kc-malta
p636
tp637
(dp638
Vhardware
p639
VMIPS Malta (64-bit)
p640
sVhardware-long
p641
VMIPS Malta boards (64-bit)
p642
ss(Vdescription
p643
g572
NV4kc-malta
p644
tp645
(dp646
Vhardware
p647
VMIPS Malta
p648
sVhardware-long
p649
VMIPS Malta boards
p650
ss(g127
g572
g95
tp651
(dp652
g130
(lp653
V4kc-malta
p654
aV5kc-malta
p655
aVloongson-3
p656
aVocteon
p657
asg134
I01
ss(Vbase
p658
Vmipsn32
p659
tp660
(dp661
Vfeaturesets
p662
(lp663
sVkernel-arch
p664
Vmips
p665
ss(Vbase
p666
Vmipsn32el
p667
tp668
(dp669
Vfeaturesets
p670
(lp671
sVkernel-arch
p672
Vmips
p673
ss(Vbase
p674
Vmips64
p675
tp676
(dp677
g93
(lp678
g95
asVkernel-arch
p679
Vmips
p680
ss(Vbuild
p681
g675
tp682
(dp683
Vsigned-modules
p684
I00
sVimage-file
p685
Vvmlinux
p686
ss(Vimage
p687
g675
NV5kc-malta
p688
tp689
(dp690
Vconfigs
p691
(lp692
Vkernelarch-mips/config.malta
p693
aVkernelarch-mips/config.mips64r2
p694
ass(Vdescription
p695
g675
NVocteon
p696
tp697
(dp698
Vhardware
p699
VOcteon
p700
sVhardware-long
p701
VCavium Networks Octeon
p702
ss(Vimage
p703
g675
tp704
(dp705
Vinstall-stem
p706
Vvmlinux
p707
ss(Vdescription
p708
g675
NV5kc-malta
p709
tp710
(dp711
Vhardware
p712
VMIPS Malta
p713
sVhardware-long
p714
VMIPS Malta boards
p715
ss(Vimage
p716
g675
NVocteon
p717
tp718
(dp719
Vconfigs
p720
(lp721
Vkernelarch-mips/config.octeon
p722
ass(g127
g675
g95
tp723
(dp724
g130
(lp725
V5kc-malta
p726
aVocteon
p727
asg134
I01
ss(Vbase
p728
Vmips64el
p729
tp730
(dp731
g93
(lp732
g95
asVkernel-arch
p733
Vmips
p734
ss(Vimage
p735
g729
NVloongson-3
p736
tp737
(dp738
Vconfigs
p739
(lp740
Vkernelarch-mips/config.loongson-3
p741
ass(Vbuild
p742
g729
tp743
(dp744
Vsigned-modules
p745
I00
sVimage-file
p746
Vvmlinux
p747
ss(Vimage
p748
g729
NV5kc-malta
p749
tp750
(dp751
Vconfigs
p752
(lp753
Vkernelarch-mips/config.malta
p754
aVkernelarch-mips/config.mips64r2
p755
ass(Vdescription
p756
g729
NVocteon
p757
tp758
(dp759
Vhardware
p760
VOcteon
p761
sVhardware-long
p762
VCavium Networks Octeon
p763
ss(Vdescription
p764
g729
NVloongson-3
p765
tp766
(dp767
Vhardware
p768
VLoongson 3A/3B
p769
sVhardware-long
p770
VLoongson 3A or 3B based systems (e.g. from Loongson or Lemote)
p771
ss(Vimage
p772
g729
tp773
(dp774
Vinstall-stem
p775
Vvmlinux
p776
ss(Vdescription
p777
g729
NV5kc-malta
p778
tp779
(dp780
Vhardware
p781
VMIPS Malta
p782
sVhardware-long
p783
VMIPS Malta boards
p784
ss(Vimage
p785
g729
NVocteon
p786
tp787
(dp788
Vconfigs
p789
(lp790
Vkernelarch-mips/config.octeon
p791
ass(g127
g729
g95
tp792
(dp793
g130
(lp794
V5kc-malta
p795
aVloongson-3
p796
aVocteon
p797
asg134
I01
ss(Vbase
p798
Vor1k
p799
tp800
(dp801
Vfeaturesets
p802
(lp803
sVkernel-arch
p804
Vopenrisc
p805
ss(Vbase
p806
Vpowerpc
p807
tp808
(dp809
g93
(lp810
g95
asVkernel-arch
p811
Vpowerpc
p812
ss(Vdescription
p813
g807
NVpowerpc64
p814
tp815
(dp816
Vhardware
p817
V64-bit PowerPC
p818
ss(Vbuild
p819
g807
tp820
(dp821
Vvdso
p822
I01
sVimage-file
p823
Vvmlinux
p824
ss(Vimage
p825
g807
NVpowerpc-smp
p826
tp827
(dp828
Vconfigs
p829
(lp830
Vpowerpc/config.powerpc
p831
aVpowerpc/config.powerpc-smp
p832
ass(Vdescription
p833
g807
NVpowerpc
p834
tp835
(dp836
Vhardware
p837
Vuniprocessor 32-bit PowerPC
p838
ss(Vimage
p839
g807
NVpowerpc64
p840
tp841
(dp842
Vconfigs
p843
(lp844
Vkernelarch-powerpc/config-arch-64
p845
aVkernelarch-powerpc/config-arch-64-be
p846
ass(Vdescription
p847
g807
NVpowerpc-smp
p848
tp849
(dp850
Vhardware
p851
Vmultiprocessor 32-bit PowerPC
p852
ss(Vimage
p853
g807
tp854
(dp855
Vsuggests
p856
Vmkvmlinuz
p857
sVinstall-stem
p858
Vvmlinux
p859
sVconfigs
p860
(lp861
ss(g127
g807
g95
tp862
(dp863
g130
(lp864
Vpowerpc
p865
aVpowerpc-smp
p866
aVpowerpc64
p867
asg134
I01
ss(Vbase
p868
Vpowerpcspe
p869
tp870
(dp871
g93
(lp872
g95
asVkernel-arch
p873
Vpowerpc
p874
ss(Vbuild
p875
g869
tp876
(dp877
Vsigned-modules
p878
I00
sVimage-file
p879
Vvmlinux
p880
sVvdso
p881
I01
ss(Vimage
p882
g869
tp883
(dp884
Vsuggests
p885
Vmkvmlinuz
p886
sVinstall-stem
p887
Vvmlinux
p888
ss(Vdescription
p889
g869
tp890
(dp891
Vhardware
p892
V32-bit PowerPC with SPE (instead of AltiVec) with SMP support
p893
ss(g127
g869
g95
tp894
(dp895
g130
(lp896
Vpowerpcspe
p897
asg134
I01
ss(Vbase
p898
Vppc64
p899
tp900
(dp901
g93
(lp902
g95
asVkernel-arch
p903
Vpowerpc
p904
ss(Vdescription
p905
g899
NVpowerpc64
p906
tp907
(dp908
Vhardware
p909
V64-bit PowerPC
p910
ss(Vbuild
p911
g899
tp912
(dp913
Vsigned-modules
p914
I00
sVimage-file
p915
Vvmlinux
p916
sVvdso
p917
I01
ss(Vimage
p918
g899
NVpowerpc64
p919
tp920
(dp921
Vconfigs
p922
(lp923
Vkernelarch-powerpc/config-arch-64
p924
aVkernelarch-powerpc/config-arch-64-be
p925
ass(Vimage
p926
g899
tp927
(dp928
Vsuggests
p929
Vmkvmlinuz
p930
sVinstall-stem
p931
Vvmlinux
p932
sVconfigs
p933
(lp934
ss(g127
g899
g95
tp935
(dp936
g130
(lp937
Vpowerpc64
p938
asg134
I01
ss(Vbase
p939
Vppc64el
p940
tp941
(dp942
g93
(lp943
g95
asVkernel-arch
p944
Vpowerpc
p945
ss(Vdescription
p946
g940
NVpowerpc64le
p947
tp948
(dp949
Vhardware
p950
VLittle-endian 64-bit PowerPC
p951
ss(Vbuild
p952
g940
tp953
(dp954
Vvdso
p955
I01
sVimage-file
p956
Vvmlinux
p957
ss(Vimage
p958
g940
tp959
(dp960
Vsuggests
p961
Vmkvmlinuz
p962
sVinstall-stem
p963
Vvmlinux
p964
sVconfigs
p965
(lp966
ss(Vimage
p967
g940
NVpowerpc64le
p968
tp969
(dp970
Vconfigs
p971
(lp972
Vkernelarch-powerpc/config-arch-64
p973
aVkernelarch-powerpc/config-arch-64-le
p974
ass(g127
g940
g95
tp975
(dp976
g130
(lp977
Vpowerpc64le
p978
asg134
I01
ss(Vbase
p979
Vs390
p980
tp981
(dp982
Vfeaturesets
p983
(lp984
sVkernel-arch
p985
Vs390
p986
ss(Vbase
p987
Vs390x
p988
tp989
(dp990
g93
(lp991
g95
asVkernel-arch
p992
Vs390
p993
ss(Vdescription
p994
g988
NVs390x
p995
tp996
(dp997
Vhardware
p998
VIBM zSeries
p999
ss(Vbuild
p1000
g988
tp1001
(dp1002
Vvdso
p1003
I01
sVimage-file
p1004
Varch/s390/boot/image
p1005
ss(Vbuild
p1006
g988
NVs390x
p1007
tp1008
(dp1009
Vdebug-info
p1010
I01
ss(Vrelations
p1011
g988
tp1012
(dp1013
Vheaders%gcc-6
p1014
Vlinux-compiler-gcc-6-s390
p1015
ss(Vimage
p1016
g988
tp1017
(dp1018
Vinstall-stem
p1019
Vvmlinuz
p1020
sVbootloaders
p1021
(lp1022
Vs390-tools
p1023
ass(g127
g988
g95
tp1024
(dp1025
g130
(lp1026
Vs390x
p1027
asg134
I01
ss(Vbase
p1028
Vsh3
p1029
tp1030
(dp1031
Vfeaturesets
p1032
(lp1033
sVkernel-arch
p1034
Vsh
p1035
ss(Vbase
p1036
Vsh4
p1037
tp1038
(dp1039
g93
(lp1040
g95
asVkernel-arch
p1041
Vsh
p1042
ss(Vbuild
p1043
g1037
tp1044
(dp1045
Vsigned-modules
p1046
I00
sVimage-file
p1047
Varch/sh/boot/zImage
p1048
ss(Vdescription
p1049
g1037
NVsh7751r
p1050
tp1051
(dp1052
Vhardware
p1053
Vsh7751r
p1054
sVhardware-long
p1055
VRenesas SH7751R R2D plus board
p1056
ss(Vdescription
p1057
g1037
NVsh7785lcr
p1058
tp1059
(dp1060
Vhardware
p1061
Vsh7785lcr
p1062
sVhardware-long
p1063
VRenesas SH7785 reference board
p1064
ss(Vimage
p1065
g1037
tp1066
(dp1067
Vinstall-stem
p1068
Vvmlinuz
p1069
ss(Vimage
p1070
g1037
NVsh7785lcr
p1071
tp1072
(dp1073
Vrecommends
p1074
Vu-boot-tools
p1075
sVcheck-size
p1076
L4194304L
ss(g127
g1037
g95
tp1077
(dp1078
g130
(lp1079
Vsh7751r
p1080
aVsh7785lcr
p1081
asg134
I01
ss(Vbase
p1082
Vsparc
p1083
tp1084
(dp1085
Vfeaturesets
p1086
(lp1087
sVkernel-arch
p1088
Vsparc
p1089
ss(Vbase
p1090
Vsparc64
p1091
tp1092
(dp1093
g93
(lp1094
g95
asVkernel-arch
p1095
Vsparc
p1096
ss(Vbuild
p1097
g1091
tp1098
(dp1099
Vsigned-modules
p1100
I00
sVimage-file
p1101
Varch/sparc/boot/zImage
p1102
ss(Vimage
p1103
g1091
NVsparc64
p1104
tp1105
(dp1106
Vconfigs
p1107
(lp1108
Vkernelarch-sparc/config-up
p1109
ass(Vimage
p1110
g1091
NVsparc64-smp
p1111
tp1112
(dp1113
Vconfigs
p1114
(lp1115
Vkernelarch-sparc/config-smp
p1116
ass(Vimage
p1117
g1091
tp1118
(dp1119
Vsuggests
p1120
Vsilo, fdutils
p1121
sVinstall-stem
p1122
Vvmlinuz
p1123
sVconfigs
p1124
(lp1125
ss(Vdescription
p1126
g1091
NVsparc64-smp
p1127
tp1128
(dp1129
Vhardware
p1130
Vmultiprocessor 64-bit UltraSPARC
p1131
ss(Vdescription
p1132
g1091
NVsparc64
p1133
tp1134
(dp1135
Vhardware
p1136
Vuniprocessor 64-bit UltraSPARC
p1137
ss(g127
g1091
g95
tp1138
(dp1139
g130
(lp1140
Vsparc64
p1141
aVsparc64-smp
p1142
asg134
I01
ss(Vbase
p1143
Vtilegx
p1144
tp1145
(dp1146
Vfeaturesets
p1147
(lp1148
sVkernel-arch
p1149
Vtile
p1150
ss(Vbase
p1151
Vx32
p1152
tp1153
(dp1154
Vfeaturesets
p1155
(lp1156
sVkernel-arch
p1157
Vx86
p1158
ss(Vdescription
p1159
NVrt
p1160
tp1161
(dp1162
Vparts
p1163
(lp1164
Vrt
p1165
asVpart-long-rt
p1166
VThis kernel includes the PREEMPT_RT realtime patch set.
p1167
sVpart-short-rt
p1168
VPREEMPT_RT
p1169
ss(Vabi
p1170
Ng1160
tp1171
(dp1172
Vignore-changes
p1173
(lp1174
V*
p1175
ass(Vversion
p1176
tp1177
(dp1178
Vupstream
p1179
V4.9
p1180
sVsource
p1181
V4.9.6-3parrot0
p1182
sVabiname
p1183
V4.9.0-parrot
p1184
sVabiname_base
p1185
V4.9.0
p1186
ss.