cdebian_linux.config
ConfigCore
p0
(tRp1
(Vabi
p2
tp3
(dp4
Vabiname
p5
Vparrot8
p6
sVignore-changes
p7
(lp8
V__cpuhp_*
p9
aV__xive_vm_h_*
p10
aVbpf_analyzer
p11
aVcxl_*
p12
aVdax_flush
p13
aVieee80211_nullfunc_get
p14
aVinet_add_protocol
p15
aVinet_del_protocol
p16
aViommu_device_*
p17
aVkvm_async_pf_task_wait
p18
aVkvmppc_*
p19
aVmm_iommu_*
p20
aVmv_mbus_*
p21
aVperf_*
p22
aVregister_cxl_calls
p23
aVregister_key_type
p24
aVunregister_cxl_calls
p25
aV*_hw_breakpoint
p26
aVmodule:arch/x86/kvm/*
p27
aVmodule:drivers/crypto/ccp/*
p28
aVmodule:drivers/hv/*
p29
aVmodule:drivers/gpu/drm/sun4i/*
p30
aVmodule:drivers/iio/**
p31
aVmodule:drivers/misc/cxl/*
p32
aVmodule:drivers/mtd/nand/*
p33
aVmodule:drivers/net/wireless/**
p34
aVmodule:drivers/nvdimm/*
p35
aVmodule:drivers/power/supply/bq27xxx_battery
p36
aVmodule:drivers/scsi/cxgbi/*
p37
aVmodule:drivers/scsi/libiscs*
p38
aVmodule:drivers/scsi/qla2xxx/qla2xxx
p39
aVmodule:drivers/scsi/ufs/*
p40
aVmodule:drivers/target/**
p41
aVmodule:drivers/usb/chipidea/**
p42
aVmodule:drivers/usb/gadget/**
p43
aVmodule:drivers/usb/host/**
p44
aVmodule:drivers/usb/musb/**
p45
aVmodule:fs/nfs/**
p46
aVmodule:net/ceph/libceph
p47
aVmodule:net/l2tp/**
p48
aVmodule:net/rxrpc/rxrpc
p49
aVmodule:sound/core/seq/**
p50
aVmodule:sound/firewire/snd-firewire-lib
p51
aVmodule:sound/pci/hda/*
p52
aVbtree_*
p53
aVvisitor*
p54
aVcan_rx_register
p55
aVip6_xmit
p56
aVmodule:net/dccp/dccp
p57
aVmodule:net/rds/rds
p58
aVdevfreq_*
p59
aVdevm_devfreq_*
p60
aVupdate_devfreq
p61
aVmodule:drivers/infiniband/**
p62
aVacpi_ec_add_query_handler
p63
aVacpi_ec_remove_query_handler
p64
aVfirst_ec
p65
aVdebugfs_create_automount
p66
aVmodule:drivers/iio/imu/inv_mpu6050/*
p67
aVdrm_crtc_accurate_vblank_count
p68
aVacpi_nfit_desc_init
p69
aVacpi_nfit_init
p70
aVloop_register_transfer
p71
ass(Vbase
p72
tp73
(dp74
Varches
p75
(lp76
Valpha
p77
aVamd64
p78
aVarm64
p79
aVarm64ilp32
p80
aVarmel
p81
aVarmhf
p82
aVhppa
p83
aVi386
p84
aVia64
p85
aVm68k
p86
aVmips
p87
aVmips64
p88
aVmips64el
p89
aVmips64r6
p90
aVmips64r6el
p91
aVmipsel
p92
aVmipsn32
p93
aVmipsn32el
p94
aVmipsn32r6
p95
aVmipsn32r6el
p96
aVmipsr6
p97
aVmipsr6el
p98
aVpowerpc
p99
aVpowerpcspe
p100
aVppc64
p101
aVppc64el
p102
aVriscv64
p103
aVs390
p104
aVs390x
p105
aVsh3
p106
aVsh4
p107
aVsparc
p108
aVsparc64
p109
aVtilegx
p110
aVx32
p111
asVcompiler
p112
Vgcc-7
p113
sVfeaturesets
p114
(lp115
Vnone
p116
aVrt
p117
ass(Vbuild
p118
tp119
(dp120
Vdebug-info
p121
I01
sVsigned-code
p122
I00
ss(Vbase
p123
NVrt
p124
tp125
(dp126
Venabled
p127
I00
ss(Vdescription
p128
tp129
(dp130
Vpart-long-up
p131
VThis kernel is not suitable for SMP (multi-processor,\u000amulti-core or hyper-threaded) systems.
p132
ss(Vimage
p133
tp134
(dp135
Vinitramfs-generators
p136
(lp137
Vinitramfs-tools
p138
aVinitramfs-fallback
p139
asVrecommends
p140
Vapparmor
p141
ss(Vrelations
p142
tp143
(dp144
Vgcc-7
p145
Vgcc-7 <!stage1 !cross>, gcc-7-@gnu-type-package@ <!stage1 cross>
p146
sVinitramfs-fallback
p147
Vlinux-initramfs-tool
p148
sVinitramfs-tools
p149
Vinitramfs-tools (>= 0.120+deb8u2)
p150
ss(Vbase
p151
Valpha
p152
tp153
(dp154
Vkernel-arch
p155
Valpha
p156
sVfeaturesets
p157
(lp158
Vnone
p159
ass(Vbuild
p160
g152
tp161
(dp162
Vimage-file
p163
Varch/alpha/boot/vmlinux.gz
p164
ss(Vimage
p165
g152
tp166
(dp167
Vsuggests
p168
Vaboot, fdutils
p169
sVinstall-stem
p170
Vvmlinuz
p171
ss(Vdescription
p172
g152
NValpha-generic
p173
tp174
(dp175
Vhardware
p176
VAlpha
p177
sVhardware-long
p178
VDEC Alpha systems with extended kernel start address (Wildfire, Titan, Marvel)
p179
ss(Vdescription
p180
g152
NValpha-smp
p181
tp182
(dp183
Vhardware
p184
VAlpha SMP
p185
sVhardware-long
p186
VDEC Alpha SMP systems with extended kernel start address (Wildfire, Titan, Marvel)
p187
ss(Vbase
p188
g152
g159
tp189
(dp190
Vflavours
p191
(lp192
Valpha-generic
p193
aValpha-smp
p194
asVimplicit-flavour
p195
I01
ss(Vbase
p196
Vamd64
p197
tp198
(dp199
Vfeaturesets
p200
(lp201
Vnone
p202
aVrt
p203
asVkernel-arch
p204
Vx86
p205
ss(Vbuild
p206
g197
tp207
(dp208
Vdebug-info
p209
I01
sVimage-file
p210
Varch/x86/boot/bzImage
p211
sVvdso
p212
I01
sVsigned-modules
p213
Vfalse
p214
ss(Vimage
p215
g197
tp216
(dp217
Vbootloaders
p218
(lp219
Vgrub-pc
p220
aVgrub-efi-amd64
p221
aVextlinux
p222
asVinstall-stem
p223
Vvmlinuz
p224
sVbreaks
p225
Vxserver-xorg-input-vmmouse (<< 1:13.0.99)
p226
ss(Vrelations
p227
g197
tp228
(dp229
Vgcc-7
p230
Vgcc-7 (>= 7.2.0-20~) <!stage1 !cross>, gcc-7-x86-64-linux-gnu (>= 7.2.0-20~) <!stage1 cross>
p231
sVheaders%gcc-7
p232
Vlinux-compiler-gcc-7-x86 (>= 4.14.17-1~)
p233
ss(Vdescription
p234
g197
NVamd64
p235
tp236
(dp237
Vhardware
p238
V64-bit PCs
p239
sVhardware-long
p240
VPCs with AMD64, Intel 64 or VIA Nano processors
p241
ss(Vdescription
p242
g197
NVcloud-amd64
p243
tp244
(dp245
Vhardware
p246
Vx86-64 cloud
p247
sVhardware-long
p248
VAmazon EC2, Google Compute Engine and Microsoft Azure cloud platforms
p249
ss(Vbase
p250
g197
Vnone
p251
tp252
(dp253
Vflavours
p254
(lp255
Vamd64
p256
aVcloud-amd64
p257
ass(Vbase
p258
g197
Vrt
p259
tp260
(dp261
Vflavours
p262
(lp263
Vamd64
p264
ass(Vbase
p265
Varm64
p266
tp267
(dp268
Vkernel-arch
p269
Varm64
p270
sVfeaturesets
p271
(lp272
Vnone
p273
ass(Vbuild
p274
g266
tp275
(dp276
Vdebug-info
p277
I01
sVimage-file
p278
Varch/arm64/boot/Image
p279
sVvdso
p280
I01
sVsigned-modules
p281
Vfalse
p282
ss(Vimage
p283
g266
tp284
(dp285
Vinstall-stem
p286
Vvmlinuz
p287
sVbreaks
p288
Vlibmozjs185-1.0, libmozjs-24-0 (<< 24.2.0-5.1~)
p289
ss(Vdescription
p290
g266
NVarm64
p291
tp292
(dp293
Vhardware
p294
V64-bit ARMv8 machines
p295
ss(Vimage
p296
g266
NVarm64
p297
tp298
(dp299
s(Vbase
p300
g266
Vnone
p301
tp302
(dp303
Vflavours
p304
(lp305
Varm64
p306
ass(Vbase
p307
Varm64ilp32
p308
tp309
(dp310
Vkernel-arch
p311
Varm64
p312
sVfeaturesets
p313
(lp314
ss(Vbase
p315
Varmel
p316
tp317
(dp318
Vkernel-arch
p319
Varm
p320
sg157
(lp321
g159
ass(Vbuild
p322
g316
tp323
(dp324
Vimage-file
p325
Varch/arm/boot/zImage
p326
sVuncompressed-image-file
p327
Varch/arm/boot/Image
p328
ss(Vimage
p329
g316
tp330
(dp331
Vinstall-stem
p332
Vvmlinuz
p333
ss(Vrelations
p334
g316
tp335
(dp336
Vheaders%gcc-7
p337
Vlinux-compiler-gcc-7-arm
p338
ss(Vdescription
p339
g316
NVmarvell
p340
tp341
(dp342
Vhardware
p343
VMarvell Kirkwood/Orion
p344
sVhardware-long
p345
VMarvell Kirkwood and Orion based systems (https://wiki.debian.org/ArmEabiPort#Supported_hardware)
p346
ss(Vimage
p347
g316
NVmarvell
p348
tp349
(dp350
Vrecommends
p351
Vu-boot-tools
p352
sVcheck-size
p353
L2097080L
sVcheck-size-with-dtb
p354
I01
sVcheck-uncompressed-size
p355
L7340032L
sVbreaks
p356
Vflash-kernel (<< 3.57~)
p357
ss(g188
g316
g159
tp358
(dp359
g191
(lp360
Vmarvell
p361
asg195
I01
ss(Vbase
p362
Varmhf
p363
tp364
(dp365
Vkernel-arch
p366
Varm
p367
sg157
(lp368
g159
ass(Vbuild
p369
g363
tp370
(dp371
Vimage-file
p372
Varch/arm/boot/zImage
p373
sVvdso
p374
I01
sVsigned-modules
p375
Vfalse
p376
ss(Vimage
p377
g363
tp378
(dp379
Vinstall-stem
p380
Vvmlinuz
p381
ss(Vrelations
p382
g363
tp383
(dp384
Vheaders%gcc-7
p385
Vlinux-compiler-gcc-7-arm
p386
ss(Vdescription
p387
g363
NVarmmp
p388
tp389
(dp390
Vhardware
p391
VARMv7 multiplatform compatible SoCs
p392
sVhardware-long
p393
VARMv7 multiplatform kernel. See\u000ahttps://wiki.debian.org/DebianKernel/ARMMP for details of supported\u000aplatforms
p394
ss(Vdescription
p395
g363
NVarmmp-lpae
p396
tp397
(dp398
Vhardware
p399
VARMv7 multiplatform compatible SoCs supporting LPAE
p400
sVhardware-long
p401
VARMv7 multiplatform kernel supporting LPAE. See\u000ahttps://wiki.debian.org/DebianKernel/ARMMP for details of supported\u000aplatforms.
p402
ss(g188
g363
g159
tp403
(dp404
g191
(lp405
Varmmp
p406
aVarmmp-lpae
p407
asg195
I01
ss(Vbase
p408
Vhppa
p409
tp410
(dp411
Vkernel-arch
p412
Vparisc
p413
sg157
(lp414
g159
ass(Vbuild
p415
g409
tp416
(dp417
Vimage-file
p418
Varch/parisc/boot/bzImage
p419
sVdebug-info
p420
I00
ss(Vimage
p421
g409
tp422
(dp423
Vsuggests
p424
Vpalo
p425
sVinstall-stem
p426
Vvmlinuz
p427
ss(Vdescription
p428
g409
NVparisc
p429
tp430
(dp431
Vhardware
p432
V32-bit PA-RISC
p433
sVhardware-long
p434
VHP PA-RISC 32-bit systems with max 4 GB RAM
p435
ss(Vdescription
p436
g409
NVparisc-smp
p437
tp438
(dp439
Vhardware
p440
Vmultiprocessor 32-bit PA-RISC
p441
sVhardware-long
p442
VHP PA-RISC 32-bit SMP systems with max 4 GB RAM
p443
ss(Vbase
p444
g409
NVparisc64-smp
p445
tp446
(dp447
Vcflags
p448
V-fno-cse-follow-jumps
p449
sVoverride-host-type
p450
Vhppa64-linux-gnu
p451
ss(Vdescription
p452
g409
NVparisc64-smp
p453
tp454
(dp455
Vhardware
p456
Vmultiprocessor 64-bit PA-RISC
p457
sVhardware-long
p458
VHP PA-RISC 64-bit SMP systems with support for more than 4 GB RAM
p459
ss(Vrelations
p460
g409
tp461
(dp462
Vgcc-7
p463
Vgcc-7 <!stage1 !cross>, binutils-hppa64-linux-gnu <!stage1 !cross>, gcc-7-hppa64-linux-gnu <!stage1 !cross>, gcc-7-hppa-linux-gnu <!stage1 cross>, binutils-hppa64-linux-gnu <!stage1 cross>, gcc-7-hppa64-linux-gnu <!stage1 cross>
p464
ss(g188
g409
g159
tp465
(dp466
g191
(lp467
Vparisc
p468
aVparisc-smp
p469
aVparisc64-smp
p470
asg195
I01
ss(Vbase
p471
Vi386
p472
tp473
(dp474
Vfeaturesets
p475
(lp476
Vnone
p477
aVrt
p478
asVkernel-arch
p479
Vx86
p480
ss(Vbuild
p481
g472
tp482
(dp483
Vimage-file
p484
Varch/x86/boot/bzImage
p485
sVvdso
p486
I01
sVsigned-modules
p487
Vfalse
p488
ss(Vdescription
p489
g472
tp490
(dp491
Vpart-long-pae
p492
VThis kernel requires PAE (Physical Address Extension).\u000aThis feature is supported by the Intel Pentium Pro/II/III/4/4M/D, Xeon,\u000aCore and Atom; AMD Geode NX, Athlon (K7), Duron, Opteron, Sempron,\u000aTurion or Phenom; Transmeta Efficeon; VIA C7; and some other processors.
p493
ss(Vimage
p494
g472
tp495
(dp496
Vbootloaders
p497
(lp498
Vgrub-pc
p499
aVextlinux
p500
asVinstall-stem
p501
Vvmlinuz
p502
sVbreaks
p503
Vxserver-xorg-input-vmmouse (<< 1:13.0.99)
p504
ss(Vrelations
p505
g472
tp506
(dp507
Vgcc-7
p508
Vgcc-7 (>= 7.2.0-20~) <!stage1 !cross>, gcc-7-i686-linux-gnu (>= 7.2.0-20~) <!stage1 cross>
p509
sVheaders%gcc-7
p510
Vlinux-compiler-gcc-7-x86 (>= 4.14.17-1~)
p511
ss(Vdescription
p512
g472
NV686
p513
tp514
(dp515
Vhardware
p516
Volder PCs
p517
sVhardware-long
p518
VPCs with one or more processors not supporting PAE
p519
ss(Vbuild
p520
g472
NV686-pae
p521
tp522
(dp523
Vdebug-info
p524
I01
ss(Vdescription
p525
g472
NV686-pae
p526
tp527
(dp528
Vhardware
p529
Vmodern PCs
p530
sVhardware-long
p531
VPCs with one or more processors supporting PAE
p532
sVparts
p533
(lp534
Vpae
p535
ass(Vbase
p536
g472
Vnone
p537
tp538
(dp539
Vflavours
p540
(lp541
V686
p542
aV686-pae
p543
ass(Vbase
p544
g472
Vrt
p545
tp546
(dp547
Vflavours
p548
(lp549
V686-pae
p550
ass(Vbase
p551
Via64
p552
tp553
(dp554
Vkernel-arch
p555
Via64
p556
sg157
(lp557
g159
ass(Vbuild
p558
g552
tp559
(dp560
Vimage-file
p561
Vvmlinux.gz
p562
ss(Vimage
p563
g552
tp564
(dp565
Vbootloaders
p566
(lp567
Velilo
p568
asVinstall-stem
p569
Vvmlinuz
p570
ss(Vdescription
p571
g552
NVitanium
p572
tp573
(dp574
Vhardware
p575
VItanium (Merced)
p576
sVhardware-long
p577
Vsystems with original Itanium (Merced) processors
p578
ss(Vdescription
p579
g552
NVmckinley
p580
tp581
(dp582
Vhardware
p583
VItanium 2+
p584
sVhardware-long
p585
Vsystems with Itanium 2 or 9300/9500/9700-series processors
p586
ss(g188
g552
g159
tp587
(dp588
g191
(lp589
Vitanium
p590
aVmckinley
p591
asg195
I01
ss(Vbase
p592
Vm68k
p593
tp594
(dp595
Vcflags
p596
V-ffreestanding
p597
sVkernel-arch
p598
Vm68k
p599
sg157
(lp600
g159
ass(Vbuild
p601
g593
tp602
(dp603
Vimage-file
p604
Vvmlinux
p605
ss(Vimage
p606
g593
tp607
(dp608
Vsuggests
p609
Vvmelilo, fdutils
p610
sVinstall-stem
p611
Vvmlinux
p612
ss(Vdescription
p613
g593
NVm68k
p614
tp615
(dp616
Vhardware
p617
VMotorola MC68020+ family
p618
ss(g188
g593
g159
tp619
(dp620
g191
(lp621
Vm68k
p622
asg195
I01
ss(Vbase
p623
Vmips
p624
tp625
(dp626
Vkernel-arch
p627
Vmips
p628
sg157
(lp629
g159
ass(Vbuild
p630
g624
tp631
(dp632
Vimage-file
p633
Vvmlinux
p634
ss(Vimage
p635
g624
tp636
(dp637
Vinstall-stem
p638
Vvmlinux
p639
ss(Vdescription
p640
g624
NV4kc-malta
p641
tp642
(dp643
Vhardware
p644
VMIPS Malta
p645
sVhardware-long
p646
VMIPS Malta boards
p647
ss(Vimage
p648
g624
NV4kc-malta
p649
tp650
(dp651
Vconfigs
p652
(lp653
Vkernelarch-mips/config.malta
p654
aVkernelarch-mips/config.mips32r2
p655
ass(Vdescription
p656
g624
NV5kc-malta
p657
tp658
(dp659
Vhardware
p660
VMIPS Malta (64-bit)
p661
sVhardware-long
p662
VMIPS Malta boards (64-bit)
p663
ss(Vimage
p664
g624
NV5kc-malta
p665
tp666
(dp667
Vconfigs
p668
(lp669
Vkernelarch-mips/config.malta
p670
aVkernelarch-mips/config.mips64r2
p671
ass(Vdescription
p672
g624
NVocteon
p673
tp674
(dp675
Vhardware
p676
VOcteon
p677
sVhardware-long
p678
VCavium Networks Octeon
p679
ss(Vimage
p680
g624
NVocteon
p681
tp682
(dp683
Vconfigs
p684
(lp685
Vkernelarch-mips/config.octeon
p686
ass(g188
g624
g159
tp687
(dp688
g191
(lp689
V4kc-malta
p690
aV5kc-malta
p691
aVocteon
p692
asg195
I01
ss(Vbase
p693
Vmips64
p694
tp695
(dp696
Vkernel-arch
p697
Vmips
p698
sg157
(lp699
g159
ass(Vbuild
p700
g694
tp701
(dp702
Vimage-file
p703
Vvmlinux
p704
ss(Vimage
p705
g694
tp706
(dp707
Vinstall-stem
p708
Vvmlinux
p709
ss(Vdescription
p710
g694
NV5kc-malta
p711
tp712
(dp713
Vhardware
p714
VMIPS Malta
p715
sVhardware-long
p716
VMIPS Malta boards
p717
ss(Vimage
p718
g694
NV5kc-malta
p719
tp720
(dp721
Vconfigs
p722
(lp723
Vkernelarch-mips/config.malta
p724
aVkernelarch-mips/config.mips64r2
p725
ass(Vdescription
p726
g694
NVocteon
p727
tp728
(dp729
Vhardware
p730
VOcteon
p731
sVhardware-long
p732
VCavium Networks Octeon
p733
ss(Vimage
p734
g694
NVocteon
p735
tp736
(dp737
Vconfigs
p738
(lp739
Vkernelarch-mips/config.octeon
p740
ass(g188
g694
g159
tp741
(dp742
g191
(lp743
V5kc-malta
p744
aVocteon
p745
asg195
I01
ss(Vbase
p746
Vmips64el
p747
tp748
(dp749
Vkernel-arch
p750
Vmips
p751
sg157
(lp752
g159
ass(Vbuild
p753
g747
tp754
(dp755
Vimage-file
p756
Vvmlinux
p757
ss(Vimage
p758
g747
tp759
(dp760
Vinstall-stem
p761
Vvmlinux
p762
ss(Vdescription
p763
g747
NV5kc-malta
p764
tp765
(dp766
Vhardware
p767
VMIPS Malta
p768
sVhardware-long
p769
VMIPS Malta boards
p770
ss(Vimage
p771
g747
NV5kc-malta
p772
tp773
(dp774
Vconfigs
p775
(lp776
Vkernelarch-mips/config.malta
p777
aVkernelarch-mips/config.mips64r2
p778
ass(Vdescription
p779
g747
NVloongson-3
p780
tp781
(dp782
Vhardware
p783
VLoongson 3A/3B
p784
sVhardware-long
p785
VLoongson 3A or 3B based systems (e.g. from Loongson or Lemote)
p786
ss(Vimage
p787
g747
NVloongson-3
p788
tp789
(dp790
Vconfigs
p791
(lp792
Vkernelarch-mips/config.loongson-3
p793
ass(Vdescription
p794
g747
NVocteon
p795
tp796
(dp797
Vhardware
p798
VOcteon
p799
sVhardware-long
p800
VCavium Networks Octeon
p801
ss(Vimage
p802
g747
NVocteon
p803
tp804
(dp805
Vconfigs
p806
(lp807
Vkernelarch-mips/config.octeon
p808
ass(g188
g747
g159
tp809
(dp810
g191
(lp811
V5kc-malta
p812
aVloongson-3
p813
aVocteon
p814
asg195
I01
ss(Vbase
p815
Vmips64r6
p816
tp817
(dp818
Vkernel-arch
p819
Vmips
p820
sg157
(lp821
g159
ass(Vbuild
p822
g816
tp823
(dp824
Vimage-file
p825
Vvmlinux
p826
ss(Vimage
p827
g816
tp828
(dp829
Vinstall-stem
p830
Vvmlinux
p831
ss(Vdescription
p832
g816
NVmips64r6
p833
tp834
(dp835
Vhardware
p836
VMIPS R6 (64 bit, big endian)
p837
sVhardware-long
p838
VMIPS R6 (64 bit, big endian)
p839
ss(Vimage
p840
g816
NVmips64r6
p841
tp842
(dp843
Vconfigs
p844
(lp845
Vkernelarch-mips/config.boston
p846
aVkernelarch-mips/config.mips64r6
p847
ass(g188
g816
g159
tp848
(dp849
g191
(lp850
Vmips64r6
p851
asg195
I01
ss(Vbase
p852
Vmips64r6el
p853
tp854
(dp855
Vkernel-arch
p856
Vmips
p857
sg157
(lp858
g159
ass(Vbuild
p859
g853
tp860
(dp861
Vimage-file
p862
Vvmlinux
p863
ss(Vimage
p864
g853
tp865
(dp866
Vinstall-stem
p867
Vvmlinux
p868
ss(Vdescription
p869
g853
NVmips64r6el
p870
tp871
(dp872
Vhardware
p873
VMIPS R6 (64 bit, little endian)
p874
sVhardware-long
p875
VMIPS R6 (64 bit, little endian)
p876
ss(Vimage
p877
g853
NVmips64r6el
p878
tp879
(dp880
Vconfigs
p881
(lp882
Vkernelarch-mips/config.boston
p883
aVkernelarch-mips/config.mips64r6
p884
ass(g188
g853
g159
tp885
(dp886
g191
(lp887
Vmips64r6el
p888
asg195
I01
ss(Vbase
p889
Vmipsel
p890
tp891
(dp892
Vkernel-arch
p893
Vmips
p894
sg157
(lp895
g159
ass(Vbuild
p896
g890
tp897
(dp898
Vimage-file
p899
Vvmlinux
p900
ss(Vimage
p901
g890
tp902
(dp903
Vinstall-stem
p904
Vvmlinux
p905
ss(Vdescription
p906
g890
NV4kc-malta
p907
tp908
(dp909
Vhardware
p910
VMIPS Malta
p911
sVhardware-long
p912
VMIPS Malta boards
p913
ss(Vimage
p914
g890
NV4kc-malta
p915
tp916
(dp917
Vconfigs
p918
(lp919
Vkernelarch-mips/config.malta
p920
aVkernelarch-mips/config.mips32r2
p921
ass(Vdescription
p922
g890
NV5kc-malta
p923
tp924
(dp925
Vhardware
p926
VMIPS Malta (64-bit)
p927
sVhardware-long
p928
VMIPS Malta boards (64-bit)
p929
ss(Vimage
p930
g890
NV5kc-malta
p931
tp932
(dp933
Vconfigs
p934
(lp935
Vkernelarch-mips/config.malta
p936
aVkernelarch-mips/config.mips64r2
p937
ass(Vdescription
p938
g890
NVloongson-3
p939
tp940
(dp941
Vhardware
p942
VLoongson 3A/3B
p943
sVhardware-long
p944
VLoongson 3A or 3B based systems (e.g. from Loongson or Lemote)
p945
ss(Vimage
p946
g890
NVloongson-3
p947
tp948
(dp949
Vconfigs
p950
(lp951
Vkernelarch-mips/config.loongson-3
p952
ass(Vdescription
p953
g890
NVocteon
p954
tp955
(dp956
Vhardware
p957
VOcteon
p958
sVhardware-long
p959
VCavium Networks Octeon
p960
ss(Vimage
p961
g890
NVocteon
p962
tp963
(dp964
Vconfigs
p965
(lp966
Vkernelarch-mips/config.octeon
p967
ass(g188
g890
g159
tp968
(dp969
g191
(lp970
V4kc-malta
p971
aV5kc-malta
p972
aVloongson-3
p973
aVocteon
p974
asg195
I01
ss(Vbase
p975
Vmipsn32
p976
tp977
(dp978
Vkernel-arch
p979
Vmips
p980
sVfeaturesets
p981
(lp982
ss(Vbase
p983
Vmipsn32el
p984
tp985
(dp986
Vkernel-arch
p987
Vmips
p988
sVfeaturesets
p989
(lp990
ss(Vbase
p991
Vmipsn32r6
p992
tp993
(dp994
Vkernel-arch
p995
Vmips
p996
sVfeaturesets
p997
(lp998
ss(Vbase
p999
Vmipsn32r6el
p1000
tp1001
(dp1002
Vkernel-arch
p1003
Vmips
p1004
sVfeaturesets
p1005
(lp1006
ss(Vbase
p1007
Vmipsr6
p1008
tp1009
(dp1010
Vkernel-arch
p1011
Vmips
p1012
sg157
(lp1013
g159
ass(Vbuild
p1014
g1008
tp1015
(dp1016
Vimage-file
p1017
Vvmlinux
p1018
ss(Vimage
p1019
g1008
tp1020
(dp1021
Vinstall-stem
p1022
Vvmlinux
p1023
ss(Vdescription
p1024
g1008
NVmips32r6
p1025
tp1026
(dp1027
Vhardware
p1028
VMIPS R6 (32 bit, big endian)
p1029
sVhardware-long
p1030
VMIPS R6 (32 bit, big endian)
p1031
ss(Vimage
p1032
g1008
NVmips32r6
p1033
tp1034
(dp1035
Vconfigs
p1036
(lp1037
Vkernelarch-mips/config.boston
p1038
aVkernelarch-mips/config.mips32r6
p1039
ass(Vdescription
p1040
g1008
NVmips64r6
p1041
tp1042
(dp1043
Vhardware
p1044
VMIPS R6 (64 bit, big endian)
p1045
sVhardware-long
p1046
VMIPS R6 (64 bit, big endian)
p1047
ss(Vimage
p1048
g1008
NVmips64r6
p1049
tp1050
(dp1051
Vconfigs
p1052
(lp1053
Vkernelarch-mips/config.boston
p1054
aVkernelarch-mips/config.mips64r6
p1055
ass(g188
g1008
g159
tp1056
(dp1057
g191
(lp1058
Vmips32r6
p1059
aVmips64r6
p1060
asg195
I01
ss(Vbase
p1061
Vmipsr6el
p1062
tp1063
(dp1064
Vkernel-arch
p1065
Vmips
p1066
sg157
(lp1067
g159
ass(Vbuild
p1068
g1062
tp1069
(dp1070
Vimage-file
p1071
Vvmlinux
p1072
ss(Vimage
p1073
g1062
tp1074
(dp1075
Vinstall-stem
p1076
Vvmlinux
p1077
ss(Vdescription
p1078
g1062
NVmips32r6el
p1079
tp1080
(dp1081
Vhardware
p1082
VMIPS R6 (32 bit, little endian)
p1083
sVhardware-long
p1084
VMIPS R6 (32 bit, little endian)
p1085
ss(Vimage
p1086
g1062
NVmips32r6el
p1087
tp1088
(dp1089
Vconfigs
p1090
(lp1091
Vkernelarch-mips/config.boston
p1092
aVkernelarch-mips/config.mips32r6
p1093
ass(Vdescription
p1094
g1062
NVmips64r6el
p1095
tp1096
(dp1097
Vhardware
p1098
VMIPS R6 (64 bit, little endian)
p1099
sVhardware-long
p1100
VMIPS R6 (64 bit, little endian)
p1101
ss(Vimage
p1102
g1062
NVmips64r6el
p1103
tp1104
(dp1105
Vconfigs
p1106
(lp1107
Vkernelarch-mips/config.boston
p1108
aVkernelarch-mips/config.mips64r6
p1109
ass(g188
g1062
g159
tp1110
(dp1111
g191
(lp1112
Vmips32r6el
p1113
aVmips64r6el
p1114
asg195
I01
ss(Vbase
p1115
Vpowerpc
p1116
tp1117
(dp1118
Vkernel-arch
p1119
Vpowerpc
p1120
sg157
(lp1121
g159
ass(Vbuild
p1122
g1116
tp1123
(dp1124
Vimage-file
p1125
Vvmlinux
p1126
sVvdso
p1127
I01
ss(Vimage
p1128
g1116
tp1129
(dp1130
Vconfigs
p1131
(lp1132
sVsuggests
p1133
Vmkvmlinuz
p1134
sVinstall-stem
p1135
Vvmlinux
p1136
ss(Vdescription
p1137
g1116
NVpowerpc
p1138
tp1139
(dp1140
Vhardware
p1141
Vuniprocessor 32-bit PowerPC
p1142
ss(Vdescription
p1143
g1116
NVpowerpc-smp
p1144
tp1145
(dp1146
Vhardware
p1147
Vmultiprocessor 32-bit PowerPC
p1148
ss(Vimage
p1149
g1116
NVpowerpc-smp
p1150
tp1151
(dp1152
Vconfigs
p1153
(lp1154
Vpowerpc/config.powerpc
p1155
aVpowerpc/config.powerpc-smp
p1156
ass(Vdescription
p1157
g1116
NVpowerpc64
p1158
tp1159
(dp1160
Vhardware
p1161
V64-bit PowerPC
p1162
ss(Vimage
p1163
g1116
NVpowerpc64
p1164
tp1165
(dp1166
Vconfigs
p1167
(lp1168
Vkernelarch-powerpc/config-arch-64
p1169
aVkernelarch-powerpc/config-arch-64-be
p1170
ass(g188
g1116
g159
tp1171
(dp1172
g191
(lp1173
Vpowerpc
p1174
aVpowerpc-smp
p1175
aVpowerpc64
p1176
asg195
I01
ss(Vbase
p1177
Vpowerpcspe
p1178
tp1179
(dp1180
Vkernel-arch
p1181
Vpowerpc
p1182
sg157
(lp1183
g159
ass(Vbuild
p1184
g1178
tp1185
(dp1186
Vimage-file
p1187
Vvmlinux
p1188
sVvdso
p1189
I01
ss(Vimage
p1190
g1178
tp1191
(dp1192
Vsuggests
p1193
Vmkvmlinuz
p1194
sVinstall-stem
p1195
Vvmlinux
p1196
ss(Vdescription
p1197
g1178
tp1198
(dp1199
Vhardware
p1200
V32-bit PowerPC with SPE (instead of AltiVec) with SMP support
p1201
ss(g188
g1178
g159
tp1202
(dp1203
g191
(lp1204
Vpowerpcspe
p1205
asg195
I01
ss(Vbase
p1206
Vppc64
p1207
tp1208
(dp1209
Vkernel-arch
p1210
Vpowerpc
p1211
sg157
(lp1212
g159
ass(Vbuild
p1213
g1207
tp1214
(dp1215
Vimage-file
p1216
Vvmlinux
p1217
sVvdso
p1218
I01
ss(Vimage
p1219
g1207
tp1220
(dp1221
Vconfigs
p1222
(lp1223
sVsuggests
p1224
Vmkvmlinuz
p1225
sVinstall-stem
p1226
Vvmlinux
p1227
ss(Vdescription
p1228
g1207
NVpowerpc64
p1229
tp1230
(dp1231
Vhardware
p1232
V64-bit PowerPC
p1233
ss(Vimage
p1234
g1207
NVpowerpc64
p1235
tp1236
(dp1237
Vconfigs
p1238
(lp1239
Vkernelarch-powerpc/config-arch-64
p1240
aVkernelarch-powerpc/config-arch-64-be
p1241
ass(g188
g1207
g159
tp1242
(dp1243
g191
(lp1244
Vpowerpc64
p1245
asg195
I01
ss(Vbase
p1246
Vppc64el
p1247
tp1248
(dp1249
Vkernel-arch
p1250
Vpowerpc
p1251
sg157
(lp1252
g159
ass(Vbuild
p1253
g1247
tp1254
(dp1255
Vimage-file
p1256
Vvmlinux
p1257
sVvdso
p1258
I01
ss(Vimage
p1259
g1247
tp1260
(dp1261
Vconfigs
p1262
(lp1263
sVsuggests
p1264
Vmkvmlinuz
p1265
sVinstall-stem
p1266
Vvmlinux
p1267
ss(Vdescription
p1268
g1247
NVpowerpc64le
p1269
tp1270
(dp1271
Vhardware
p1272
VLittle-endian 64-bit PowerPC
p1273
ss(Vimage
p1274
g1247
NVpowerpc64le
p1275
tp1276
(dp1277
Vconfigs
p1278
(lp1279
Vkernelarch-powerpc/config-arch-64
p1280
aVkernelarch-powerpc/config-arch-64-le
p1281
ass(g188
g1247
g159
tp1282
(dp1283
g191
(lp1284
Vpowerpc64le
p1285
asg195
I01
ss(Vbase
p1286
Vriscv64
p1287
tp1288
(dp1289
Vkernel-arch
p1290
Vriscv
p1291
sVfeaturesets
p1292
(lp1293
ss(Vbase
p1294
Vs390
p1295
tp1296
(dp1297
Vkernel-arch
p1298
Vs390
p1299
sVfeaturesets
p1300
(lp1301
ss(Vbase
p1302
Vs390x
p1303
tp1304
(dp1305
Vkernel-arch
p1306
Vs390
p1307
sg157
(lp1308
g159
ass(Vbuild
p1309
g1303
tp1310
(dp1311
Vimage-file
p1312
Varch/s390/boot/image
p1313
sVvdso
p1314
I01
ss(Vimage
p1315
g1303
tp1316
(dp1317
Vbootloaders
p1318
(lp1319
Vs390-tools
p1320
asVinstall-stem
p1321
Vvmlinuz
p1322
ss(Vrelations
p1323
g1303
tp1324
(dp1325
Vheaders%gcc-7
p1326
Vlinux-compiler-gcc-7-s390
p1327
ss(Vbuild
p1328
g1303
NVs390x
p1329
tp1330
(dp1331
Vdebug-info
p1332
I01
ss(Vdescription
p1333
g1303
NVs390x
p1334
tp1335
(dp1336
Vhardware
p1337
VIBM zSeries
p1338
ss(g188
g1303
g159
tp1339
(dp1340
g191
(lp1341
Vs390x
p1342
asg195
I01
ss(Vbase
p1343
Vsh3
p1344
tp1345
(dp1346
Vkernel-arch
p1347
Vsh
p1348
sVfeaturesets
p1349
(lp1350
ss(Vbase
p1351
Vsh4
p1352
tp1353
(dp1354
Vkernel-arch
p1355
Vsh
p1356
sg157
(lp1357
g159
ass(Vbuild
p1358
g1352
tp1359
(dp1360
Vimage-file
p1361
Varch/sh/boot/zImage
p1362
ss(Vimage
p1363
g1352
tp1364
(dp1365
Vinstall-stem
p1366
Vvmlinuz
p1367
ss(Vdescription
p1368
g1352
NVsh7751r
p1369
tp1370
(dp1371
Vhardware
p1372
Vsh7751r
p1373
sVhardware-long
p1374
VRenesas SH7751R R2D plus board
p1375
ss(Vdescription
p1376
g1352
NVsh7785lcr
p1377
tp1378
(dp1379
Vhardware
p1380
Vsh7785lcr
p1381
sVhardware-long
p1382
VRenesas SH7785 reference board
p1383
ss(Vimage
p1384
g1352
NVsh7785lcr
p1385
tp1386
(dp1387
Vrecommends
p1388
Vu-boot-tools
p1389
sVcheck-size
p1390
L4194304L
ss(g188
g1352
g159
tp1391
(dp1392
g191
(lp1393
Vsh7751r
p1394
aVsh7785lcr
p1395
asg195
I01
ss(Vbase
p1396
Vsparc
p1397
tp1398
(dp1399
Vkernel-arch
p1400
Vsparc
p1401
sVfeaturesets
p1402
(lp1403
ss(Vbase
p1404
Vsparc64
p1405
tp1406
(dp1407
Vkernel-arch
p1408
Vsparc
p1409
sg157
(lp1410
g159
ass(Vbuild
p1411
g1405
tp1412
(dp1413
Vimage-file
p1414
Varch/sparc/boot/zImage
p1415
ss(Vimage
p1416
g1405
tp1417
(dp1418
Vconfigs
p1419
(lp1420
sVsuggests
p1421
Vsilo, fdutils
p1422
sVinstall-stem
p1423
Vvmlinuz
p1424
ss(Vdescription
p1425
g1405
NVsparc64
p1426
tp1427
(dp1428
Vhardware
p1429
Vuniprocessor 64-bit UltraSPARC
p1430
ss(Vimage
p1431
g1405
NVsparc64
p1432
tp1433
(dp1434
Vconfigs
p1435
(lp1436
Vkernelarch-sparc/config-up
p1437
ass(Vdescription
p1438
g1405
NVsparc64-smp
p1439
tp1440
(dp1441
Vhardware
p1442
Vmultiprocessor 64-bit UltraSPARC
p1443
ss(Vimage
p1444
g1405
NVsparc64-smp
p1445
tp1446
(dp1447
Vconfigs
p1448
(lp1449
Vkernelarch-sparc/config-smp
p1450
ass(g188
g1405
g159
tp1451
(dp1452
g191
(lp1453
Vsparc64
p1454
aVsparc64-smp
p1455
asg195
I01
ss(Vbase
p1456
Vtilegx
p1457
tp1458
(dp1459
Vkernel-arch
p1460
Vtile
p1461
sVfeaturesets
p1462
(lp1463
ss(Vbase
p1464
Vx32
p1465
tp1466
(dp1467
Vkernel-arch
p1468
Vx86
p1469
sVfeaturesets
p1470
(lp1471
ss(Vabi
p1472
NVrt
p1473
tp1474
(dp1475
Vignore-changes
p1476
(lp1477
V*
p1478
ass(Vdescription
p1479
Ng1473
tp1480
(dp1481
Vpart-long-rt
p1482
VThis kernel includes the PREEMPT_RT realtime patch set.
p1483
sVpart-short-rt
p1484
VPREEMPT_RT
p1485
sVparts
p1486
(lp1487
Vrt
p1488
ass(Vversion
p1489
tp1490
(dp1491
Vsource
p1492
V4.17.8-1
p1493
sVupstream
p1494
V4.17
p1495
sVabiname_base
p1496
V4.17.0
p1497
sVabiname
p1498
V4.17.0-parrot8
p1499
ss.