cdebian_linux.config
ConfigCore
p0
(tRp1
(Vabi
p2
tp3
(dp4
Vabiname
p5
V2parrot1
p6
sVignore-changes
p7
(lp8
V__cpuhp_*
p9
aVbpf_analyzer
p10
aVcxl_*
p11
aVdax_flush
p12
aVieee80211_nullfunc_get
p13
aVinet_add_protocol
p14
aVinet_del_protocol
p15
aViommu_device_*
p16
aVmm_iommu_*
p17
aVmv_mbus_*
p18
aVperf_*
p19
aVregister_cxl_calls
p20
aVregister_key_type
p21
aVunregister_cxl_calls
p22
aV*_hw_breakpoint
p23
aVmodule:drivers/crypto/ccp/*
p24
aVmodule:drivers/hv/*
p25
aVmodule:drivers/gpu/drm/sun4i/*
p26
aVmodule:drivers/iio/**
p27
aVmodule:drivers/misc/cxl/*
p28
aVmodule:drivers/mtd/nand/*
p29
aVmodule:drivers/net/ethernet/**
p30
aVmodule:drivers/net/wireless/**
p31
aVmodule:drivers/nvdimm/*
p32
aVmodule:drivers/power/supply/bq27xxx_battery
p33
aVmodule:drivers/scsi/cxgbi/*
p34
aVmodule:drivers/scsi/libiscs*
p35
aVmodule:drivers/scsi/qla2xxx/qla2xxx
p36
aVmodule:drivers/scsi/ufs/*
p37
aVmodule:drivers/target/**
p38
aVmodule:drivers/usb/chipidea/**
p39
aVmodule:drivers/usb/gadget/**
p40
aVmodule:drivers/usb/host/**
p41
aVmodule:drivers/usb/musb/**
p42
aVmodule:fs/nfs/**
p43
aVmodule:net/ceph/libceph
p44
aVmodule:net/l2tp/**
p45
aVmodule:net/rxrpc/rxrpc
p46
aVmodule:net/sctp/**
p47
aVmodule:sound/core/seq/**
p48
aVmodule:sound/firewire/snd-firewire-lib
p49
aVmodule:sound/pci/hda/*
p50
aVbtree_*
p51
aVvisitor*
p52
aVcan_rx_register
p53
aVip6_xmit
p54
aVmodule:net/dccp/dccp
p55
aVmodule:net/rds/rds
p56
aVdevfreq_*
p57
aVdevm_devfreq_*
p58
aVupdate_devfreq
p59
aVmodule:drivers/infiniband/**
p60
aVacpi_ec_add_query_handler
p61
aVacpi_ec_remove_query_handler
p62
aVfirst_ec
p63
aVdebugfs_create_automount
p64
aVmodule:drivers/iio/imu/inv_mpu6050/*
p65
aVdrm_crtc_accurate_vblank_count
p66
aVacpi_nfit_desc_init
p67
aVacpi_nfit_init
p68
aVloop_register_transfer
p69
aVxen_xlate_*
p70
aVnf_nat_masquerade_ipv4_register_notifier
p71
aVnf_nat_masquerade_ipv6_register_notifier
p72
aVmodule:drivers/scsi/hisi_sas/*
p73
aV__gfn_*
p74
aV__kvmhv_*
p75
aV__kvm_*
p76
aV__xive_vm_h_*
p77
aVgfn_*
p78
aVh_ipi_redirect
p79
aVhalt_poll_ns*
p80
aVkvm_*
p81
aVkvmhv_*
p82
aVkvmppc_*
p83
aVmark_page_dirty
p84
aVvcpu_*
p85
aVmodule:arch/powerpc/kvm/*
p86
aVmodule:arch/s390/kvm/*
p87
aVmodule:arch/x86/kvm/*
p88
ass(Vbase
p89
tp90
(dp91
Varches
p92
(lp93
Valpha
p94
aVamd64
p95
aVarm64
p96
aVarm64ilp32
p97
aVarmel
p98
aVarmhf
p99
aVhppa
p100
aVi386
p101
aVia64
p102
aVm68k
p103
aVmips
p104
aVmips64
p105
aVmips64el
p106
aVmips64r6
p107
aVmips64r6el
p108
aVmipsel
p109
aVmipsn32
p110
aVmipsn32el
p111
aVmipsn32r6
p112
aVmipsn32r6el
p113
aVmipsr6
p114
aVmipsr6el
p115
aVpowerpc
p116
aVppc64
p117
aVppc64el
p118
aVriscv64
p119
aVs390
p120
aVs390x
p121
aVsh3
p122
aVsh4
p123
aVsparc
p124
aVsparc64
p125
aVx32
p126
asVcompiler
p127
Vgcc-9
p128
sVfeaturesets
p129
(lp130
Vnone
p131
aVrt
p132
ass(Vbuild
p133
tp134
(dp135
Vdebug-info
p136
I01
sVsigned-code
p137
I00
ss(Vbase
p138
NVrt
p139
tp140
(dp141
Venabled
p142
I01
ss(Vdescription
p143
tp144
(dp145
Vpart-long-up
p146
VThis kernel is not suitable for SMP (multi-processor,\u000amulti-core or hyper-threaded) systems.
p147
ss(Vimage
p148
tp149
(dp150
Vinitramfs-generators
p151
(lp152
Vinitramfs-tools
p153
aVinitramfs-fallback
p154
asVrecommends
p155
(lp156
Vapparmor
p157
ass(Vrelations
p158
tp159
(dp160
Vgcc-9
p161
Vgcc-9 <!stage1 !cross !pkg.linux.nokernel>, gcc-9-@gnu-type-package@ <!stage1 cross !pkg.linux.nokernel>
p162
sVinitramfs-fallback
p163
Vlinux-initramfs-tool
p164
sVinitramfs-tools
p165
Vinitramfs-tools (>= 0.120+deb8u2)
p166
ss(Vbase
p167
Valpha
p168
tp169
(dp170
Vkernel-arch
p171
Valpha
p172
sVfeaturesets
p173
(lp174
Vnone
p175
ass(Vbuild
p176
g168
tp177
(dp178
Vimage-file
p179
Varch/alpha/boot/vmlinux.gz
p180
ss(Vimage
p181
g168
tp182
(dp183
Vsuggests
p184
(lp185
Vaboot
p186
aVfdutils
p187
asVinstall-stem
p188
Vvmlinuz
p189
ss(Vdescription
p190
g168
NValpha-generic
p191
tp192
(dp193
Vhardware
p194
VAlpha
p195
sVhardware-long
p196
VDEC Alpha systems with extended kernel start address (Wildfire, Titan, Marvel)
p197
ss(Vdescription
p198
g168
NValpha-smp
p199
tp200
(dp201
Vhardware
p202
VAlpha SMP
p203
sVhardware-long
p204
VDEC Alpha SMP systems with extended kernel start address (Wildfire, Titan, Marvel)
p205
ss(Vbase
p206
g168
g175
tp207
(dp208
Vflavours
p209
(lp210
Valpha-generic
p211
aValpha-smp
p212
asVimplicit-flavour
p213
I01
ss(Vbase
p214
Vamd64
p215
tp216
(dp217
Vfeaturesets
p218
(lp219
Vnone
p220
aVrt
p221
asVkernel-arch
p222
Vx86
p223
ss(Vbuild
p224
g215
tp225
(dp226
Vdebug-info
p227
I01
sVimage-file
p228
Varch/x86/boot/bzImage
p229
sVsigned-code
p230
I00
sVvdso
p231
I01
ss(Vimage
p232
g215
tp233
(dp234
Vbootloaders
p235
(lp236
Vgrub-pc
p237
aVgrub-efi-amd64
p238
aVextlinux
p239
asVinstall-stem
p240
Vvmlinuz
p241
sVbreaks
p242
(lp243
Vxserver-xorg-input-vmmouse (<< 1:13.0.99)
p244
ass(Vrelations
p245
g215
tp246
(dp247
Vheaders%gcc-9
p248
Vlinux-compiler-gcc-9-x86
p249
ss(Vdescription
p250
g215
NVamd64
p251
tp252
(dp253
Vhardware
p254
V64-bit PCs
p255
sVhardware-long
p256
VPCs with AMD64, Intel 64 or VIA Nano processors
p257
ss(Vdescription
p258
g215
NVcloud-amd64
p259
tp260
(dp261
Vhardware
p262
Vx86-64 cloud
p263
sVhardware-long
p264
VAmazon EC2, Google Compute Engine and Microsoft Azure cloud platforms
p265
ss(Vbase
p266
g215
Vnone
p267
tp268
(dp269
Vflavours
p270
(lp271
Vamd64
p272
aVcloud-amd64
p273
ass(Vbase
p274
g215
Vrt
p275
tp276
(dp277
Vflavours
p278
(lp279
Vamd64
p280
ass(Vbase
p281
Varm64
p282
tp283
(dp284
Vcross-compile-compat
p285
Varm-linux-gnueabihf-
p286
sVkernel-arch
p287
Varm64
p288
sVfeaturesets
p289
(lp290
Vnone
p291
aVrt
p292
ass(Vbuild
p293
g282
tp294
(dp295
Vdebug-info
p296
I01
sVimage-file
p297
Varch/arm64/boot/Image
p298
sVsigned-code
p299
I00
sVvdso
p300
I01
ss(Vimage
p301
g282
tp302
(dp303
Vinstall-stem
p304
Vvmlinuz
p305
sVbreaks
p306
(lp307
Vlibmozjs185-1.0
p308
aVlibmozjs-24-0 (<< 24.2.0-5.1~)
p309
ass(Vdescription
p310
g282
NVarm64
p311
tp312
(dp313
Vhardware
p314
V64-bit ARMv8 machines
p315
ss(Vimage
p316
g282
NVarm64
p317
tp318
(dp319
s(Vrelations
p320
g282
tp321
(dp322
Vgcc-9
p323
Vgcc-9 <!stage1 !cross !pkg.linux.nokernel>, gcc-9-aarch64-linux-gnu <!stage1 cross !pkg.linux.nokernel>, gcc-arm-linux-gnueabihf <!stage1 !pkg.linux.nokernel>
p324
sVheaders%gcc-9
p325
Vgcc-9
p326
ss(Vbase
p327
g282
Vnone
p328
tp329
(dp330
Vflavours
p331
(lp332
Varm64
p333
ass(Vbase
p334
g282
Vrt
p335
tp336
(dp337
Vflavours
p338
(lp339
Varm64
p340
ass(Vbase
p341
Varm64ilp32
p342
tp343
(dp344
Vkernel-arch
p345
Varm64
p346
sVfeaturesets
p347
(lp348
ss(Vbase
p349
Varmel
p350
tp351
(dp352
Vkernel-arch
p353
Varm
p354
sg173
(lp355
g175
ass(Vbuild
p356
g350
tp357
(dp358
Vimage-file
p359
Varch/arm/boot/zImage
p360
sVuncompressed-image-file
p361
Varch/arm/boot/Image
p362
ss(Vimage
p363
g350
tp364
(dp365
Vinstall-stem
p366
Vvmlinuz
p367
ss(Vrelations
p368
g350
tp369
(dp370
Vheaders%gcc-9
p371
Vlinux-compiler-gcc-9-arm
p372
ss(Vdescription
p373
g350
NVmarvell
p374
tp375
(dp376
Vhardware
p377
VMarvell Kirkwood/Orion
p378
sVhardware-long
p379
VMarvell Kirkwood and Orion based systems (https://wiki.debian.org/ArmEabiPort#Supported_hardware)
p380
ss(Vdescription
p381
g350
NVrpi
p382
tp383
(dp384
Vhardware
p385
VRaspberry Pi and Pi Zero
p386
sVhardware-long
p387
VRaspberry Pi, Raspberry Pi Zero based systems
p388
ss(Vimage
p389
g350
NVmarvell
p390
tp391
(dp392
Vrecommends
p393
(lp394
Vu-boot-tools
p395
asVcheck-size
p396
I2729712
sVcheck-size-with-dtb
p397
I01
sVcheck-uncompressed-size
p398
I7340032
sVbreaks
p399
(lp400
Vflash-kernel (<< 3.57~)
p401
ass(g206
g350
g175
tp402
(dp403
g209
(lp404
Vmarvell
p405
aVrpi
p406
asg213
I01
ss(Vbase
p407
Varmhf
p408
tp409
(dp410
Vfeaturesets
p411
(lp412
Vnone
p413
aVrt
p414
asVkernel-arch
p415
Varm
p416
ss(Vbuild
p417
g408
tp418
(dp419
Vimage-file
p420
Varch/arm/boot/zImage
p421
sVvdso
p422
I01
ss(Vimage
p423
g408
tp424
(dp425
Vinstall-stem
p426
Vvmlinuz
p427
ss(Vrelations
p428
g408
tp429
(dp430
Vheaders%gcc-9
p431
Vlinux-compiler-gcc-9-arm
p432
ss(Vdescription
p433
g408
NVarmmp
p434
tp435
(dp436
Vhardware
p437
VARMv7 multiplatform compatible SoCs
p438
sVhardware-long
p439
VARMv7 multiplatform kernel. See\u000ahttps://wiki.debian.org/DebianKernel/ARMMP for details of supported\u000aplatforms
p440
ss(Vdescription
p441
g408
NVarmmp-lpae
p442
tp443
(dp444
Vhardware
p445
VARMv7 multiplatform compatible SoCs supporting LPAE
p446
sVhardware-long
p447
VARMv7 multiplatform kernel supporting LPAE. See\u000ahttps://wiki.debian.org/DebianKernel/ARMMP for details of supported\u000aplatforms.
p448
ss(Vbase
p449
g408
Vnone
p450
tp451
(dp452
Vflavours
p453
(lp454
Varmmp
p455
aVarmmp-lpae
p456
ass(Vbase
p457
g408
Vrt
p458
tp459
(dp460
Vflavours
p461
(lp462
Varmmp
p463
ass(Vbase
p464
Vhppa
p465
tp466
(dp467
Vkernel-arch
p468
Vparisc
p469
sg173
(lp470
g175
ass(Vbuild
p471
g465
tp472
(dp473
Vimage-file
p474
Varch/parisc/boot/bzImage
p475
sVdebug-info
p476
I00
ss(Vimage
p477
g465
tp478
(dp479
Vsuggests
p480
(lp481
Vpalo
p482
asVinstall-stem
p483
Vvmlinuz
p484
ss(Vdescription
p485
g465
NVparisc
p486
tp487
(dp488
Vhardware
p489
V32-bit PA-RISC
p490
sVhardware-long
p491
VHP PA-RISC 32-bit systems with max 4 GB RAM
p492
ss(Vbase
p493
g465
NVparisc64
p494
tp495
(dp496
Vcflags
p497
V-fno-cse-follow-jumps
p498
sVoverride-host-type
p499
Vhppa64-linux-gnu
p500
ss(Vdescription
p501
g465
NVparisc64
p502
tp503
(dp504
Vhardware
p505
V64-bit PA-RISC
p506
sVhardware-long
p507
VHP PA-RISC 64-bit systems with support for more than 4 GB RAM
p508
ss(Vrelations
p509
g465
tp510
(dp511
Vgcc-9
p512
Vgcc-9 <!stage1 !cross !pkg.linux.nokernel>, gcc-9-hppa-linux-gnu <!stage1 cross !pkg.linux.nokernel>, binutils-hppa64-linux-gnu <!stage1 !pkg.linux.nokernel>, gcc-9-hppa64-linux-gnu <!stage1 !pkg.linux.nokernel>
p513
ss(g206
g465
g175
tp514
(dp515
g209
(lp516
Vparisc
p517
aVparisc64
p518
asg213
I01
ss(Vbase
p519
Vi386
p520
tp521
(dp522
Vfeaturesets
p523
(lp524
Vnone
p525
aVrt
p526
asVkernel-arch
p527
Vx86
p528
ss(Vbuild
p529
g520
tp530
(dp531
Vimage-file
p532
Varch/x86/boot/bzImage
p533
sVsigned-code
p534
I00
sVvdso
p535
I01
ss(Vdescription
p536
g520
tp537
(dp538
Vpart-long-pae
p539
VThis kernel requires PAE (Physical Address Extension).\u000aThis feature is supported by the Intel Pentium Pro/II/III/4/4M/D, Xeon,\u000aCore and Atom; AMD Geode NX, Athlon (K7), Duron, Opteron, Sempron,\u000aTurion or Phenom; Transmeta Efficeon; VIA C7; and some other processors.
p540
ss(Vimage
p541
g520
tp542
(dp543
Vbootloaders
p544
(lp545
Vgrub-pc
p546
aVgrub-efi-ia32
p547
aVextlinux
p548
asVinstall-stem
p549
Vvmlinuz
p550
sVbreaks
p551
(lp552
Vxserver-xorg-input-vmmouse (<< 1:13.0.99)
p553
ass(Vrelations
p554
g520
tp555
(dp556
Vheaders%gcc-9
p557
Vlinux-compiler-gcc-9-x86
p558
ss(Vdescription
p559
g520
NV686
p560
tp561
(dp562
Vhardware
p563
Volder PCs
p564
sVhardware-long
p565
VPCs with one or more processors not supporting PAE
p566
ss(Vbuild
p567
g520
NV686-pae
p568
tp569
(dp570
Vdebug-info
p571
I01
ss(Vdescription
p572
g520
NV686-pae
p573
tp574
(dp575
Vhardware
p576
Vmodern PCs
p577
sVhardware-long
p578
VPCs with one or more processors supporting PAE
p579
sVparts
p580
(lp581
Vpae
p582
ass(Vbase
p583
g520
Vnone
p584
tp585
(dp586
Vflavours
p587
(lp588
V686
p589
aV686-pae
p590
ass(Vbase
p591
g520
Vrt
p592
tp593
(dp594
Vflavours
p595
(lp596
V686-pae
p597
ass(Vbase
p598
Via64
p599
tp600
(dp601
Vkernel-arch
p602
Via64
p603
sg173
(lp604
g175
ass(Vbuild
p605
g599
tp606
(dp607
Vimage-file
p608
Vvmlinux.gz
p609
ss(Vimage
p610
g599
tp611
(dp612
Vbootloaders
p613
(lp614
Vgrub-efi-ia64
p615
asVinstall-stem
p616
Vvmlinuz
p617
ss(Vdescription
p618
g599
NVitanium
p619
tp620
(dp621
Vhardware
p622
VItanium (Merced)
p623
sVhardware-long
p624
Vsystems with original Itanium (Merced) processors
p625
ss(Vdescription
p626
g599
NVmckinley
p627
tp628
(dp629
Vhardware
p630
VItanium 2+
p631
sVhardware-long
p632
Vsystems with Itanium 2 or 9300/9500/9700-series processors
p633
ss(g206
g599
g175
tp634
(dp635
g209
(lp636
Vitanium
p637
aVmckinley
p638
asg213
I01
ss(Vbase
p639
Vm68k
p640
tp641
(dp642
Vcflags
p643
V-ffreestanding
p644
sVkernel-arch
p645
Vm68k
p646
sg173
(lp647
g175
ass(Vbuild
p648
g640
tp649
(dp650
Vimage-file
p651
Vvmlinux
p652
ss(Vimage
p653
g640
tp654
(dp655
Vsuggests
p656
(lp657
Vvmelilo
p658
aVfdutils
p659
asVinstall-stem
p660
Vvmlinux
p661
ss(Vdescription
p662
g640
NVm68k
p663
tp664
(dp665
Vhardware
p666
VMotorola MC68020+ family
p667
ss(g206
g640
g175
tp668
(dp669
g209
(lp670
Vm68k
p671
asg213
I01
ss(Vbase
p672
Vmips
p673
tp674
(dp675
Vkernel-arch
p676
Vmips
p677
sg173
(lp678
g175
ass(Vbuild
p679
g673
tp680
(dp681
Vimage-file
p682
Vvmlinuz
p683
ss(Vimage
p684
g673
tp685
(dp686
Vinstall-stem
p687
Vvmlinuz
p688
ss(Vdescription
p689
g673
NV4kc-malta
p690
tp691
(dp692
Vhardware
p693
VMIPS Malta
p694
sVhardware-long
p695
VMIPS Malta boards
p696
ss(Vimage
p697
g673
NV4kc-malta
p698
tp699
(dp700
Vconfigs
p701
(lp702
Vkernelarch-mips/config.malta
p703
aVkernelarch-mips/config.mips32r2
p704
ass(Vdescription
p705
g673
NV5kc-malta
p706
tp707
(dp708
Vhardware
p709
VMIPS Malta (64-bit)
p710
sVhardware-long
p711
VMIPS Malta boards (64-bit)
p712
ss(Vimage
p713
g673
NV5kc-malta
p714
tp715
(dp716
Vconfigs
p717
(lp718
Vkernelarch-mips/config.malta
p719
aVkernelarch-mips/config.mips64r2
p720
ass(Vdescription
p721
g673
NVocteon
p722
tp723
(dp724
Vhardware
p725
VOcteon
p726
sVhardware-long
p727
VCavium Networks Octeon
p728
ss(Vbuild
p729
g673
NVocteon
p730
tp731
(dp732
Vimage-file
p733
Vvmlinux
p734
ss(Vimage
p735
g673
NVocteon
p736
tp737
(dp738
Vinstall-stem
p739
Vvmlinux
p740
sVconfigs
p741
(lp742
Vkernelarch-mips/config.octeon
p743
ass(g206
g673
g175
tp744
(dp745
g209
(lp746
V4kc-malta
p747
aV5kc-malta
p748
aVocteon
p749
asg213
I01
ss(Vbase
p750
Vmips64
p751
tp752
(dp753
Vkernel-arch
p754
Vmips
p755
sg173
(lp756
g175
ass(Vbuild
p757
g751
tp758
(dp759
Vimage-file
p760
Vvmlinuz
p761
ss(Vimage
p762
g751
tp763
(dp764
Vinstall-stem
p765
Vvmlinuz
p766
ss(Vdescription
p767
g751
NV5kc-malta
p768
tp769
(dp770
Vhardware
p771
VMIPS Malta
p772
sVhardware-long
p773
VMIPS Malta boards
p774
ss(Vimage
p775
g751
NV5kc-malta
p776
tp777
(dp778
Vconfigs
p779
(lp780
Vkernelarch-mips/config.malta
p781
aVkernelarch-mips/config.mips64r2
p782
ass(Vdescription
p783
g751
NVocteon
p784
tp785
(dp786
Vhardware
p787
VOcteon
p788
sVhardware-long
p789
VCavium Networks Octeon
p790
ss(Vbuild
p791
g751
NVocteon
p792
tp793
(dp794
Vimage-file
p795
Vvmlinux
p796
ss(Vimage
p797
g751
NVocteon
p798
tp799
(dp800
Vinstall-stem
p801
Vvmlinux
p802
sVconfigs
p803
(lp804
Vkernelarch-mips/config.octeon
p805
ass(g206
g751
g175
tp806
(dp807
g209
(lp808
V5kc-malta
p809
aVocteon
p810
asg213
I01
ss(Vbase
p811
Vmips64el
p812
tp813
(dp814
Vkernel-arch
p815
Vmips
p816
sg173
(lp817
g175
ass(Vbuild
p818
g812
tp819
(dp820
Vimage-file
p821
Vvmlinuz
p822
ss(Vimage
p823
g812
tp824
(dp825
Vinstall-stem
p826
Vvmlinuz
p827
ss(Vdescription
p828
g812
NV5kc-malta
p829
tp830
(dp831
Vhardware
p832
VMIPS Malta
p833
sVhardware-long
p834
VMIPS Malta boards
p835
ss(Vimage
p836
g812
NV5kc-malta
p837
tp838
(dp839
Vconfigs
p840
(lp841
Vkernelarch-mips/config.malta
p842
aVkernelarch-mips/config.mips64r2
p843
ass(Vdescription
p844
g812
NVloongson-3
p845
tp846
(dp847
Vhardware
p848
VLoongson 3A/3B
p849
sVhardware-long
p850
VLoongson 3A or 3B based systems (e.g. from Loongson or Lemote)
p851
ss(Vimage
p852
g812
NVloongson-3
p853
tp854
(dp855
Vconfigs
p856
(lp857
Vkernelarch-mips/config.loongson-3
p858
ass(Vdescription
p859
g812
NVocteon
p860
tp861
(dp862
Vhardware
p863
VOcteon
p864
sVhardware-long
p865
VCavium Networks Octeon
p866
ss(Vbuild
p867
g812
NVocteon
p868
tp869
(dp870
Vimage-file
p871
Vvmlinux
p872
ss(Vimage
p873
g812
NVocteon
p874
tp875
(dp876
Vinstall-stem
p877
Vvmlinux
p878
sVconfigs
p879
(lp880
Vkernelarch-mips/config.octeon
p881
ass(g206
g812
g175
tp882
(dp883
g209
(lp884
V5kc-malta
p885
aVloongson-3
p886
aVocteon
p887
asg213
I01
ss(Vbase
p888
Vmips64r6
p889
tp890
(dp891
Vkernel-arch
p892
Vmips
p893
sg173
(lp894
g175
ass(Vbuild
p895
g889
tp896
(dp897
Vimage-file
p898
Vvmlinux
p899
ss(Vimage
p900
g889
tp901
(dp902
Vinstall-stem
p903
Vvmlinux
p904
ss(Vdescription
p905
g889
NVmips64r6
p906
tp907
(dp908
Vhardware
p909
VMIPS R6 (64 bit, big endian)
p910
sVhardware-long
p911
VMIPS R6 (64 bit, big endian)
p912
ss(Vimage
p913
g889
NVmips64r6
p914
tp915
(dp916
Vconfigs
p917
(lp918
Vkernelarch-mips/config.boston
p919
aVkernelarch-mips/config.mips64r6
p920
ass(g206
g889
g175
tp921
(dp922
g209
(lp923
Vmips64r6
p924
asg213
I01
ss(Vbase
p925
Vmips64r6el
p926
tp927
(dp928
Vkernel-arch
p929
Vmips
p930
sg173
(lp931
g175
ass(Vbuild
p932
g926
tp933
(dp934
Vimage-file
p935
Vvmlinux
p936
ss(Vimage
p937
g926
tp938
(dp939
Vinstall-stem
p940
Vvmlinux
p941
ss(Vdescription
p942
g926
NVmips64r6el
p943
tp944
(dp945
Vhardware
p946
VMIPS R6 (64 bit, little endian)
p947
sVhardware-long
p948
VMIPS R6 (64 bit, little endian)
p949
ss(Vimage
p950
g926
NVmips64r6el
p951
tp952
(dp953
Vconfigs
p954
(lp955
Vkernelarch-mips/config.boston
p956
aVkernelarch-mips/config.mips64r6
p957
ass(g206
g926
g175
tp958
(dp959
g209
(lp960
Vmips64r6el
p961
asg213
I01
ss(Vbase
p962
Vmipsel
p963
tp964
(dp965
Vkernel-arch
p966
Vmips
p967
sg173
(lp968
g175
ass(Vbuild
p969
g963
tp970
(dp971
Vimage-file
p972
Vvmlinuz
p973
ss(Vimage
p974
g963
tp975
(dp976
Vinstall-stem
p977
Vvmlinuz
p978
ss(Vdescription
p979
g963
NV4kc-malta
p980
tp981
(dp982
Vhardware
p983
VMIPS Malta
p984
sVhardware-long
p985
VMIPS Malta boards
p986
ss(Vimage
p987
g963
NV4kc-malta
p988
tp989
(dp990
Vconfigs
p991
(lp992
Vkernelarch-mips/config.malta
p993
aVkernelarch-mips/config.mips32r2
p994
ass(Vdescription
p995
g963
NV5kc-malta
p996
tp997
(dp998
Vhardware
p999
VMIPS Malta (64-bit)
p1000
sVhardware-long
p1001
VMIPS Malta boards (64-bit)
p1002
ss(Vimage
p1003
g963
NV5kc-malta
p1004
tp1005
(dp1006
Vconfigs
p1007
(lp1008
Vkernelarch-mips/config.malta
p1009
aVkernelarch-mips/config.mips64r2
p1010
ass(Vdescription
p1011
g963
NVloongson-3
p1012
tp1013
(dp1014
Vhardware
p1015
VLoongson 3A/3B
p1016
sVhardware-long
p1017
VLoongson 3A or 3B based systems (e.g. from Loongson or Lemote)
p1018
ss(Vimage
p1019
g963
NVloongson-3
p1020
tp1021
(dp1022
Vconfigs
p1023
(lp1024
Vkernelarch-mips/config.loongson-3
p1025
ass(Vdescription
p1026
g963
NVocteon
p1027
tp1028
(dp1029
Vhardware
p1030
VOcteon
p1031
sVhardware-long
p1032
VCavium Networks Octeon
p1033
ss(Vbuild
p1034
g963
NVocteon
p1035
tp1036
(dp1037
Vimage-file
p1038
Vvmlinux
p1039
ss(Vimage
p1040
g963
NVocteon
p1041
tp1042
(dp1043
Vinstall-stem
p1044
Vvmlinux
p1045
sVconfigs
p1046
(lp1047
Vkernelarch-mips/config.octeon
p1048
ass(g206
g963
g175
tp1049
(dp1050
g209
(lp1051
V4kc-malta
p1052
aV5kc-malta
p1053
aVloongson-3
p1054
aVocteon
p1055
asg213
I01
ss(Vbase
p1056
Vmipsn32
p1057
tp1058
(dp1059
Vkernel-arch
p1060
Vmips
p1061
sVfeaturesets
p1062
(lp1063
ss(Vbase
p1064
Vmipsn32el
p1065
tp1066
(dp1067
Vkernel-arch
p1068
Vmips
p1069
sVfeaturesets
p1070
(lp1071
ss(Vbase
p1072
Vmipsn32r6
p1073
tp1074
(dp1075
Vkernel-arch
p1076
Vmips
p1077
sVfeaturesets
p1078
(lp1079
ss(Vbase
p1080
Vmipsn32r6el
p1081
tp1082
(dp1083
Vkernel-arch
p1084
Vmips
p1085
sVfeaturesets
p1086
(lp1087
ss(Vbase
p1088
Vmipsr6
p1089
tp1090
(dp1091
Vkernel-arch
p1092
Vmips
p1093
sg173
(lp1094
g175
ass(Vbuild
p1095
g1089
tp1096
(dp1097
Vimage-file
p1098
Vvmlinux
p1099
ss(Vimage
p1100
g1089
tp1101
(dp1102
Vinstall-stem
p1103
Vvmlinux
p1104
ss(Vdescription
p1105
g1089
NVmips32r6
p1106
tp1107
(dp1108
Vhardware
p1109
VMIPS R6 (32 bit, big endian)
p1110
sVhardware-long
p1111
VMIPS R6 (32 bit, big endian)
p1112
ss(Vimage
p1113
g1089
NVmips32r6
p1114
tp1115
(dp1116
Vconfigs
p1117
(lp1118
Vkernelarch-mips/config.boston
p1119
aVkernelarch-mips/config.mips32r6
p1120
ass(Vdescription
p1121
g1089
NVmips64r6
p1122
tp1123
(dp1124
Vhardware
p1125
VMIPS R6 (64 bit, big endian)
p1126
sVhardware-long
p1127
VMIPS R6 (64 bit, big endian)
p1128
ss(Vimage
p1129
g1089
NVmips64r6
p1130
tp1131
(dp1132
Vconfigs
p1133
(lp1134
Vkernelarch-mips/config.boston
p1135
aVkernelarch-mips/config.mips64r6
p1136
ass(g206
g1089
g175
tp1137
(dp1138
g209
(lp1139
Vmips32r6
p1140
aVmips64r6
p1141
asg213
I01
ss(Vbase
p1142
Vmipsr6el
p1143
tp1144
(dp1145
Vkernel-arch
p1146
Vmips
p1147
sg173
(lp1148
g175
ass(Vbuild
p1149
g1143
tp1150
(dp1151
Vimage-file
p1152
Vvmlinux
p1153
ss(Vimage
p1154
g1143
tp1155
(dp1156
Vinstall-stem
p1157
Vvmlinux
p1158
ss(Vdescription
p1159
g1143
NVmips32r6el
p1160
tp1161
(dp1162
Vhardware
p1163
VMIPS R6 (32 bit, little endian)
p1164
sVhardware-long
p1165
VMIPS R6 (32 bit, little endian)
p1166
ss(Vimage
p1167
g1143
NVmips32r6el
p1168
tp1169
(dp1170
Vconfigs
p1171
(lp1172
Vkernelarch-mips/config.boston
p1173
aVkernelarch-mips/config.mips32r6
p1174
ass(Vdescription
p1175
g1143
NVmips64r6el
p1176
tp1177
(dp1178
Vhardware
p1179
VMIPS R6 (64 bit, little endian)
p1180
sVhardware-long
p1181
VMIPS R6 (64 bit, little endian)
p1182
ss(Vimage
p1183
g1143
NVmips64r6el
p1184
tp1185
(dp1186
Vconfigs
p1187
(lp1188
Vkernelarch-mips/config.boston
p1189
aVkernelarch-mips/config.mips64r6
p1190
ass(g206
g1143
g175
tp1191
(dp1192
g209
(lp1193
Vmips32r6el
p1194
aVmips64r6el
p1195
asg213
I01
ss(Vbase
p1196
Vpowerpc
p1197
tp1198
(dp1199
Vkernel-arch
p1200
Vpowerpc
p1201
sg173
(lp1202
g175
ass(Vbuild
p1203
g1197
tp1204
(dp1205
Vimage-file
p1206
Vvmlinux
p1207
sVvdso
p1208
I01
ss(Vimage
p1209
g1197
tp1210
(dp1211
Vconfigs
p1212
(lp1213
sVbootloaders
p1214
(lp1215
Vgrub-ieee1275
p1216
asVsuggests
p1217
(lp1218
Vmkvmlinuz
p1219
asVinstall-stem
p1220
Vvmlinux
p1221
ss(Vdescription
p1222
g1197
NVpowerpc
p1223
tp1224
(dp1225
Vhardware
p1226
Vuniprocessor 32-bit PowerPC
p1227
ss(Vdescription
p1228
g1197
NVpowerpc-smp
p1229
tp1230
(dp1231
Vhardware
p1232
Vmultiprocessor 32-bit PowerPC
p1233
ss(Vimage
p1234
g1197
NVpowerpc-smp
p1235
tp1236
(dp1237
Vconfigs
p1238
(lp1239
Vpowerpc/config.powerpc
p1240
aVpowerpc/config.powerpc-smp
p1241
ass(Vdescription
p1242
g1197
NVpowerpc64
p1243
tp1244
(dp1245
Vhardware
p1246
V64-bit PowerPC
p1247
ss(Vimage
p1248
g1197
NVpowerpc64
p1249
tp1250
(dp1251
Vconfigs
p1252
(lp1253
Vkernelarch-powerpc/config-arch-64
p1254
aVkernelarch-powerpc/config-arch-64-be
p1255
ass(g206
g1197
g175
tp1256
(dp1257
g209
(lp1258
Vpowerpc
p1259
aVpowerpc-smp
p1260
aVpowerpc64
p1261
asg213
I01
ss(Vbase
p1262
Vppc64
p1263
tp1264
(dp1265
Vkernel-arch
p1266
Vpowerpc
p1267
sg173
(lp1268
g175
ass(Vbuild
p1269
g1263
tp1270
(dp1271
Vimage-file
p1272
Vvmlinux
p1273
sVvdso
p1274
I01
ss(Vimage
p1275
g1263
tp1276
(dp1277
Vconfigs
p1278
(lp1279
sVbootloaders
p1280
(lp1281
Vgrub-ieee1275
p1282
asVsuggests
p1283
(lp1284
Vmkvmlinuz
p1285
asVinstall-stem
p1286
Vvmlinux
p1287
ss(Vdescription
p1288
g1263
NVpowerpc64
p1289
tp1290
(dp1291
Vhardware
p1292
V64-bit PowerPC
p1293
ss(Vimage
p1294
g1263
NVpowerpc64
p1295
tp1296
(dp1297
Vconfigs
p1298
(lp1299
Vkernelarch-powerpc/config-arch-64
p1300
aVkernelarch-powerpc/config-arch-64-be
p1301
ass(g206
g1263
g175
tp1302
(dp1303
g209
(lp1304
Vpowerpc64
p1305
asg213
I01
ss(Vbase
p1306
Vppc64el
p1307
tp1308
(dp1309
Vkernel-arch
p1310
Vpowerpc
p1311
sg173
(lp1312
g175
ass(Vbuild
p1313
g1307
tp1314
(dp1315
Vimage-file
p1316
Vvmlinux
p1317
sVvdso
p1318
I01
ss(Vimage
p1319
g1307
tp1320
(dp1321
Vconfigs
p1322
(lp1323
sVbootloaders
p1324
(lp1325
Vgrub-ieee1275
p1326
asVsuggests
p1327
(lp1328
Vmkvmlinuz
p1329
asVinstall-stem
p1330
Vvmlinux
p1331
ss(Vdescription
p1332
g1307
NVpowerpc64le
p1333
tp1334
(dp1335
Vhardware
p1336
VLittle-endian 64-bit PowerPC
p1337
ss(Vimage
p1338
g1307
NVpowerpc64le
p1339
tp1340
(dp1341
Vconfigs
p1342
(lp1343
Vkernelarch-powerpc/config-arch-64
p1344
aVkernelarch-powerpc/config-arch-64-le
p1345
ass(g206
g1307
g175
tp1346
(dp1347
g209
(lp1348
Vpowerpc64le
p1349
asg213
I01
ss(Vbase
p1350
Vriscv64
p1351
tp1352
(dp1353
Vkernel-arch
p1354
Vriscv
p1355
sVfeaturesets
p1356
(lp1357
Vnone
p1358
ass(Vbuild
p1359
g1351
tp1360
(dp1361
Vimage-file
p1362
Varch/riscv/boot/Image
p1363
sVvdso
p1364
I01
ss(Vimage
p1365
g1351
tp1366
(dp1367
Vinstall-stem
p1368
Vvmlinux
p1369
ss(Vdescription
p1370
g1351
NVriscv64
p1371
tp1372
(dp1373
Vhardware
p1374
V64-bit RISC-V platforms
p1375
sVhardware-long
p1376
V64-bit RISC-V platforms
p1377
ss(Vbase
p1378
g1351
Vnone
p1379
tp1380
(dp1381
Vflavours
p1382
(lp1383
Vriscv64
p1384
ass(Vbase
p1385
Vs390
p1386
tp1387
(dp1388
Vkernel-arch
p1389
Vs390
p1390
sVfeaturesets
p1391
(lp1392
ss(Vbase
p1393
Vs390x
p1394
tp1395
(dp1396
Vkernel-arch
p1397
Vs390
p1398
sg173
(lp1399
g175
ass(Vbuild
p1400
g1394
tp1401
(dp1402
Vimage-file
p1403
Varch/s390/boot/bzImage
p1404
sVvdso
p1405
I01
ss(Vimage
p1406
g1394
tp1407
(dp1408
Vbootloaders
p1409
(lp1410
Vs390-tools
p1411
asVinstall-stem
p1412
Vvmlinuz
p1413
ss(Vrelations
p1414
g1394
tp1415
(dp1416
Vheaders%gcc-9
p1417
Vlinux-compiler-gcc-9-s390
p1418
ss(Vbuild
p1419
g1394
NVs390x
p1420
tp1421
(dp1422
Vdebug-info
p1423
I01
ss(Vdescription
p1424
g1394
NVs390x
p1425
tp1426
(dp1427
Vhardware
p1428
VIBM zSeries
p1429
ss(g206
g1394
g175
tp1430
(dp1431
g209
(lp1432
Vs390x
p1433
asg213
I01
ss(Vbase
p1434
Vsh3
p1435
tp1436
(dp1437
Vkernel-arch
p1438
Vsh
p1439
sVfeaturesets
p1440
(lp1441
ss(Vbase
p1442
Vsh4
p1443
tp1444
(dp1445
Vkernel-arch
p1446
Vsh
p1447
sg173
(lp1448
g175
ass(Vbuild
p1449
g1443
tp1450
(dp1451
Vimage-file
p1452
Varch/sh/boot/zImage
p1453
ss(Vimage
p1454
g1443
tp1455
(dp1456
Vinstall-stem
p1457
Vvmlinuz
p1458
ss(Vdescription
p1459
g1443
NVsh7751r
p1460
tp1461
(dp1462
Vhardware
p1463
Vsh7751r
p1464
sVhardware-long
p1465
VRenesas SH7751R R2D plus board
p1466
ss(Vdescription
p1467
g1443
NVsh7785lcr
p1468
tp1469
(dp1470
Vhardware
p1471
Vsh7785lcr
p1472
sVhardware-long
p1473
VRenesas SH7785 reference board
p1474
ss(Vimage
p1475
g1443
NVsh7785lcr
p1476
tp1477
(dp1478
Vrecommends
p1479
(lp1480
Vu-boot-tools
p1481
asVcheck-size
p1482
I4194304
ss(g206
g1443
g175
tp1483
(dp1484
g209
(lp1485
Vsh7751r
p1486
aVsh7785lcr
p1487
asg213
I01
ss(Vbase
p1488
Vsparc
p1489
tp1490
(dp1491
Vkernel-arch
p1492
Vsparc
p1493
sVfeaturesets
p1494
(lp1495
ss(Vbase
p1496
Vsparc64
p1497
tp1498
(dp1499
Vkernel-arch
p1500
Vsparc
p1501
sg173
(lp1502
g175
ass(Vbuild
p1503
g1497
tp1504
(dp1505
Vimage-file
p1506
Vvmlinux
p1507
ss(Vimage
p1508
g1497
tp1509
(dp1510
Vconfigs
p1511
(lp1512
sVbootloaders
p1513
(lp1514
Vgrub-ieee1275
p1515
asVsuggests
p1516
(lp1517
Vfdutils
p1518
asVinstall-stem
p1519
Vvmlinux
p1520
ss(Vdescription
p1521
g1497
NVsparc64
p1522
tp1523
(dp1524
Vhardware
p1525
Vuniprocessor 64-bit UltraSPARC
p1526
ss(Vimage
p1527
g1497
NVsparc64
p1528
tp1529
(dp1530
Vconfigs
p1531
(lp1532
Vkernelarch-sparc/config-up
p1533
ass(Vdescription
p1534
g1497
NVsparc64-smp
p1535
tp1536
(dp1537
Vhardware
p1538
Vmultiprocessor 64-bit UltraSPARC
p1539
ss(Vimage
p1540
g1497
NVsparc64-smp
p1541
tp1542
(dp1543
Vconfigs
p1544
(lp1545
Vkernelarch-sparc/config-smp
p1546
ass(g206
g1497
g175
tp1547
(dp1548
g209
(lp1549
Vsparc64
p1550
aVsparc64-smp
p1551
asg213
I01
ss(Vbase
p1552
Vx32
p1553
tp1554
(dp1555
Vkernel-arch
p1556
Vx86
p1557
sVfeaturesets
p1558
(lp1559
ss(Vabi
p1560
NVrt
p1561
tp1562
(dp1563
Vignore-changes
p1564
(lp1565
V*
p1566
ass(Vdescription
p1567
Ng1561
tp1568
(dp1569
Vpart-long-rt
p1570
VThis kernel includes the PREEMPT_RT realtime patch set.
p1571
sVpart-short-rt
p1572
VPREEMPT_RT
p1573
sVparts
p1574
(lp1575
Vrt
p1576
ass(Vversion
p1577
tp1578
(dp1579
Vsource
p1580
V5.4.8-2parrot1
p1581
sVupstream
p1582
V5.4
p1583
sVabiname_base
p1584
V5.4.0
p1585
sVabiname
p1586
V5.4.0-2parrot1
p1587
ss.