cdebian_linux.config
ConfigCore
p0
(tRp1
(Vabi
p2
tp3
(dp4
Vabiname
p5
V5parrot1
p6
sVignore-changes
p7
(lp8
V__cpuhp_*
p9
aV__udp_gso_segment
p10
aVbpf_analyzer
p11
aVbpf_offload_dev_create
p12
aVbpf_verifier_log_write
p13
aVcxl_*
p14
aVdax_flush
p15
aVieee80211_nullfunc_get
p16
aVinet_add_protocol
p17
aVinet_del_protocol
p18
aViommu_device_*
p19
aVmm_iommu_*
p20
aVmv_mbus_*
p21
aVperf_*
p22
aVregister_cxl_calls
p23
aVregister_key_type
p24
aVunregister_cxl_calls
p25
aV*_hw_breakpoint
p26
aVmodule:drivers/crypto/ccp/*
p27
aVmodule:drivers/hv/*
p28
aVmodule:drivers/gpu/drm/sun4i/*
p29
aVmodule:drivers/iio/**
p30
aVmodule:drivers/misc/cxl/*
p31
aVmodule:drivers/misc/lis3lv02d/*
p32
aVmodule:drivers/mtd/nand/*
p33
aVmodule:drivers/net/ethernet/**
p34
aVmodule:drivers/net/wireless/**
p35
aVmodule:drivers/nvdimm/*
p36
aVmodule:drivers/nvme/**
p37
aVmodule:drivers/power/supply/bq27xxx_battery
p38
aVmodule:drivers/scsi/cxgbi/*
p39
aVmodule:drivers/scsi/libiscs*
p40
aVmodule:drivers/scsi/qla2xxx/qla2xxx
p41
aVmodule:drivers/scsi/ufs/*
p42
aVmodule:drivers/target/**
p43
aVmodule:drivers/usb/chipidea/**
p44
aVmodule:drivers/usb/gadget/**
p45
aVmodule:drivers/usb/host/**
p46
aVmodule:drivers/usb/musb/**
p47
aVmodule:fs/nfs/**
p48
aVmodule:net/ceph/libceph
p49
aVmodule:net/l2tp/**
p50
aVmodule:net/openvswitch/**
p51
aVmodule:net/rxrpc/rxrpc
p52
aVmodule:net/sctp/**
p53
aVmodule:sound/core/seq/**
p54
aVmodule:sound/firewire/snd-firewire-lib
p55
aVmodule:sound/pci/hda/*
p56
aVbtree_*
p57
aVvisitor*
p58
aVcan_rx_register
p59
aVip6_xmit
p60
aVmodule:net/dccp/dccp
p61
aVmodule:net/rds/rds
p62
aVdevfreq_*
p63
aVdevm_devfreq_*
p64
aVupdate_devfreq
p65
aVmodule:drivers/infiniband/**
p66
aVacpi_ec_add_query_handler
p67
aVacpi_ec_remove_query_handler
p68
aVfirst_ec
p69
aVdebugfs_create_automount
p70
aVmodule:drivers/iio/imu/inv_mpu6050/*
p71
aVdrm_crtc_accurate_vblank_count
p72
aVacpi_nfit_desc_init
p73
aVacpi_nfit_init
p74
aVloop_register_transfer
p75
aVxen_xlate_*
p76
aVnf_nat_masquerade_ipv4_register_notifier
p77
aVnf_nat_masquerade_ipv6_register_notifier
p78
aVdfltcc_*
p79
aVmodule:drivers/scsi/hisi_sas/*
p80
aV__gfn_*
p81
aV__kvmhv_*
p82
aV__kvm_*
p83
aV__xive_vm_h_*
p84
aVgfn_*
p85
aVh_ipi_redirect
p86
aVhalt_poll_ns*
p87
aVkvm_*
p88
aVkvmhv_*
p89
aVkvmppc_*
p90
aVmark_page_dirty
p91
aVvcpu_*
p92
aVmodule:arch/powerpc/kvm/*
p93
aVmodule:arch/s390/kvm/*
p94
aVmodule:arch/x86/kvm/*
p95
aVuv_info
p96
aVxhci_init_driver
p97
ass(Vbase
p98
tp99
(dp100
Varches
p101
(lp102
Valpha
p103
aVamd64
p104
aVarm64
p105
aVarm64ilp32
p106
aVarmel
p107
aVarmhf
p108
aVhppa
p109
aVi386
p110
aVia64
p111
aVm68k
p112
aVmips
p113
aVmips64
p114
aVmips64el
p115
aVmips64r6
p116
aVmips64r6el
p117
aVmipsel
p118
aVmipsn32
p119
aVmipsn32el
p120
aVmipsn32r6
p121
aVmipsn32r6el
p122
aVmipsr6
p123
aVmipsr6el
p124
aVpowerpc
p125
aVppc64
p126
aVppc64el
p127
aVriscv64
p128
aVs390
p129
aVs390x
p130
aVsh3
p131
aVsh4
p132
aVsparc
p133
aVsparc64
p134
aVx32
p135
asVcompiler
p136
Vgcc-10
p137
sVfeaturesets
p138
(lp139
Vnone
p140
aVrt
p141
ass(Vbuild
p142
tp143
(dp144
Vdebug-info
p145
I01
sVsigned-code
p146
I00
sVtrusted-certs
p147
Vdebian/certs/debian-uefi-certs.pem
p148
ss(Vbase
p149
NVrt
p150
tp151
(dp152
Venabled
p153
I01
ss(Vdescription
p154
tp155
(dp156
Vpart-long-up
p157
VThis kernel is not suitable for SMP (multi-processor,\u000amulti-core or hyper-threaded) systems.
p158
ss(Vimage
p159
tp160
(dp161
Vinitramfs-generators
p162
(lp163
Vinitramfs-tools
p164
aVinitramfs-fallback
p165
asVbreaks
p166
(lp167
Vfwupdate (<< 12-7)
p168
aVwireless-regdb (<< 2019.06.03-1~)
p169
asVrecommends
p170
(lp171
Vapparmor
p172
ass(Vrelations
p173
tp174
(dp175
Vgcc-10
p176
Vgcc-10 <!stage1 !cross !pkg.linux.nokernel>, gcc-10-@gnu-type-package@ <!stage1 cross !pkg.linux.nokernel>
p177
sVinitramfs-fallback
p178
Vlinux-initramfs-tool
p179
sVinitramfs-tools
p180
Vinitramfs-tools (>= 0.120+deb8u2)
p181
ss(Vbase
p182
Valpha
p183
tp184
(dp185
Vdefault-flavour
p186
Valpha-smp
p187
sVkernel-arch
p188
Valpha
p189
sVfeaturesets
p190
(lp191
Vnone
p192
ass(Vbuild
p193
g183
tp194
(dp195
Vimage-file
p196
Varch/alpha/boot/vmlinux.gz
p197
ss(Vimage
p198
g183
tp199
(dp200
Vsuggests
p201
(lp202
Vaboot
p203
aVfdutils
p204
asVinstall-stem
p205
Vvmlinuz
p206
ss(Vdescription
p207
g183
NValpha-generic
p208
tp209
(dp210
Vhardware
p211
VAlpha
p212
sVhardware-long
p213
VDEC Alpha systems with extended kernel start address (Wildfire, Titan, Marvel)
p214
ss(Vdescription
p215
g183
NValpha-smp
p216
tp217
(dp218
Vhardware
p219
VAlpha SMP
p220
sVhardware-long
p221
VDEC Alpha SMP systems with extended kernel start address (Wildfire, Titan, Marvel)
p222
ss(Vbase
p223
g183
g192
tp224
(dp225
Vflavours
p226
(lp227
Valpha-generic
p228
aValpha-smp
p229
asVimplicit-flavour
p230
I01
ss(Vbase
p231
Vamd64
p232
tp233
(dp234
Vfeaturesets
p235
(lp236
Vnone
p237
aVrt
p238
asVkernel-arch
p239
Vx86
p240
ss(Vbuild
p241
g232
tp242
(dp243
Vimage-file
p244
Varch/x86/boot/bzImage
p245
sVsigned-code
p246
I00
sVvdso
p247
I01
ss(Vimage
p248
g232
tp249
(dp250
Vbootloaders
p251
(lp252
Vgrub-pc
p253
aVgrub-efi-amd64
p254
aVextlinux
p255
asVinstall-stem
p256
Vvmlinuz
p257
sVbreaks
p258
(lp259
Vxserver-xorg-input-vmmouse (<< 1:13.0.99)
p260
ass(Vrelations
p261
g232
tp262
(dp263
Vheaders%gcc-10
p264
Vlinux-compiler-gcc-10-x86
p265
ss(Vdescription
p266
g232
NVamd64
p267
tp268
(dp269
Vhardware
p270
V64-bit PCs
p271
sVhardware-long
p272
VPCs with AMD64, Intel 64 or VIA Nano processors
p273
ss(Vdescription
p274
g232
NVcloud-amd64
p275
tp276
(dp277
Vhardware
p278
Vx86-64 cloud
p279
sVhardware-long
p280
Vcloud platforms including Amazon EC2, Microsoft Azure, and Google Compute Engine
p281
ss(Vbase
p282
g232
Vnone
p283
tp284
(dp285
Vflavours
p286
(lp287
Vamd64
p288
aVcloud-amd64
p289
asVdefault-flavour
p290
Vamd64
p291
ss(Vimage
p292
g232
g283
Vcloud-amd64
p293
tp294
(dp295
Vconfigs
p296
(lp297
Vconfig.cloud
p298
aVamd64/config.cloud-amd64
p299
ass(Vbase
p300
g232
Vrt
p301
tp302
(dp303
Vflavours
p304
(lp305
Vamd64
p306
ass(Vbase
p307
Varm64
p308
tp309
(dp310
Vcross-compile-compat
p311
Varm-linux-gnueabihf-
p312
sVkernel-arch
p313
Varm64
p314
sVfeaturesets
p315
(lp316
Vnone
p317
aVrt
p318
ass(Vbuild
p319
g308
tp320
(dp321
Vimage-file
p322
Varch/arm64/boot/Image
p323
sVsigned-code
p324
I00
sVvdso
p325
I01
ss(Vimage
p326
g308
tp327
(dp328
Vinstall-stem
p329
Vvmlinuz
p330
sVbreaks
p331
(lp332
Vlibmozjs185-1.0
p333
aVlibmozjs-24-0 (<< 24.2.0-5.1~)
p334
ass(Vdescription
p335
g308
NVarm64
p336
tp337
(dp338
Vhardware
p339
V64-bit ARMv8 machines
p340
ss(Vdescription
p341
g308
NVcloud-arm64
p342
tp343
(dp344
Vhardware
p345
Varm64 cloud
p346
sVhardware-long
p347
Vcloud platforms supporting arm64 virtual machines
p348
ss(Vimage
p349
g308
NVarm64
p350
tp351
(dp352
s(Vrelations
p353
g308
tp354
(dp355
Vgcc-10
p356
Vgcc-10 <!stage1 !cross !pkg.linux.nokernel>, gcc-10-aarch64-linux-gnu <!stage1 cross !pkg.linux.nokernel>, gcc-arm-linux-gnueabihf <!stage1 !pkg.linux.nokernel>
p357
sVheaders%gcc-10
p358
Vgcc-10
p359
ss(Vbase
p360
g308
Vnone
p361
tp362
(dp363
Vflavours
p364
(lp365
Varm64
p366
aVcloud-arm64
p367
asVdefault-flavour
p368
Varm64
p369
ss(Vimage
p370
g308
g361
Vcloud-arm64
p371
tp372
(dp373
Vconfigs
p374
(lp375
Vconfig.cloud
p376
aVarm64/config.cloud-arm64
p377
ass(Vbase
p378
g308
Vrt
p379
tp380
(dp381
Vflavours
p382
(lp383
Varm64
p384
ass(Vbase
p385
Varm64ilp32
p386
tp387
(dp388
Vkernel-arch
p389
Varm64
p390
sVfeaturesets
p391
(lp392
ss(Vbase
p393
Varmel
p394
tp395
(dp396
Vkernel-arch
p397
Varm
p398
sg190
(lp399
g192
ass(Vbuild
p400
g394
tp401
(dp402
Vimage-file
p403
Varch/arm/boot/zImage
p404
sVuncompressed-image-file
p405
Varch/arm/boot/Image
p406
ss(Vimage
p407
g394
tp408
(dp409
Vinstall-stem
p410
Vvmlinuz
p411
ss(Vrelations
p412
g394
tp413
(dp414
Vheaders%gcc-10
p415
Vlinux-compiler-gcc-10-arm
p416
ss(Vdescription
p417
g394
NVmarvell
p418
tp419
(dp420
Vhardware
p421
VMarvell Kirkwood/Orion
p422
sVhardware-long
p423
VMarvell Kirkwood and Orion based systems (https://wiki.debian.org/ArmEabiPort#Supported_hardware)
p424
ss(Vdescription
p425
g394
NVrpi
p426
tp427
(dp428
Vhardware
p429
VRaspberry Pi Zero, Zero W and 1
p430
sVhardware-long
p431
VRaspberry Pi Zero, Zero W and 1 based systems
p432
ss(Vimage
p433
g394
NVmarvell
p434
tp435
(dp436
Vrecommends
p437
(lp438
Vu-boot-tools
p439
asVcheck-size
p440
I2729712
sVcheck-size-with-dtb
p441
I01
sVbreaks
p442
(lp443
Vflash-kernel (<< 3.57~)
p444
ass(g223
g394
g192
tp445
(dp446
g226
(lp447
Vmarvell
p448
aVrpi
p449
asg230
I01
ss(Vbase
p450
Varmhf
p451
tp452
(dp453
Vfeaturesets
p454
(lp455
Vnone
p456
aVrt
p457
asVkernel-arch
p458
Varm
p459
ss(Vbuild
p460
g451
tp461
(dp462
Vimage-file
p463
Varch/arm/boot/zImage
p464
sVvdso
p465
I01
ss(Vimage
p466
g451
tp467
(dp468
Vinstall-stem
p469
Vvmlinuz
p470
ss(Vrelations
p471
g451
tp472
(dp473
Vheaders%gcc-10
p474
Vlinux-compiler-gcc-10-arm
p475
ss(Vdescription
p476
g451
NVarmmp
p477
tp478
(dp479
Vhardware
p480
VARMv7 multiplatform compatible SoCs
p481
sVhardware-long
p482
VARMv7 multiplatform kernel. See\u000ahttps://wiki.debian.org/DebianKernel/ARMMP for details of supported\u000aplatforms
p483
ss(Vdescription
p484
g451
NVarmmp-lpae
p485
tp486
(dp487
Vhardware
p488
VARMv7 multiplatform compatible SoCs supporting LPAE
p489
sVhardware-long
p490
VARMv7 multiplatform kernel supporting LPAE. See\u000ahttps://wiki.debian.org/DebianKernel/ARMMP for details of supported\u000aplatforms.
p491
ss(Vbase
p492
g451
Vnone
p493
tp494
(dp495
Vflavours
p496
(lp497
Varmmp
p498
aVarmmp-lpae
p499
asVdefault-flavour
p500
Varmmp
p501
ss(Vbase
p502
g451
Vrt
p503
tp504
(dp505
Vflavours
p506
(lp507
Varmmp
p508
ass(Vbase
p509
Vhppa
p510
tp511
(dp512
Vdefault-flavour
p513
Vparisc
p514
sVkernel-arch
p515
Vparisc
p516
sg190
(lp517
g192
ass(Vbuild
p518
g510
tp519
(dp520
Vimage-file
p521
Varch/parisc/boot/bzImage
p522
sVdebug-info
p523
I00
ss(Vimage
p524
g510
tp525
(dp526
Vsuggests
p527
(lp528
Vpalo
p529
asVinstall-stem
p530
Vvmlinuz
p531
ss(Vdescription
p532
g510
NVparisc
p533
tp534
(dp535
Vhardware
p536
V32-bit PA-RISC
p537
sVhardware-long
p538
VHP PA-RISC 32-bit systems with max 4 GB RAM
p539
ss(Vbase
p540
g510
NVparisc64
p541
tp542
(dp543
Vcflags
p544
V-fno-cse-follow-jumps
p545
sVoverride-host-type
p546
Vhppa64-linux-gnu
p547
ss(Vdescription
p548
g510
NVparisc64
p549
tp550
(dp551
Vhardware
p552
V64-bit PA-RISC
p553
sVhardware-long
p554
VHP PA-RISC 64-bit systems with support for more than 4 GB RAM
p555
ss(Vrelations
p556
g510
tp557
(dp558
Vgcc-10
p559
Vgcc-10 <!stage1 !cross !pkg.linux.nokernel>, gcc-10-hppa-linux-gnu <!stage1 cross !pkg.linux.nokernel>, binutils-hppa64-linux-gnu <!stage1 !pkg.linux.nokernel>, gcc-10-hppa64-linux-gnu <!stage1 !pkg.linux.nokernel>
p560
ss(g223
g510
g192
tp561
(dp562
g226
(lp563
Vparisc
p564
aVparisc64
p565
asg230
I01
ss(Vbase
p566
Vi386
p567
tp568
(dp569
Vfeaturesets
p570
(lp571
Vnone
p572
aVrt
p573
asVkernel-arch
p574
Vx86
p575
ss(Vbuild
p576
g567
tp577
(dp578
Vimage-file
p579
Varch/x86/boot/bzImage
p580
sVsigned-code
p581
I00
sVvdso
p582
I01
ss(Vdescription
p583
g567
tp584
(dp585
Vpart-long-pae
p586
VThis kernel requires PAE (Physical Address Extension).\u000aThis feature is supported by the Intel Pentium Pro/II/III/4/4M/D, Xeon,\u000aCore and Atom; AMD Geode NX, Athlon (K7), Duron, Opteron, Sempron,\u000aTurion or Phenom; Transmeta Efficeon; VIA C7; and some other processors.
p587
ss(Vimage
p588
g567
tp589
(dp590
Vbootloaders
p591
(lp592
Vgrub-pc
p593
aVgrub-efi-ia32
p594
aVextlinux
p595
asVinstall-stem
p596
Vvmlinuz
p597
sVbreaks
p598
(lp599
Vxserver-xorg-input-vmmouse (<< 1:13.0.99)
p600
ass(Vrelations
p601
g567
tp602
(dp603
Vheaders%gcc-10
p604
Vlinux-compiler-gcc-10-x86
p605
ss(Vdescription
p606
g567
NV686
p607
tp608
(dp609
Vhardware
p610
Volder PCs
p611
sVhardware-long
p612
VPCs with one or more processors not supporting PAE
p613
ss(Vdescription
p614
g567
NV686-pae
p615
tp616
(dp617
Vhardware
p618
Vmodern PCs
p619
sVhardware-long
p620
VPCs with one or more processors supporting PAE
p621
sVparts
p622
(lp623
Vpae
p624
ass(Vbase
p625
g567
Vnone
p626
tp627
(dp628
Vflavours
p629
(lp630
V686
p631
aV686-pae
p632
asVdefault-flavour
p633
V686-pae
p634
ss(Vbase
p635
g567
Vrt
p636
tp637
(dp638
Vflavours
p639
(lp640
V686-pae
p641
ass(Vbase
p642
Via64
p643
tp644
(dp645
Vdefault-flavour
p646
Vitanium
p647
sVkernel-arch
p648
Via64
p649
sg190
(lp650
g192
ass(Vbuild
p651
g643
tp652
(dp653
Vimage-file
p654
Vvmlinux.gz
p655
ss(Vimage
p656
g643
tp657
(dp658
Vbootloaders
p659
(lp660
Vgrub-efi-ia64
p661
asVinstall-stem
p662
Vvmlinuz
p663
ss(Vdescription
p664
g643
NVitanium
p665
tp666
(dp667
Vhardware
p668
VItanium (Merced)
p669
sVhardware-long
p670
Vsystems with original Itanium (Merced) processors
p671
ss(Vdescription
p672
g643
NVmckinley
p673
tp674
(dp675
Vhardware
p676
VItanium 2+
p677
sVhardware-long
p678
Vsystems with Itanium 2 or 9300/9500/9700-series processors
p679
ss(g223
g643
g192
tp680
(dp681
g226
(lp682
Vitanium
p683
aVmckinley
p684
asg230
I01
ss(Vbase
p685
Vm68k
p686
tp687
(dp688
Vcflags
p689
V-ffreestanding
p690
sVdefault-flavour
p691
Vm68k
p692
sVkernel-arch
p693
Vm68k
p694
sg190
(lp695
g192
ass(Vbuild
p696
g686
tp697
(dp698
Vimage-file
p699
Vvmlinux
p700
ss(Vimage
p701
g686
tp702
(dp703
Vsuggests
p704
(lp705
Vvmelilo
p706
aVfdutils
p707
asVinstall-stem
p708
Vvmlinux
p709
ss(Vdescription
p710
g686
NVm68k
p711
tp712
(dp713
Vhardware
p714
VMotorola MC68020+ family
p715
ss(g223
g686
g192
tp716
(dp717
g226
(lp718
Vm68k
p719
asg230
I01
ss(Vbase
p720
Vmips
p721
tp722
(dp723
Vkernel-arch
p724
Vmips
p725
sg190
(lp726
g192
ass(Vbuild
p727
g721
tp728
(dp729
Vimage-file
p730
Vvmlinuz
p731
ss(Vimage
p732
g721
tp733
(dp734
Vinstall-stem
p735
Vvmlinuz
p736
ss(Vdescription
p737
g721
NV4kc-malta
p738
tp739
(dp740
Vhardware
p741
VMIPS Malta
p742
sVhardware-long
p743
VMIPS Malta boards
p744
ss(Vimage
p745
g721
NV4kc-malta
p746
tp747
(dp748
Vconfigs
p749
(lp750
Vkernelarch-mips/config.malta
p751
aVkernelarch-mips/config.mips32r2
p752
ass(Vdescription
p753
g721
NV5kc-malta
p754
tp755
(dp756
Vhardware
p757
VMIPS Malta (64-bit)
p758
sVhardware-long
p759
VMIPS Malta boards (64-bit)
p760
ss(Vimage
p761
g721
NV5kc-malta
p762
tp763
(dp764
Vconfigs
p765
(lp766
Vkernelarch-mips/config.malta
p767
aVkernelarch-mips/config.mips64r2
p768
ass(Vdescription
p769
g721
NVocteon
p770
tp771
(dp772
Vhardware
p773
VOcteon
p774
sVhardware-long
p775
VCavium Networks Octeon
p776
ss(Vbuild
p777
g721
NVocteon
p778
tp779
(dp780
Vimage-file
p781
Vvmlinux
p782
ss(Vimage
p783
g721
NVocteon
p784
tp785
(dp786
Vinstall-stem
p787
Vvmlinux
p788
sVconfigs
p789
(lp790
Vkernelarch-mips/config.octeon
p791
ass(g223
g721
g192
tp792
(dp793
g226
(lp794
V4kc-malta
p795
aV5kc-malta
p796
aVocteon
p797
asg230
I01
ss(Vbase
p798
Vmips64
p799
tp800
(dp801
Vkernel-arch
p802
Vmips
p803
sg190
(lp804
g192
ass(Vbuild
p805
g799
tp806
(dp807
Vimage-file
p808
Vvmlinuz
p809
ss(Vimage
p810
g799
tp811
(dp812
Vinstall-stem
p813
Vvmlinuz
p814
ss(Vdescription
p815
g799
NV5kc-malta
p816
tp817
(dp818
Vhardware
p819
VMIPS Malta
p820
sVhardware-long
p821
VMIPS Malta boards
p822
ss(Vimage
p823
g799
NV5kc-malta
p824
tp825
(dp826
Vconfigs
p827
(lp828
Vkernelarch-mips/config.malta
p829
aVkernelarch-mips/config.mips64r2
p830
ass(Vdescription
p831
g799
NVocteon
p832
tp833
(dp834
Vhardware
p835
VOcteon
p836
sVhardware-long
p837
VCavium Networks Octeon
p838
ss(Vbuild
p839
g799
NVocteon
p840
tp841
(dp842
Vimage-file
p843
Vvmlinux
p844
ss(Vimage
p845
g799
NVocteon
p846
tp847
(dp848
Vinstall-stem
p849
Vvmlinux
p850
sVconfigs
p851
(lp852
Vkernelarch-mips/config.octeon
p853
ass(g223
g799
g192
tp854
(dp855
g226
(lp856
V5kc-malta
p857
aVocteon
p858
asg230
I01
ss(Vbase
p859
Vmips64el
p860
tp861
(dp862
Vkernel-arch
p863
Vmips
p864
sg190
(lp865
g192
ass(Vbuild
p866
g860
tp867
(dp868
Vimage-file
p869
Vvmlinuz
p870
ss(Vimage
p871
g860
tp872
(dp873
Vinstall-stem
p874
Vvmlinuz
p875
ss(Vdescription
p876
g860
NV5kc-malta
p877
tp878
(dp879
Vhardware
p880
VMIPS Malta
p881
sVhardware-long
p882
VMIPS Malta boards
p883
ss(Vimage
p884
g860
NV5kc-malta
p885
tp886
(dp887
Vconfigs
p888
(lp889
Vkernelarch-mips/config.malta
p890
aVkernelarch-mips/config.mips64r2
p891
ass(Vdescription
p892
g860
NVloongson-3
p893
tp894
(dp895
Vhardware
p896
VLoongson 3A/3B
p897
sVhardware-long
p898
VLoongson 3A or 3B based systems (e.g. from Loongson or Lemote)
p899
ss(Vimage
p900
g860
NVloongson-3
p901
tp902
(dp903
Vrecommends
p904
(lp905
Vpmon-update
p906
asVconfigs
p907
(lp908
Vkernelarch-mips/config.loongson-3
p909
ass(Vdescription
p910
g860
NVocteon
p911
tp912
(dp913
Vhardware
p914
VOcteon
p915
sVhardware-long
p916
VCavium Networks Octeon
p917
ss(Vbuild
p918
g860
NVocteon
p919
tp920
(dp921
Vimage-file
p922
Vvmlinux
p923
ss(Vimage
p924
g860
NVocteon
p925
tp926
(dp927
Vinstall-stem
p928
Vvmlinux
p929
sVconfigs
p930
(lp931
Vkernelarch-mips/config.octeon
p932
ass(g223
g860
g192
tp933
(dp934
g226
(lp935
V5kc-malta
p936
aVloongson-3
p937
aVocteon
p938
asg230
I01
ss(Vbase
p939
Vmips64r6
p940
tp941
(dp942
Vdefault-flavour
p943
Vmips64r6
p944
sVkernel-arch
p945
Vmips
p946
sg190
(lp947
g192
ass(Vbuild
p948
g940
tp949
(dp950
Vimage-file
p951
Vvmlinux
p952
ss(Vimage
p953
g940
tp954
(dp955
Vinstall-stem
p956
Vvmlinux
p957
ss(Vdescription
p958
g940
NVmips64r6
p959
tp960
(dp961
Vhardware
p962
VMIPS R6 (64 bit, big endian)
p963
sVhardware-long
p964
VMIPS R6 (64 bit, big endian)
p965
ss(Vimage
p966
g940
NVmips64r6
p967
tp968
(dp969
Vconfigs
p970
(lp971
Vkernelarch-mips/config.boston
p972
aVkernelarch-mips/config.mips64r6
p973
ass(g223
g940
g192
tp974
(dp975
g226
(lp976
Vmips64r6
p977
asg230
I01
ss(Vbase
p978
Vmips64r6el
p979
tp980
(dp981
Vdefault-flavour
p982
Vmips64r6el
p983
sVkernel-arch
p984
Vmips
p985
sg190
(lp986
g192
ass(Vbuild
p987
g979
tp988
(dp989
Vimage-file
p990
Vvmlinux
p991
ss(Vimage
p992
g979
tp993
(dp994
Vinstall-stem
p995
Vvmlinux
p996
ss(Vdescription
p997
g979
NVmips64r6el
p998
tp999
(dp1000
Vhardware
p1001
VMIPS R6 (64 bit, little endian)
p1002
sVhardware-long
p1003
VMIPS R6 (64 bit, little endian)
p1004
ss(Vimage
p1005
g979
NVmips64r6el
p1006
tp1007
(dp1008
Vconfigs
p1009
(lp1010
Vkernelarch-mips/config.boston
p1011
aVkernelarch-mips/config.mips64r6
p1012
ass(g223
g979
g192
tp1013
(dp1014
g226
(lp1015
Vmips64r6el
p1016
asg230
I01
ss(Vbase
p1017
Vmipsel
p1018
tp1019
(dp1020
Vkernel-arch
p1021
Vmips
p1022
sg190
(lp1023
g192
ass(Vbuild
p1024
g1018
tp1025
(dp1026
Vimage-file
p1027
Vvmlinuz
p1028
ss(Vimage
p1029
g1018
tp1030
(dp1031
Vinstall-stem
p1032
Vvmlinuz
p1033
ss(Vdescription
p1034
g1018
NV4kc-malta
p1035
tp1036
(dp1037
Vhardware
p1038
VMIPS Malta
p1039
sVhardware-long
p1040
VMIPS Malta boards
p1041
ss(Vimage
p1042
g1018
NV4kc-malta
p1043
tp1044
(dp1045
Vconfigs
p1046
(lp1047
Vkernelarch-mips/config.malta
p1048
aVkernelarch-mips/config.mips32r2
p1049
ass(Vdescription
p1050
g1018
NV5kc-malta
p1051
tp1052
(dp1053
Vhardware
p1054
VMIPS Malta (64-bit)
p1055
sVhardware-long
p1056
VMIPS Malta boards (64-bit)
p1057
ss(Vimage
p1058
g1018
NV5kc-malta
p1059
tp1060
(dp1061
Vconfigs
p1062
(lp1063
Vkernelarch-mips/config.malta
p1064
aVkernelarch-mips/config.mips64r2
p1065
ass(Vdescription
p1066
g1018
NVloongson-3
p1067
tp1068
(dp1069
Vhardware
p1070
VLoongson 3A/3B
p1071
sVhardware-long
p1072
VLoongson 3A or 3B based systems (e.g. from Loongson or Lemote)
p1073
ss(Vimage
p1074
g1018
NVloongson-3
p1075
tp1076
(dp1077
Vrecommends
p1078
(lp1079
Vpmon-update
p1080
asVconfigs
p1081
(lp1082
Vkernelarch-mips/config.loongson-3
p1083
ass(Vdescription
p1084
g1018
NVocteon
p1085
tp1086
(dp1087
Vhardware
p1088
VOcteon
p1089
sVhardware-long
p1090
VCavium Networks Octeon
p1091
ss(Vbuild
p1092
g1018
NVocteon
p1093
tp1094
(dp1095
Vimage-file
p1096
Vvmlinux
p1097
ss(Vimage
p1098
g1018
NVocteon
p1099
tp1100
(dp1101
Vinstall-stem
p1102
Vvmlinux
p1103
sVconfigs
p1104
(lp1105
Vkernelarch-mips/config.octeon
p1106
ass(g223
g1018
g192
tp1107
(dp1108
g226
(lp1109
V4kc-malta
p1110
aV5kc-malta
p1111
aVloongson-3
p1112
aVocteon
p1113
asg230
I01
ss(Vbase
p1114
Vmipsn32
p1115
tp1116
(dp1117
Vkernel-arch
p1118
Vmips
p1119
sVfeaturesets
p1120
(lp1121
ss(Vbase
p1122
Vmipsn32el
p1123
tp1124
(dp1125
Vkernel-arch
p1126
Vmips
p1127
sVfeaturesets
p1128
(lp1129
ss(Vbase
p1130
Vmipsn32r6
p1131
tp1132
(dp1133
Vkernel-arch
p1134
Vmips
p1135
sVfeaturesets
p1136
(lp1137
ss(Vbase
p1138
Vmipsn32r6el
p1139
tp1140
(dp1141
Vkernel-arch
p1142
Vmips
p1143
sVfeaturesets
p1144
(lp1145
ss(Vbase
p1146
Vmipsr6
p1147
tp1148
(dp1149
Vdefault-flavour
p1150
Vmips32r6
p1151
sVkernel-arch
p1152
Vmips
p1153
sg190
(lp1154
g192
ass(Vbuild
p1155
g1147
tp1156
(dp1157
Vimage-file
p1158
Vvmlinux
p1159
ss(Vimage
p1160
g1147
tp1161
(dp1162
Vinstall-stem
p1163
Vvmlinux
p1164
ss(Vdescription
p1165
g1147
NVmips32r6
p1166
tp1167
(dp1168
Vhardware
p1169
VMIPS R6 (32 bit, big endian)
p1170
sVhardware-long
p1171
VMIPS R6 (32 bit, big endian)
p1172
ss(Vimage
p1173
g1147
NVmips32r6
p1174
tp1175
(dp1176
Vconfigs
p1177
(lp1178
Vkernelarch-mips/config.boston
p1179
aVkernelarch-mips/config.mips32r6
p1180
ass(Vdescription
p1181
g1147
NVmips64r6
p1182
tp1183
(dp1184
Vhardware
p1185
VMIPS R6 (64 bit, big endian)
p1186
sVhardware-long
p1187
VMIPS R6 (64 bit, big endian)
p1188
ss(Vimage
p1189
g1147
NVmips64r6
p1190
tp1191
(dp1192
Vconfigs
p1193
(lp1194
Vkernelarch-mips/config.boston
p1195
aVkernelarch-mips/config.mips64r6
p1196
ass(g223
g1147
g192
tp1197
(dp1198
g226
(lp1199
Vmips32r6
p1200
aVmips64r6
p1201
asg230
I01
ss(Vbase
p1202
Vmipsr6el
p1203
tp1204
(dp1205
Vdefault-flavour
p1206
Vmips32r6el
p1207
sVkernel-arch
p1208
Vmips
p1209
sg190
(lp1210
g192
ass(Vbuild
p1211
g1203
tp1212
(dp1213
Vimage-file
p1214
Vvmlinux
p1215
ss(Vimage
p1216
g1203
tp1217
(dp1218
Vinstall-stem
p1219
Vvmlinux
p1220
ss(Vdescription
p1221
g1203
NVmips32r6el
p1222
tp1223
(dp1224
Vhardware
p1225
VMIPS R6 (32 bit, little endian)
p1226
sVhardware-long
p1227
VMIPS R6 (32 bit, little endian)
p1228
ss(Vimage
p1229
g1203
NVmips32r6el
p1230
tp1231
(dp1232
Vconfigs
p1233
(lp1234
Vkernelarch-mips/config.boston
p1235
aVkernelarch-mips/config.mips32r6
p1236
ass(Vdescription
p1237
g1203
NVmips64r6el
p1238
tp1239
(dp1240
Vhardware
p1241
VMIPS R6 (64 bit, little endian)
p1242
sVhardware-long
p1243
VMIPS R6 (64 bit, little endian)
p1244
ss(Vimage
p1245
g1203
NVmips64r6el
p1246
tp1247
(dp1248
Vconfigs
p1249
(lp1250
Vkernelarch-mips/config.boston
p1251
aVkernelarch-mips/config.mips64r6
p1252
ass(g223
g1203
g192
tp1253
(dp1254
g226
(lp1255
Vmips32r6el
p1256
aVmips64r6el
p1257
asg230
I01
ss(Vbase
p1258
Vpowerpc
p1259
tp1260
(dp1261
Vkernel-arch
p1262
Vpowerpc
p1263
sg190
(lp1264
g192
ass(Vbuild
p1265
g1259
tp1266
(dp1267
Vimage-file
p1268
Vvmlinux
p1269
ss(Vimage
p1270
g1259
tp1271
(dp1272
Vconfigs
p1273
(lp1274
sVbootloaders
p1275
(lp1276
Vgrub-ieee1275
p1277
asVsuggests
p1278
(lp1279
Vmkvmlinuz
p1280
asVinstall-stem
p1281
Vvmlinux
p1282
ss(Vdescription
p1283
g1259
NVpowerpc
p1284
tp1285
(dp1286
Vhardware
p1287
Vuniprocessor 32-bit PowerPC
p1288
ss(Vdescription
p1289
g1259
NVpowerpc-smp
p1290
tp1291
(dp1292
Vhardware
p1293
Vmultiprocessor 32-bit PowerPC
p1294
ss(Vimage
p1295
g1259
NVpowerpc-smp
p1296
tp1297
(dp1298
Vconfigs
p1299
(lp1300
Vpowerpc/config.powerpc
p1301
aVpowerpc/config.powerpc-smp
p1302
ass(Vdescription
p1303
g1259
NVpowerpc64
p1304
tp1305
(dp1306
Vhardware
p1307
V64-bit PowerPC
p1308
ss(Vimage
p1309
g1259
NVpowerpc64
p1310
tp1311
(dp1312
Vconfigs
p1313
(lp1314
Vkernelarch-powerpc/config-arch-64
p1315
aVkernelarch-powerpc/config-arch-64-be
p1316
ass(g223
g1259
g192
tp1317
(dp1318
g226
(lp1319
Vpowerpc
p1320
aVpowerpc-smp
p1321
aVpowerpc64
p1322
asg230
I01
ss(Vbase
p1323
Vppc64
p1324
tp1325
(dp1326
Vdefault-flavour
p1327
Vpowerpc64
p1328
sVkernel-arch
p1329
Vpowerpc
p1330
sg190
(lp1331
g192
ass(Vbuild
p1332
g1324
tp1333
(dp1334
Vimage-file
p1335
Vvmlinux
p1336
ss(Vimage
p1337
g1324
tp1338
(dp1339
Vconfigs
p1340
(lp1341
sVbootloaders
p1342
(lp1343
Vgrub-ieee1275
p1344
asVsuggests
p1345
(lp1346
Vmkvmlinuz
p1347
asVinstall-stem
p1348
Vvmlinux
p1349
ss(Vdescription
p1350
g1324
NVpowerpc64
p1351
tp1352
(dp1353
Vhardware
p1354
V64-bit PowerPC
p1355
ss(Vimage
p1356
g1324
NVpowerpc64
p1357
tp1358
(dp1359
Vconfigs
p1360
(lp1361
Vkernelarch-powerpc/config-arch-64
p1362
aVkernelarch-powerpc/config-arch-64-be
p1363
ass(g223
g1324
g192
tp1364
(dp1365
g226
(lp1366
Vpowerpc64
p1367
asg230
I01
ss(Vbase
p1368
Vppc64el
p1369
tp1370
(dp1371
Vdefault-flavour
p1372
Vpowerpc64le
p1373
sVkernel-arch
p1374
Vpowerpc
p1375
sg190
(lp1376
g192
ass(Vbuild
p1377
g1369
tp1378
(dp1379
Vimage-file
p1380
Vvmlinux
p1381
ss(Vimage
p1382
g1369
tp1383
(dp1384
Vconfigs
p1385
(lp1386
sVbootloaders
p1387
(lp1388
Vgrub-ieee1275
p1389
asVsuggests
p1390
(lp1391
Vmkvmlinuz
p1392
asVinstall-stem
p1393
Vvmlinux
p1394
ss(Vdescription
p1395
g1369
NVpowerpc64le
p1396
tp1397
(dp1398
Vhardware
p1399
VLittle-endian 64-bit PowerPC
p1400
ss(Vimage
p1401
g1369
NVpowerpc64le
p1402
tp1403
(dp1404
Vconfigs
p1405
(lp1406
Vkernelarch-powerpc/config-arch-64
p1407
aVkernelarch-powerpc/config-arch-64-le
p1408
ass(g223
g1369
g192
tp1409
(dp1410
g226
(lp1411
Vpowerpc64le
p1412
asg230
I01
ss(Vbase
p1413
Vriscv64
p1414
tp1415
(dp1416
Vkernel-arch
p1417
Vriscv
p1418
sVfeaturesets
p1419
(lp1420
Vnone
p1421
ass(Vbuild
p1422
g1414
tp1423
(dp1424
Vimage-file
p1425
Varch/riscv/boot/Image
p1426
sVvdso
p1427
I01
ss(Vimage
p1428
g1414
tp1429
(dp1430
Vinstall-stem
p1431
Vvmlinux
p1432
ss(Vdescription
p1433
g1414
NVriscv64
p1434
tp1435
(dp1436
Vhardware
p1437
V64-bit RISC-V platforms
p1438
sVhardware-long
p1439
V64-bit RISC-V platforms
p1440
ss(Vbase
p1441
g1414
Vnone
p1442
tp1443
(dp1444
Vflavours
p1445
(lp1446
Vriscv64
p1447
asVdefault-flavour
p1448
Vriscv64
p1449
ss(Vbase
p1450
Vs390
p1451
tp1452
(dp1453
Vkernel-arch
p1454
Vs390
p1455
sVfeaturesets
p1456
(lp1457
ss(Vbase
p1458
Vs390x
p1459
tp1460
(dp1461
Vdefault-flavour
p1462
Vs390x
p1463
sVkernel-arch
p1464
Vs390
p1465
sg190
(lp1466
g192
ass(Vbuild
p1467
g1459
tp1468
(dp1469
Vimage-file
p1470
Varch/s390/boot/bzImage
p1471
sVvdso
p1472
I01
ss(Vimage
p1473
g1459
tp1474
(dp1475
Vbootloaders
p1476
(lp1477
Vs390-tools
p1478
asVinstall-stem
p1479
Vvmlinuz
p1480
ss(Vrelations
p1481
g1459
tp1482
(dp1483
Vheaders%gcc-10
p1484
Vlinux-compiler-gcc-10-s390
p1485
ss(Vdescription
p1486
g1459
NVs390x
p1487
tp1488
(dp1489
Vhardware
p1490
VIBM zSeries
p1491
ss(g223
g1459
g192
tp1492
(dp1493
g226
(lp1494
Vs390x
p1495
asg230
I01
ss(Vbase
p1496
Vsh3
p1497
tp1498
(dp1499
Vkernel-arch
p1500
Vsh
p1501
sVfeaturesets
p1502
(lp1503
ss(Vbase
p1504
Vsh4
p1505
tp1506
(dp1507
Vkernel-arch
p1508
Vsh
p1509
sg190
(lp1510
g192
ass(Vbuild
p1511
g1505
tp1512
(dp1513
Vimage-file
p1514
Varch/sh/boot/zImage
p1515
ss(Vimage
p1516
g1505
tp1517
(dp1518
Vinstall-stem
p1519
Vvmlinuz
p1520
ss(Vdescription
p1521
g1505
NVsh7751r
p1522
tp1523
(dp1524
Vhardware
p1525
Vsh7751r
p1526
sVhardware-long
p1527
VRenesas SH7751R R2D plus board
p1528
ss(Vdescription
p1529
g1505
NVsh7785lcr
p1530
tp1531
(dp1532
Vhardware
p1533
Vsh7785lcr
p1534
sVhardware-long
p1535
VRenesas SH7785 reference board
p1536
ss(Vimage
p1537
g1505
NVsh7785lcr
p1538
tp1539
(dp1540
Vrecommends
p1541
(lp1542
Vu-boot-tools
p1543
asVcheck-size
p1544
I4194304
ss(g223
g1505
g192
tp1545
(dp1546
g226
(lp1547
Vsh7751r
p1548
aVsh7785lcr
p1549
asg230
I01
ss(Vbase
p1550
Vsparc
p1551
tp1552
(dp1553
Vkernel-arch
p1554
Vsparc
p1555
sVfeaturesets
p1556
(lp1557
ss(Vbase
p1558
Vsparc64
p1559
tp1560
(dp1561
Vdefault-flavour
p1562
Vsparc64-smp
p1563
sVkernel-arch
p1564
Vsparc
p1565
sg190
(lp1566
g192
ass(Vbuild
p1567
g1559
tp1568
(dp1569
Vimage-file
p1570
Vvmlinux
p1571
ss(Vimage
p1572
g1559
tp1573
(dp1574
Vconfigs
p1575
(lp1576
sVbootloaders
p1577
(lp1578
Vgrub-ieee1275
p1579
asVsuggests
p1580
(lp1581
Vfdutils
p1582
asVinstall-stem
p1583
Vvmlinux
p1584
ss(Vdescription
p1585
g1559
NVsparc64
p1586
tp1587
(dp1588
Vhardware
p1589
Vuniprocessor 64-bit UltraSPARC
p1590
ss(Vimage
p1591
g1559
NVsparc64
p1592
tp1593
(dp1594
Vconfigs
p1595
(lp1596
Vkernelarch-sparc/config-up
p1597
ass(Vdescription
p1598
g1559
NVsparc64-smp
p1599
tp1600
(dp1601
Vhardware
p1602
Vmultiprocessor 64-bit UltraSPARC
p1603
ss(Vimage
p1604
g1559
NVsparc64-smp
p1605
tp1606
(dp1607
Vconfigs
p1608
(lp1609
Vkernelarch-sparc/config-smp
p1610
ass(g223
g1559
g192
tp1611
(dp1612
g226
(lp1613
Vsparc64
p1614
aVsparc64-smp
p1615
asg230
I01
ss(Vbase
p1616
Vx32
p1617
tp1618
(dp1619
Vkernel-arch
p1620
Vx86
p1621
sVfeaturesets
p1622
(lp1623
ss(Vabi
p1624
NVrt
p1625
tp1626
(dp1627
Vignore-changes
p1628
(lp1629
V*
p1630
ass(Vdescription
p1631
Ng1625
tp1632
(dp1633
Vpart-long-rt
p1634
VThis kernel includes the PREEMPT_RT realtime patch set.
p1635
sVpart-short-rt
p1636
VPREEMPT_RT
p1637
sVparts
p1638
(lp1639
Vrt
p1640
ass(Vversion
p1641
tp1642
(dp1643
Vsource
p1644
V5.15.5-2parrot1
p1645
sVupstream
p1646
V5.15
p1647
sVabiname_base
p1648
V5.15.0
p1649
sVabiname
p1650
V5.15.0-5parrot1
p1651
ss.