cdebian_linux.config
ConfigCore
p0
(tRp1
(Vabi
p2
tp3
(dp4
Vabiname
p5
V1parrot1
p6
sVignore-changes
p7
(lp8
V__cpuhp_*
p9
aVbpf_analyzer
p10
aVcxl_*
p11
aVdax_flush
p12
aVieee80211_nullfunc_get
p13
aVinet_add_protocol
p14
aVinet_del_protocol
p15
aViommu_device_*
p16
aVmm_iommu_*
p17
aVmv_mbus_*
p18
aVperf_*
p19
aVregister_cxl_calls
p20
aVregister_key_type
p21
aVunregister_cxl_calls
p22
aV*_hw_breakpoint
p23
aVmodule:drivers/crypto/ccp/*
p24
aVmodule:drivers/hv/*
p25
aVmodule:drivers/gpu/drm/sun4i/*
p26
aVmodule:drivers/iio/**
p27
aVmodule:drivers/misc/cxl/*
p28
aVmodule:drivers/mtd/nand/*
p29
aVmodule:drivers/net/ethernet/**
p30
aVmodule:drivers/net/wireless/**
p31
aVmodule:drivers/nvdimm/*
p32
aVmodule:drivers/nvme/**
p33
aVmodule:drivers/power/supply/bq27xxx_battery
p34
aVmodule:drivers/scsi/cxgbi/*
p35
aVmodule:drivers/scsi/libiscs*
p36
aVmodule:drivers/scsi/qla2xxx/qla2xxx
p37
aVmodule:drivers/scsi/ufs/*
p38
aVmodule:drivers/target/**
p39
aVmodule:drivers/usb/chipidea/**
p40
aVmodule:drivers/usb/gadget/**
p41
aVmodule:drivers/usb/host/**
p42
aVmodule:drivers/usb/musb/**
p43
aVmodule:fs/nfs/**
p44
aVmodule:net/ceph/libceph
p45
aVmodule:net/l2tp/**
p46
aVmodule:net/rxrpc/rxrpc
p47
aVmodule:net/sctp/**
p48
aVmodule:sound/core/seq/**
p49
aVmodule:sound/firewire/snd-firewire-lib
p50
aVmodule:sound/pci/hda/*
p51
aVbtree_*
p52
aVvisitor*
p53
aVcan_rx_register
p54
aVip6_xmit
p55
aVmodule:net/dccp/dccp
p56
aVmodule:net/rds/rds
p57
aVdevfreq_*
p58
aVdevm_devfreq_*
p59
aVupdate_devfreq
p60
aVmodule:drivers/infiniband/**
p61
aVacpi_ec_add_query_handler
p62
aVacpi_ec_remove_query_handler
p63
aVfirst_ec
p64
aVdebugfs_create_automount
p65
aVmodule:drivers/iio/imu/inv_mpu6050/*
p66
aVdrm_crtc_accurate_vblank_count
p67
aVacpi_nfit_desc_init
p68
aVacpi_nfit_init
p69
aVloop_register_transfer
p70
aVxen_xlate_*
p71
aVnf_nat_masquerade_ipv4_register_notifier
p72
aVnf_nat_masquerade_ipv6_register_notifier
p73
aVmodule:drivers/scsi/hisi_sas/*
p74
aV__gfn_*
p75
aV__kvmhv_*
p76
aV__kvm_*
p77
aV__xive_vm_h_*
p78
aVgfn_*
p79
aVh_ipi_redirect
p80
aVhalt_poll_ns*
p81
aVkvm_*
p82
aVkvmhv_*
p83
aVkvmppc_*
p84
aVmark_page_dirty
p85
aVvcpu_*
p86
aVmodule:arch/powerpc/kvm/*
p87
aVmodule:arch/s390/kvm/*
p88
aVmodule:arch/x86/kvm/*
p89
ass(Vbase
p90
tp91
(dp92
Varches
p93
(lp94
Valpha
p95
aVamd64
p96
aVarm64
p97
aVarm64ilp32
p98
aVarmel
p99
aVarmhf
p100
aVhppa
p101
aVi386
p102
aVia64
p103
aVm68k
p104
aVmips
p105
aVmips64
p106
aVmips64el
p107
aVmips64r6
p108
aVmips64r6el
p109
aVmipsel
p110
aVmipsn32
p111
aVmipsn32el
p112
aVmipsn32r6
p113
aVmipsn32r6el
p114
aVmipsr6
p115
aVmipsr6el
p116
aVpowerpc
p117
aVppc64
p118
aVppc64el
p119
aVriscv64
p120
aVs390
p121
aVs390x
p122
aVsh3
p123
aVsh4
p124
aVsparc
p125
aVsparc64
p126
aVx32
p127
asVcompiler
p128
Vgcc-9
p129
sVfeaturesets
p130
(lp131
Vnone
p132
aVrt
p133
ass(Vbuild
p134
tp135
(dp136
Vdebug-info
p137
I01
sVsigned-code
p138
I00
ss(Vbase
p139
NVrt
p140
tp141
(dp142
Venabled
p143
I00
ss(Vdescription
p144
tp145
(dp146
Vpart-long-up
p147
VThis kernel is not suitable for SMP (multi-processor,\u000amulti-core or hyper-threaded) systems.
p148
ss(Vimage
p149
tp150
(dp151
Vinitramfs-generators
p152
(lp153
Vinitramfs-tools
p154
aVinitramfs-fallback
p155
asVbreaks
p156
(lp157
Vwireless-regdb (<< 2019.06.03-1~)
p158
asVrecommends
p159
(lp160
Vapparmor
p161
ass(Vrelations
p162
tp163
(dp164
Vgcc-9
p165
Vgcc-9 <!stage1 !cross !pkg.linux.nokernel>, gcc-9-@gnu-type-package@ <!stage1 cross !pkg.linux.nokernel>
p166
sVinitramfs-fallback
p167
Vlinux-initramfs-tool
p168
sVinitramfs-tools
p169
Vinitramfs-tools (>= 0.120+deb8u2)
p170
ss(Vbase
p171
Valpha
p172
tp173
(dp174
Vkernel-arch
p175
Valpha
p176
sVfeaturesets
p177
(lp178
Vnone
p179
ass(Vbuild
p180
g172
tp181
(dp182
Vimage-file
p183
Varch/alpha/boot/vmlinux.gz
p184
ss(Vimage
p185
g172
tp186
(dp187
Vsuggests
p188
(lp189
Vaboot
p190
aVfdutils
p191
asVinstall-stem
p192
Vvmlinuz
p193
ss(Vdescription
p194
g172
NValpha-generic
p195
tp196
(dp197
Vhardware
p198
VAlpha
p199
sVhardware-long
p200
VDEC Alpha systems with extended kernel start address (Wildfire, Titan, Marvel)
p201
ss(Vdescription
p202
g172
NValpha-smp
p203
tp204
(dp205
Vhardware
p206
VAlpha SMP
p207
sVhardware-long
p208
VDEC Alpha SMP systems with extended kernel start address (Wildfire, Titan, Marvel)
p209
ss(Vbase
p210
g172
g179
tp211
(dp212
Vflavours
p213
(lp214
Valpha-generic
p215
aValpha-smp
p216
asVimplicit-flavour
p217
I01
ss(Vbase
p218
Vamd64
p219
tp220
(dp221
Vfeaturesets
p222
(lp223
Vnone
p224
aVrt
p225
asVkernel-arch
p226
Vx86
p227
ss(Vbuild
p228
g219
tp229
(dp230
Vimage-file
p231
Varch/x86/boot/bzImage
p232
sVsigned-code
p233
I00
sVvdso
p234
I01
ss(Vimage
p235
g219
tp236
(dp237
Vbootloaders
p238
(lp239
Vgrub-pc
p240
aVgrub-efi-amd64
p241
aVextlinux
p242
asVinstall-stem
p243
Vvmlinuz
p244
sVbreaks
p245
(lp246
Vxserver-xorg-input-vmmouse (<< 1:13.0.99)
p247
ass(Vrelations
p248
g219
tp249
(dp250
Vheaders%gcc-9
p251
Vlinux-compiler-gcc-9-x86
p252
ss(Vdescription
p253
g219
NVamd64
p254
tp255
(dp256
Vhardware
p257
V64-bit PCs
p258
sVhardware-long
p259
VPCs with AMD64, Intel 64 or VIA Nano processors
p260
ss(Vdescription
p261
g219
NVcloud-amd64
p262
tp263
(dp264
Vhardware
p265
Vx86-64 cloud
p266
sVhardware-long
p267
VAmazon EC2, Google Compute Engine and Microsoft Azure cloud platforms
p268
ss(Vbase
p269
g219
Vnone
p270
tp271
(dp272
Vflavours
p273
(lp274
Vamd64
p275
aVcloud-amd64
p276
ass(Vimage
p277
g219
g270
Vcloud-amd64
p278
tp279
(dp280
Vconfigs
p281
(lp282
Vconfig.cloud
p283
aVamd64/config.cloud-amd64
p284
ass(Vbase
p285
g219
Vrt
p286
tp287
(dp288
Vflavours
p289
(lp290
Vamd64
p291
ass(Vbase
p292
Varm64
p293
tp294
(dp295
Vcross-compile-compat
p296
Varm-linux-gnueabihf-
p297
sVkernel-arch
p298
Varm64
p299
sVfeaturesets
p300
(lp301
Vnone
p302
aVrt
p303
ass(Vbuild
p304
g293
tp305
(dp306
Vimage-file
p307
Varch/arm64/boot/Image
p308
sVsigned-code
p309
I00
sVvdso
p310
I01
ss(Vimage
p311
g293
tp312
(dp313
Vinstall-stem
p314
Vvmlinuz
p315
sVbreaks
p316
(lp317
Vlibmozjs185-1.0
p318
aVlibmozjs-24-0 (<< 24.2.0-5.1~)
p319
ass(Vdescription
p320
g293
NVarm64
p321
tp322
(dp323
Vhardware
p324
V64-bit ARMv8 machines
p325
ss(Vdescription
p326
g293
NVcloud-arm64
p327
tp328
(dp329
Vhardware
p330
Varm64 cloud
p331
sVhardware-long
p332
Vcloud platforms supporting arm64 virtual machines
p333
ss(Vimage
p334
g293
NVarm64
p335
tp336
(dp337
s(Vrelations
p338
g293
tp339
(dp340
Vgcc-9
p341
Vgcc-9 <!stage1 !cross !pkg.linux.nokernel>, gcc-9-aarch64-linux-gnu <!stage1 cross !pkg.linux.nokernel>, gcc-arm-linux-gnueabihf <!stage1 !pkg.linux.nokernel>
p342
sVheaders%gcc-9
p343
Vgcc-9
p344
ss(Vbase
p345
g293
Vnone
p346
tp347
(dp348
Vflavours
p349
(lp350
Varm64
p351
aVcloud-arm64
p352
ass(Vimage
p353
g293
g346
Vcloud-arm64
p354
tp355
(dp356
Vconfigs
p357
(lp358
Vconfig.cloud
p359
aVarm64/config.cloud-arm64
p360
ass(Vbase
p361
g293
Vrt
p362
tp363
(dp364
Vflavours
p365
(lp366
Varm64
p367
ass(Vbase
p368
Varm64ilp32
p369
tp370
(dp371
Vkernel-arch
p372
Varm64
p373
sVfeaturesets
p374
(lp375
ss(Vbase
p376
Varmel
p377
tp378
(dp379
Vkernel-arch
p380
Varm
p381
sg177
(lp382
g179
ass(Vbuild
p383
g377
tp384
(dp385
Vimage-file
p386
Varch/arm/boot/zImage
p387
sVuncompressed-image-file
p388
Varch/arm/boot/Image
p389
sVsigned-code
p390
I00
ss(Vimage
p391
g377
tp392
(dp393
Vinstall-stem
p394
Vvmlinuz
p395
ss(Vrelations
p396
g377
tp397
(dp398
Vheaders%gcc-9
p399
Vlinux-compiler-gcc-9-arm
p400
ss(Vdescription
p401
g377
NVmarvell
p402
tp403
(dp404
Vhardware
p405
VMarvell Kirkwood/Orion
p406
sVhardware-long
p407
VMarvell Kirkwood and Orion based systems (https://wiki.debian.org/ArmEabiPort#Supported_hardware)
p408
ss(Vdescription
p409
g377
NVrpi
p410
tp411
(dp412
Vhardware
p413
VRaspberry Pi and Pi Zero
p414
sVhardware-long
p415
VRaspberry Pi, Raspberry Pi Zero based systems
p416
ss(Vimage
p417
g377
NVmarvell
p418
tp419
(dp420
Vrecommends
p421
(lp422
Vu-boot-tools
p423
asVcheck-size
p424
I2729712
sVcheck-size-with-dtb
p425
I01
sVcheck-uncompressed-size
p426
I7340032
sVbreaks
p427
(lp428
Vflash-kernel (<< 3.57~)
p429
ass(g210
g377
g179
tp430
(dp431
g213
(lp432
Vmarvell
p433
aVrpi
p434
asg217
I01
ss(Vbase
p435
Varmhf
p436
tp437
(dp438
Vfeaturesets
p439
(lp440
Vnone
p441
aVrt
p442
asVkernel-arch
p443
Varm
p444
ss(Vbuild
p445
g436
tp446
(dp447
Vimage-file
p448
Varch/arm/boot/zImage
p449
sVvdso
p450
I01
sVsigned-code
p451
I00
ss(Vimage
p452
g436
tp453
(dp454
Vinstall-stem
p455
Vvmlinuz
p456
ss(Vrelations
p457
g436
tp458
(dp459
Vheaders%gcc-9
p460
Vlinux-compiler-gcc-9-arm
p461
ss(Vdescription
p462
g436
NVarmmp
p463
tp464
(dp465
Vhardware
p466
VARMv7 multiplatform compatible SoCs
p467
sVhardware-long
p468
VARMv7 multiplatform kernel. See\u000ahttps://wiki.debian.org/DebianKernel/ARMMP for details of supported\u000aplatforms
p469
ss(Vdescription
p470
g436
NVarmmp-lpae
p471
tp472
(dp473
Vhardware
p474
VARMv7 multiplatform compatible SoCs supporting LPAE
p475
sVhardware-long
p476
VARMv7 multiplatform kernel supporting LPAE. See\u000ahttps://wiki.debian.org/DebianKernel/ARMMP for details of supported\u000aplatforms.
p477
ss(Vbase
p478
g436
Vnone
p479
tp480
(dp481
Vflavours
p482
(lp483
Varmmp
p484
aVarmmp-lpae
p485
ass(Vbase
p486
g436
Vrt
p487
tp488
(dp489
Vflavours
p490
(lp491
Varmmp
p492
ass(Vbase
p493
Vhppa
p494
tp495
(dp496
Vkernel-arch
p497
Vparisc
p498
sg177
(lp499
g179
ass(Vbuild
p500
g494
tp501
(dp502
Vimage-file
p503
Varch/parisc/boot/bzImage
p504
sVdebug-info
p505
I00
ss(Vimage
p506
g494
tp507
(dp508
Vsuggests
p509
(lp510
Vpalo
p511
asVinstall-stem
p512
Vvmlinuz
p513
ss(Vdescription
p514
g494
NVparisc
p515
tp516
(dp517
Vhardware
p518
V32-bit PA-RISC
p519
sVhardware-long
p520
VHP PA-RISC 32-bit systems with max 4 GB RAM
p521
ss(Vbase
p522
g494
NVparisc64
p523
tp524
(dp525
Vcflags
p526
V-fno-cse-follow-jumps
p527
sVoverride-host-type
p528
Vhppa64-linux-gnu
p529
ss(Vdescription
p530
g494
NVparisc64
p531
tp532
(dp533
Vhardware
p534
V64-bit PA-RISC
p535
sVhardware-long
p536
VHP PA-RISC 64-bit systems with support for more than 4 GB RAM
p537
ss(Vrelations
p538
g494
tp539
(dp540
Vgcc-9
p541
Vgcc-9 <!stage1 !cross !pkg.linux.nokernel>, gcc-9-hppa-linux-gnu <!stage1 cross !pkg.linux.nokernel>, binutils-hppa64-linux-gnu <!stage1 !pkg.linux.nokernel>, gcc-9-hppa64-linux-gnu <!stage1 !pkg.linux.nokernel>
p542
ss(g210
g494
g179
tp543
(dp544
g213
(lp545
Vparisc
p546
aVparisc64
p547
asg217
I01
ss(Vbase
p548
Vi386
p549
tp550
(dp551
Vfeaturesets
p552
(lp553
Vnone
p554
aVrt
p555
asVkernel-arch
p556
Vx86
p557
ss(Vbuild
p558
g549
tp559
(dp560
Vimage-file
p561
Varch/x86/boot/bzImage
p562
sVsigned-code
p563
I00
sVvdso
p564
I01
ss(Vdescription
p565
g549
tp566
(dp567
Vpart-long-pae
p568
VThis kernel requires PAE (Physical Address Extension).\u000aThis feature is supported by the Intel Pentium Pro/II/III/4/4M/D, Xeon,\u000aCore and Atom; AMD Geode NX, Athlon (K7), Duron, Opteron, Sempron,\u000aTurion or Phenom; Transmeta Efficeon; VIA C7; and some other processors.
p569
ss(Vimage
p570
g549
tp571
(dp572
Vbootloaders
p573
(lp574
Vgrub-pc
p575
aVgrub-efi-ia32
p576
aVextlinux
p577
asVinstall-stem
p578
Vvmlinuz
p579
sVbreaks
p580
(lp581
Vxserver-xorg-input-vmmouse (<< 1:13.0.99)
p582
ass(Vrelations
p583
g549
tp584
(dp585
Vheaders%gcc-9
p586
Vlinux-compiler-gcc-9-x86
p587
ss(Vdescription
p588
g549
NV686
p589
tp590
(dp591
Vhardware
p592
Volder PCs
p593
sVhardware-long
p594
VPCs with one or more processors not supporting PAE
p595
ss(Vdescription
p596
g549
NV686-pae
p597
tp598
(dp599
Vhardware
p600
Vmodern PCs
p601
sVhardware-long
p602
VPCs with one or more processors supporting PAE
p603
sVparts
p604
(lp605
Vpae
p606
ass(Vbase
p607
g549
Vnone
p608
tp609
(dp610
Vflavours
p611
(lp612
V686
p613
aV686-pae
p614
ass(Vbase
p615
g549
Vrt
p616
tp617
(dp618
Vflavours
p619
(lp620
V686-pae
p621
ass(Vbase
p622
Via64
p623
tp624
(dp625
Vkernel-arch
p626
Via64
p627
sg177
(lp628
g179
ass(Vbuild
p629
g623
tp630
(dp631
Vimage-file
p632
Vvmlinux.gz
p633
ss(Vimage
p634
g623
tp635
(dp636
Vbootloaders
p637
(lp638
Vgrub-efi-ia64
p639
asVinstall-stem
p640
Vvmlinuz
p641
ss(Vdescription
p642
g623
NVitanium
p643
tp644
(dp645
Vhardware
p646
VItanium (Merced)
p647
sVhardware-long
p648
Vsystems with original Itanium (Merced) processors
p649
ss(Vdescription
p650
g623
NVmckinley
p651
tp652
(dp653
Vhardware
p654
VItanium 2+
p655
sVhardware-long
p656
Vsystems with Itanium 2 or 9300/9500/9700-series processors
p657
ss(g210
g623
g179
tp658
(dp659
g213
(lp660
Vitanium
p661
aVmckinley
p662
asg217
I01
ss(Vbase
p663
Vm68k
p664
tp665
(dp666
Vcflags
p667
V-ffreestanding
p668
sVkernel-arch
p669
Vm68k
p670
sg177
(lp671
g179
ass(Vbuild
p672
g664
tp673
(dp674
Vimage-file
p675
Vvmlinux
p676
ss(Vimage
p677
g664
tp678
(dp679
Vsuggests
p680
(lp681
Vvmelilo
p682
aVfdutils
p683
asVinstall-stem
p684
Vvmlinux
p685
ss(Vdescription
p686
g664
NVm68k
p687
tp688
(dp689
Vhardware
p690
VMotorola MC68020+ family
p691
ss(g210
g664
g179
tp692
(dp693
g213
(lp694
Vm68k
p695
asg217
I01
ss(Vbase
p696
Vmips
p697
tp698
(dp699
Vkernel-arch
p700
Vmips
p701
sg177
(lp702
g179
ass(Vbuild
p703
g697
tp704
(dp705
Vimage-file
p706
Vvmlinuz
p707
ss(Vimage
p708
g697
tp709
(dp710
Vinstall-stem
p711
Vvmlinuz
p712
ss(Vdescription
p713
g697
NV4kc-malta
p714
tp715
(dp716
Vhardware
p717
VMIPS Malta
p718
sVhardware-long
p719
VMIPS Malta boards
p720
ss(Vimage
p721
g697
NV4kc-malta
p722
tp723
(dp724
Vconfigs
p725
(lp726
Vkernelarch-mips/config.malta
p727
aVkernelarch-mips/config.mips32r2
p728
ass(Vdescription
p729
g697
NV5kc-malta
p730
tp731
(dp732
Vhardware
p733
VMIPS Malta (64-bit)
p734
sVhardware-long
p735
VMIPS Malta boards (64-bit)
p736
ss(Vimage
p737
g697
NV5kc-malta
p738
tp739
(dp740
Vconfigs
p741
(lp742
Vkernelarch-mips/config.malta
p743
aVkernelarch-mips/config.mips64r2
p744
ass(Vdescription
p745
g697
NVocteon
p746
tp747
(dp748
Vhardware
p749
VOcteon
p750
sVhardware-long
p751
VCavium Networks Octeon
p752
ss(Vbuild
p753
g697
NVocteon
p754
tp755
(dp756
Vimage-file
p757
Vvmlinux
p758
ss(Vimage
p759
g697
NVocteon
p760
tp761
(dp762
Vinstall-stem
p763
Vvmlinux
p764
sVconfigs
p765
(lp766
Vkernelarch-mips/config.octeon
p767
ass(g210
g697
g179
tp768
(dp769
g213
(lp770
V4kc-malta
p771
aV5kc-malta
p772
aVocteon
p773
asg217
I01
ss(Vbase
p774
Vmips64
p775
tp776
(dp777
Vkernel-arch
p778
Vmips
p779
sg177
(lp780
g179
ass(Vbuild
p781
g775
tp782
(dp783
Vimage-file
p784
Vvmlinuz
p785
ss(Vimage
p786
g775
tp787
(dp788
Vinstall-stem
p789
Vvmlinuz
p790
ss(Vdescription
p791
g775
NV5kc-malta
p792
tp793
(dp794
Vhardware
p795
VMIPS Malta
p796
sVhardware-long
p797
VMIPS Malta boards
p798
ss(Vimage
p799
g775
NV5kc-malta
p800
tp801
(dp802
Vconfigs
p803
(lp804
Vkernelarch-mips/config.malta
p805
aVkernelarch-mips/config.mips64r2
p806
ass(Vdescription
p807
g775
NVocteon
p808
tp809
(dp810
Vhardware
p811
VOcteon
p812
sVhardware-long
p813
VCavium Networks Octeon
p814
ss(Vbuild
p815
g775
NVocteon
p816
tp817
(dp818
Vimage-file
p819
Vvmlinux
p820
ss(Vimage
p821
g775
NVocteon
p822
tp823
(dp824
Vinstall-stem
p825
Vvmlinux
p826
sVconfigs
p827
(lp828
Vkernelarch-mips/config.octeon
p829
ass(g210
g775
g179
tp830
(dp831
g213
(lp832
V5kc-malta
p833
aVocteon
p834
asg217
I01
ss(Vbase
p835
Vmips64el
p836
tp837
(dp838
Vkernel-arch
p839
Vmips
p840
sg177
(lp841
g179
ass(Vbuild
p842
g836
tp843
(dp844
Vimage-file
p845
Vvmlinuz
p846
ss(Vimage
p847
g836
tp848
(dp849
Vinstall-stem
p850
Vvmlinuz
p851
ss(Vdescription
p852
g836
NV5kc-malta
p853
tp854
(dp855
Vhardware
p856
VMIPS Malta
p857
sVhardware-long
p858
VMIPS Malta boards
p859
ss(Vimage
p860
g836
NV5kc-malta
p861
tp862
(dp863
Vconfigs
p864
(lp865
Vkernelarch-mips/config.malta
p866
aVkernelarch-mips/config.mips64r2
p867
ass(Vdescription
p868
g836
NVloongson-3
p869
tp870
(dp871
Vhardware
p872
VLoongson 3A/3B
p873
sVhardware-long
p874
VLoongson 3A or 3B based systems (e.g. from Loongson or Lemote)
p875
ss(Vimage
p876
g836
NVloongson-3
p877
tp878
(dp879
Vconfigs
p880
(lp881
Vkernelarch-mips/config.loongson-3
p882
ass(Vdescription
p883
g836
NVocteon
p884
tp885
(dp886
Vhardware
p887
VOcteon
p888
sVhardware-long
p889
VCavium Networks Octeon
p890
ss(Vbuild
p891
g836
NVocteon
p892
tp893
(dp894
Vimage-file
p895
Vvmlinux
p896
ss(Vimage
p897
g836
NVocteon
p898
tp899
(dp900
Vinstall-stem
p901
Vvmlinux
p902
sVconfigs
p903
(lp904
Vkernelarch-mips/config.octeon
p905
ass(g210
g836
g179
tp906
(dp907
g213
(lp908
V5kc-malta
p909
aVloongson-3
p910
aVocteon
p911
asg217
I01
ss(Vbase
p912
Vmips64r6
p913
tp914
(dp915
Vkernel-arch
p916
Vmips
p917
sg177
(lp918
g179
ass(Vbuild
p919
g913
tp920
(dp921
Vimage-file
p922
Vvmlinux
p923
ss(Vimage
p924
g913
tp925
(dp926
Vinstall-stem
p927
Vvmlinux
p928
ss(Vdescription
p929
g913
NVmips64r6
p930
tp931
(dp932
Vhardware
p933
VMIPS R6 (64 bit, big endian)
p934
sVhardware-long
p935
VMIPS R6 (64 bit, big endian)
p936
ss(Vimage
p937
g913
NVmips64r6
p938
tp939
(dp940
Vconfigs
p941
(lp942
Vkernelarch-mips/config.boston
p943
aVkernelarch-mips/config.mips64r6
p944
ass(g210
g913
g179
tp945
(dp946
g213
(lp947
Vmips64r6
p948
asg217
I01
ss(Vbase
p949
Vmips64r6el
p950
tp951
(dp952
Vkernel-arch
p953
Vmips
p954
sg177
(lp955
g179
ass(Vbuild
p956
g950
tp957
(dp958
Vimage-file
p959
Vvmlinux
p960
ss(Vimage
p961
g950
tp962
(dp963
Vinstall-stem
p964
Vvmlinux
p965
ss(Vdescription
p966
g950
NVmips64r6el
p967
tp968
(dp969
Vhardware
p970
VMIPS R6 (64 bit, little endian)
p971
sVhardware-long
p972
VMIPS R6 (64 bit, little endian)
p973
ss(Vimage
p974
g950
NVmips64r6el
p975
tp976
(dp977
Vconfigs
p978
(lp979
Vkernelarch-mips/config.boston
p980
aVkernelarch-mips/config.mips64r6
p981
ass(g210
g950
g179
tp982
(dp983
g213
(lp984
Vmips64r6el
p985
asg217
I01
ss(Vbase
p986
Vmipsel
p987
tp988
(dp989
Vkernel-arch
p990
Vmips
p991
sg177
(lp992
g179
ass(Vbuild
p993
g987
tp994
(dp995
Vimage-file
p996
Vvmlinuz
p997
ss(Vimage
p998
g987
tp999
(dp1000
Vinstall-stem
p1001
Vvmlinuz
p1002
ss(Vdescription
p1003
g987
NV4kc-malta
p1004
tp1005
(dp1006
Vhardware
p1007
VMIPS Malta
p1008
sVhardware-long
p1009
VMIPS Malta boards
p1010
ss(Vimage
p1011
g987
NV4kc-malta
p1012
tp1013
(dp1014
Vconfigs
p1015
(lp1016
Vkernelarch-mips/config.malta
p1017
aVkernelarch-mips/config.mips32r2
p1018
ass(Vdescription
p1019
g987
NV5kc-malta
p1020
tp1021
(dp1022
Vhardware
p1023
VMIPS Malta (64-bit)
p1024
sVhardware-long
p1025
VMIPS Malta boards (64-bit)
p1026
ss(Vimage
p1027
g987
NV5kc-malta
p1028
tp1029
(dp1030
Vconfigs
p1031
(lp1032
Vkernelarch-mips/config.malta
p1033
aVkernelarch-mips/config.mips64r2
p1034
ass(Vdescription
p1035
g987
NVloongson-3
p1036
tp1037
(dp1038
Vhardware
p1039
VLoongson 3A/3B
p1040
sVhardware-long
p1041
VLoongson 3A or 3B based systems (e.g. from Loongson or Lemote)
p1042
ss(Vimage
p1043
g987
NVloongson-3
p1044
tp1045
(dp1046
Vconfigs
p1047
(lp1048
Vkernelarch-mips/config.loongson-3
p1049
ass(Vdescription
p1050
g987
NVocteon
p1051
tp1052
(dp1053
Vhardware
p1054
VOcteon
p1055
sVhardware-long
p1056
VCavium Networks Octeon
p1057
ss(Vbuild
p1058
g987
NVocteon
p1059
tp1060
(dp1061
Vimage-file
p1062
Vvmlinux
p1063
ss(Vimage
p1064
g987
NVocteon
p1065
tp1066
(dp1067
Vinstall-stem
p1068
Vvmlinux
p1069
sVconfigs
p1070
(lp1071
Vkernelarch-mips/config.octeon
p1072
ass(g210
g987
g179
tp1073
(dp1074
g213
(lp1075
V4kc-malta
p1076
aV5kc-malta
p1077
aVloongson-3
p1078
aVocteon
p1079
asg217
I01
ss(Vbase
p1080
Vmipsn32
p1081
tp1082
(dp1083
Vkernel-arch
p1084
Vmips
p1085
sVfeaturesets
p1086
(lp1087
ss(Vbase
p1088
Vmipsn32el
p1089
tp1090
(dp1091
Vkernel-arch
p1092
Vmips
p1093
sVfeaturesets
p1094
(lp1095
ss(Vbase
p1096
Vmipsn32r6
p1097
tp1098
(dp1099
Vkernel-arch
p1100
Vmips
p1101
sVfeaturesets
p1102
(lp1103
ss(Vbase
p1104
Vmipsn32r6el
p1105
tp1106
(dp1107
Vkernel-arch
p1108
Vmips
p1109
sVfeaturesets
p1110
(lp1111
ss(Vbase
p1112
Vmipsr6
p1113
tp1114
(dp1115
Vkernel-arch
p1116
Vmips
p1117
sg177
(lp1118
g179
ass(Vbuild
p1119
g1113
tp1120
(dp1121
Vimage-file
p1122
Vvmlinux
p1123
ss(Vimage
p1124
g1113
tp1125
(dp1126
Vinstall-stem
p1127
Vvmlinux
p1128
ss(Vdescription
p1129
g1113
NVmips32r6
p1130
tp1131
(dp1132
Vhardware
p1133
VMIPS R6 (32 bit, big endian)
p1134
sVhardware-long
p1135
VMIPS R6 (32 bit, big endian)
p1136
ss(Vimage
p1137
g1113
NVmips32r6
p1138
tp1139
(dp1140
Vconfigs
p1141
(lp1142
Vkernelarch-mips/config.boston
p1143
aVkernelarch-mips/config.mips32r6
p1144
ass(Vdescription
p1145
g1113
NVmips64r6
p1146
tp1147
(dp1148
Vhardware
p1149
VMIPS R6 (64 bit, big endian)
p1150
sVhardware-long
p1151
VMIPS R6 (64 bit, big endian)
p1152
ss(Vimage
p1153
g1113
NVmips64r6
p1154
tp1155
(dp1156
Vconfigs
p1157
(lp1158
Vkernelarch-mips/config.boston
p1159
aVkernelarch-mips/config.mips64r6
p1160
ass(g210
g1113
g179
tp1161
(dp1162
g213
(lp1163
Vmips32r6
p1164
aVmips64r6
p1165
asg217
I01
ss(Vbase
p1166
Vmipsr6el
p1167
tp1168
(dp1169
Vkernel-arch
p1170
Vmips
p1171
sg177
(lp1172
g179
ass(Vbuild
p1173
g1167
tp1174
(dp1175
Vimage-file
p1176
Vvmlinux
p1177
ss(Vimage
p1178
g1167
tp1179
(dp1180
Vinstall-stem
p1181
Vvmlinux
p1182
ss(Vdescription
p1183
g1167
NVmips32r6el
p1184
tp1185
(dp1186
Vhardware
p1187
VMIPS R6 (32 bit, little endian)
p1188
sVhardware-long
p1189
VMIPS R6 (32 bit, little endian)
p1190
ss(Vimage
p1191
g1167
NVmips32r6el
p1192
tp1193
(dp1194
Vconfigs
p1195
(lp1196
Vkernelarch-mips/config.boston
p1197
aVkernelarch-mips/config.mips32r6
p1198
ass(Vdescription
p1199
g1167
NVmips64r6el
p1200
tp1201
(dp1202
Vhardware
p1203
VMIPS R6 (64 bit, little endian)
p1204
sVhardware-long
p1205
VMIPS R6 (64 bit, little endian)
p1206
ss(Vimage
p1207
g1167
NVmips64r6el
p1208
tp1209
(dp1210
Vconfigs
p1211
(lp1212
Vkernelarch-mips/config.boston
p1213
aVkernelarch-mips/config.mips64r6
p1214
ass(g210
g1167
g179
tp1215
(dp1216
g213
(lp1217
Vmips32r6el
p1218
aVmips64r6el
p1219
asg217
I01
ss(Vbase
p1220
Vpowerpc
p1221
tp1222
(dp1223
Vkernel-arch
p1224
Vpowerpc
p1225
sg177
(lp1226
g179
ass(Vbuild
p1227
g1221
tp1228
(dp1229
Vimage-file
p1230
Vvmlinux
p1231
sVvdso
p1232
I01
ss(Vimage
p1233
g1221
tp1234
(dp1235
Vconfigs
p1236
(lp1237
sVbootloaders
p1238
(lp1239
Vgrub-ieee1275
p1240
asVsuggests
p1241
(lp1242
Vmkvmlinuz
p1243
asVinstall-stem
p1244
Vvmlinux
p1245
ss(Vdescription
p1246
g1221
NVpowerpc
p1247
tp1248
(dp1249
Vhardware
p1250
Vuniprocessor 32-bit PowerPC
p1251
ss(Vdescription
p1252
g1221
NVpowerpc-smp
p1253
tp1254
(dp1255
Vhardware
p1256
Vmultiprocessor 32-bit PowerPC
p1257
ss(Vimage
p1258
g1221
NVpowerpc-smp
p1259
tp1260
(dp1261
Vconfigs
p1262
(lp1263
Vpowerpc/config.powerpc
p1264
aVpowerpc/config.powerpc-smp
p1265
ass(Vdescription
p1266
g1221
NVpowerpc64
p1267
tp1268
(dp1269
Vhardware
p1270
V64-bit PowerPC
p1271
ss(Vimage
p1272
g1221
NVpowerpc64
p1273
tp1274
(dp1275
Vconfigs
p1276
(lp1277
Vkernelarch-powerpc/config-arch-64
p1278
aVkernelarch-powerpc/config-arch-64-be
p1279
ass(g210
g1221
g179
tp1280
(dp1281
g213
(lp1282
Vpowerpc
p1283
aVpowerpc-smp
p1284
aVpowerpc64
p1285
asg217
I01
ss(Vbase
p1286
Vppc64
p1287
tp1288
(dp1289
Vkernel-arch
p1290
Vpowerpc
p1291
sg177
(lp1292
g179
ass(Vbuild
p1293
g1287
tp1294
(dp1295
Vimage-file
p1296
Vvmlinux
p1297
sVvdso
p1298
I01
ss(Vimage
p1299
g1287
tp1300
(dp1301
Vconfigs
p1302
(lp1303
sVbootloaders
p1304
(lp1305
Vgrub-ieee1275
p1306
asVsuggests
p1307
(lp1308
Vmkvmlinuz
p1309
asVinstall-stem
p1310
Vvmlinux
p1311
ss(Vdescription
p1312
g1287
NVpowerpc64
p1313
tp1314
(dp1315
Vhardware
p1316
V64-bit PowerPC
p1317
ss(Vimage
p1318
g1287
NVpowerpc64
p1319
tp1320
(dp1321
Vconfigs
p1322
(lp1323
Vkernelarch-powerpc/config-arch-64
p1324
aVkernelarch-powerpc/config-arch-64-be
p1325
ass(g210
g1287
g179
tp1326
(dp1327
g213
(lp1328
Vpowerpc64
p1329
asg217
I01
ss(Vbase
p1330
Vppc64el
p1331
tp1332
(dp1333
Vkernel-arch
p1334
Vpowerpc
p1335
sg177
(lp1336
g179
ass(Vbuild
p1337
g1331
tp1338
(dp1339
Vimage-file
p1340
Vvmlinux
p1341
sVvdso
p1342
I01
ss(Vimage
p1343
g1331
tp1344
(dp1345
Vconfigs
p1346
(lp1347
sVbootloaders
p1348
(lp1349
Vgrub-ieee1275
p1350
asVsuggests
p1351
(lp1352
Vmkvmlinuz
p1353
asVinstall-stem
p1354
Vvmlinux
p1355
ss(Vdescription
p1356
g1331
NVpowerpc64le
p1357
tp1358
(dp1359
Vhardware
p1360
VLittle-endian 64-bit PowerPC
p1361
ss(Vimage
p1362
g1331
NVpowerpc64le
p1363
tp1364
(dp1365
Vconfigs
p1366
(lp1367
Vkernelarch-powerpc/config-arch-64
p1368
aVkernelarch-powerpc/config-arch-64-le
p1369
ass(g210
g1331
g179
tp1370
(dp1371
g213
(lp1372
Vpowerpc64le
p1373
asg217
I01
ss(Vbase
p1374
Vriscv64
p1375
tp1376
(dp1377
Vkernel-arch
p1378
Vriscv
p1379
sVfeaturesets
p1380
(lp1381
Vnone
p1382
ass(Vbuild
p1383
g1375
tp1384
(dp1385
Vimage-file
p1386
Varch/riscv/boot/Image
p1387
sVvdso
p1388
I01
ss(Vimage
p1389
g1375
tp1390
(dp1391
Vinstall-stem
p1392
Vvmlinux
p1393
ss(Vdescription
p1394
g1375
NVriscv64
p1395
tp1396
(dp1397
Vhardware
p1398
V64-bit RISC-V platforms
p1399
sVhardware-long
p1400
V64-bit RISC-V platforms
p1401
ss(Vbase
p1402
g1375
Vnone
p1403
tp1404
(dp1405
Vflavours
p1406
(lp1407
Vriscv64
p1408
ass(Vbase
p1409
Vs390
p1410
tp1411
(dp1412
Vkernel-arch
p1413
Vs390
p1414
sVfeaturesets
p1415
(lp1416
ss(Vbase
p1417
Vs390x
p1418
tp1419
(dp1420
Vkernel-arch
p1421
Vs390
p1422
sg177
(lp1423
g179
ass(Vbuild
p1424
g1418
tp1425
(dp1426
Vimage-file
p1427
Varch/s390/boot/bzImage
p1428
sVvdso
p1429
I01
ss(Vimage
p1430
g1418
tp1431
(dp1432
Vbootloaders
p1433
(lp1434
Vs390-tools
p1435
asVinstall-stem
p1436
Vvmlinuz
p1437
ss(Vrelations
p1438
g1418
tp1439
(dp1440
Vheaders%gcc-9
p1441
Vlinux-compiler-gcc-9-s390
p1442
ss(Vdescription
p1443
g1418
NVs390x
p1444
tp1445
(dp1446
Vhardware
p1447
VIBM zSeries
p1448
ss(g210
g1418
g179
tp1449
(dp1450
g213
(lp1451
Vs390x
p1452
asg217
I01
ss(Vbase
p1453
Vsh3
p1454
tp1455
(dp1456
Vkernel-arch
p1457
Vsh
p1458
sVfeaturesets
p1459
(lp1460
ss(Vbase
p1461
Vsh4
p1462
tp1463
(dp1464
Vkernel-arch
p1465
Vsh
p1466
sg177
(lp1467
g179
ass(Vbuild
p1468
g1462
tp1469
(dp1470
Vimage-file
p1471
Varch/sh/boot/zImage
p1472
ss(Vimage
p1473
g1462
tp1474
(dp1475
Vinstall-stem
p1476
Vvmlinuz
p1477
ss(Vdescription
p1478
g1462
NVsh7751r
p1479
tp1480
(dp1481
Vhardware
p1482
Vsh7751r
p1483
sVhardware-long
p1484
VRenesas SH7751R R2D plus board
p1485
ss(Vdescription
p1486
g1462
NVsh7785lcr
p1487
tp1488
(dp1489
Vhardware
p1490
Vsh7785lcr
p1491
sVhardware-long
p1492
VRenesas SH7785 reference board
p1493
ss(Vimage
p1494
g1462
NVsh7785lcr
p1495
tp1496
(dp1497
Vrecommends
p1498
(lp1499
Vu-boot-tools
p1500
asVcheck-size
p1501
I4194304
ss(g210
g1462
g179
tp1502
(dp1503
g213
(lp1504
Vsh7751r
p1505
aVsh7785lcr
p1506
asg217
I01
ss(Vbase
p1507
Vsparc
p1508
tp1509
(dp1510
Vkernel-arch
p1511
Vsparc
p1512
sVfeaturesets
p1513
(lp1514
ss(Vbase
p1515
Vsparc64
p1516
tp1517
(dp1518
Vkernel-arch
p1519
Vsparc
p1520
sg177
(lp1521
g179
ass(Vbuild
p1522
g1516
tp1523
(dp1524
Vimage-file
p1525
Vvmlinux
p1526
ss(Vimage
p1527
g1516
tp1528
(dp1529
Vconfigs
p1530
(lp1531
sVbootloaders
p1532
(lp1533
Vgrub-ieee1275
p1534
asVsuggests
p1535
(lp1536
Vfdutils
p1537
asVinstall-stem
p1538
Vvmlinux
p1539
ss(Vdescription
p1540
g1516
NVsparc64
p1541
tp1542
(dp1543
Vhardware
p1544
Vuniprocessor 64-bit UltraSPARC
p1545
ss(Vimage
p1546
g1516
NVsparc64
p1547
tp1548
(dp1549
Vconfigs
p1550
(lp1551
Vkernelarch-sparc/config-up
p1552
ass(Vdescription
p1553
g1516
NVsparc64-smp
p1554
tp1555
(dp1556
Vhardware
p1557
Vmultiprocessor 64-bit UltraSPARC
p1558
ss(Vimage
p1559
g1516
NVsparc64-smp
p1560
tp1561
(dp1562
Vconfigs
p1563
(lp1564
Vkernelarch-sparc/config-smp
p1565
ass(g210
g1516
g179
tp1566
(dp1567
g213
(lp1568
Vsparc64
p1569
aVsparc64-smp
p1570
asg217
I01
ss(Vbase
p1571
Vx32
p1572
tp1573
(dp1574
Vkernel-arch
p1575
Vx86
p1576
sVfeaturesets
p1577
(lp1578
ss(Vabi
p1579
NVrt
p1580
tp1581
(dp1582
Vignore-changes
p1583
(lp1584
V*
p1585
ass(Vdescription
p1586
Ng1580
tp1587
(dp1588
Vpart-long-rt
p1589
VThis kernel includes the PREEMPT_RT realtime patch set.
p1590
sVpart-short-rt
p1591
VPREEMPT_RT
p1592
sVparts
p1593
(lp1594
Vrt
p1595
ass(Vversion
p1596
tp1597
(dp1598
Vsource
p1599
V5.5.17-1parrot1
p1600
sVupstream
p1601
V5.5
p1602
sVabiname_base
p1603
V5.5.0
p1604
sVabiname
p1605
V5.5.0-1parrot1
p1606
ss.