cdebian_linux.config
ConfigCore
p0
(tRp1
(Vabi
p2
tp3
(dp4
Vabiname
p5
V2parrot1
p6
sVignore-changes
p7
(lp8
V__cpuhp_*
p9
aV__xive_vm_h_*
p10
aVbpf_analyzer
p11
aVcxl_*
p12
aVdax_flush
p13
aVieee80211_nullfunc_get
p14
aVinet_add_protocol
p15
aVinet_del_protocol
p16
aViommu_device_*
p17
aVkvm_async_pf_task_wait
p18
aVkvmppc_*
p19
aVmm_iommu_*
p20
aVmv_mbus_*
p21
aVperf_*
p22
aVregister_cxl_calls
p23
aVregister_key_type
p24
aVunregister_cxl_calls
p25
aV*_hw_breakpoint
p26
aVmodule:arch/x86/kvm/*
p27
aVmodule:drivers/crypto/ccp/*
p28
aVmodule:drivers/hv/*
p29
aVmodule:drivers/gpu/drm/sun4i/*
p30
aVmodule:drivers/iio/**
p31
aVmodule:drivers/misc/cxl/*
p32
aVmodule:drivers/mtd/nand/*
p33
aVmodule:drivers/net/ethernet/**
p34
aVmodule:drivers/net/wireless/**
p35
aVmodule:drivers/nvdimm/*
p36
aVmodule:drivers/power/supply/bq27xxx_battery
p37
aVmodule:drivers/scsi/cxgbi/*
p38
aVmodule:drivers/scsi/libiscs*
p39
aVmodule:drivers/scsi/qla2xxx/qla2xxx
p40
aVmodule:drivers/scsi/ufs/*
p41
aVmodule:drivers/target/**
p42
aVmodule:drivers/usb/chipidea/**
p43
aVmodule:drivers/usb/gadget/**
p44
aVmodule:drivers/usb/host/**
p45
aVmodule:drivers/usb/musb/**
p46
aVmodule:fs/nfs/**
p47
aVmodule:net/ceph/libceph
p48
aVmodule:net/l2tp/**
p49
aVmodule:net/rxrpc/rxrpc
p50
aVmodule:net/sctp/**
p51
aVmodule:sound/core/seq/**
p52
aVmodule:sound/firewire/snd-firewire-lib
p53
aVmodule:sound/pci/hda/*
p54
aVbtree_*
p55
aVvisitor*
p56
aVcan_rx_register
p57
aVip6_xmit
p58
aVmodule:net/dccp/dccp
p59
aVmodule:net/rds/rds
p60
aVdevfreq_*
p61
aVdevm_devfreq_*
p62
aVupdate_devfreq
p63
aVmodule:drivers/infiniband/**
p64
aVacpi_ec_add_query_handler
p65
aVacpi_ec_remove_query_handler
p66
aVfirst_ec
p67
aVdebugfs_create_automount
p68
aVmodule:drivers/iio/imu/inv_mpu6050/*
p69
aVdrm_crtc_accurate_vblank_count
p70
aVacpi_nfit_desc_init
p71
aVacpi_nfit_init
p72
aVloop_register_transfer
p73
aVxen_xlate_*
p74
aVnf_nat_masquerade_ipv4_register_notifier
p75
aVnf_nat_masquerade_ipv6_register_notifier
p76
aVmodule:drivers/scsi/hisi_sas/*
p77
ass(Vbase
p78
tp79
(dp80
Varches
p81
(lp82
Valpha
p83
aVamd64
p84
aVarm64
p85
aVarm64ilp32
p86
aVarmel
p87
aVarmhf
p88
aVhppa
p89
aVi386
p90
aVia64
p91
aVm68k
p92
aVmips
p93
aVmips64
p94
aVmips64el
p95
aVmips64r6
p96
aVmips64r6el
p97
aVmipsel
p98
aVmipsn32
p99
aVmipsn32el
p100
aVmipsn32r6
p101
aVmipsn32r6el
p102
aVmipsr6
p103
aVmipsr6el
p104
aVpowerpc
p105
aVpowerpcspe
p106
aVppc64
p107
aVppc64el
p108
aVriscv64
p109
aVs390
p110
aVs390x
p111
aVsh3
p112
aVsh4
p113
aVsparc
p114
aVsparc64
p115
aVx32
p116
asVcompiler
p117
Vgcc-8
p118
sVfeaturesets
p119
(lp120
Vnone
p121
aVrt
p122
ass(Vbuild
p123
tp124
(dp125
Vdebug-info
p126
I01
sVsigned-code
p127
I00
ss(Vbase
p128
NVrt
p129
tp130
(dp131
Venabled
p132
I01
ss(Vdescription
p133
tp134
(dp135
Vpart-long-up
p136
VThis kernel is not suitable for SMP (multi-processor,\u000amulti-core or hyper-threaded) systems.
p137
ss(Vimage
p138
tp139
(dp140
Vinitramfs-generators
p141
(lp142
Vinitramfs-tools
p143
aVinitramfs-fallback
p144
asVrecommends
p145
(lp146
Vapparmor
p147
ass(Vrelations
p148
tp149
(dp150
Vgcc-8
p151
Vgcc-8 <!stage1 !cross !pkg.linux.nokernel>, gcc-8-@gnu-type-package@ <!stage1 cross !pkg.linux.nokernel>
p152
sVinitramfs-fallback
p153
Vlinux-initramfs-tool
p154
sVinitramfs-tools
p155
Vinitramfs-tools (>= 0.120+deb8u2)
p156
ss(Vbase
p157
Valpha
p158
tp159
(dp160
Vkernel-arch
p161
Valpha
p162
sVfeaturesets
p163
(lp164
Vnone
p165
ass(Vbuild
p166
g158
tp167
(dp168
Vimage-file
p169
Varch/alpha/boot/vmlinux.gz
p170
ss(Vimage
p171
g158
tp172
(dp173
Vsuggests
p174
(lp175
Vaboot
p176
aVfdutils
p177
asVinstall-stem
p178
Vvmlinuz
p179
ss(Vdescription
p180
g158
NValpha-generic
p181
tp182
(dp183
Vhardware
p184
VAlpha
p185
sVhardware-long
p186
VDEC Alpha systems with extended kernel start address (Wildfire, Titan, Marvel)
p187
ss(Vdescription
p188
g158
NValpha-smp
p189
tp190
(dp191
Vhardware
p192
VAlpha SMP
p193
sVhardware-long
p194
VDEC Alpha SMP systems with extended kernel start address (Wildfire, Titan, Marvel)
p195
ss(Vbase
p196
g158
g165
tp197
(dp198
Vflavours
p199
(lp200
Valpha-generic
p201
aValpha-smp
p202
asVimplicit-flavour
p203
I01
ss(Vbase
p204
Vamd64
p205
tp206
(dp207
Vfeaturesets
p208
(lp209
Vnone
p210
aVrt
p211
asVkernel-arch
p212
Vx86
p213
ss(Vbuild
p214
g205
tp215
(dp216
Vdebug-info
p217
I01
sVimage-file
p218
Varch/x86/boot/bzImage
p219
sVsigned-code
p220
I00
sVvdso
p221
I01
ss(Vimage
p222
g205
tp223
(dp224
Vbootloaders
p225
(lp226
Vgrub-pc
p227
aVgrub-efi-amd64
p228
aVextlinux
p229
asVinstall-stem
p230
Vvmlinuz
p231
sVbreaks
p232
(lp233
Vxserver-xorg-input-vmmouse (<< 1:13.0.99)
p234
ass(Vrelations
p235
g205
tp236
(dp237
Vgcc-8
p238
Vgcc-8 (>= 8-20180123-1~) <!stage1 !cross !pkg.linux.nokernel>, gcc-8-x86-64-linux-gnu (>= 8-20180123-1~) <!stage1 cross !pkg.linux.nokernel>
p239
sVheaders%gcc-8
p240
Vlinux-compiler-gcc-8-x86
p241
ss(Vdescription
p242
g205
NVamd64
p243
tp244
(dp245
Vhardware
p246
V64-bit PCs
p247
sVhardware-long
p248
VPCs with AMD64, Intel 64 or VIA Nano processors
p249
ss(Vdescription
p250
g205
NVcloud-amd64
p251
tp252
(dp253
Vhardware
p254
Vx86-64 cloud
p255
sVhardware-long
p256
VAmazon EC2, Google Compute Engine and Microsoft Azure cloud platforms
p257
ss(Vbase
p258
g205
Vnone
p259
tp260
(dp261
Vflavours
p262
(lp263
Vamd64
p264
aVcloud-amd64
p265
ass(Vbase
p266
g205
Vrt
p267
tp268
(dp269
Vflavours
p270
(lp271
Vamd64
p272
ass(Vbase
p273
Varm64
p274
tp275
(dp276
Vkernel-arch
p277
Varm64
p278
sVfeaturesets
p279
(lp280
Vnone
p281
aVrt
p282
ass(Vbuild
p283
g274
tp284
(dp285
Vdebug-info
p286
I01
sVimage-file
p287
Varch/arm64/boot/Image
p288
sVsigned-code
p289
I00
sVvdso
p290
I01
ss(Vimage
p291
g274
tp292
(dp293
Vinstall-stem
p294
Vvmlinuz
p295
sVbreaks
p296
(lp297
Vlibmozjs185-1.0
p298
aVlibmozjs-24-0 (<< 24.2.0-5.1~)
p299
ass(Vdescription
p300
g274
NVarm64
p301
tp302
(dp303
Vhardware
p304
V64-bit ARMv8 machines
p305
ss(Vimage
p306
g274
NVarm64
p307
tp308
(dp309
s(Vbase
p310
g274
Vnone
p311
tp312
(dp313
Vflavours
p314
(lp315
Varm64
p316
ass(Vbase
p317
g274
Vrt
p318
tp319
(dp320
Vflavours
p321
(lp322
Varm64
p323
ass(Vbase
p324
Varm64ilp32
p325
tp326
(dp327
Vkernel-arch
p328
Varm64
p329
sVfeaturesets
p330
(lp331
ss(Vbase
p332
Varmel
p333
tp334
(dp335
Vkernel-arch
p336
Varm
p337
sg163
(lp338
g165
ass(Vbuild
p339
g333
tp340
(dp341
Vimage-file
p342
Varch/arm/boot/zImage
p343
sVuncompressed-image-file
p344
Varch/arm/boot/Image
p345
ss(Vimage
p346
g333
tp347
(dp348
Vinstall-stem
p349
Vvmlinuz
p350
ss(Vrelations
p351
g333
tp352
(dp353
Vheaders%gcc-8
p354
Vlinux-compiler-gcc-8-arm
p355
ss(Vdescription
p356
g333
NVmarvell
p357
tp358
(dp359
Vhardware
p360
VMarvell Kirkwood/Orion
p361
sVhardware-long
p362
VMarvell Kirkwood and Orion based systems (https://wiki.debian.org/ArmEabiPort#Supported_hardware)
p363
ss(Vdescription
p364
g333
NVrpi
p365
tp366
(dp367
Vhardware
p368
VRaspberry Pi and Pi Zero
p369
sVhardware-long
p370
VRaspberry Pi, Raspberry Pi Zero based systems
p371
ss(Vimage
p372
g333
NVmarvell
p373
tp374
(dp375
Vrecommends
p376
(lp377
Vu-boot-tools
p378
asVcheck-size
p379
I2729712
sVcheck-size-with-dtb
p380
I01
sVcheck-uncompressed-size
p381
I7340032
sVbreaks
p382
(lp383
Vflash-kernel (<< 3.57~)
p384
ass(g196
g333
g165
tp385
(dp386
g199
(lp387
Vmarvell
p388
aVrpi
p389
asg203
I01
ss(Vbase
p390
Varmhf
p391
tp392
(dp393
Vfeaturesets
p394
(lp395
Vnone
p396
aVrt
p397
asVkernel-arch
p398
Varm
p399
ss(Vbuild
p400
g391
tp401
(dp402
Vimage-file
p403
Varch/arm/boot/zImage
p404
sVvdso
p405
I01
ss(Vimage
p406
g391
tp407
(dp408
Vinstall-stem
p409
Vvmlinuz
p410
ss(Vrelations
p411
g391
tp412
(dp413
Vheaders%gcc-8
p414
Vlinux-compiler-gcc-8-arm
p415
ss(Vdescription
p416
g391
NVarmmp
p417
tp418
(dp419
Vhardware
p420
VARMv7 multiplatform compatible SoCs
p421
sVhardware-long
p422
VARMv7 multiplatform kernel. See\u000ahttps://wiki.debian.org/DebianKernel/ARMMP for details of supported\u000aplatforms
p423
ss(Vdescription
p424
g391
NVarmmp-lpae
p425
tp426
(dp427
Vhardware
p428
VARMv7 multiplatform compatible SoCs supporting LPAE
p429
sVhardware-long
p430
VARMv7 multiplatform kernel supporting LPAE. See\u000ahttps://wiki.debian.org/DebianKernel/ARMMP for details of supported\u000aplatforms.
p431
ss(Vbase
p432
g391
Vnone
p433
tp434
(dp435
Vflavours
p436
(lp437
Varmmp
p438
aVarmmp-lpae
p439
ass(Vbase
p440
g391
Vrt
p441
tp442
(dp443
Vflavours
p444
(lp445
Varmmp
p446
ass(Vbase
p447
Vhppa
p448
tp449
(dp450
Vkernel-arch
p451
Vparisc
p452
sg163
(lp453
g165
ass(Vbuild
p454
g448
tp455
(dp456
Vimage-file
p457
Varch/parisc/boot/bzImage
p458
sVdebug-info
p459
I00
ss(Vimage
p460
g448
tp461
(dp462
Vsuggests
p463
(lp464
Vpalo
p465
asVinstall-stem
p466
Vvmlinuz
p467
ss(Vdescription
p468
g448
NVparisc
p469
tp470
(dp471
Vhardware
p472
V32-bit PA-RISC
p473
sVhardware-long
p474
VHP PA-RISC 32-bit systems with max 4 GB RAM
p475
ss(Vbase
p476
g448
NVparisc64
p477
tp478
(dp479
Vcflags
p480
V-fno-cse-follow-jumps
p481
sVoverride-host-type
p482
Vhppa64-linux-gnu
p483
ss(Vdescription
p484
g448
NVparisc64
p485
tp486
(dp487
Vhardware
p488
V64-bit PA-RISC
p489
sVhardware-long
p490
VHP PA-RISC 64-bit systems with support for more than 4 GB RAM
p491
ss(Vrelations
p492
g448
tp493
(dp494
Vgcc-8
p495
Vgcc-8 <!stage1 !cross !pkg.linux.nokernel>, gcc-8-hppa-linux-gnu <!stage1 cross !pkg.linux.nokernel>, binutils-hppa64-linux-gnu <!stage1 !pkg.linux.nokernel>, gcc-8-hppa64-linux-gnu <!stage1 !pkg.linux.nokernel>
p496
ss(g196
g448
g165
tp497
(dp498
g199
(lp499
Vparisc
p500
aVparisc64
p501
asg203
I01
ss(Vbase
p502
Vi386
p503
tp504
(dp505
Vfeaturesets
p506
(lp507
Vnone
p508
aVrt
p509
asVkernel-arch
p510
Vx86
p511
ss(Vbuild
p512
g503
tp513
(dp514
Vimage-file
p515
Varch/x86/boot/bzImage
p516
sVsigned-code
p517
I00
sVvdso
p518
I01
ss(Vdescription
p519
g503
tp520
(dp521
Vpart-long-pae
p522
VThis kernel requires PAE (Physical Address Extension).\u000aThis feature is supported by the Intel Pentium Pro/II/III/4/4M/D, Xeon,\u000aCore and Atom; AMD Geode NX, Athlon (K7), Duron, Opteron, Sempron,\u000aTurion or Phenom; Transmeta Efficeon; VIA C7; and some other processors.
p523
ss(Vimage
p524
g503
tp525
(dp526
Vbootloaders
p527
(lp528
Vgrub-pc
p529
aVgrub-efi-ia32
p530
aVextlinux
p531
asVinstall-stem
p532
Vvmlinuz
p533
sVbreaks
p534
(lp535
Vxserver-xorg-input-vmmouse (<< 1:13.0.99)
p536
ass(Vrelations
p537
g503
tp538
(dp539
Vgcc-8
p540
Vgcc-8 (>= 8-20180123-1~) <!stage1 !cross !pkg.linux.nokernel>, gcc-8-i686-linux-gnu (>= 8-20180123-1~) <!stage1 cross !pkg.linux.nokernel>
p541
sVheaders%gcc-8
p542
Vlinux-compiler-gcc-8-x86
p543
ss(Vdescription
p544
g503
NV686
p545
tp546
(dp547
Vhardware
p548
Volder PCs
p549
sVhardware-long
p550
VPCs with one or more processors not supporting PAE
p551
ss(Vbuild
p552
g503
NV686-pae
p553
tp554
(dp555
Vdebug-info
p556
I01
ss(Vdescription
p557
g503
NV686-pae
p558
tp559
(dp560
Vhardware
p561
Vmodern PCs
p562
sVhardware-long
p563
VPCs with one or more processors supporting PAE
p564
sVparts
p565
(lp566
Vpae
p567
ass(Vbase
p568
g503
Vnone
p569
tp570
(dp571
Vflavours
p572
(lp573
V686
p574
aV686-pae
p575
ass(Vbase
p576
g503
Vrt
p577
tp578
(dp579
Vflavours
p580
(lp581
V686-pae
p582
ass(Vbase
p583
Via64
p584
tp585
(dp586
Vkernel-arch
p587
Via64
p588
sg163
(lp589
g165
ass(Vbuild
p590
g584
tp591
(dp592
Vimage-file
p593
Vvmlinux.gz
p594
ss(Vimage
p595
g584
tp596
(dp597
Vbootloaders
p598
(lp599
Vgrub-efi-ia64
p600
asVinstall-stem
p601
Vvmlinuz
p602
ss(Vdescription
p603
g584
NVitanium
p604
tp605
(dp606
Vhardware
p607
VItanium (Merced)
p608
sVhardware-long
p609
Vsystems with original Itanium (Merced) processors
p610
ss(Vdescription
p611
g584
NVmckinley
p612
tp613
(dp614
Vhardware
p615
VItanium 2+
p616
sVhardware-long
p617
Vsystems with Itanium 2 or 9300/9500/9700-series processors
p618
ss(g196
g584
g165
tp619
(dp620
g199
(lp621
Vitanium
p622
aVmckinley
p623
asg203
I01
ss(Vbase
p624
Vm68k
p625
tp626
(dp627
Vcflags
p628
V-ffreestanding
p629
sVkernel-arch
p630
Vm68k
p631
sg163
(lp632
g165
ass(Vbuild
p633
g625
tp634
(dp635
Vimage-file
p636
Vvmlinux
p637
ss(Vimage
p638
g625
tp639
(dp640
Vsuggests
p641
(lp642
Vvmelilo
p643
aVfdutils
p644
asVinstall-stem
p645
Vvmlinux
p646
ss(Vdescription
p647
g625
NVm68k
p648
tp649
(dp650
Vhardware
p651
VMotorola MC68020+ family
p652
ss(g196
g625
g165
tp653
(dp654
g199
(lp655
Vm68k
p656
asg203
I01
ss(Vbase
p657
Vmips
p658
tp659
(dp660
Vkernel-arch
p661
Vmips
p662
sg163
(lp663
g165
ass(Vbuild
p664
g658
tp665
(dp666
Vimage-file
p667
Vvmlinux
p668
ss(Vimage
p669
g658
tp670
(dp671
Vinstall-stem
p672
Vvmlinux
p673
ss(Vdescription
p674
g658
NV4kc-malta
p675
tp676
(dp677
Vhardware
p678
VMIPS Malta
p679
sVhardware-long
p680
VMIPS Malta boards
p681
ss(Vimage
p682
g658
NV4kc-malta
p683
tp684
(dp685
Vconfigs
p686
(lp687
Vkernelarch-mips/config.malta
p688
aVkernelarch-mips/config.mips32r2
p689
ass(Vdescription
p690
g658
NV5kc-malta
p691
tp692
(dp693
Vhardware
p694
VMIPS Malta (64-bit)
p695
sVhardware-long
p696
VMIPS Malta boards (64-bit)
p697
ss(Vimage
p698
g658
NV5kc-malta
p699
tp700
(dp701
Vconfigs
p702
(lp703
Vkernelarch-mips/config.malta
p704
aVkernelarch-mips/config.mips64r2
p705
ass(Vdescription
p706
g658
NVocteon
p707
tp708
(dp709
Vhardware
p710
VOcteon
p711
sVhardware-long
p712
VCavium Networks Octeon
p713
ss(Vimage
p714
g658
NVocteon
p715
tp716
(dp717
Vconfigs
p718
(lp719
Vkernelarch-mips/config.octeon
p720
ass(g196
g658
g165
tp721
(dp722
g199
(lp723
V4kc-malta
p724
aV5kc-malta
p725
aVocteon
p726
asg203
I01
ss(Vbase
p727
Vmips64
p728
tp729
(dp730
Vkernel-arch
p731
Vmips
p732
sg163
(lp733
g165
ass(Vbuild
p734
g728
tp735
(dp736
Vimage-file
p737
Vvmlinux
p738
ss(Vimage
p739
g728
tp740
(dp741
Vinstall-stem
p742
Vvmlinux
p743
ss(Vdescription
p744
g728
NV5kc-malta
p745
tp746
(dp747
Vhardware
p748
VMIPS Malta
p749
sVhardware-long
p750
VMIPS Malta boards
p751
ss(Vimage
p752
g728
NV5kc-malta
p753
tp754
(dp755
Vconfigs
p756
(lp757
Vkernelarch-mips/config.malta
p758
aVkernelarch-mips/config.mips64r2
p759
ass(Vdescription
p760
g728
NVocteon
p761
tp762
(dp763
Vhardware
p764
VOcteon
p765
sVhardware-long
p766
VCavium Networks Octeon
p767
ss(Vimage
p768
g728
NVocteon
p769
tp770
(dp771
Vconfigs
p772
(lp773
Vkernelarch-mips/config.octeon
p774
ass(g196
g728
g165
tp775
(dp776
g199
(lp777
V5kc-malta
p778
aVocteon
p779
asg203
I01
ss(Vbase
p780
Vmips64el
p781
tp782
(dp783
Vkernel-arch
p784
Vmips
p785
sg163
(lp786
g165
ass(Vbuild
p787
g781
tp788
(dp789
Vimage-file
p790
Vvmlinux
p791
ss(Vimage
p792
g781
tp793
(dp794
Vinstall-stem
p795
Vvmlinux
p796
ss(Vdescription
p797
g781
NV5kc-malta
p798
tp799
(dp800
Vhardware
p801
VMIPS Malta
p802
sVhardware-long
p803
VMIPS Malta boards
p804
ss(Vimage
p805
g781
NV5kc-malta
p806
tp807
(dp808
Vconfigs
p809
(lp810
Vkernelarch-mips/config.malta
p811
aVkernelarch-mips/config.mips64r2
p812
ass(Vdescription
p813
g781
NVloongson-3
p814
tp815
(dp816
Vhardware
p817
VLoongson 3A/3B
p818
sVhardware-long
p819
VLoongson 3A or 3B based systems (e.g. from Loongson or Lemote)
p820
ss(Vimage
p821
g781
NVloongson-3
p822
tp823
(dp824
Vconfigs
p825
(lp826
Vkernelarch-mips/config.loongson-3
p827
ass(Vdescription
p828
g781
NVocteon
p829
tp830
(dp831
Vhardware
p832
VOcteon
p833
sVhardware-long
p834
VCavium Networks Octeon
p835
ss(Vimage
p836
g781
NVocteon
p837
tp838
(dp839
Vconfigs
p840
(lp841
Vkernelarch-mips/config.octeon
p842
ass(g196
g781
g165
tp843
(dp844
g199
(lp845
V5kc-malta
p846
aVloongson-3
p847
aVocteon
p848
asg203
I01
ss(Vbase
p849
Vmips64r6
p850
tp851
(dp852
Vkernel-arch
p853
Vmips
p854
sg163
(lp855
g165
ass(Vbuild
p856
g850
tp857
(dp858
Vimage-file
p859
Vvmlinux
p860
ss(Vimage
p861
g850
tp862
(dp863
Vinstall-stem
p864
Vvmlinux
p865
ss(Vdescription
p866
g850
NVmips64r6
p867
tp868
(dp869
Vhardware
p870
VMIPS R6 (64 bit, big endian)
p871
sVhardware-long
p872
VMIPS R6 (64 bit, big endian)
p873
ss(Vimage
p874
g850
NVmips64r6
p875
tp876
(dp877
Vconfigs
p878
(lp879
Vkernelarch-mips/config.boston
p880
aVkernelarch-mips/config.mips64r6
p881
ass(g196
g850
g165
tp882
(dp883
g199
(lp884
Vmips64r6
p885
asg203
I01
ss(Vbase
p886
Vmips64r6el
p887
tp888
(dp889
Vkernel-arch
p890
Vmips
p891
sg163
(lp892
g165
ass(Vbuild
p893
g887
tp894
(dp895
Vimage-file
p896
Vvmlinux
p897
ss(Vimage
p898
g887
tp899
(dp900
Vinstall-stem
p901
Vvmlinux
p902
ss(Vdescription
p903
g887
NVmips64r6el
p904
tp905
(dp906
Vhardware
p907
VMIPS R6 (64 bit, little endian)
p908
sVhardware-long
p909
VMIPS R6 (64 bit, little endian)
p910
ss(Vimage
p911
g887
NVmips64r6el
p912
tp913
(dp914
Vconfigs
p915
(lp916
Vkernelarch-mips/config.boston
p917
aVkernelarch-mips/config.mips64r6
p918
ass(g196
g887
g165
tp919
(dp920
g199
(lp921
Vmips64r6el
p922
asg203
I01
ss(Vbase
p923
Vmipsel
p924
tp925
(dp926
Vkernel-arch
p927
Vmips
p928
sg163
(lp929
g165
ass(Vbuild
p930
g924
tp931
(dp932
Vimage-file
p933
Vvmlinux
p934
ss(Vimage
p935
g924
tp936
(dp937
Vinstall-stem
p938
Vvmlinux
p939
ss(Vdescription
p940
g924
NV4kc-malta
p941
tp942
(dp943
Vhardware
p944
VMIPS Malta
p945
sVhardware-long
p946
VMIPS Malta boards
p947
ss(Vimage
p948
g924
NV4kc-malta
p949
tp950
(dp951
Vconfigs
p952
(lp953
Vkernelarch-mips/config.malta
p954
aVkernelarch-mips/config.mips32r2
p955
ass(Vdescription
p956
g924
NV5kc-malta
p957
tp958
(dp959
Vhardware
p960
VMIPS Malta (64-bit)
p961
sVhardware-long
p962
VMIPS Malta boards (64-bit)
p963
ss(Vimage
p964
g924
NV5kc-malta
p965
tp966
(dp967
Vconfigs
p968
(lp969
Vkernelarch-mips/config.malta
p970
aVkernelarch-mips/config.mips64r2
p971
ass(Vdescription
p972
g924
NVloongson-3
p973
tp974
(dp975
Vhardware
p976
VLoongson 3A/3B
p977
sVhardware-long
p978
VLoongson 3A or 3B based systems (e.g. from Loongson or Lemote)
p979
ss(Vimage
p980
g924
NVloongson-3
p981
tp982
(dp983
Vconfigs
p984
(lp985
Vkernelarch-mips/config.loongson-3
p986
ass(Vdescription
p987
g924
NVocteon
p988
tp989
(dp990
Vhardware
p991
VOcteon
p992
sVhardware-long
p993
VCavium Networks Octeon
p994
ss(Vimage
p995
g924
NVocteon
p996
tp997
(dp998
Vconfigs
p999
(lp1000
Vkernelarch-mips/config.octeon
p1001
ass(g196
g924
g165
tp1002
(dp1003
g199
(lp1004
V4kc-malta
p1005
aV5kc-malta
p1006
aVloongson-3
p1007
aVocteon
p1008
asg203
I01
ss(Vbase
p1009
Vmipsn32
p1010
tp1011
(dp1012
Vkernel-arch
p1013
Vmips
p1014
sVfeaturesets
p1015
(lp1016
ss(Vbase
p1017
Vmipsn32el
p1018
tp1019
(dp1020
Vkernel-arch
p1021
Vmips
p1022
sVfeaturesets
p1023
(lp1024
ss(Vbase
p1025
Vmipsn32r6
p1026
tp1027
(dp1028
Vkernel-arch
p1029
Vmips
p1030
sVfeaturesets
p1031
(lp1032
ss(Vbase
p1033
Vmipsn32r6el
p1034
tp1035
(dp1036
Vkernel-arch
p1037
Vmips
p1038
sVfeaturesets
p1039
(lp1040
ss(Vbase
p1041
Vmipsr6
p1042
tp1043
(dp1044
Vkernel-arch
p1045
Vmips
p1046
sg163
(lp1047
g165
ass(Vbuild
p1048
g1042
tp1049
(dp1050
Vimage-file
p1051
Vvmlinux
p1052
ss(Vimage
p1053
g1042
tp1054
(dp1055
Vinstall-stem
p1056
Vvmlinux
p1057
ss(Vdescription
p1058
g1042
NVmips32r6
p1059
tp1060
(dp1061
Vhardware
p1062
VMIPS R6 (32 bit, big endian)
p1063
sVhardware-long
p1064
VMIPS R6 (32 bit, big endian)
p1065
ss(Vimage
p1066
g1042
NVmips32r6
p1067
tp1068
(dp1069
Vconfigs
p1070
(lp1071
Vkernelarch-mips/config.boston
p1072
aVkernelarch-mips/config.mips32r6
p1073
ass(Vdescription
p1074
g1042
NVmips64r6
p1075
tp1076
(dp1077
Vhardware
p1078
VMIPS R6 (64 bit, big endian)
p1079
sVhardware-long
p1080
VMIPS R6 (64 bit, big endian)
p1081
ss(Vimage
p1082
g1042
NVmips64r6
p1083
tp1084
(dp1085
Vconfigs
p1086
(lp1087
Vkernelarch-mips/config.boston
p1088
aVkernelarch-mips/config.mips64r6
p1089
ass(g196
g1042
g165
tp1090
(dp1091
g199
(lp1092
Vmips32r6
p1093
aVmips64r6
p1094
asg203
I01
ss(Vbase
p1095
Vmipsr6el
p1096
tp1097
(dp1098
Vkernel-arch
p1099
Vmips
p1100
sg163
(lp1101
g165
ass(Vbuild
p1102
g1096
tp1103
(dp1104
Vimage-file
p1105
Vvmlinux
p1106
ss(Vimage
p1107
g1096
tp1108
(dp1109
Vinstall-stem
p1110
Vvmlinux
p1111
ss(Vdescription
p1112
g1096
NVmips32r6el
p1113
tp1114
(dp1115
Vhardware
p1116
VMIPS R6 (32 bit, little endian)
p1117
sVhardware-long
p1118
VMIPS R6 (32 bit, little endian)
p1119
ss(Vimage
p1120
g1096
NVmips32r6el
p1121
tp1122
(dp1123
Vconfigs
p1124
(lp1125
Vkernelarch-mips/config.boston
p1126
aVkernelarch-mips/config.mips32r6
p1127
ass(Vdescription
p1128
g1096
NVmips64r6el
p1129
tp1130
(dp1131
Vhardware
p1132
VMIPS R6 (64 bit, little endian)
p1133
sVhardware-long
p1134
VMIPS R6 (64 bit, little endian)
p1135
ss(Vimage
p1136
g1096
NVmips64r6el
p1137
tp1138
(dp1139
Vconfigs
p1140
(lp1141
Vkernelarch-mips/config.boston
p1142
aVkernelarch-mips/config.mips64r6
p1143
ass(g196
g1096
g165
tp1144
(dp1145
g199
(lp1146
Vmips32r6el
p1147
aVmips64r6el
p1148
asg203
I01
ss(Vbase
p1149
Vpowerpc
p1150
tp1151
(dp1152
Vkernel-arch
p1153
Vpowerpc
p1154
sg163
(lp1155
g165
ass(Vbuild
p1156
g1150
tp1157
(dp1158
Vimage-file
p1159
Vvmlinux
p1160
sVvdso
p1161
I01
ss(Vimage
p1162
g1150
tp1163
(dp1164
Vconfigs
p1165
(lp1166
sVbootloaders
p1167
(lp1168
Vgrub-ieee1275
p1169
asVsuggests
p1170
(lp1171
Vmkvmlinuz
p1172
asVinstall-stem
p1173
Vvmlinux
p1174
ss(Vdescription
p1175
g1150
NVpowerpc
p1176
tp1177
(dp1178
Vhardware
p1179
Vuniprocessor 32-bit PowerPC
p1180
ss(Vdescription
p1181
g1150
NVpowerpc-smp
p1182
tp1183
(dp1184
Vhardware
p1185
Vmultiprocessor 32-bit PowerPC
p1186
ss(Vimage
p1187
g1150
NVpowerpc-smp
p1188
tp1189
(dp1190
Vconfigs
p1191
(lp1192
Vpowerpc/config.powerpc
p1193
aVpowerpc/config.powerpc-smp
p1194
ass(Vdescription
p1195
g1150
NVpowerpc64
p1196
tp1197
(dp1198
Vhardware
p1199
V64-bit PowerPC
p1200
ss(Vimage
p1201
g1150
NVpowerpc64
p1202
tp1203
(dp1204
Vconfigs
p1205
(lp1206
Vkernelarch-powerpc/config-arch-64
p1207
aVkernelarch-powerpc/config-arch-64-be
p1208
ass(g196
g1150
g165
tp1209
(dp1210
g199
(lp1211
Vpowerpc
p1212
aVpowerpc-smp
p1213
aVpowerpc64
p1214
asg203
I01
ss(Vbase
p1215
Vpowerpcspe
p1216
tp1217
(dp1218
Vkernel-arch
p1219
Vpowerpc
p1220
sg163
(lp1221
g165
ass(Vbuild
p1222
g1216
tp1223
(dp1224
Vimage-file
p1225
Vvmlinux
p1226
sVvdso
p1227
I01
ss(Vimage
p1228
g1216
tp1229
(dp1230
Vsuggests
p1231
(lp1232
Vmkvmlinuz
p1233
asVinstall-stem
p1234
Vvmlinux
p1235
ss(Vdescription
p1236
g1216
tp1237
(dp1238
Vhardware
p1239
V32-bit PowerPC with SPE (instead of AltiVec) with SMP support
p1240
ss(g196
g1216
g165
tp1241
(dp1242
g199
(lp1243
Vpowerpcspe
p1244
asg203
I01
ss(Vbase
p1245
Vppc64
p1246
tp1247
(dp1248
Vkernel-arch
p1249
Vpowerpc
p1250
sg163
(lp1251
g165
ass(Vbuild
p1252
g1246
tp1253
(dp1254
Vimage-file
p1255
Vvmlinux
p1256
sVvdso
p1257
I01
ss(Vimage
p1258
g1246
tp1259
(dp1260
Vconfigs
p1261
(lp1262
sVbootloaders
p1263
(lp1264
Vgrub-ieee1275
p1265
asVsuggests
p1266
(lp1267
Vmkvmlinuz
p1268
asVinstall-stem
p1269
Vvmlinux
p1270
ss(Vdescription
p1271
g1246
NVpowerpc64
p1272
tp1273
(dp1274
Vhardware
p1275
V64-bit PowerPC
p1276
ss(Vimage
p1277
g1246
NVpowerpc64
p1278
tp1279
(dp1280
Vconfigs
p1281
(lp1282
Vkernelarch-powerpc/config-arch-64
p1283
aVkernelarch-powerpc/config-arch-64-be
p1284
ass(g196
g1246
g165
tp1285
(dp1286
g199
(lp1287
Vpowerpc64
p1288
asg203
I01
ss(Vbase
p1289
Vppc64el
p1290
tp1291
(dp1292
Vkernel-arch
p1293
Vpowerpc
p1294
sg163
(lp1295
g165
ass(Vbuild
p1296
g1290
tp1297
(dp1298
Vimage-file
p1299
Vvmlinux
p1300
sVvdso
p1301
I01
ss(Vimage
p1302
g1290
tp1303
(dp1304
Vconfigs
p1305
(lp1306
sVbootloaders
p1307
(lp1308
Vgrub-ieee1275
p1309
asVsuggests
p1310
(lp1311
Vmkvmlinuz
p1312
asVinstall-stem
p1313
Vvmlinux
p1314
ss(Vdescription
p1315
g1290
NVpowerpc64le
p1316
tp1317
(dp1318
Vhardware
p1319
VLittle-endian 64-bit PowerPC
p1320
ss(Vimage
p1321
g1290
NVpowerpc64le
p1322
tp1323
(dp1324
Vconfigs
p1325
(lp1326
Vkernelarch-powerpc/config-arch-64
p1327
aVkernelarch-powerpc/config-arch-64-le
p1328
ass(g196
g1290
g165
tp1329
(dp1330
g199
(lp1331
Vpowerpc64le
p1332
asg203
I01
ss(Vbase
p1333
Vriscv64
p1334
tp1335
(dp1336
Vkernel-arch
p1337
Vriscv
p1338
sVfeaturesets
p1339
(lp1340
Vnone
p1341
ass(Vbuild
p1342
g1334
tp1343
(dp1344
Vimage-file
p1345
Varch/riscv/boot/Image
p1346
sVvdso
p1347
I01
ss(Vimage
p1348
g1334
tp1349
(dp1350
Vinstall-stem
p1351
Vvmlinux
p1352
ss(Vdescription
p1353
g1334
NVriscv64
p1354
tp1355
(dp1356
Vhardware
p1357
V64-bit RISC-V platforms
p1358
sVhardware-long
p1359
V64-bit RISC-V platforms
p1360
ss(Vbase
p1361
g1334
Vnone
p1362
tp1363
(dp1364
Vflavours
p1365
(lp1366
Vriscv64
p1367
ass(Vbase
p1368
Vs390
p1369
tp1370
(dp1371
Vkernel-arch
p1372
Vs390
p1373
sVfeaturesets
p1374
(lp1375
ss(Vbase
p1376
Vs390x
p1377
tp1378
(dp1379
Vkernel-arch
p1380
Vs390
p1381
sg163
(lp1382
g165
ass(Vbuild
p1383
g1377
tp1384
(dp1385
Vimage-file
p1386
Varch/s390/boot/bzImage
p1387
sVvdso
p1388
I01
ss(Vimage
p1389
g1377
tp1390
(dp1391
Vbootloaders
p1392
(lp1393
Vs390-tools
p1394
asVinstall-stem
p1395
Vvmlinuz
p1396
ss(Vrelations
p1397
g1377
tp1398
(dp1399
Vheaders%gcc-8
p1400
Vlinux-compiler-gcc-8-s390
p1401
ss(Vbuild
p1402
g1377
NVs390x
p1403
tp1404
(dp1405
Vdebug-info
p1406
I01
ss(Vdescription
p1407
g1377
NVs390x
p1408
tp1409
(dp1410
Vhardware
p1411
VIBM zSeries
p1412
ss(g196
g1377
g165
tp1413
(dp1414
g199
(lp1415
Vs390x
p1416
asg203
I01
ss(Vbase
p1417
Vsh3
p1418
tp1419
(dp1420
Vkernel-arch
p1421
Vsh
p1422
sVfeaturesets
p1423
(lp1424
ss(Vbase
p1425
Vsh4
p1426
tp1427
(dp1428
Vkernel-arch
p1429
Vsh
p1430
sg163
(lp1431
g165
ass(Vbuild
p1432
g1426
tp1433
(dp1434
Vimage-file
p1435
Varch/sh/boot/zImage
p1436
ss(Vimage
p1437
g1426
tp1438
(dp1439
Vinstall-stem
p1440
Vvmlinuz
p1441
ss(Vdescription
p1442
g1426
NVsh7751r
p1443
tp1444
(dp1445
Vhardware
p1446
Vsh7751r
p1447
sVhardware-long
p1448
VRenesas SH7751R R2D plus board
p1449
ss(Vdescription
p1450
g1426
NVsh7785lcr
p1451
tp1452
(dp1453
Vhardware
p1454
Vsh7785lcr
p1455
sVhardware-long
p1456
VRenesas SH7785 reference board
p1457
ss(Vimage
p1458
g1426
NVsh7785lcr
p1459
tp1460
(dp1461
Vrecommends
p1462
(lp1463
Vu-boot-tools
p1464
asVcheck-size
p1465
I4194304
ss(g196
g1426
g165
tp1466
(dp1467
g199
(lp1468
Vsh7751r
p1469
aVsh7785lcr
p1470
asg203
I01
ss(Vbase
p1471
Vsparc
p1472
tp1473
(dp1474
Vkernel-arch
p1475
Vsparc
p1476
sVfeaturesets
p1477
(lp1478
ss(Vbase
p1479
Vsparc64
p1480
tp1481
(dp1482
Vkernel-arch
p1483
Vsparc
p1484
sg163
(lp1485
g165
ass(Vbuild
p1486
g1480
tp1487
(dp1488
Vimage-file
p1489
Vvmlinux
p1490
ss(Vimage
p1491
g1480
tp1492
(dp1493
Vconfigs
p1494
(lp1495
sVbootloaders
p1496
(lp1497
Vgrub-ieee1275
p1498
asVsuggests
p1499
(lp1500
Vfdutils
p1501
asVinstall-stem
p1502
Vvmlinux
p1503
ss(Vdescription
p1504
g1480
NVsparc64
p1505
tp1506
(dp1507
Vhardware
p1508
Vuniprocessor 64-bit UltraSPARC
p1509
ss(Vimage
p1510
g1480
NVsparc64
p1511
tp1512
(dp1513
Vconfigs
p1514
(lp1515
Vkernelarch-sparc/config-up
p1516
ass(Vdescription
p1517
g1480
NVsparc64-smp
p1518
tp1519
(dp1520
Vhardware
p1521
Vmultiprocessor 64-bit UltraSPARC
p1522
ss(Vimage
p1523
g1480
NVsparc64-smp
p1524
tp1525
(dp1526
Vconfigs
p1527
(lp1528
Vkernelarch-sparc/config-smp
p1529
ass(g196
g1480
g165
tp1530
(dp1531
g199
(lp1532
Vsparc64
p1533
aVsparc64-smp
p1534
asg203
I01
ss(Vbase
p1535
Vx32
p1536
tp1537
(dp1538
Vkernel-arch
p1539
Vx86
p1540
sVfeaturesets
p1541
(lp1542
ss(Vabi
p1543
NVrt
p1544
tp1545
(dp1546
Vignore-changes
p1547
(lp1548
V*
p1549
ass(Vdescription
p1550
Ng1544
tp1551
(dp1552
Vpart-long-rt
p1553
VThis kernel includes the PREEMPT_RT realtime patch set.
p1554
sVpart-short-rt
p1555
VPREEMPT_RT
p1556
sVparts
p1557
(lp1558
Vrt
p1559
ass(Vversion
p1560
tp1561
(dp1562
Vsource
p1563
V5.2.7-2parrot1
p1564
sVupstream
p1565
V5.2
p1566
sVabiname_base
p1567
V5.2.0
p1568
sVabiname
p1569
V5.2.0-2parrot1
p1570
ss.