cdebian_linux.config
ConfigCore
p0
(tRp1
(Vabi
p2
tp3
(dp4
Vabiname
p5
V2parrot1
p6
sVignore-changes
p7
(lp8
V__cpuhp_*
p9
aV__udp_gso_segment
p10
aVbpf_analyzer
p11
aVbpf_offload_dev_create
p12
aVbpf_verifier_log_write
p13
aVcxl_*
p14
aVdax_flush
p15
aVieee80211_nullfunc_get
p16
aVinet_add_protocol
p17
aVinet_del_protocol
p18
aViommu_device_*
p19
aVmm_iommu_*
p20
aVmv_mbus_*
p21
aVperf_*
p22
aVregister_cxl_calls
p23
aVregister_key_type
p24
aVunregister_cxl_calls
p25
aV*_hw_breakpoint
p26
aVmodule:drivers/crypto/ccp/*
p27
aVmodule:drivers/hv/*
p28
aVmodule:drivers/gpu/drm/sun4i/*
p29
aVmodule:drivers/iio/**
p30
aVmodule:drivers/misc/cxl/*
p31
aVmodule:drivers/misc/lis3lv02d/*
p32
aVmodule:drivers/mtd/nand/*
p33
aVmodule:drivers/net/ethernet/**
p34
aVmodule:drivers/net/wireless/**
p35
aVmodule:drivers/nvdimm/*
p36
aVmodule:drivers/nvme/**
p37
aVmodule:drivers/power/supply/bq27xxx_battery
p38
aVmodule:drivers/scsi/cxgbi/*
p39
aVmodule:drivers/scsi/libiscs*
p40
aVmodule:drivers/scsi/qla2xxx/qla2xxx
p41
aVmodule:drivers/scsi/ufs/*
p42
aVmodule:drivers/target/**
p43
aVmodule:drivers/usb/chipidea/**
p44
aVmodule:drivers/usb/gadget/**
p45
aVmodule:drivers/usb/host/**
p46
aVmodule:drivers/usb/musb/**
p47
aVmodule:fs/nfs/**
p48
aVmodule:net/ceph/libceph
p49
aVmodule:net/l2tp/**
p50
aVmodule:net/openvswitch/**
p51
aVmodule:net/rxrpc/rxrpc
p52
aVmodule:net/sctp/**
p53
aVmodule:sound/core/seq/**
p54
aVmodule:sound/firewire/snd-firewire-lib
p55
aVmodule:sound/pci/hda/*
p56
aVbtree_*
p57
aVvisitor*
p58
aVcan_rx_register
p59
aVip6_xmit
p60
aVmodule:net/dccp/dccp
p61
aVmodule:net/rds/rds
p62
aVdevfreq_*
p63
aVdevm_devfreq_*
p64
aVupdate_devfreq
p65
aVmodule:drivers/infiniband/**
p66
aVacpi_ec_add_query_handler
p67
aVacpi_ec_remove_query_handler
p68
aVfirst_ec
p69
aVdebugfs_create_automount
p70
aVmodule:drivers/iio/imu/inv_mpu6050/*
p71
aVdrm_crtc_accurate_vblank_count
p72
aVacpi_nfit_desc_init
p73
aVacpi_nfit_init
p74
aVloop_register_transfer
p75
aVxen_xlate_*
p76
aVnf_nat_masquerade_ipv4_register_notifier
p77
aVnf_nat_masquerade_ipv6_register_notifier
p78
aVdfltcc_*
p79
aVmodule:drivers/scsi/hisi_sas/*
p80
aV__gfn_*
p81
aV__kvmhv_*
p82
aV__kvm_*
p83
aV__xive_vm_h_*
p84
aVgfn_*
p85
aVh_ipi_redirect
p86
aVhalt_poll_ns*
p87
aVkvm_*
p88
aVkvmhv_*
p89
aVkvmppc_*
p90
aVmark_page_dirty
p91
aVvcpu_*
p92
aVmodule:arch/powerpc/kvm/*
p93
aVmodule:arch/s390/kvm/*
p94
aVmodule:arch/x86/kvm/*
p95
aVuv_info
p96
aVxhci_init_driver
p97
ass(Vbase
p98
tp99
(dp100
Varches
p101
(lp102
Valpha
p103
aVamd64
p104
aVarm64
p105
aVarm64ilp32
p106
aVarmel
p107
aVarmhf
p108
aVhppa
p109
aVi386
p110
aVia64
p111
aVm68k
p112
aVmips
p113
aVmips64
p114
aVmips64el
p115
aVmips64r6
p116
aVmips64r6el
p117
aVmipsel
p118
aVmipsn32
p119
aVmipsn32el
p120
aVmipsn32r6
p121
aVmipsn32r6el
p122
aVmipsr6
p123
aVmipsr6el
p124
aVpowerpc
p125
aVppc64
p126
aVppc64el
p127
aVriscv64
p128
aVs390
p129
aVs390x
p130
aVsh3
p131
aVsh4
p132
aVsparc
p133
aVsparc64
p134
aVx32
p135
asVcompiler
p136
Vgcc-11
p137
sVfeaturesets
p138
(lp139
Vnone
p140
aVrt
p141
ass(Vbuild
p142
tp143
(dp144
Vsigned-code
p145
I00
sVtrusted-certs
p146
Vdebian/certs/debian-uefi-certs.pem
p147
ss(Vbase
p148
NVrt
p149
tp150
(dp151
Venabled
p152
I01
ss(Vdescription
p153
tp154
(dp155
Vpart-long-up
p156
VThis kernel is not suitable for SMP (multi-processor,\u000amulti-core or hyper-threaded) systems.
p157
ss(Vimage
p158
tp159
(dp160
Vinitramfs-generators
p161
(lp162
Vinitramfs-tools
p163
aVinitramfs-fallback
p164
asVbreaks
p165
(lp166
Vfwupdate (<< 12-7)
p167
aVwireless-regdb (<< 2019.06.03-1~)
p168
asVrecommends
p169
(lp170
Vapparmor
p171
ass(Vrelations
p172
tp173
(dp174
Vgcc-11
p175
Vgcc-11 <!stage1 !cross !pkg.linux.nokernel>, gcc-11-@gnu-type-package@ <!stage1 cross !pkg.linux.nokernel>
p176
sVinitramfs-fallback
p177
Vlinux-initramfs-tool
p178
sVinitramfs-tools
p179
Vinitramfs-tools (>= 0.120+deb8u2)
p180
ss(Vbase
p181
Valpha
p182
tp183
(dp184
Vdefault-flavour
p185
Valpha-smp
p186
sVkernel-arch
p187
Valpha
p188
sVfeaturesets
p189
(lp190
Vnone
p191
ass(Vbuild
p192
g182
tp193
(dp194
Vimage-file
p195
Varch/alpha/boot/vmlinux.gz
p196
ss(Vimage
p197
g182
tp198
(dp199
Vsuggests
p200
(lp201
Vaboot
p202
aVfdutils
p203
asVinstall-stem
p204
Vvmlinuz
p205
ss(Vdescription
p206
g182
NValpha-generic
p207
tp208
(dp209
Vhardware
p210
VAlpha
p211
sVhardware-long
p212
VDEC Alpha systems with extended kernel start address (Wildfire, Titan, Marvel)
p213
ss(Vdescription
p214
g182
NValpha-smp
p215
tp216
(dp217
Vhardware
p218
VAlpha SMP
p219
sVhardware-long
p220
VDEC Alpha SMP systems with extended kernel start address (Wildfire, Titan, Marvel)
p221
ss(Vbase
p222
g182
g191
tp223
(dp224
Vflavours
p225
(lp226
Valpha-generic
p227
aValpha-smp
p228
asVimplicit-flavour
p229
I01
ss(Vbase
p230
Vamd64
p231
tp232
(dp233
Vfeaturesets
p234
(lp235
Vnone
p236
aVrt
p237
asVkernel-arch
p238
Vx86
p239
ss(Vbuild
p240
g231
tp241
(dp242
Vimage-file
p243
Varch/x86/boot/bzImage
p244
sVsigned-code
p245
I00
sVvdso
p246
I01
ss(Vimage
p247
g231
tp248
(dp249
Vbootloaders
p250
(lp251
Vgrub-pc
p252
aVgrub-efi-amd64
p253
aVextlinux
p254
asVinstall-stem
p255
Vvmlinuz
p256
sVbreaks
p257
(lp258
Vxserver-xorg-input-vmmouse (<< 1:13.0.99)
p259
ass(Vrelations
p260
g231
tp261
(dp262
Vheaders%gcc-11
p263
Vlinux-compiler-gcc-11-x86
p264
ss(Vdescription
p265
g231
NVamd64
p266
tp267
(dp268
Vhardware
p269
V64-bit PCs
p270
sVhardware-long
p271
VPCs with AMD64, Intel 64 or VIA Nano processors
p272
ss(Vdescription
p273
g231
NVcloud-amd64
p274
tp275
(dp276
Vhardware
p277
Vx86-64 cloud
p278
sVhardware-long
p279
Vcloud platforms including Amazon EC2, Microsoft Azure, and Google Compute Engine
p280
ss(Vbase
p281
g231
Vnone
p282
tp283
(dp284
Vflavours
p285
(lp286
Vamd64
p287
aVcloud-amd64
p288
asVdefault-flavour
p289
Vamd64
p290
sVquick-flavour
p291
Vcloud-amd64
p292
ss(Vimage
p293
g231
g282
Vcloud-amd64
p294
tp295
(dp296
Vconfigs
p297
(lp298
Vconfig.cloud
p299
aVamd64/config.cloud-amd64
p300
ass(Vbase
p301
g231
Vrt
p302
tp303
(dp304
Vflavours
p305
(lp306
Vamd64
p307
ass(Vbase
p308
Varm64
p309
tp310
(dp311
Vcross-compile-compat
p312
Varm-linux-gnueabihf-
p313
sVkernel-arch
p314
Varm64
p315
sVfeaturesets
p316
(lp317
Vnone
p318
aVrt
p319
ass(Vbuild
p320
g309
tp321
(dp322
Vimage-file
p323
Varch/arm64/boot/Image
p324
sVsigned-code
p325
I00
sVvdso
p326
I01
ss(Vimage
p327
g309
tp328
(dp329
Vinstall-stem
p330
Vvmlinuz
p331
sVbreaks
p332
(lp333
Vlibmozjs185-1.0
p334
aVlibmozjs-24-0 (<< 24.2.0-5.1~)
p335
ass(Vdescription
p336
g309
NVarm64
p337
tp338
(dp339
Vhardware
p340
V64-bit ARMv8 machines
p341
ss(Vdescription
p342
g309
NVcloud-arm64
p343
tp344
(dp345
Vhardware
p346
Varm64 cloud
p347
sVhardware-long
p348
Vcloud platforms supporting arm64 virtual machines
p349
ss(Vimage
p350
g309
NVarm64
p351
tp352
(dp353
s(Vrelations
p354
g309
tp355
(dp356
Vgcc-11
p357
Vgcc-11 <!stage1 !cross !pkg.linux.nokernel>, gcc-11-aarch64-linux-gnu <!stage1 cross !pkg.linux.nokernel>, gcc-arm-linux-gnueabihf <!stage1 !pkg.linux.nokernel>
p358
sVheaders%gcc-11
p359
Vgcc-11
p360
ss(Vbase
p361
g309
Vnone
p362
tp363
(dp364
Vflavours
p365
(lp366
Varm64
p367
aVcloud-arm64
p368
asVdefault-flavour
p369
Varm64
p370
sVquick-flavour
p371
Vcloud-arm64
p372
ss(Vimage
p373
g309
g362
Vcloud-arm64
p374
tp375
(dp376
Vconfigs
p377
(lp378
Vconfig.cloud
p379
aVarm64/config.cloud-arm64
p380
ass(Vbase
p381
g309
Vrt
p382
tp383
(dp384
Vflavours
p385
(lp386
Varm64
p387
ass(Vbase
p388
Varm64ilp32
p389
tp390
(dp391
Vkernel-arch
p392
Varm64
p393
sVfeaturesets
p394
(lp395
ss(Vbase
p396
Varmel
p397
tp398
(dp399
Vkernel-arch
p400
Varm
p401
sg189
(lp402
g191
ass(Vbuild
p403
g397
tp404
(dp405
Vimage-file
p406
Varch/arm/boot/zImage
p407
sVuncompressed-image-file
p408
Varch/arm/boot/Image
p409
ss(Vimage
p410
g397
tp411
(dp412
Vinstall-stem
p413
Vvmlinuz
p414
ss(Vrelations
p415
g397
tp416
(dp417
Vheaders%gcc-12
p418
Vlinux-compiler-gcc-12-arm
p419
ss(Vdescription
p420
g397
NVmarvell
p421
tp422
(dp423
Vhardware
p424
VMarvell Kirkwood/Orion
p425
sVhardware-long
p426
VMarvell Kirkwood and Orion based systems (https://wiki.debian.org/ArmEabiPort#Supported_hardware)
p427
ss(Vdescription
p428
g397
NVrpi
p429
tp430
(dp431
Vhardware
p432
VRaspberry Pi Zero, Zero W and 1
p433
sVhardware-long
p434
VRaspberry Pi Zero, Zero W and 1 based systems
p435
ss(Vimage
p436
g397
NVmarvell
p437
tp438
(dp439
Vrecommends
p440
(lp441
Vu-boot-tools
p442
asVcheck-size
p443
I2729712
sVcheck-size-with-dtb
p444
I01
sVbreaks
p445
(lp446
Vflash-kernel (<< 3.57~)
p447
ass(g222
g397
g191
tp448
(dp449
g225
(lp450
Vmarvell
p451
aVrpi
p452
asg229
I01
ss(Vbase
p453
Varmhf
p454
tp455
(dp456
Vfeaturesets
p457
(lp458
Vnone
p459
aVrt
p460
asVkernel-arch
p461
Varm
p462
ss(Vbuild
p463
g454
tp464
(dp465
Vimage-file
p466
Varch/arm/boot/zImage
p467
sVvdso
p468
I01
ss(Vimage
p469
g454
tp470
(dp471
Vinstall-stem
p472
Vvmlinuz
p473
ss(Vrelations
p474
g454
tp475
(dp476
Vheaders%gcc-11
p477
Vlinux-compiler-gcc-11-arm
p478
ss(Vdescription
p479
g454
NVarmmp
p480
tp481
(dp482
Vhardware
p483
VARMv7 multiplatform compatible SoCs
p484
sVhardware-long
p485
VARMv7 multiplatform kernel. See\u000ahttps://wiki.debian.org/DebianKernel/ARMMP for details of supported\u000aplatforms
p486
ss(Vdescription
p487
g454
NVarmmp-lpae
p488
tp489
(dp490
Vhardware
p491
VARMv7 multiplatform compatible SoCs supporting LPAE
p492
sVhardware-long
p493
VARMv7 multiplatform kernel supporting LPAE. See\u000ahttps://wiki.debian.org/DebianKernel/ARMMP for details of supported\u000aplatforms.
p494
ss(Vbase
p495
g454
Vnone
p496
tp497
(dp498
Vflavours
p499
(lp500
Varmmp
p501
aVarmmp-lpae
p502
asVdefault-flavour
p503
Varmmp
p504
ss(Vbase
p505
g454
Vrt
p506
tp507
(dp508
Vflavours
p509
(lp510
Varmmp
p511
ass(Vbase
p512
Vhppa
p513
tp514
(dp515
Vdefault-flavour
p516
Vparisc
p517
sVkernel-arch
p518
Vparisc
p519
sg189
(lp520
g191
ass(Vbuild
p521
g513
tp522
(dp523
Vimage-file
p524
Varch/parisc/boot/bzImage
p525
ss(Vimage
p526
g513
tp527
(dp528
Vsuggests
p529
(lp530
Vpalo
p531
asVinstall-stem
p532
Vvmlinuz
p533
ss(Vdescription
p534
g513
NVparisc
p535
tp536
(dp537
Vhardware
p538
V32-bit PA-RISC
p539
sVhardware-long
p540
VHP PA-RISC 32-bit systems with max 4 GB RAM
p541
ss(Vbase
p542
g513
NVparisc64
p543
tp544
(dp545
Vcflags
p546
V-fno-cse-follow-jumps
p547
sVoverride-host-type
p548
Vhppa64-linux-gnu
p549
ss(Vdescription
p550
g513
NVparisc64
p551
tp552
(dp553
Vhardware
p554
V64-bit PA-RISC
p555
sVhardware-long
p556
VHP PA-RISC 64-bit systems with support for more than 4 GB RAM
p557
ss(Vrelations
p558
g513
tp559
(dp560
Vgcc-12
p561
Vgcc-12 <!stage1 !cross !pkg.linux.nokernel>, gcc-12-hppa-linux-gnu <!stage1 cross !pkg.linux.nokernel>, binutils-hppa64-linux-gnu <!stage1 !pkg.linux.nokernel>, gcc-12-hppa64-linux-gnu <!stage1 !pkg.linux.nokernel>
p562
ss(g222
g513
g191
tp563
(dp564
g225
(lp565
Vparisc
p566
aVparisc64
p567
asg229
I01
ss(Vbase
p568
Vi386
p569
tp570
(dp571
Vfeaturesets
p572
(lp573
Vnone
p574
aVrt
p575
asVkernel-arch
p576
Vx86
p577
ss(Vbuild
p578
g569
tp579
(dp580
Vimage-file
p581
Varch/x86/boot/bzImage
p582
sVsigned-code
p583
I00
sVvdso
p584
I01
ss(Vdescription
p585
g569
tp586
(dp587
Vpart-long-pae
p588
VThis kernel requires PAE (Physical Address Extension).\u000aThis feature is supported by the Intel Pentium Pro/II/III/4/4M/D, Xeon,\u000aCore and Atom; AMD Geode NX, Athlon (K7), Duron, Opteron, Sempron,\u000aTurion or Phenom; Transmeta Efficeon; VIA C7; and some other processors.
p589
ss(Vimage
p590
g569
tp591
(dp592
Vbootloaders
p593
(lp594
Vgrub-pc
p595
aVgrub-efi-ia32
p596
aVextlinux
p597
asVinstall-stem
p598
Vvmlinuz
p599
sVbreaks
p600
(lp601
Vxserver-xorg-input-vmmouse (<< 1:13.0.99)
p602
ass(Vrelations
p603
g569
tp604
(dp605
Vheaders%gcc-11
p606
Vlinux-compiler-gcc-11-x86
p607
ss(Vdescription
p608
g569
NV686
p609
tp610
(dp611
Vhardware
p612
Volder PCs
p613
sVhardware-long
p614
VPCs with one or more processors not supporting PAE
p615
ss(Vdescription
p616
g569
NV686-pae
p617
tp618
(dp619
Vhardware
p620
Vmodern PCs
p621
sVhardware-long
p622
VPCs with one or more processors supporting PAE
p623
sVparts
p624
(lp625
Vpae
p626
ass(Vbase
p627
g569
Vnone
p628
tp629
(dp630
Vflavours
p631
(lp632
V686
p633
aV686-pae
p634
asVdefault-flavour
p635
V686-pae
p636
ss(Vbase
p637
g569
Vrt
p638
tp639
(dp640
Vflavours
p641
(lp642
V686-pae
p643
ass(Vbase
p644
Via64
p645
tp646
(dp647
Vdefault-flavour
p648
Vitanium
p649
sVkernel-arch
p650
Via64
p651
sg189
(lp652
g191
ass(Vbuild
p653
g645
tp654
(dp655
Vimage-file
p656
Vvmlinux.gz
p657
ss(Vimage
p658
g645
tp659
(dp660
Vbootloaders
p661
(lp662
Vgrub-efi-ia64
p663
asVinstall-stem
p664
Vvmlinuz
p665
ss(Vdescription
p666
g645
NVitanium
p667
tp668
(dp669
Vhardware
p670
VItanium (Merced)
p671
sVhardware-long
p672
Vsystems with original Itanium (Merced) processors
p673
ss(Vdescription
p674
g645
NVmckinley
p675
tp676
(dp677
Vhardware
p678
VItanium 2+
p679
sVhardware-long
p680
Vsystems with Itanium 2 or 9300/9500/9700-series processors
p681
ss(g222
g645
g191
tp682
(dp683
g225
(lp684
Vitanium
p685
aVmckinley
p686
asg229
I01
ss(Vbase
p687
Vm68k
p688
tp689
(dp690
Vcflags
p691
V-ffreestanding
p692
sVdefault-flavour
p693
Vm68k
p694
sVkernel-arch
p695
Vm68k
p696
sg189
(lp697
g191
ass(Vbuild
p698
g688
tp699
(dp700
Vimage-file
p701
Vvmlinux
p702
ss(Vimage
p703
g688
tp704
(dp705
Vsuggests
p706
(lp707
Vvmelilo
p708
aVfdutils
p709
asVinstall-stem
p710
Vvmlinux
p711
ss(Vdescription
p712
g688
NVm68k
p713
tp714
(dp715
Vhardware
p716
VMotorola MC68020+ family
p717
ss(g222
g688
g191
tp718
(dp719
g225
(lp720
Vm68k
p721
asg229
I01
ss(Vbase
p722
Vmips
p723
tp724
(dp725
Vkernel-arch
p726
Vmips
p727
sg189
(lp728
g191
ass(Vbuild
p729
g723
tp730
(dp731
Vimage-file
p732
Vvmlinuz
p733
ss(Vimage
p734
g723
tp735
(dp736
Vinstall-stem
p737
Vvmlinuz
p738
ss(Vdescription
p739
g723
NV4kc-malta
p740
tp741
(dp742
Vhardware
p743
VMIPS Malta
p744
sVhardware-long
p745
VMIPS Malta boards
p746
ss(Vimage
p747
g723
NV4kc-malta
p748
tp749
(dp750
Vconfigs
p751
(lp752
Vkernelarch-mips/config.malta
p753
aVkernelarch-mips/config.mips32r2
p754
ass(Vdescription
p755
g723
NVmips32r2eb
p756
tp757
(dp758
Vhardware
p759
VMIPS Generic (mips32r2eb)
p760
sVhardware-long
p761
VMIPS Generic platform (mips32r2eb)
p762
ss(Vimage
p763
g723
NVmips32r2eb
p764
tp765
(dp766
Vconfigs
p767
(lp768
Vkernelarch-mips/config.boston
p769
aVkernelarch-mips/config.mips32r2
p770
ass(Vdescription
p771
g723
NVocteon
p772
tp773
(dp774
Vhardware
p775
VOcteon
p776
sVhardware-long
p777
VCavium Networks Octeon
p778
ss(Vbuild
p779
g723
NVocteon
p780
tp781
(dp782
Vimage-file
p783
Vvmlinux
p784
ss(Vimage
p785
g723
NVocteon
p786
tp787
(dp788
Vinstall-stem
p789
Vvmlinux
p790
sVconfigs
p791
(lp792
Vkernelarch-mips/config.octeon
p793
ass(g222
g723
g191
tp794
(dp795
g225
(lp796
V4kc-malta
p797
aVmips32r2eb
p798
aVocteon
p799
asg229
I01
ss(Vbase
p800
Vmips64
p801
tp802
(dp803
Vkernel-arch
p804
Vmips
p805
sg189
(lp806
g191
ass(Vbuild
p807
g801
tp808
(dp809
Vimage-file
p810
Vvmlinuz
p811
ss(Vimage
p812
g801
tp813
(dp814
Vinstall-stem
p815
Vvmlinuz
p816
ss(Vdescription
p817
g801
NV5kc-malta
p818
tp819
(dp820
Vhardware
p821
VMIPS Malta
p822
sVhardware-long
p823
VMIPS Malta boards
p824
ss(Vimage
p825
g801
NV5kc-malta
p826
tp827
(dp828
Vconfigs
p829
(lp830
Vkernelarch-mips/config.malta
p831
aVkernelarch-mips/config.mips64r2
p832
ass(Vdescription
p833
g801
NVmips64r2eb
p834
tp835
(dp836
Vhardware
p837
VMIPS Generic (mips64r2eb)
p838
sVhardware-long
p839
VMIPS Generic platform (mips64r2eb)
p840
ss(Vimage
p841
g801
NVmips64r2eb
p842
tp843
(dp844
Vconfigs
p845
(lp846
Vkernelarch-mips/config.boston
p847
aVkernelarch-mips/config.mips64r2
p848
ass(Vdescription
p849
g801
NVocteon
p850
tp851
(dp852
Vhardware
p853
VOcteon
p854
sVhardware-long
p855
VCavium Networks Octeon
p856
ss(Vbuild
p857
g801
NVocteon
p858
tp859
(dp860
Vimage-file
p861
Vvmlinux
p862
ss(Vimage
p863
g801
NVocteon
p864
tp865
(dp866
Vinstall-stem
p867
Vvmlinux
p868
sVconfigs
p869
(lp870
Vkernelarch-mips/config.octeon
p871
ass(g222
g801
g191
tp872
(dp873
g225
(lp874
V5kc-malta
p875
aVmips64r2eb
p876
aVocteon
p877
asg229
I01
ss(Vbase
p878
Vmips64el
p879
tp880
(dp881
Vkernel-arch
p882
Vmips
p883
sg189
(lp884
g191
ass(Vbuild
p885
g879
tp886
(dp887
Vimage-file
p888
Vvmlinuz
p889
ss(Vimage
p890
g879
tp891
(dp892
Vinstall-stem
p893
Vvmlinuz
p894
ss(Vdescription
p895
g879
NV5kc-malta
p896
tp897
(dp898
Vhardware
p899
VMIPS Malta
p900
sVhardware-long
p901
VMIPS Malta boards
p902
ss(Vimage
p903
g879
NV5kc-malta
p904
tp905
(dp906
Vconfigs
p907
(lp908
Vkernelarch-mips/config.malta
p909
aVkernelarch-mips/config.mips64r2
p910
ass(Vdescription
p911
g879
NVmips64r2el
p912
tp913
(dp914
Vhardware
p915
VMIPS Generic (mips64r2el)
p916
sVhardware-long
p917
VMIPS Generic platform (mips64r2el)
p918
ss(Vimage
p919
g879
NVmips64r2el
p920
tp921
(dp922
Vconfigs
p923
(lp924
Vkernelarch-mips/config.boston
p925
aVkernelarch-mips/config.mips64r2
p926
ass(Vdescription
p927
g879
NVloongson-3
p928
tp929
(dp930
Vhardware
p931
VLoongson 3A/3B
p932
sVhardware-long
p933
VLoongson 3A or 3B based systems (e.g. from Loongson or Lemote)
p934
ss(Vimage
p935
g879
NVloongson-3
p936
tp937
(dp938
Vrecommends
p939
(lp940
Vpmon-update
p941
asVconfigs
p942
(lp943
Vkernelarch-mips/config.loongson-3
p944
ass(Vdescription
p945
g879
NVocteon
p946
tp947
(dp948
Vhardware
p949
VOcteon
p950
sVhardware-long
p951
VCavium Networks Octeon
p952
ss(Vbuild
p953
g879
NVocteon
p954
tp955
(dp956
Vimage-file
p957
Vvmlinux
p958
ss(Vimage
p959
g879
NVocteon
p960
tp961
(dp962
Vinstall-stem
p963
Vvmlinux
p964
sVconfigs
p965
(lp966
Vkernelarch-mips/config.octeon
p967
ass(g222
g879
g191
tp968
(dp969
g225
(lp970
V5kc-malta
p971
aVmips64r2el
p972
aVloongson-3
p973
aVocteon
p974
asg229
I01
ss(Vbase
p975
Vmips64r6
p976
tp977
(dp978
Vkernel-arch
p979
Vmips
p980
sg189
(lp981
g191
ass(Vbuild
p982
g976
tp983
(dp984
Vimage-file
p985
Vvmlinuz
p986
ss(Vimage
p987
g976
tp988
(dp989
Vinstall-stem
p990
Vvmlinuz
p991
ss(Vdescription
p992
g976
NVmips64r6eb
p993
tp994
(dp995
Vhardware
p996
VMIPS Generic (mips64r6eb)
p997
sVhardware-long
p998
VMIPS Generic platform (mips64r6eb)
p999
ss(Vimage
p1000
g976
NVmips64r6eb
p1001
tp1002
(dp1003
Vconfigs
p1004
(lp1005
Vkernelarch-mips/config.boston
p1006
aVkernelarch-mips/config.mips64r6
p1007
ass(g222
g976
g191
tp1008
(dp1009
g225
(lp1010
Vmips64r6eb
p1011
asg229
I01
ss(Vbase
p1012
Vmips64r6el
p1013
tp1014
(dp1015
Vkernel-arch
p1016
Vmips
p1017
sg189
(lp1018
g191
ass(Vbuild
p1019
g1013
tp1020
(dp1021
Vimage-file
p1022
Vvmlinuz
p1023
ss(Vimage
p1024
g1013
tp1025
(dp1026
Vinstall-stem
p1027
Vvmlinuz
p1028
ss(Vdescription
p1029
g1013
NVmips64r6el
p1030
tp1031
(dp1032
Vhardware
p1033
VMIPS Generic (mips64r6el)
p1034
sVhardware-long
p1035
VMIPS Generic platform (mips64r6el)
p1036
ss(Vimage
p1037
g1013
NVmips64r6el
p1038
tp1039
(dp1040
Vconfigs
p1041
(lp1042
Vkernelarch-mips/config.boston
p1043
aVkernelarch-mips/config.mips64r6
p1044
ass(g222
g1013
g191
tp1045
(dp1046
g225
(lp1047
Vmips64r6el
p1048
asg229
I01
ss(Vbase
p1049
Vmipsel
p1050
tp1051
(dp1052
Vkernel-arch
p1053
Vmips
p1054
sg189
(lp1055
g191
ass(Vbuild
p1056
g1050
tp1057
(dp1058
Vimage-file
p1059
Vvmlinuz
p1060
ss(Vimage
p1061
g1050
tp1062
(dp1063
Vinstall-stem
p1064
Vvmlinuz
p1065
ss(Vdescription
p1066
g1050
NV4kc-malta
p1067
tp1068
(dp1069
Vhardware
p1070
VMIPS Malta
p1071
sVhardware-long
p1072
VMIPS Malta boards
p1073
ss(Vimage
p1074
g1050
NV4kc-malta
p1075
tp1076
(dp1077
Vconfigs
p1078
(lp1079
Vkernelarch-mips/config.malta
p1080
aVkernelarch-mips/config.mips32r2
p1081
ass(Vdescription
p1082
g1050
NVmips32r2el
p1083
tp1084
(dp1085
Vhardware
p1086
VMIPS Generic (mips32r2el)
p1087
sVhardware-long
p1088
VMIPS Generic platform (mips32r2el)
p1089
ss(Vimage
p1090
g1050
NVmips32r2el
p1091
tp1092
(dp1093
Vconfigs
p1094
(lp1095
Vkernelarch-mips/config.boston
p1096
aVkernelarch-mips/config.mips32r2
p1097
ass(Vdescription
p1098
g1050
NVloongson-3
p1099
tp1100
(dp1101
Vhardware
p1102
VLoongson 3A/3B
p1103
sVhardware-long
p1104
VLoongson 3A or 3B based systems (e.g. from Loongson or Lemote)
p1105
ss(Vimage
p1106
g1050
NVloongson-3
p1107
tp1108
(dp1109
Vrecommends
p1110
(lp1111
Vpmon-update
p1112
asVconfigs
p1113
(lp1114
Vkernelarch-mips/config.loongson-3
p1115
ass(Vdescription
p1116
g1050
NVocteon
p1117
tp1118
(dp1119
Vhardware
p1120
VOcteon
p1121
sVhardware-long
p1122
VCavium Networks Octeon
p1123
ss(Vbuild
p1124
g1050
NVocteon
p1125
tp1126
(dp1127
Vimage-file
p1128
Vvmlinux
p1129
ss(Vimage
p1130
g1050
NVocteon
p1131
tp1132
(dp1133
Vinstall-stem
p1134
Vvmlinux
p1135
sVconfigs
p1136
(lp1137
Vkernelarch-mips/config.octeon
p1138
ass(g222
g1050
g191
tp1139
(dp1140
g225
(lp1141
V4kc-malta
p1142
aVmips32r2el
p1143
aVloongson-3
p1144
aVocteon
p1145
asg229
I01
ss(Vbase
p1146
Vmipsn32
p1147
tp1148
(dp1149
Vkernel-arch
p1150
Vmips
p1151
sVfeaturesets
p1152
(lp1153
ss(Vbase
p1154
Vmipsn32el
p1155
tp1156
(dp1157
Vkernel-arch
p1158
Vmips
p1159
sVfeaturesets
p1160
(lp1161
ss(Vbase
p1162
Vmipsn32r6
p1163
tp1164
(dp1165
Vkernel-arch
p1166
Vmips
p1167
sVfeaturesets
p1168
(lp1169
ss(Vbase
p1170
Vmipsn32r6el
p1171
tp1172
(dp1173
Vkernel-arch
p1174
Vmips
p1175
sVfeaturesets
p1176
(lp1177
ss(Vbase
p1178
Vmipsr6
p1179
tp1180
(dp1181
Vkernel-arch
p1182
Vmips
p1183
sg189
(lp1184
g191
ass(Vbuild
p1185
g1179
tp1186
(dp1187
Vimage-file
p1188
Vvmlinuz
p1189
ss(Vimage
p1190
g1179
tp1191
(dp1192
Vinstall-stem
p1193
Vvmlinuz
p1194
ss(Vdescription
p1195
g1179
NVmips32r6eb
p1196
tp1197
(dp1198
Vhardware
p1199
VMIPS Generic (mips32r6eb)
p1200
sVhardware-long
p1201
VMIPS Generic platform (mips32r6eb)
p1202
ss(Vimage
p1203
g1179
NVmips32r6eb
p1204
tp1205
(dp1206
Vconfigs
p1207
(lp1208
Vkernelarch-mips/config.boston
p1209
aVkernelarch-mips/config.mips32r6
p1210
ass(g222
g1179
g191
tp1211
(dp1212
g225
(lp1213
Vmips32r6eb
p1214
asg229
I01
ss(Vbase
p1215
Vmipsr6el
p1216
tp1217
(dp1218
Vkernel-arch
p1219
Vmips
p1220
sg189
(lp1221
g191
ass(Vbuild
p1222
g1216
tp1223
(dp1224
Vimage-file
p1225
Vvmlinuz
p1226
ss(Vimage
p1227
g1216
tp1228
(dp1229
Vinstall-stem
p1230
Vvmlinuz
p1231
ss(Vdescription
p1232
g1216
NVmips32r6el
p1233
tp1234
(dp1235
Vhardware
p1236
VMIPS Generic (mips32r6el)
p1237
sVhardware-long
p1238
VMIPS Generic platform (mips32r6el)
p1239
ss(Vimage
p1240
g1216
NVmips32r6el
p1241
tp1242
(dp1243
Vconfigs
p1244
(lp1245
Vkernelarch-mips/config.boston
p1246
aVkernelarch-mips/config.mips32r6
p1247
ass(g222
g1216
g191
tp1248
(dp1249
g225
(lp1250
Vmips32r6el
p1251
asg229
I01
ss(Vbase
p1252
Vpowerpc
p1253
tp1254
(dp1255
Vkernel-arch
p1256
Vpowerpc
p1257
sg189
(lp1258
g191
ass(Vbuild
p1259
g1253
tp1260
(dp1261
Vimage-file
p1262
Vvmlinux
p1263
ss(Vimage
p1264
g1253
tp1265
(dp1266
Vconfigs
p1267
(lp1268
sVbootloaders
p1269
(lp1270
Vgrub-ieee1275
p1271
asVsuggests
p1272
(lp1273
Vmkvmlinuz
p1274
asVinstall-stem
p1275
Vvmlinux
p1276
ss(Vdescription
p1277
g1253
NVpowerpc
p1278
tp1279
(dp1280
Vhardware
p1281
Vuniprocessor 32-bit PowerPC
p1282
ss(Vdescription
p1283
g1253
NVpowerpc-smp
p1284
tp1285
(dp1286
Vhardware
p1287
Vmultiprocessor 32-bit PowerPC
p1288
ss(Vimage
p1289
g1253
NVpowerpc-smp
p1290
tp1291
(dp1292
Vconfigs
p1293
(lp1294
Vpowerpc/config.powerpc
p1295
aVpowerpc/config.powerpc-smp
p1296
ass(Vdescription
p1297
g1253
NVpowerpc64
p1298
tp1299
(dp1300
Vhardware
p1301
V64-bit PowerPC
p1302
ss(Vimage
p1303
g1253
NVpowerpc64
p1304
tp1305
(dp1306
Vconfigs
p1307
(lp1308
Vkernelarch-powerpc/config-arch-64
p1309
aVkernelarch-powerpc/config-arch-64-be
p1310
ass(g222
g1253
g191
tp1311
(dp1312
g225
(lp1313
Vpowerpc
p1314
aVpowerpc-smp
p1315
aVpowerpc64
p1316
asg229
I01
ss(Vbase
p1317
Vppc64
p1318
tp1319
(dp1320
Vdefault-flavour
p1321
Vpowerpc64
p1322
sVkernel-arch
p1323
Vpowerpc
p1324
sg189
(lp1325
g191
ass(Vbuild
p1326
g1318
tp1327
(dp1328
Vimage-file
p1329
Vvmlinux
p1330
ss(Vimage
p1331
g1318
tp1332
(dp1333
Vconfigs
p1334
(lp1335
sVbootloaders
p1336
(lp1337
Vgrub-ieee1275
p1338
asVsuggests
p1339
(lp1340
Vmkvmlinuz
p1341
asVinstall-stem
p1342
Vvmlinux
p1343
ss(Vdescription
p1344
g1318
NVpowerpc64
p1345
tp1346
(dp1347
Vhardware
p1348
V64-bit PowerPC
p1349
ss(Vimage
p1350
g1318
NVpowerpc64
p1351
tp1352
(dp1353
Vconfigs
p1354
(lp1355
Vkernelarch-powerpc/config-arch-64
p1356
aVkernelarch-powerpc/config-arch-64-be
p1357
ass(g222
g1318
g191
tp1358
(dp1359
g225
(lp1360
Vpowerpc64
p1361
asg229
I01
ss(Vbase
p1362
Vppc64el
p1363
tp1364
(dp1365
Vdefault-flavour
p1366
Vpowerpc64le
p1367
sVkernel-arch
p1368
Vpowerpc
p1369
sg189
(lp1370
g191
ass(Vbuild
p1371
g1363
tp1372
(dp1373
Vimage-file
p1374
Vvmlinux
p1375
ss(Vimage
p1376
g1363
tp1377
(dp1378
Vconfigs
p1379
(lp1380
sVbootloaders
p1381
(lp1382
Vgrub-ieee1275
p1383
asVsuggests
p1384
(lp1385
Vmkvmlinuz
p1386
asVinstall-stem
p1387
Vvmlinux
p1388
ss(Vdescription
p1389
g1363
NVpowerpc64le
p1390
tp1391
(dp1392
Vhardware
p1393
VLittle-endian 64-bit PowerPC
p1394
ss(Vimage
p1395
g1363
NVpowerpc64le
p1396
tp1397
(dp1398
Vconfigs
p1399
(lp1400
Vkernelarch-powerpc/config-arch-64
p1401
aVkernelarch-powerpc/config-arch-64-le
p1402
ass(g222
g1363
g191
tp1403
(dp1404
g225
(lp1405
Vpowerpc64le
p1406
asg229
I01
ss(Vbase
p1407
Vriscv64
p1408
tp1409
(dp1410
Vkernel-arch
p1411
Vriscv
p1412
sVfeaturesets
p1413
(lp1414
Vnone
p1415
ass(Vbuild
p1416
g1408
tp1417
(dp1418
Vimage-file
p1419
Varch/riscv/boot/Image
p1420
sVvdso
p1421
I01
ss(Vimage
p1422
g1408
tp1423
(dp1424
Vinstall-stem
p1425
Vvmlinux
p1426
ss(Vdescription
p1427
g1408
NVriscv64
p1428
tp1429
(dp1430
Vhardware
p1431
V64-bit RISC-V platforms
p1432
sVhardware-long
p1433
V64-bit RISC-V platforms
p1434
ss(Vbase
p1435
g1408
Vnone
p1436
tp1437
(dp1438
Vflavours
p1439
(lp1440
Vriscv64
p1441
asVdefault-flavour
p1442
Vriscv64
p1443
ss(Vbase
p1444
Vs390
p1445
tp1446
(dp1447
Vkernel-arch
p1448
Vs390
p1449
sVfeaturesets
p1450
(lp1451
ss(Vbase
p1452
Vs390x
p1453
tp1454
(dp1455
Vdefault-flavour
p1456
Vs390x
p1457
sVkernel-arch
p1458
Vs390
p1459
sg189
(lp1460
g191
ass(Vbuild
p1461
g1453
tp1462
(dp1463
Vimage-file
p1464
Varch/s390/boot/bzImage
p1465
sVvdso
p1466
I01
ss(Vimage
p1467
g1453
tp1468
(dp1469
Vbootloaders
p1470
(lp1471
Vs390-tools
p1472
asVinstall-stem
p1473
Vvmlinuz
p1474
ss(Vrelations
p1475
g1453
tp1476
(dp1477
Vheaders%gcc-12
p1478
Vlinux-compiler-gcc-12-s390
p1479
ss(Vdescription
p1480
g1453
NVs390x
p1481
tp1482
(dp1483
Vhardware
p1484
VIBM zSeries
p1485
ss(g222
g1453
g191
tp1486
(dp1487
g225
(lp1488
Vs390x
p1489
asg229
I01
ss(Vbase
p1490
Vsh3
p1491
tp1492
(dp1493
Vkernel-arch
p1494
Vsh
p1495
sVfeaturesets
p1496
(lp1497
ss(Vbase
p1498
Vsh4
p1499
tp1500
(dp1501
Vkernel-arch
p1502
Vsh
p1503
sg189
(lp1504
g191
ass(Vbuild
p1505
g1499
tp1506
(dp1507
Vimage-file
p1508
Varch/sh/boot/zImage
p1509
ss(Vimage
p1510
g1499
tp1511
(dp1512
Vinstall-stem
p1513
Vvmlinuz
p1514
ss(Vdescription
p1515
g1499
NVsh7751r
p1516
tp1517
(dp1518
Vhardware
p1519
Vsh7751r
p1520
sVhardware-long
p1521
VRenesas SH7751R R2D plus board
p1522
ss(Vdescription
p1523
g1499
NVsh7785lcr
p1524
tp1525
(dp1526
Vhardware
p1527
Vsh7785lcr
p1528
sVhardware-long
p1529
VRenesas SH7785 reference board
p1530
ss(Vimage
p1531
g1499
NVsh7785lcr
p1532
tp1533
(dp1534
Vrecommends
p1535
(lp1536
Vu-boot-tools
p1537
asVcheck-size
p1538
I4194304
ss(g222
g1499
g191
tp1539
(dp1540
g225
(lp1541
Vsh7751r
p1542
aVsh7785lcr
p1543
asg229
I01
ss(Vbase
p1544
Vsparc
p1545
tp1546
(dp1547
Vkernel-arch
p1548
Vsparc
p1549
sVfeaturesets
p1550
(lp1551
ss(Vbase
p1552
Vsparc64
p1553
tp1554
(dp1555
Vdefault-flavour
p1556
Vsparc64-smp
p1557
sVkernel-arch
p1558
Vsparc
p1559
sg189
(lp1560
g191
ass(Vbuild
p1561
g1553
tp1562
(dp1563
Vimage-file
p1564
Vvmlinux
p1565
ss(Vimage
p1566
g1553
tp1567
(dp1568
Vconfigs
p1569
(lp1570
sVbootloaders
p1571
(lp1572
Vgrub-ieee1275
p1573
asVsuggests
p1574
(lp1575
Vfdutils
p1576
asVinstall-stem
p1577
Vvmlinux
p1578
ss(Vdescription
p1579
g1553
NVsparc64
p1580
tp1581
(dp1582
Vhardware
p1583
Vuniprocessor 64-bit UltraSPARC
p1584
ss(Vimage
p1585
g1553
NVsparc64
p1586
tp1587
(dp1588
Vconfigs
p1589
(lp1590
Vkernelarch-sparc/config-up
p1591
ass(Vdescription
p1592
g1553
NVsparc64-smp
p1593
tp1594
(dp1595
Vhardware
p1596
Vmultiprocessor 64-bit UltraSPARC
p1597
ss(Vimage
p1598
g1553
NVsparc64-smp
p1599
tp1600
(dp1601
Vconfigs
p1602
(lp1603
Vkernelarch-sparc/config-smp
p1604
ass(g222
g1553
g191
tp1605
(dp1606
g225
(lp1607
Vsparc64
p1608
aVsparc64-smp
p1609
asg229
I01
ss(Vbase
p1610
Vx32
p1611
tp1612
(dp1613
Vkernel-arch
p1614
Vx86
p1615
sVfeaturesets
p1616
(lp1617
ss(Vabi
p1618
NVrt
p1619
tp1620
(dp1621
Vignore-changes
p1622
(lp1623
V*
p1624
ass(Vdescription
p1625
Ng1619
tp1626
(dp1627
Vpart-long-rt
p1628
VThis kernel includes the PREEMPT_RT realtime patch set.
p1629
sVpart-short-rt
p1630
VPREEMPT_RT
p1631
sVparts
p1632
(lp1633
Vrt
p1634
ass(Vversion
p1635
tp1636
(dp1637
Vsource
p1638
V6.0.2-1parrot1
p1639
sVupstream
p1640
V6.0
p1641
sVabiname_base
p1642
V6.0.0
p1643
sVabiname
p1644
V6.0.0-2parrot1
p1645
ss.