ccopy_reg
_reconstructor
p0
(cdebian_linux.config
ConfigCore
p1
c__builtin__
dict
p2
(dp3
(Vrelations
p4
Vs390x
p5
tp6
(dp7
Vheaders%gcc-5
p8
Vlinux-compiler-gcc-5-s390
p9
ss(Vbuild
p10
Vppc64
p11
tp12
(dp13
Vsigned-modules
p14
I00
sVvdso
p15
I01
sVimage-file
p16
Vvmlinux
p17
ss(Vdescription
p18
Vsh4
p19
NVsh7785lcr
p20
tp21
(dp22
Vhardware
p23
Vsh7785lcr
p24
sVhardware-long
p25
VRenesas SH7785 reference board
p26
ss(Vimage
p27
Vppc64el
p28
NVpowerpc64le
p29
tp30
(dp31
Vconfigs
p32
(lp33
Vkernelarch-powerpc/config-arch-64
p34
aVkernelarch-powerpc/config-arch-64-le
p35
ass(Vdescription
p36
Vmips
p37
NV4kc-malta
p38
tp39
(dp40
Vhardware
p41
VMIPS Malta
p42
sVhardware-long
p43
VMIPS Malta boards
p44
ss(Vimage
p45
g19
tp46
(dp47
Vinstall-stem
p48
Vvmlinuz
p49
ss(Vbase
p50
Varm64
p51
tp52
(dp53
Vfeaturesets
p54
(lp55
Vnone
p56
asVkernel-arch
p57
Varm64
p58
ss(Vimage
p59
Vmipsel
p60
tp61
(dp62
Vinstall-stem
p63
Vvmlinux
p64
ss(Vbase
p65
Vmips64
p66
tp67
(dp68
Vfeaturesets
p69
(lp70
Vnone
p71
asVkernel-arch
p72
Vmips
p73
ss(Vdescription
p74
g51
NVarm64
p75
tp76
(dp77
Vhardware
p78
V64-bit ARMv8 machines
p79
ss(Vbase
p80
Valpha
p81
tp82
(dp83
g69
(lp84
g71
asVkernel-arch
p85
Valpha
p86
ss(Vbase
p87
Vi386
p88
tp89
(dp90
Vfeaturesets
p91
(lp92
Vnone
p93
aVrt
p94
asVkernel-arch
p95
Vx86
p96
ss(Vdescription
p97
g37
NV5kc-malta
p98
tp99
(dp100
Vhardware
p101
VMIPS Malta (64-bit)
p102
sVhardware-long
p103
VMIPS Malta boards (64-bit)
p104
ss(Vimage
p105
g37
tp106
(dp107
Vinstall-stem
p108
Vvmlinux
p109
ss(Vimage
p110
Vmips64el
p111
NVocteon
p112
tp113
(dp114
Vconfigs
p115
(lp116
Vkernelarch-mips/config.octeon
p117
ass(Vbase
p118
tp119
(dp120
Varches
p121
(lp122
Valpha
p123
aVamd64
p124
aVarm64
p125
aVarmel
p126
aVarmhf
p127
aVhppa
p128
aVi386
p129
aVm68k
p130
aVmips
p131
aVmipsel
p132
aVmipsn32
p133
aVmipsn32el
p134
aVmips64
p135
aVmips64el
p136
aVor1k
p137
aVpowerpc
p138
aVpowerpcspe
p139
aVppc64
p140
aVppc64el
p141
aVs390
p142
aVs390x
p143
aVsh4
p144
aVsparc
p145
aVsparc64
p146
aVtilegx
p147
aVx32
p148
asVfeaturesets
p149
(lp150
Vnone
p151
aVrt
p152
asVcompiler
p153
Vgcc-5
p154
ss(Vbase
p155
Vpowerpcspe
p156
g71
tp157
(dp158
Vimplicit-flavour
p159
I01
sVflavours
p160
(lp161
Vpowerpcspe
p162
ass(Vimage
p163
g19
NVsh7785lcr
p164
tp165
(dp166
Vcheck-size
p167
L4194304L
sVrecommends
p168
Vu-boot-tools
p169
ss(g155
g19
g71
tp170
(dp171
g159
I01
sg160
(lp172
Vsh7751r
p173
aVsh7785lcr
p174
ass(Vimage
p175
g37
NV4kc-malta
p176
tp177
(dp178
Vconfigs
p179
(lp180
Vkernelarch-mips/config.malta
p181
aVkernelarch-mips/config.mips32r2
p182
ass(Vdescription
p183
Varmhf
p184
NVarmmp-lpae
p185
tp186
(dp187
Vhardware
p188
VARMv7 multiplatform compatible SoCs supporting LPAE
p189
sVhardware-long
p190
VARMv7 multiplatform kernel supporting LPAE. See\u000ahttps://wiki.debian.org/DebianKernel/ARMMP for details of supported\u000aplatforms.
p191
ss(Vdescription
p192
g88
NV686-pae
p193
tp194
(dp195
Vparts
p196
(lp197
Vpae
p198
asVhardware
p199
Vmodern PCs
p200
sVhardware-long
p201
VPCs with one or more processors supporting PAE
p202
ss(Vimage
p203
g5
tp204
(dp205
Vinstall-stem
p206
Vvmlinuz
p207
sVbootloaders
p208
(lp209
Vs390-tools
p210
ass(Vimage
p211
g28
tp212
(dp213
Vinstall-stem
p214
Vvmlinux
p215
sVsuggests
p216
Vmkvmlinuz
p217
sVconfigs
p218
(lp219
ss(Vbase
p220
Vmipsn32
p221
tp222
(dp223
Vfeaturesets
p224
(lp225
sVkernel-arch
p226
Vmips
p227
ss(g155
g5
g71
tp228
(dp229
g159
I01
sg160
(lp230
Vs390x
p231
ass(Vrelations
p232
tp233
(dp234
Vgcc-5
p235
Vgcc-5 <!stage1 !cross>, gcc-5-@gnu-type-package@:native <!stage1 cross>
p236
sVinitramfs-fallback
p237
Vlinux-initramfs-tool
p238
sVinitramfs-tools
p239
Vinitramfs-tools (>= 0.110~)
p240
ss(Vbase
p241
g5
tp242
(dp243
g69
(lp244
g71
asVkernel-arch
p245
Vs390
p246
ss(Vimage
p247
g51
NVarm64
p248
tp249
(dp250
s(g155
g184
g71
tp251
(dp252
g159
I01
sg160
(lp253
Varmmp
p254
aVarmmp-lpae
p255
ass(Vdescription
p256
Vhppa
p257
NVparisc
p258
tp259
(dp260
Vhardware
p261
V32-bit PA-RISC
p262
sVhardware-long
p263
VHP PA-RISC 32-bit systems with max 4 GB RAM
p264
ss(Vbase
p265
Vs390
p266
tp267
(dp268
Vfeaturesets
p269
(lp270
sVkernel-arch
p271
Vs390
p272
ss(Vimage
p273
Vsparc64
p274
tp275
(dp276
Vinstall-stem
p277
Vvmlinuz
p278
sVsuggests
p279
Vsilo, fdutils
p280
sVconfigs
p281
(lp282
ss(Vdescription
p283
g37
NVocteon
p284
tp285
(dp286
Vhardware
p287
VOcteon
p288
sVhardware-long
p289
VCavium Networks Octeon
p290
ss(g155
Vm68k
p291
g71
tp292
(dp293
g159
I01
sg160
(lp294
Vm68k
p295
ass(Vdescription
p296
g111
NVocteon
p297
tp298
(dp299
Vhardware
p300
VOcteon
p301
sVhardware-long
p302
VCavium Networks Octeon
p303
ss(Vbuild
p304
g5
tp305
(dp306
Vvdso
p307
I01
sVimage-file
p308
Varch/s390/boot/image
p309
ss(Vbuild
p310
g81
tp311
(dp312
Vsigned-modules
p313
I00
sVimage-file
p314
Varch/alpha/boot/vmlinux.gz
p315
ss(Vbase
p316
Vamd64
p317
Vrt
p318
tp319
(dp320
Vflavours
p321
(lp322
Vamd64
p323
ass(Vimage
p324
Varmel
p325
tp326
(dp327
Vinstall-stem
p328
Vvmlinuz
p329
ss(Vdescription
p330
g111
NV5kc-malta
p331
tp332
(dp333
Vhardware
p334
VMIPS Malta
p335
sVhardware-long
p336
VMIPS Malta boards
p337
ss(Vdescription
p338
g88
NV686
p339
tp340
(dp341
Vhardware
p342
Volder PCs
p343
sVhardware-long
p344
VPCs with one or more processors not supporting PAE
p345
ss(Vdescription
p346
Vpowerpc
p347
NVpowerpc-smp
p348
tp349
(dp350
Vhardware
p351
Vmultiprocessor 32-bit PowerPC
p352
ss(g155
g37
g71
tp353
(dp354
g159
I01
sg160
(lp355
V4kc-malta
p356
aV5kc-malta
p357
aVocteon
p358
ass(Vbase
p359
g317
Vnone
p360
tp361
(dp362
Vflavours
p363
(lp364
Vamd64
p365
ass(Vbuild
p366
tp367
(dp368
Vdebug-info
p369
I01
sVsigned-modules
p370
I01
ss(Vdescription
p371
g81
NValpha-smp
p372
tp373
(dp374
Vhardware
p375
VAlpha SMP
p376
sVhardware-long
p377
VDEC Alpha SMP systems with extended kernel start address (Wildfire, Titan, Marvel)
p378
ss(Vbase
p379
g28
tp380
(dp381
g69
(lp382
g71
asVkernel-arch
p383
Vpowerpc
p384
ss(Vbase
p385
Vsparc
p386
tp387
(dp388
Vfeaturesets
p389
(lp390
sVkernel-arch
p391
Vsparc
p392
ss(Vdescription
p393
g60
NVocteon
p394
tp395
(dp396
Vhardware
p397
VOcteon
p398
sVhardware-long
p399
VCavium Networks Octeon
p400
ss(g155
g325
g71
tp401
(dp402
g159
I01
sg160
(lp403
Vmarvell
p404
aVversatile
p405
ass(Vimage
p406
g66
NVocteon
p407
tp408
(dp409
Vconfigs
p410
(lp411
Vkernelarch-mips/config.octeon
p412
ass(Vbase
p413
g60
tp414
(dp415
g69
(lp416
g71
asVkernel-arch
p417
Vmips
p418
ss(Vimage
p419
g11
NVpowerpc64
p420
tp421
(dp422
Vconfigs
p423
(lp424
Vkernelarch-powerpc/config-arch-64
p425
aVkernelarch-powerpc/config-arch-64-be
p426
ass(Vdescription
p427
g317
g360
Vamd64
p428
tp429
(dp430
Vparts
p431
(lp432
Vxen
p433
ass(Vbase
p434
g88
Vnone
p435
tp436
(dp437
Vflavours
p438
(lp439
V686
p440
aV686-pae
p441
ass(Vbase
p442
Vor1k
p443
tp444
(dp445
Vfeaturesets
p446
(lp447
sVkernel-arch
p448
Vopenrisc
p449
ss(Vdescription
p450
g184
NVarmmp
p451
tp452
(dp453
Vhardware
p454
VARMv7 multiplatform compatible SoCs
p455
sVhardware-long
p456
VARMv7 multiplatform kernel. See\u000ahttps://wiki.debian.org/DebianKernel/ARMMP for details of supported\u000aplatforms
p457
ss(Vbase
p458
g317
tp459
(dp460
Vfeaturesets
p461
(lp462
Vnone
p463
aVrt
p464
asVkernel-arch
p465
Vx86
p466
ss(Vbase
p467
Vmipsn32el
p468
tp469
(dp470
Vfeaturesets
p471
(lp472
sVkernel-arch
p473
Vmips
p474
ss(Vbuild
p475
g257
tp476
(dp477
Vsigned-modules
p478
I00
sVimage-file
p479
Vvmlinux
p480
ss(Vimage
p481
g347
NVpowerpc-smp
p482
tp483
(dp484
Vconfigs
p485
(lp486
Vpowerpc/config.powerpc
p487
aVpowerpc/config.powerpc-smp
p488
ass(Vrelations
p489
g317
tp490
(dp491
Vheaders%gcc-5
p492
Vlinux-compiler-gcc-5-x86
p493
ss(Vimage
p494
g111
NVloongson-3
p495
tp496
(dp497
Vconfigs
p498
(lp499
Vkernelarch-mips/config.loongson-3
p500
ass(Vdescription
p501
g325
NVversatile
p502
tp503
(dp504
Vhardware
p505
VVersatile
p506
sVhardware-long
p507
VVersatile systems (PB, AB, Qemu)
p508
ss(Vabi
p509
NVrt
p510
tp511
(dp512
Vignore-changes
p513
(lp514
V*
p515
ass(Vdescription
p516
g347
NVpowerpc64
p517
tp518
(dp519
Vhardware
p520
V64-bit PowerPC
p521
ss(Vbuild
p522
g51
tp523
(dp524
Vdebug-info
p525
I01
sVsigned-modules
p526
I00
sVimage-file
p527
Varch/arm64/boot/Image
p528
sVvdso
p529
I01
ss(Vimage
p530
g66
NV5kc-malta
p531
tp532
(dp533
Vconfigs
p534
(lp535
Vkernelarch-mips/config.malta
p536
aVkernelarch-mips/config.mips64r2
p537
ass(g155
g60
g71
tp538
(dp539
g159
I01
sg160
(lp540
V4kc-malta
p541
aV5kc-malta
p542
aVloongson-3
p543
aVocteon
p544
ass(Vdescription
p545
g66
NVocteon
p546
tp547
(dp548
Vhardware
p549
VOcteon
p550
sVhardware-long
p551
VCavium Networks Octeon
p552
ss(Vbase
p553
g184
tp554
(dp555
g69
(lp556
g71
asVkernel-arch
p557
Varm
p558
ss(Vimage
p559
g156
tp560
(dp561
Vinstall-stem
p562
Vvmlinux
p563
sVsuggests
p564
Vmkvmlinuz
p565
ss(Vdescription
p566
g347
NVpowerpc
p567
tp568
(dp569
Vhardware
p570
Vuniprocessor 32-bit PowerPC
p571
ss(Vdescription
p572
g11
NVpowerpc64
p573
tp574
(dp575
Vhardware
p576
V64-bit PowerPC
p577
ss(Vabi
p578
tp579
(dp580
Vabiname
p581
Vkali2
p582
ss(Vimage
p583
g60
NVloongson-3
p584
tp585
(dp586
Vconfigs
p587
(lp588
Vkernelarch-mips/config.loongson-3
p589
ass(g155
g28
g71
tp590
(dp591
g159
I01
sg160
(lp592
Vpowerpc64le
p593
ass(g155
g11
g71
tp594
(dp595
g159
I01
sg160
(lp596
Vpowerpc64
p597
ass(Vdescription
p598
g88
tp599
(dp600
Vpart-long-pae
p601
VThis kernel requires PAE (Physical Address Extension).\u000aThis feature is supported by the Intel Pentium Pro/II/III/4/4M/D, Xeon,\u000aCore and Atom; AMD Geode NX, Athlon (K7), Duron, Opteron, Sempron,\u000aTurion or Phenom; Transmeta Efficeon; VIA C7; and some other processors.
p602
ss(Vdescription
p603
g317
NVamd64
p604
tp605
(dp606
Vhardware
p607
V64-bit PCs
p608
sVhardware-long
p609
VPCs with AMD64, Intel 64 or VIA Nano processors
p610
ss(Vimage
p611
g347
tp612
(dp613
Vinstall-stem
p614
Vvmlinux
p615
sVsuggests
p616
Vmkvmlinuz
p617
sVconfigs
p618
(lp619
ss(g155
g347
g71
tp620
(dp621
g159
I01
sg160
(lp622
Vpowerpc
p623
aVpowerpc-smp
p624
aVpowerpc64
p625
ass(Vimage
p626
g81
tp627
(dp628
Vinstall-stem
p629
Vvmlinuz
p630
sVsuggests
p631
Vaboot, fdutils
p632
ss(Vbase
p633
g51
Vnone
p634
tp635
(dp636
Vflavours
p637
(lp638
Varm64
p639
ass(Vrelations
p640
g325
tp641
(dp642
Vheaders%gcc-5
p643
Vlinux-compiler-gcc-5-arm
p644
ss(Vbuild
p645
g60
tp646
(dp647
Vsigned-modules
p648
I00
sVimage-file
p649
Vvmlinux
p650
ss(Vdescription
p651
g111
NVloongson-3
p652
tp653
(dp654
Vhardware
p655
VLoongson 3A/3B
p656
sVhardware-long
p657
VLoongson 3A or 3B based systems (e.g. from Loongson or Lemote)
p658
ss(Vbase
p659
g37
tp660
(dp661
g69
(lp662
g71
asVkernel-arch
p663
Vmips
p664
ss(Vbase
p665
g257
tp666
(dp667
g69
(lp668
g71
asVkernel-arch
p669
Vparisc
p670
ss(Vbase
p671
g291
tp672
(dp673
Vcflags
p674
V-ffreestanding
p675
sg69
(lp676
g71
asVkernel-arch
p677
Vm68k
p678
ss(Vdescription
p679
g66
NV5kc-malta
p680
tp681
(dp682
Vhardware
p683
VMIPS Malta
p684
sVhardware-long
p685
VMIPS Malta boards
p686
ss(Vimage
p687
g60
NV4kc-malta
p688
tp689
(dp690
Vconfigs
p691
(lp692
Vkernelarch-mips/config.malta
p693
aVkernelarch-mips/config.mips32r2
p694
ass(Vimage
p695
g66
tp696
(dp697
Vinstall-stem
p698
Vvmlinux
p699
ss(Vrelations
p700
g88
tp701
(dp702
Vheaders%gcc-5
p703
Vlinux-compiler-gcc-5-x86
p704
ss(Vdescription
p705
g156
tp706
(dp707
Vhardware
p708
V32-bit PowerPC with SPE (instead of AltiVec) with SMP support
p709
ss(Vbuild
p710
g291
tp711
(dp712
Vsigned-modules
p713
I00
sVimage-file
p714
Vvmlinux.gz
p715
ss(Vdescription
p716
tp717
(dp718
Vpart-long-xen
p719
VThis kernel also runs on a Xen hypervisor.\u000aIt supports both privileged (dom0) and unprivileged (domU) operation.
p720
sVpart-long-up
p721
VThis kernel is not suitable for SMP (multi-processor,\u000amulti-core or hyper-threaded) systems.
p722
ss(Vdescription
p723
g325
NVmarvell
p724
tp725
(dp726
Vhardware
p727
VMarvell Kirkwood/Orion
p728
sVhardware-long
p729
VMarvell Kirkwood based systems (SheevaPlug, QNAP TS-119/TS-219, etc)\u000aand Orion 5181, 5182 and 5281 based systems (QNAP TS-109/TS-209, etc)
p730
ss(Vimage
p731
g111
tp732
(dp733
Vinstall-stem
p734
Vvmlinux
p735
ss(Vdescription
p736
Ng510
tp737
(dp738
Vpart-long-rt
p739
VThis kernel includes the PREEMPT_RT realtime patch set.
p740
sVparts
p741
(lp742
Vrt
p743
asVpart-short-rt
p744
VPREEMPT_RT
p745
ss(Vdescription
p746
g60
NVloongson-3
p747
tp748
(dp749
Vhardware
p750
VLoongson 3A/3B
p751
sVhardware-long
p752
VLoongson 3A or 3B based systems (e.g. from Loongson or Lemote)
p753
ss(Vbuild
p754
g66
tp755
(dp756
Vsigned-modules
p757
I00
sVimage-file
p758
Vvmlinux
p759
ss(Vbase
p760
NVrt
p761
tp762
(dp763
Venabled
p764
I01
ss(Vimage
p765
g88
tp766
(dp767
Vinstall-stem
p768
Vvmlinuz
p769
sVbreaks
p770
Vxserver-xorg-input-vmmouse (<< 1:13.0.99)
p771
sVbootloaders
p772
(lp773
Vgrub-pc
p774
aVextlinux
p775
ass(Vdescription
p776
g28
NVpowerpc64le
p777
tp778
(dp779
Vhardware
p780
VLittle-endian 64-bit PowerPC
p781
ss(Vdescription
p782
g60
NV5kc-malta
p783
tp784
(dp785
Vhardware
p786
VMIPS Malta (64-bit)
p787
sVhardware-long
p788
VMIPS Malta boards (64-bit)
p789
ss(Vdescription
p790
g19
NVsh7751r
p791
tp792
(dp793
Vhardware
p794
Vsh7751r
p795
sVhardware-long
p796
VRenesas SH7751R R2D plus board
p797
ss(Vimage
p798
g11
tp799
(dp800
Vinstall-stem
p801
Vvmlinux
p802
sVsuggests
p803
Vmkvmlinuz
p804
sVconfigs
p805
(lp806
ss(Vdescription
p807
g291
NVm68k
p808
tp809
(dp810
Vhardware
p811
VMotorola MC68020+ family
p812
ss(Vdescription
p813
g274
NVsparc64
p814
tp815
(dp816
Vhardware
p817
Vuniprocessor 64-bit UltraSPARC
p818
ss(Vbase
p819
g19
tp820
(dp821
g69
(lp822
g71
asVkernel-arch
p823
Vsh
p824
ss(Vbuild
p825
g317
tp826
(dp827
Vdebug-info
p828
I01
sVsigned-modules
p829
I00
sVimage-file
p830
Varch/x86/boot/bzImage
p831
sVvdso
p832
I01
ss(Vdescription
p833
g60
NV4kc-malta
p834
tp835
(dp836
Vhardware
p837
VMIPS Malta
p838
sVhardware-long
p839
VMIPS Malta boards
p840
ss(g155
g111
g71
tp841
(dp842
g159
I01
sg160
(lp843
V5kc-malta
p844
aVloongson-3
p845
aVocteon
p846
ass(Vimage
p847
g291
tp848
(dp849
Vinstall-stem
p850
Vvmlinuz
p851
sVsuggests
p852
Vvmelilo, fdutils
p853
ss(Vdescription
p854
g5
NVs390x
p855
tp856
(dp857
Vhardware
p858
VIBM zSeries
p859
ss(Vbuild
p860
g274
tp861
(dp862
Vsigned-modules
p863
I00
sVimage-file
p864
Varch/sparc/boot/zImage
p865
ss(Vimage
p866
g325
NVmarvell
p867
tp868
(dp869
Vcheck-size
p870
L2097080L
sVrecommends
p871
Vu-boot-tools
p872
sVbreaks
p873
Vflash-kernel (<< 3.57~)
p874
sVcheck-size-with-dtb
p875
I01
ss(Vversion
p876
tp877
(dp878
Vupstream
p879
V4.8
p880
sVabiname_base
p881
V4.8.0
p882
sVabiname
p883
V4.8.0-kali2
p884
sVsource
p885
V4.8.11-1kali1
p886
ss(Vdescription
p887
g274
NVsparc64-smp
p888
tp889
(dp890
Vhardware
p891
Vmultiprocessor 64-bit UltraSPARC
p892
ss(Vimage
p893
g257
tp894
(dp895
Vinstall-stem
p896
Vvmlinux
p897
sVsuggests
p898
Vpalo
p899
ss(Vbuild
p900
g88
tp901
(dp902
Vsigned-modules
p903
I00
sVvdso
p904
I01
sVimage-file
p905
Varch/x86/boot/bzImage
p906
ss(Vbuild
p907
g28
tp908
(dp909
Vvdso
p910
I01
sVimage-file
p911
Vvmlinux
p912
ss(Vdescription
p913
g81
NValpha-generic
p914
tp915
(dp916
Vhardware
p917
VAlpha
p918
sVhardware-long
p919
VDEC Alpha systems with extended kernel start address (Wildfire, Titan, Marvel)
p920
ss(Vimage
p921
g60
NV5kc-malta
p922
tp923
(dp924
Vconfigs
p925
(lp926
Vkernelarch-mips/config.malta
p927
aVkernelarch-mips/config.mips64r2
p928
ass(Vbase
p929
Vtilegx
p930
tp931
(dp932
Vfeaturesets
p933
(lp934
sVkernel-arch
p935
Vtile
p936
ss(Vbase
p937
g325
tp938
(dp939
g69
(lp940
g71
asVkernel-arch
p941
Varm
p942
ss(Vbuild
p943
g184
tp944
(dp945
Vsigned-modules
p946
I00
sVvdso
p947
I01
sVimage-file
p948
Varch/arm/boot/zImage
p949
ss(g155
g66
g71
tp950
(dp951
g159
I01
sg160
(lp952
V5kc-malta
p953
aVocteon
p954
ass(Vbuild
p955
g37
tp956
(dp957
Vsigned-modules
p958
I00
sVimage-file
p959
Vvmlinux
p960
ss(Vbase
p961
g88
Vrt
p962
tp963
(dp964
Vflavours
p965
(lp966
V686-pae
p967
ass(Vimage
p968
g274
NVsparc64
p969
tp970
(dp971
Vconfigs
p972
(lp973
Vkernelarch-sparc/config-up
p974
ass(Vbase
p975
g11
tp976
(dp977
g69
(lp978
g71
asVkernel-arch
p979
Vpowerpc
p980
ss(Vxen
p981
g317
g360
Vamd64
p982
tp983
(dp984
Vflavours
p985
(lp986
Vamd64
p987
ass(Vbase
p988
g347
tp989
(dp990
g69
(lp991
g71
asVkernel-arch
p992
Vpowerpc
p993
ss(Vimage
p994
g317
tp995
(dp996
Vinstall-stem
p997
Vvmlinuz
p998
sVbreaks
p999
Vxserver-xorg-input-vmmouse (<< 1:13.0.99)
p1000
sVbootloaders
p1001
(lp1002
Vgrub-pc
p1003
aVgrub-efi-amd64
p1004
aVextlinux
p1005
ass(Vimage
p1006
g111
NV5kc-malta
p1007
tp1008
(dp1009
Vconfigs
p1010
(lp1011
Vkernelarch-mips/config.malta
p1012
aVkernelarch-mips/config.mips64r2
p1013
ass(g155
g257
g71
tp1014
(dp1015
g159
I01
sg160
(lp1016
Vparisc
p1017
aVparisc64-smp
p1018
ass(Vimage
p1019
g37
NVocteon
p1020
tp1021
(dp1022
Vconfigs
p1023
(lp1024
Vkernelarch-mips/config.octeon
p1025
ass(Vimage
p1026
g274
NVsparc64-smp
p1027
tp1028
(dp1029
Vconfigs
p1030
(lp1031
Vkernelarch-sparc/config-smp
p1032
ass(Vbuild
p1033
g156
tp1034
(dp1035
Vsigned-modules
p1036
I00
sVvdso
p1037
I01
sVimage-file
p1038
Vvmlinux
p1039
ss(Vbuild
p1040
g347
tp1041
(dp1042
Vvdso
p1043
I01
sVimage-file
p1044
Vvmlinux
p1045
ss(Vbuild
p1046
g325
tp1047
(dp1048
Vsigned-modules
p1049
I00
sVimage-file
p1050
Varch/arm/boot/zImage
p1051
ss(Vimage
p1052
g347
NVpowerpc64
p1053
tp1054
(dp1055
Vconfigs
p1056
(lp1057
Vkernelarch-powerpc/config-arch-64
p1058
aVkernelarch-powerpc/config-arch-64-be
p1059
ass(Vimage
p1060
g60
NVocteon
p1061
tp1062
(dp1063
Vconfigs
p1064
(lp1065
Vkernelarch-mips/config.octeon
p1066
ass(Vbase
p1067
g257
NVparisc64-smp
p1068
tp1069
(dp1070
Vcflags
p1071
V-fno-cse-follow-jumps
p1072
sVoverride-host-type
p1073
Vhppa64-linux-gnu
p1074
ss(g155
g81
g71
tp1075
(dp1076
g159
I01
sg160
(lp1077
Valpha-generic
p1078
aValpha-smp
p1079
ass(Vimage
p1080
g184
tp1081
(dp1082
Vinstall-stem
p1083
Vvmlinuz
p1084
ss(Vbuild
p1085
g19
tp1086
(dp1087
Vsigned-modules
p1088
I00
sVimage-file
p1089
Varch/sh/boot/zImage
p1090
ss(Vdescription
p1091
g88
g435
V686-pae
p1092
tp1093
(dp1094
Vparts
p1095
(lp1096
Vxen
p1097
ass(Vbase
p1098
g274
tp1099
(dp1100
g69
(lp1101
g71
asVkernel-arch
p1102
Vsparc
p1103
ss(Vbase
p1104
g111
tp1105
(dp1106
g69
(lp1107
g71
asVkernel-arch
p1108
Vmips
p1109
ss(Vbase
p1110
Vx32
p1111
tp1112
(dp1113
Vfeaturesets
p1114
(lp1115
sVkernel-arch
p1116
Vx86
p1117
ss(Vbase
p1118
g156
tp1119
(dp1120
g69
(lp1121
g71
asVkernel-arch
p1122
Vpowerpc
p1123
ss(g155
g274
g71
tp1124
(dp1125
g159
I01
sg160
(lp1126
Vsparc64
p1127
aVsparc64-smp
p1128
ass(Vbuild
p1129
g5
NVs390x
p1130
tp1131
(dp1132
Vdebug-info
p1133
I01
ss(Vimage
p1134
g51
tp1135
(dp1136
Vinstall-stem
p1137
Vvmlinuz
p1138
ss(Vrelations
p1139
g184
tp1140
(dp1141
Vheaders%gcc-5
p1142
Vlinux-compiler-gcc-5-arm
p1143
ss(Vimage
p1144
g37
NV5kc-malta
p1145
tp1146
(dp1147
Vconfigs
p1148
(lp1149
Vkernelarch-mips/config.malta
p1150
aVkernelarch-mips/config.mips64r2
p1151
ass(Vbuild
p1152
g88
NV686-pae
p1153
tp1154
(dp1155
Vdebug-info
p1156
I01
ss(Vrelations
p1157
g257
tp1158
(dp1159
Vgcc-5
p1160
Vgcc-5 <!stage1 !cross>, binutils-hppa64-linux-gnu <!stage1 !cross>, gcc-5-hppa64-linux-gnu <!stage1 !cross>, gcc-5-hppa-linux-gnu:native <!stage1 cross>, binutils-hppa64-linux-gnu:native <!stage1 cross>, gcc-5-hppa64-linux-gnu:native <!stage1 cross>
p1161
ss(Vdescription
p1162
g257
NVparisc64-smp
p1163
tp1164
(dp1165
Vhardware
p1166
Vmultiprocessor 64-bit PA-RISC
p1167
sVhardware-long
p1168
VHP PA-RISC 64-bit SMP systems with support for more than 4 GB RAM
p1169
ss(Vimage
p1170
tp1171
(dp1172
Vinitramfs-generators
p1173
(lp1174
Vinitramfs-tools
p1175
aVinitramfs-fallback
p1176
ass(Vbuild
p1177
g111
tp1178
(dp1179
Vsigned-modules
p1180
I00
sVimage-file
p1181
Vvmlinux
p1182
sstp1183
Rp1184
.