ccopy_reg
_reconstructor
p0
(cdebian_linux.config
ConfigCore
p1
c__builtin__
dict
p2
(dp3
(Vdescription
p4
Vi386
p5
NV686-pae
p6
tp7
(dp8
Vhardware-long
p9
VPCs with one or more processors supporting PAE
p10
sVhardware
p11
Vmodern PCs
p12
sVparts
p13
(lp14
Vpae
p15
ass(Vdescription
p16
Vmips
p17
NV5kc-malta
p18
tp19
(dp20
Vhardware-long
p21
VMIPS Malta boards (64-bit)
p22
sVhardware
p23
VMIPS Malta (64-bit)
p24
ss(Vbase
p25
Vmips64el
p26
Vnone
p27
tp28
(dp29
Vflavours
p30
(lp31
V5kc-malta
p32
aVloongson-3
p33
aVocteon
p34
asVimplicit-flavour
p35
I01
ss(g25
Valpha
p36
g27
tp37
(dp38
g30
(lp39
Valpha-generic
p40
aValpha-smp
p41
asg35
I01
ss(g25
Vsparc64
p42
g27
tp43
(dp44
g30
(lp45
Vsparc64
p46
aVsparc64-smp
p47
asg35
I01
ss(Vdescription
p48
g42
NVsparc64-smp
p49
tp50
(dp51
Vhardware
p52
Vmultiprocessor 64-bit UltraSPARC
p53
ss(Vbase
p54
Vmips64
p55
tp56
(dp57
Vkernel-arch
p58
Vmips
p59
sVfeaturesets
p60
(lp61
g27
ass(g25
Vppc64
p62
g27
tp63
(dp64
g30
(lp65
Vpowerpc64
p66
asg35
I01
ss(Vdescription
p67
g5
tp68
(dp69
Vpart-long-pae
p70
VThis kernel requires PAE (Physical Address Extension).\u000aThis feature is supported by the Intel Pentium Pro/II/III/4/4M/D, Xeon,\u000aCore and Atom; AMD Geode NX, Athlon (K7), Duron, Opteron, Sempron,\u000aTurion or Phenom; Transmeta Efficeon; VIA C7; and some other processors.
p71
ss(Vbuild
p72
Varmhf
p73
tp74
(dp75
Vvdso
p76
I01
sVimage-file
p77
Varch/arm/boot/zImage
p78
sVsigned-modules
p79
I00
ss(g25
Vsh4
p80
g27
tp81
(dp82
g30
(lp83
Vsh7751r
p84
aVsh7785lcr
p85
asg35
I01
ss(g25
Vpowerpcspe
p86
g27
tp87
(dp88
g30
(lp89
Vpowerpcspe
p90
asg35
I01
ss(Vimage
p91
g26
NV5kc-malta
p92
tp93
(dp94
Vconfigs
p95
(lp96
Vkernelarch-mips/config.malta
p97
aVkernelarch-mips/config.mips64r2
p98
ass(Vimage
p99
Varmel
p100
NVmarvell
p101
tp102
(dp103
Vcheck-size-with-dtb
p104
I01
sVcheck-size
p105
L2097080L
sVbreaks
p106
Vflash-kernel (<< 3.57~)
p107
sVrecommends
p108
Vu-boot-tools
p109
ss(Vdescription
p110
Vpowerpc
p111
NVpowerpc
p112
tp113
(dp114
Vhardware
p115
Vuniprocessor 32-bit PowerPC
p116
ss(Vrelations
p117
g100
tp118
(dp119
Vheaders%gcc-5
p120
Vlinux-compiler-gcc-5-arm
p121
ss(g25
Vm68k
p122
g27
tp123
(dp124
g30
(lp125
Vm68k
p126
asg35
I01
ss(Vimage
p127
Vhppa
p128
tp129
(dp130
Vinstall-stem
p131
Vvmlinux
p132
sVsuggests
p133
Vpalo
p134
ss(Vbase
p135
Vx32
p136
tp137
(dp138
Vkernel-arch
p139
Vx86
p140
sVfeaturesets
p141
(lp142
ss(Vimage
p143
g73
tp144
(dp145
Vinstall-stem
p146
Vvmlinuz
p147
ss(Vimage
p148
g17
tp149
(dp150
Vinstall-stem
p151
Vvmlinux
p152
ss(Vdescription
p153
Vmipsel
p154
NVocteon
p155
tp156
(dp157
Vhardware-long
p158
VCavium Networks Octeon
p159
sVhardware
p160
VOcteon
p161
ss(g25
g17
g27
tp162
(dp163
g30
(lp164
V4kc-malta
p165
aV5kc-malta
p166
aVocteon
p167
asg35
I01
ss(Vbase
p168
g36
tp169
(dp170
Vkernel-arch
p171
Valpha
p172
sg60
(lp173
g27
ass(Vbase
p174
g154
tp175
(dp176
Vkernel-arch
p177
Vmips
p178
sg60
(lp179
g27
ass(Vimage
p180
tp181
(dp182
Vinitramfs-generators
p183
(lp184
Vinitramfs-tools
p185
aVinitramfs-fallback
p186
ass(Vbuild
p187
Vppc64el
p188
tp189
(dp190
Vvdso
p191
I01
sVimage-file
p192
Vvmlinux
p193
ss(Vbase
p194
g73
tp195
(dp196
Vkernel-arch
p197
Varm
p198
sg60
(lp199
g27
ass(Vdescription
p200
g128
NVparisc64-smp
p201
tp202
(dp203
Vhardware-long
p204
VHP PA-RISC 64-bit SMP systems with support for more than 4 GB RAM
p205
sVhardware
p206
Vmultiprocessor 64-bit PA-RISC
p207
ss(Vdescription
p208
g86
tp209
(dp210
Vhardware
p211
V32-bit PowerPC with SPE (instead of AltiVec) with SMP support
p212
ss(Vimage
p213
g111
NVpowerpc64
p214
tp215
(dp216
Vconfigs
p217
(lp218
Vkernelarch-powerpc/config-arch-64
p219
aVkernelarch-powerpc/config-arch-64-be
p220
ass(Vdescription
p221
g100
NVmarvell
p222
tp223
(dp224
Vhardware-long
p225
VMarvell Kirkwood based systems (SheevaPlug, QNAP TS-119/TS-219, etc)\u000aand Orion 5181, 5182 and 5281 based systems (QNAP TS-109/TS-209, etc)
p226
sVhardware
p227
VMarvell Kirkwood/Orion
p228
ss(Vdescription
p229
g111
NVpowerpc-smp
p230
tp231
(dp232
Vhardware
p233
Vmultiprocessor 32-bit PowerPC
p234
ss(Vbuild
p235
Vs390x
p236
NVs390x
p237
tp238
(dp239
Vdebug-info
p240
I01
ss(Vbuild
p241
g5
tp242
(dp243
Vvdso
p244
I01
sVimage-file
p245
Varch/x86/boot/bzImage
p246
sVsigned-modules
p247
I00
ss(Vbase
p248
g111
tp249
(dp250
Vkernel-arch
p251
Vpowerpc
p252
sg60
(lp253
g27
ass(Vimage
p254
g154
tp255
(dp256
Vinstall-stem
p257
Vvmlinux
p258
ss(Vbase
p259
g128
NVparisc64-smp
p260
tp261
(dp262
Voverride-host-type
p263
Vhppa64-linux-gnu
p264
sVcflags
p265
V-fno-cse-follow-jumps
p266
ss(Vimage
p267
g17
NV4kc-malta
p268
tp269
(dp270
Vconfigs
p271
(lp272
Vkernelarch-mips/config.malta
p273
aVkernelarch-mips/config.mips32r2
p274
ass(Vimage
p275
g17
NVocteon
p276
tp277
(dp278
Vconfigs
p279
(lp280
Vkernelarch-mips/config.octeon
p281
ass(Vbuild
p282
tp283
(dp284
Vdebug-info
p285
I01
sVsigned-modules
p286
I01
ss(Vimage
p287
g154
NVocteon
p288
tp289
(dp290
Vconfigs
p291
(lp292
Vkernelarch-mips/config.octeon
p293
ass(Vbase
p294
Vtilegx
p295
tp296
(dp297
Vkernel-arch
p298
Vtile
p299
sVfeaturesets
p300
(lp301
ss(Vimage
p302
g42
tp303
(dp304
Vconfigs
p305
(lp306
sVinstall-stem
p307
Vvmlinuz
p308
sVsuggests
p309
Vsilo, fdutils
p310
ss(Vrelations
p311
g5
tp312
(dp313
Vheaders%gcc-5
p314
Vlinux-compiler-gcc-5-x86
p315
ss(Vdescription
p316
g5
Vnone
p317
V686-pae
p318
tp319
(dp320
Vparts
p321
(lp322
Vxen
p323
ass(Vimage
p324
g55
tp325
(dp326
Vinstall-stem
p327
Vvmlinux
p328
ss(Vbase
p329
g62
tp330
(dp331
Vkernel-arch
p332
Vpowerpc
p333
sg60
(lp334
g27
ass(Vbase
p335
g26
tp336
(dp337
Vkernel-arch
p338
Vmips
p339
sg60
(lp340
g27
ass(Vdescription
p341
g17
NVocteon
p342
tp343
(dp344
Vhardware-long
p345
VCavium Networks Octeon
p346
sVhardware
p347
VOcteon
p348
ss(Vabi
p349
NVrt
p350
tp351
(dp352
Vignore-changes
p353
(lp354
V*
p355
ass(Vdescription
p356
g80
NVsh7785lcr
p357
tp358
(dp359
Vhardware-long
p360
VRenesas SH7785 reference board
p361
sVhardware
p362
Vsh7785lcr
p363
ss(Vimage
p364
g26
NVloongson-3
p365
tp366
(dp367
Vconfigs
p368
(lp369
Vkernelarch-mips/config.loongson-3
p370
ass(Vimage
p371
g100
tp372
(dp373
Vinstall-stem
p374
Vvmlinuz
p375
ss(Vbase
p376
Vmipsn32el
p377
tp378
(dp379
Vkernel-arch
p380
Vmips
p381
sVfeaturesets
p382
(lp383
ss(Vbase
p384
Vsparc
p385
tp386
(dp387
Vkernel-arch
p388
Vsparc
p389
sVfeaturesets
p390
(lp391
ss(Vdescription
p392
g111
NVpowerpc64
p393
tp394
(dp395
Vhardware
p396
V64-bit PowerPC
p397
ss(Vbase
p398
Vmipsn32
p399
tp400
(dp401
Vkernel-arch
p402
Vmips
p403
sVfeaturesets
p404
(lp405
ss(Vimage
p406
g154
NV4kc-malta
p407
tp408
(dp409
Vconfigs
p410
(lp411
Vkernelarch-mips/config.malta
p412
aVkernelarch-mips/config.mips32r2
p413
ass(Vimage
p414
g111
tp415
(dp416
Vconfigs
p417
(lp418
sVinstall-stem
p419
Vvmlinux
p420
sVsuggests
p421
Vmkvmlinuz
p422
ss(Vbase
p423
g128
tp424
(dp425
Vkernel-arch
p426
Vparisc
p427
sg60
(lp428
g27
ass(Vbuild
p429
Varm64
p430
tp431
(dp432
Vdebug-info
p433
I01
sVvdso
p434
I01
sVimage-file
p435
Varch/arm64/boot/Image
p436
sVsigned-modules
p437
I00
ss(Vdescription
p438
g154
NVloongson-3
p439
tp440
(dp441
Vhardware-long
p442
VLoongson 3A or 3B based systems (e.g. from Loongson or Lemote)
p443
sVhardware
p444
VLoongson 3A/3B
p445
ss(Vimage
p446
g55
NVocteon
p447
tp448
(dp449
Vconfigs
p450
(lp451
Vkernelarch-mips/config.octeon
p452
ass(Vbase
p453
g5
tp454
(dp455
Vkernel-arch
p456
Vx86
p457
sVfeaturesets
p458
(lp459
Vnone
p460
aVrt
p461
ass(Vbase
p462
g17
tp463
(dp464
Vkernel-arch
p465
Vmips
p466
sg60
(lp467
g27
ass(Vbuild
p468
g236
tp469
(dp470
Vvdso
p471
I01
sVimage-file
p472
Varch/s390/boot/image
p473
ss(g25
g111
g27
tp474
(dp475
g30
(lp476
Vpowerpc
p477
aVpowerpc-smp
p478
aVpowerpc64
p479
asg35
I01
ss(Vrelations
p480
Vamd64
p481
tp482
(dp483
Vheaders%gcc-5
p484
Vlinux-compiler-gcc-5-x86
p485
ss(Vdescription
p486
g430
NVarm64
p487
tp488
(dp489
Vhardware
p490
V64-bit ARMv8 machines
p491
ss(Vbuild
p492
g80
tp493
(dp494
Vimage-file
p495
Varch/sh/boot/zImage
p496
sVsigned-modules
p497
I00
ss(Vimage
p498
g188
NVpowerpc64le
p499
tp500
(dp501
Vconfigs
p502
(lp503
Vkernelarch-powerpc/config-arch-64
p504
aVkernelarch-powerpc/config-arch-64-le
p505
ass(Vbuild
p506
g36
tp507
(dp508
Vimage-file
p509
Varch/alpha/boot/vmlinux.gz
p510
sVsigned-modules
p511
I00
ss(Vabi
p512
tp513
(dp514
Vabiname
p515
Vparrot
p516
ss(Vbase
p517
g100
tp518
(dp519
Vkernel-arch
p520
Varm
p521
sg60
(lp522
g27
ass(Vdescription
p523
g188
NVpowerpc64le
p524
tp525
(dp526
Vhardware
p527
VLittle-endian 64-bit PowerPC
p528
ss(Vbase
p529
g42
tp530
(dp531
Vkernel-arch
p532
Vsparc
p533
sg60
(lp534
g27
ass(Vbase
p535
g5
g317
tp536
(dp537
Vflavours
p538
(lp539
V686
p540
aV686-pae
p541
ass(g25
g128
g27
tp542
(dp543
g30
(lp544
Vparisc
p545
aVparisc64-smp
p546
asg35
I01
ss(Vbuild
p547
g481
tp548
(dp549
Vdebug-info
p550
I01
sVvdso
p551
I01
sVimage-file
p552
Varch/x86/boot/bzImage
p553
sVsigned-modules
p554
I00
ss(Vbuild
p555
g62
tp556
(dp557
Vvdso
p558
I01
sVimage-file
p559
Vvmlinux
p560
sVsigned-modules
p561
I00
ss(Vdescription
p562
tp563
(dp564
Vpart-long-up
p565
VThis kernel is not suitable for SMP (multi-processor,\u000amulti-core or hyper-threaded) systems.
p566
sVpart-long-xen
p567
VThis kernel also runs on a Xen hypervisor.\u000aIt supports both privileged (dom0) and unprivileged (domU) operation.
p568
ss(Vdescription
p569
g26
NV5kc-malta
p570
tp571
(dp572
Vhardware-long
p573
VMIPS Malta boards
p574
sVhardware
p575
VMIPS Malta
p576
ss(Vbuild
p577
g86
tp578
(dp579
Vvdso
p580
I01
sVimage-file
p581
Vvmlinux
p582
sVsigned-modules
p583
I00
ss(Vimage
p584
g17
NV5kc-malta
p585
tp586
(dp587
Vconfigs
p588
(lp589
Vkernelarch-mips/config.malta
p590
aVkernelarch-mips/config.mips64r2
p591
ass(Vdescription
p592
g80
NVsh7751r
p593
tp594
(dp595
Vhardware-long
p596
VRenesas SH7751R R2D plus board
p597
sVhardware
p598
Vsh7751r
p599
ss(Vbuild
p600
g122
tp601
(dp602
Vimage-file
p603
Vvmlinux.gz
p604
sVsigned-modules
p605
I00
ss(Vbuild
p606
g26
tp607
(dp608
Vimage-file
p609
Vvmlinux
p610
sVsigned-modules
p611
I00
ss(Vdescription
p612
g100
NVversatile
p613
tp614
(dp615
Vhardware-long
p616
VVersatile systems (PB, AB, Qemu)
p617
sVhardware
p618
VVersatile
p619
ss(Vbuild
p620
g111
tp621
(dp622
Vvdso
p623
I01
sVimage-file
p624
Vvmlinux
p625
ss(g25
g100
g27
tp626
(dp627
g30
(lp628
Vmarvell
p629
aVversatile
p630
asg35
I01
ss(Vdescription
p631
g36
NValpha-generic
p632
tp633
(dp634
Vhardware-long
p635
VDEC Alpha systems with extended kernel start address (Wildfire, Titan, Marvel)
p636
sVhardware
p637
VAlpha
p638
ss(Vrelations
p639
g236
tp640
(dp641
Vheaders%gcc-5
p642
Vlinux-compiler-gcc-5-s390
p643
ss(Vimage
p644
g86
tp645
(dp646
Vinstall-stem
p647
Vvmlinux
p648
sVsuggests
p649
Vmkvmlinuz
p650
ss(Vbase
p651
NVrt
p652
tp653
(dp654
Venabled
p655
I01
ss(Vdescription
p656
g122
NVm68k
p657
tp658
(dp659
Vhardware
p660
VMotorola MC68020+ family
p661
ss(g25
g236
g27
tp662
(dp663
g30
(lp664
Vs390x
p665
asg35
I01
ss(Vdescription
p666
g236
NVs390x
p667
tp668
(dp669
Vhardware
p670
VIBM zSeries
p671
ss(Vimage
p672
g62
tp673
(dp674
Vconfigs
p675
(lp676
sVinstall-stem
p677
Vvmlinux
p678
sVsuggests
p679
Vmkvmlinuz
p680
ss(Vrelations
p681
g128
tp682
(dp683
Vgcc-5
p684
Vgcc-5 <!stage1 !cross>, binutils-hppa64-linux-gnu <!stage1 !cross>, gcc-5-hppa64-linux-gnu <!stage1 !cross>, gcc-5-hppa-linux-gnu:native <!stage1 cross>, binutils-hppa64-linux-gnu:native <!stage1 cross>, gcc-5-hppa64-linux-gnu:native <!stage1 cross>
p685
ss(Vbase
p686
g481
Vrt
p687
tp688
(dp689
Vflavours
p690
(lp691
Vamd64
p692
ass(Vdescription
p693
g26
NVocteon
p694
tp695
(dp696
Vhardware-long
p697
VCavium Networks Octeon
p698
sVhardware
p699
VOcteon
p700
ss(Vdescription
p701
g26
NVloongson-3
p702
tp703
(dp704
Vhardware-long
p705
VLoongson 3A or 3B based systems (e.g. from Loongson or Lemote)
p706
sVhardware
p707
VLoongson 3A/3B
p708
ss(Vimage
p709
g26
tp710
(dp711
Vinstall-stem
p712
Vvmlinux
p713
ss(Vbuild
p714
g154
tp715
(dp716
Vimage-file
p717
Vvmlinux
p718
sVsigned-modules
p719
I00
ss(Vdescription
p720
g42
NVsparc64
p721
tp722
(dp723
Vhardware
p724
Vuniprocessor 64-bit UltraSPARC
p725
ss(g25
g154
g27
tp726
(dp727
g30
(lp728
V4kc-malta
p729
aV5kc-malta
p730
aVloongson-3
p731
aVocteon
p732
asg35
I01
ss(Vbase
p733
g80
tp734
(dp735
Vkernel-arch
p736
Vsh
p737
sg60
(lp738
g27
ass(g25
g188
g27
tp739
(dp740
g30
(lp741
Vpowerpc64le
p742
asg35
I01
ss(Vimage
p743
g42
NVsparc64-smp
p744
tp745
(dp746
Vconfigs
p747
(lp748
Vkernelarch-sparc/config-smp
p749
ass(Vimage
p750
g111
NVpowerpc-smp
p751
tp752
(dp753
Vconfigs
p754
(lp755
Vpowerpc/config.powerpc
p756
aVpowerpc/config.powerpc-smp
p757
ass(Vversion
p758
tp759
(dp760
Vsource
p761
V4.8.5-2parrot0
p762
sVabiname_base
p763
V4.8.0
p764
sVabiname
p765
V4.8.0-parrot
p766
sVupstream
p767
V4.8
p768
ss(Vimage
p769
g55
NV5kc-malta
p770
tp771
(dp772
Vconfigs
p773
(lp774
Vkernelarch-mips/config.malta
p775
aVkernelarch-mips/config.mips64r2
p776
ass(Vimage
p777
g154
NVloongson-3
p778
tp779
(dp780
Vconfigs
p781
(lp782
Vkernelarch-mips/config.loongson-3
p783
ass(Vbuild
p784
g5
NV686-pae
p785
tp786
(dp787
Vdebug-info
p788
I01
ss(Vdescription
p789
g73
NVarmmp-lpae
p790
tp791
(dp792
Vhardware-long
p793
VARMv7 multiplatform kernel supporting LPAE. See\u000ahttps://wiki.debian.org/DebianKernel/ARMMP for details of supported\u000aplatforms.
p794
sVhardware
p795
VARMv7 multiplatform compatible SoCs supporting LPAE
p796
ss(Vimage
p797
g62
NVpowerpc64
p798
tp799
(dp800
Vconfigs
p801
(lp802
Vkernelarch-powerpc/config-arch-64
p803
aVkernelarch-powerpc/config-arch-64-be
p804
ass(Vbase
p805
g430
tp806
(dp807
Vkernel-arch
p808
Varm64
p809
sVfeaturesets
p810
(lp811
Vnone
p812
ass(Vimage
p813
g5
tp814
(dp815
Vbootloaders
p816
(lp817
Vgrub-pc
p818
aVextlinux
p819
asVbreaks
p820
Vxserver-xorg-input-vmmouse (<< 1:13.0.99)
p821
sVinstall-stem
p822
Vvmlinuz
p823
ss(Vdescription
p824
g481
Vnone
p825
Vamd64
p826
tp827
(dp828
Vparts
p829
(lp830
Vxen
p831
ass(Vdescription
p832
g55
NVocteon
p833
tp834
(dp835
Vhardware-long
p836
VCavium Networks Octeon
p837
sVhardware
p838
VOcteon
p839
ss(Vbuild
p840
g17
tp841
(dp842
Vimage-file
p843
Vvmlinux
p844
sVsigned-modules
p845
I00
ss(Vdescription
p846
g154
NV5kc-malta
p847
tp848
(dp849
Vhardware-long
p850
VMIPS Malta boards (64-bit)
p851
sVhardware
p852
VMIPS Malta (64-bit)
p853
ss(Vdescription
p854
g17
NV4kc-malta
p855
tp856
(dp857
Vhardware-long
p858
VMIPS Malta boards
p859
sVhardware
p860
VMIPS Malta
p861
ss(Vimage
p862
g430
NVarm64
p863
tp864
(dp865
s(Vbuild
p866
g128
tp867
(dp868
Vimage-file
p869
Vvmlinux
p870
sVsigned-modules
p871
I00
ss(Vimage
p872
g154
NV5kc-malta
p873
tp874
(dp875
Vconfigs
p876
(lp877
Vkernelarch-mips/config.malta
p878
aVkernelarch-mips/config.mips64r2
p879
ass(Vbuild
p880
g100
tp881
(dp882
Vimage-file
p883
Varch/arm/boot/zImage
p884
sVsigned-modules
p885
I00
ss(Vbuild
p886
g55
tp887
(dp888
Vimage-file
p889
Vvmlinux
p890
sVsigned-modules
p891
I00
ss(Vimage
p892
g80
tp893
(dp894
Vinstall-stem
p895
Vvmlinuz
p896
ss(Vdescription
p897
g481
NVamd64
p898
tp899
(dp900
Vhardware-long
p901
VPCs with AMD64, Intel 64 or VIA Nano processors
p902
sVhardware
p903
V64-bit PCs
p904
ss(Vdescription
p905
g128
NVparisc
p906
tp907
(dp908
Vhardware-long
p909
VHP PA-RISC 32-bit systems with max 4 GB RAM
p910
sVhardware
p911
V32-bit PA-RISC
p912
ss(Vdescription
p913
g73
NVarmmp
p914
tp915
(dp916
Vhardware-long
p917
VARMv7 multiplatform kernel. See\u000ahttps://wiki.debian.org/DebianKernel/ARMMP for details of supported\u000aplatforms
p918
sVhardware
p919
VARMv7 multiplatform compatible SoCs
p920
ss(g25
g73
g27
tp921
(dp922
g30
(lp923
Varmmp
p924
aVarmmp-lpae
p925
asg35
I01
ss(Vimage
p926
g26
NVocteon
p927
tp928
(dp929
Vconfigs
p930
(lp931
Vkernelarch-mips/config.octeon
p932
ass(Vimage
p933
g122
tp934
(dp935
Vinstall-stem
p936
Vvmlinuz
p937
sVsuggests
p938
Vvmelilo, fdutils
p939
ss(Vimage
p940
g430
tp941
(dp942
Vinstall-stem
p943
Vvmlinuz
p944
ss(Vdescription
p945
g36
NValpha-smp
p946
tp947
(dp948
Vhardware-long
p949
VDEC Alpha SMP systems with extended kernel start address (Wildfire, Titan, Marvel)
p950
sVhardware
p951
VAlpha SMP
p952
ss(Vbuild
p953
g42
tp954
(dp955
Vimage-file
p956
Varch/sparc/boot/zImage
p957
sVsigned-modules
p958
I00
ss(Vbase
p959
g481
g825
tp960
(dp961
Vflavours
p962
(lp963
Vamd64
p964
ass(Vbase
p965
g430
Vnone
p966
tp967
(dp968
Vflavours
p969
(lp970
Varm64
p971
ass(Vxen
p972
g481
g825
Vamd64
p973
tp974
(dp975
Vflavours
p976
(lp977
Vamd64
p978
ass(Vbase
p979
g481
tp980
(dp981
Vkernel-arch
p982
Vx86
p983
sVfeaturesets
p984
(lp985
Vnone
p986
aVrt
p987
ass(Vdescription
p988
g62
NVpowerpc64
p989
tp990
(dp991
Vhardware
p992
V64-bit PowerPC
p993
ss(Vimage
p994
g236
tp995
(dp996
Vbootloaders
p997
(lp998
Vs390-tools
p999
asVinstall-stem
p1000
Vvmlinuz
p1001
ss(Vdescription
p1002
g154
NV4kc-malta
p1003
tp1004
(dp1005
Vhardware-long
p1006
VMIPS Malta boards
p1007
sVhardware
p1008
VMIPS Malta
p1009
ss(Vimage
p1010
g188
tp1011
(dp1012
Vconfigs
p1013
(lp1014
sVinstall-stem
p1015
Vvmlinux
p1016
sVsuggests
p1017
Vmkvmlinuz
p1018
ss(Vbase
p1019
g86
tp1020
(dp1021
Vkernel-arch
p1022
Vpowerpc
p1023
sg60
(lp1024
g27
ass(Vdescription
p1025
g5
NV686
p1026
tp1027
(dp1028
Vhardware-long
p1029
VPCs with one or more processors not supporting PAE
p1030
sVhardware
p1031
Volder PCs
p1032
ss(Vrelations
p1033
g73
tp1034
(dp1035
Vheaders%gcc-5
p1036
Vlinux-compiler-gcc-5-arm
p1037
ss(Vimage
p1038
g36
tp1039
(dp1040
Vinstall-stem
p1041
Vvmlinuz
p1042
sVsuggests
p1043
Vaboot, fdutils
p1044
ss(Vbase
p1045
g122
tp1046
(dp1047
Vkernel-arch
p1048
Vm68k
p1049
sVcflags
p1050
V-ffreestanding
p1051
sg60
(lp1052
g27
ass(Vbase
p1053
g188
tp1054
(dp1055
Vkernel-arch
p1056
Vpowerpc
p1057
sg60
(lp1058
g27
ass(Vbase
p1059
Vs390
p1060
tp1061
(dp1062
Vkernel-arch
p1063
Vs390
p1064
sVfeaturesets
p1065
(lp1066
ss(Vimage
p1067
g80
NVsh7785lcr
p1068
tp1069
(dp1070
Vcheck-size
p1071
L4194304L
sVrecommends
p1072
Vu-boot-tools
p1073
ss(Vimage
p1074
g481
tp1075
(dp1076
Vbootloaders
p1077
(lp1078
Vgrub-pc
p1079
aVgrub-efi-amd64
p1080
aVextlinux
p1081
asVbreaks
p1082
Vxserver-xorg-input-vmmouse (<< 1:13.0.99)
p1083
sVinstall-stem
p1084
Vvmlinuz
p1085
ss(Vbase
p1086
Vor1k
p1087
tp1088
(dp1089
Vkernel-arch
p1090
Vopenrisc
p1091
sVfeaturesets
p1092
(lp1093
ss(Vbase
p1094
g236
tp1095
(dp1096
Vkernel-arch
p1097
Vs390
p1098
sg60
(lp1099
g27
ass(Vimage
p1100
g42
NVsparc64
p1101
tp1102
(dp1103
Vconfigs
p1104
(lp1105
Vkernelarch-sparc/config-up
p1106
ass(Vrelations
p1107
tp1108
(dp1109
Vgcc-5
p1110
Vgcc-5 <!stage1 !cross>, gcc-5-@gnu-type-package@:native <!stage1 cross>
p1111
sVinitramfs-fallback
p1112
Vlinux-initramfs-tool
p1113
sVinitramfs-tools
p1114
Vinitramfs-tools (>= 0.110~)
p1115
ss(Vdescription
p1116
Ng350
tp1117
(dp1118
Vpart-short-rt
p1119
VPREEMPT_RT
p1120
sVparts
p1121
(lp1122
Vrt
p1123
asVpart-long-rt
p1124
VThis kernel includes the PREEMPT_RT realtime patch set.
p1125
ss(Vdescription
p1126
g55
NV5kc-malta
p1127
tp1128
(dp1129
Vhardware-long
p1130
VMIPS Malta boards
p1131
sVhardware
p1132
VMIPS Malta
p1133
ss(Vbase
p1134
tp1135
(dp1136
Vcompiler
p1137
Vgcc-5
p1138
sVarches
p1139
(lp1140
Valpha
p1141
aVamd64
p1142
aVarm64
p1143
aVarmel
p1144
aVarmhf
p1145
aVhppa
p1146
aVi386
p1147
aVm68k
p1148
aVmips
p1149
aVmipsel
p1150
aVmipsn32
p1151
aVmipsn32el
p1152
aVmips64
p1153
aVmips64el
p1154
aVor1k
p1155
aVpowerpc
p1156
aVpowerpcspe
p1157
aVppc64
p1158
aVppc64el
p1159
aVs390
p1160
aVs390x
p1161
aVsh4
p1162
aVsparc
p1163
aVsparc64
p1164
aVtilegx
p1165
aVx32
p1166
asVfeaturesets
p1167
(lp1168
Vnone
p1169
aVrt
p1170
ass(Vbase
p1171
g5
Vrt
p1172
tp1173
(dp1174
Vflavours
p1175
(lp1176
V686-pae
p1177
ass(g25
g55
g27
tp1178
(dp1179
g30
(lp1180
V5kc-malta
p1181
aVocteon
p1182
asg35
I01
sstp1183
Rp1184
.