cdebian_linux.config
ConfigCore
p0
(tRp1
(Vabi
p2
tp3
(dp4
Vabiname
p5
Vparrot1
p6
sVignore-changes
p7
(lp8
V__cpuhp_*
p9
aV__xive_vm_h_*
p10
aVbpf_analyzer
p11
aVcxl_*
p12
aVdax_flush
p13
aVieee80211_nullfunc_get
p14
aVinet_add_protocol
p15
aVinet_del_protocol
p16
aViommu_device_*
p17
aVkvm_async_pf_task_wait
p18
aVkvmppc_*
p19
aVmm_iommu_*
p20
aVmv_mbus_*
p21
aVperf_*
p22
aVregister_cxl_calls
p23
aVregister_key_type
p24
aVunregister_cxl_calls
p25
aV*_hw_breakpoint
p26
aVmodule:arch/x86/kvm/*
p27
aVmodule:drivers/crypto/ccp/*
p28
aVmodule:drivers/hv/*
p29
aVmodule:drivers/gpu/drm/sun4i/*
p30
aVmodule:drivers/iio/**
p31
aVmodule:drivers/misc/cxl/*
p32
aVmodule:drivers/mtd/nand/*
p33
aVmodule:drivers/net/ethernet/**
p34
aVmodule:drivers/net/wireless/**
p35
aVmodule:drivers/nvdimm/*
p36
aVmodule:drivers/power/supply/bq27xxx_battery
p37
aVmodule:drivers/scsi/cxgbi/*
p38
aVmodule:drivers/scsi/libiscs*
p39
aVmodule:drivers/scsi/qla2xxx/qla2xxx
p40
aVmodule:drivers/scsi/ufs/*
p41
aVmodule:drivers/target/**
p42
aVmodule:drivers/usb/chipidea/**
p43
aVmodule:drivers/usb/gadget/**
p44
aVmodule:drivers/usb/host/**
p45
aVmodule:drivers/usb/musb/**
p46
aVmodule:fs/nfs/**
p47
aVmodule:net/ceph/libceph
p48
aVmodule:net/l2tp/**
p49
aVmodule:net/rxrpc/rxrpc
p50
aVmodule:net/sctp/**
p51
aVmodule:sound/core/seq/**
p52
aVmodule:sound/firewire/snd-firewire-lib
p53
aVmodule:sound/pci/hda/*
p54
aVbtree_*
p55
aVvisitor*
p56
aVcan_rx_register
p57
aVip6_xmit
p58
aVmodule:net/dccp/dccp
p59
aVmodule:net/rds/rds
p60
aVdevfreq_*
p61
aVdevm_devfreq_*
p62
aVupdate_devfreq
p63
aVmodule:drivers/infiniband/**
p64
aVacpi_ec_add_query_handler
p65
aVacpi_ec_remove_query_handler
p66
aVfirst_ec
p67
aVdebugfs_create_automount
p68
aVmodule:drivers/iio/imu/inv_mpu6050/*
p69
aVdrm_crtc_accurate_vblank_count
p70
aVacpi_nfit_desc_init
p71
aVacpi_nfit_init
p72
aVloop_register_transfer
p73
aVxen_xlate_*
p74
aVnf_nat_masquerade_ipv4_register_notifier
p75
aVnf_nat_masquerade_ipv6_register_notifier
p76
ass(Vbase
p77
tp78
(dp79
Varches
p80
(lp81
Valpha
p82
aVamd64
p83
aVarm64
p84
aVarm64ilp32
p85
aVarmel
p86
aVarmhf
p87
aVhppa
p88
aVi386
p89
aVia64
p90
aVm68k
p91
aVmips
p92
aVmips64
p93
aVmips64el
p94
aVmips64r6
p95
aVmips64r6el
p96
aVmipsel
p97
aVmipsn32
p98
aVmipsn32el
p99
aVmipsn32r6
p100
aVmipsn32r6el
p101
aVmipsr6
p102
aVmipsr6el
p103
aVpowerpc
p104
aVpowerpcspe
p105
aVppc64
p106
aVppc64el
p107
aVriscv64
p108
aVs390
p109
aVs390x
p110
aVsh3
p111
aVsh4
p112
aVsparc
p113
aVsparc64
p114
aVx32
p115
asVcompiler
p116
Vgcc-8
p117
sVfeaturesets
p118
(lp119
Vnone
p120
aVrt
p121
ass(Vbuild
p122
tp123
(dp124
Vdebug-info
p125
I01
sVsigned-code
p126
I00
ss(Vbase
p127
NVrt
p128
tp129
(dp130
Venabled
p131
I01
ss(Vdescription
p132
tp133
(dp134
Vpart-long-up
p135
VThis kernel is not suitable for SMP (multi-processor,\u000amulti-core or hyper-threaded) systems.
p136
ss(Vimage
p137
tp138
(dp139
Vinitramfs-generators
p140
(lp141
Vinitramfs-tools
p142
aVinitramfs-fallback
p143
asVrecommends
p144
(lp145
Vapparmor
p146
ass(Vrelations
p147
tp148
(dp149
Vgcc-8
p150
Vgcc-8 <!stage1 !cross !pkg.linux.nokernel>, gcc-8-@gnu-type-package@ <!stage1 cross !pkg.linux.nokernel>
p151
sVinitramfs-fallback
p152
Vlinux-initramfs-tool
p153
sVinitramfs-tools
p154
Vinitramfs-tools (>= 0.120+deb8u2)
p155
ss(Vbase
p156
Valpha
p157
tp158
(dp159
Vkernel-arch
p160
Valpha
p161
sVfeaturesets
p162
(lp163
Vnone
p164
ass(Vbuild
p165
g157
tp166
(dp167
Vimage-file
p168
Varch/alpha/boot/vmlinux.gz
p169
ss(Vimage
p170
g157
tp171
(dp172
Vsuggests
p173
(lp174
Vaboot
p175
aVfdutils
p176
asVinstall-stem
p177
Vvmlinuz
p178
ss(Vdescription
p179
g157
NValpha-generic
p180
tp181
(dp182
Vhardware
p183
VAlpha
p184
sVhardware-long
p185
VDEC Alpha systems with extended kernel start address (Wildfire, Titan, Marvel)
p186
ss(Vdescription
p187
g157
NValpha-smp
p188
tp189
(dp190
Vhardware
p191
VAlpha SMP
p192
sVhardware-long
p193
VDEC Alpha SMP systems with extended kernel start address (Wildfire, Titan, Marvel)
p194
ss(Vbase
p195
g157
g164
tp196
(dp197
Vflavours
p198
(lp199
Valpha-generic
p200
aValpha-smp
p201
asVimplicit-flavour
p202
I01
ss(Vbase
p203
Vamd64
p204
tp205
(dp206
Vfeaturesets
p207
(lp208
Vnone
p209
aVrt
p210
asVkernel-arch
p211
Vx86
p212
ss(Vbuild
p213
g204
tp214
(dp215
Vdebug-info
p216
I01
sVimage-file
p217
Varch/x86/boot/bzImage
p218
sVsigned-code
p219
I00
sVvdso
p220
I01
ss(Vimage
p221
g204
tp222
(dp223
Vbootloaders
p224
(lp225
Vgrub-pc
p226
aVgrub-efi-amd64
p227
aVextlinux
p228
asVinstall-stem
p229
Vvmlinuz
p230
sVbreaks
p231
(lp232
Vxserver-xorg-input-vmmouse (<< 1:13.0.99)
p233
ass(Vrelations
p234
g204
tp235
(dp236
Vgcc-8
p237
Vgcc-8 (>= 8-20180123-1~) <!stage1 !cross !pkg.linux.nokernel>, gcc-8-x86-64-linux-gnu (>= 8-20180123-1~) <!stage1 cross !pkg.linux.nokernel>
p238
sVheaders%gcc-8
p239
Vlinux-compiler-gcc-8-x86
p240
ss(Vdescription
p241
g204
NVamd64
p242
tp243
(dp244
Vhardware
p245
V64-bit PCs
p246
sVhardware-long
p247
VPCs with AMD64, Intel 64 or VIA Nano processors
p248
ss(Vdescription
p249
g204
NVcloud-amd64
p250
tp251
(dp252
Vhardware
p253
Vx86-64 cloud
p254
sVhardware-long
p255
VAmazon EC2, Google Compute Engine and Microsoft Azure cloud platforms
p256
ss(Vbase
p257
g204
Vnone
p258
tp259
(dp260
Vflavours
p261
(lp262
Vamd64
p263
aVcloud-amd64
p264
ass(Vbase
p265
g204
Vrt
p266
tp267
(dp268
Vflavours
p269
(lp270
Vamd64
p271
ass(Vbase
p272
Varm64
p273
tp274
(dp275
Vkernel-arch
p276
Varm64
p277
sVfeaturesets
p278
(lp279
Vnone
p280
aVrt
p281
ass(Vbuild
p282
g273
tp283
(dp284
Vdebug-info
p285
I01
sVimage-file
p286
Varch/arm64/boot/Image
p287
sVsigned-code
p288
I00
sVvdso
p289
I01
ss(Vimage
p290
g273
tp291
(dp292
Vinstall-stem
p293
Vvmlinuz
p294
sVbreaks
p295
(lp296
Vlibmozjs185-1.0
p297
aVlibmozjs-24-0 (<< 24.2.0-5.1~)
p298
ass(Vdescription
p299
g273
NVarm64
p300
tp301
(dp302
Vhardware
p303
V64-bit ARMv8 machines
p304
ss(Vimage
p305
g273
NVarm64
p306
tp307
(dp308
s(Vbase
p309
g273
Vnone
p310
tp311
(dp312
Vflavours
p313
(lp314
Varm64
p315
ass(Vbase
p316
g273
Vrt
p317
tp318
(dp319
Vflavours
p320
(lp321
Varm64
p322
ass(Vbase
p323
Varm64ilp32
p324
tp325
(dp326
Vkernel-arch
p327
Varm64
p328
sVfeaturesets
p329
(lp330
ss(Vbase
p331
Varmel
p332
tp333
(dp334
Vkernel-arch
p335
Varm
p336
sg162
(lp337
g164
ass(Vbuild
p338
g332
tp339
(dp340
Vimage-file
p341
Varch/arm/boot/zImage
p342
sVuncompressed-image-file
p343
Varch/arm/boot/Image
p344
sVsigned-code
p345
I00
ss(Vimage
p346
g332
tp347
(dp348
Vinstall-stem
p349
Vvmlinuz
p350
ss(Vrelations
p351
g332
tp352
(dp353
Vheaders%gcc-8
p354
Vlinux-compiler-gcc-8-arm
p355
ss(Vdescription
p356
g332
NVmarvell
p357
tp358
(dp359
Vhardware
p360
VMarvell Kirkwood/Orion
p361
sVhardware-long
p362
VMarvell Kirkwood and Orion based systems (https://wiki.debian.org/ArmEabiPort#Supported_hardware)
p363
ss(Vdescription
p364
g332
NVrpi
p365
tp366
(dp367
Vhardware
p368
VRaspberry Pi and Pi Zero
p369
sVhardware-long
p370
VRaspberry Pi, Raspberry Pi Zero based systems
p371
ss(Vimage
p372
g332
NVmarvell
p373
tp374
(dp375
Vrecommends
p376
(lp377
Vu-boot-tools
p378
asVcheck-size
p379
I2097080
sVcheck-size-with-dtb
p380
I01
sVcheck-uncompressed-size
p381
I7340032
sVbreaks
p382
(lp383
Vflash-kernel (<< 3.57~)
p384
ass(g195
g332
g164
tp385
(dp386
g198
(lp387
Vmarvell
p388
aVrpi
p389
asg202
I01
ss(Vbase
p390
Varmhf
p391
tp392
(dp393
Vfeaturesets
p394
(lp395
Vnone
p396
aVrt
p397
asVkernel-arch
p398
Varm
p399
ss(Vbuild
p400
g391
tp401
(dp402
Vimage-file
p403
Varch/arm/boot/zImage
p404
sVvdso
p405
I01
sVsigned-code
p406
I00
ss(Vimage
p407
g391
tp408
(dp409
Vinstall-stem
p410
Vvmlinuz
p411
ss(Vrelations
p412
g391
tp413
(dp414
Vheaders%gcc-8
p415
Vlinux-compiler-gcc-8-arm
p416
ss(Vdescription
p417
g391
NVarmmp
p418
tp419
(dp420
Vhardware
p421
VARMv7 multiplatform compatible SoCs
p422
sVhardware-long
p423
VARMv7 multiplatform kernel. See\u000ahttps://wiki.debian.org/DebianKernel/ARMMP for details of supported\u000aplatforms
p424
ss(Vdescription
p425
g391
NVarmmp-lpae
p426
tp427
(dp428
Vhardware
p429
VARMv7 multiplatform compatible SoCs supporting LPAE
p430
sVhardware-long
p431
VARMv7 multiplatform kernel supporting LPAE. See\u000ahttps://wiki.debian.org/DebianKernel/ARMMP for details of supported\u000aplatforms.
p432
ss(Vbase
p433
g391
Vnone
p434
tp435
(dp436
Vflavours
p437
(lp438
Varmmp
p439
aVarmmp-lpae
p440
ass(Vbase
p441
g391
Vrt
p442
tp443
(dp444
Vflavours
p445
(lp446
Varmmp
p447
ass(Vbase
p448
Vhppa
p449
tp450
(dp451
Vkernel-arch
p452
Vparisc
p453
sg162
(lp454
g164
ass(Vbuild
p455
g449
tp456
(dp457
Vimage-file
p458
Varch/parisc/boot/bzImage
p459
sVdebug-info
p460
I00
ss(Vimage
p461
g449
tp462
(dp463
Vsuggests
p464
(lp465
Vpalo
p466
asVinstall-stem
p467
Vvmlinuz
p468
ss(Vdescription
p469
g449
NVparisc
p470
tp471
(dp472
Vhardware
p473
V32-bit PA-RISC
p474
sVhardware-long
p475
VHP PA-RISC 32-bit systems with max 4 GB RAM
p476
ss(Vdescription
p477
g449
NVparisc-smp
p478
tp479
(dp480
Vhardware
p481
Vmultiprocessor 32-bit PA-RISC
p482
sVhardware-long
p483
VHP PA-RISC 32-bit SMP systems with max 4 GB RAM
p484
ss(Vbase
p485
g449
NVparisc64-smp
p486
tp487
(dp488
Vcflags
p489
V-fno-cse-follow-jumps
p490
sVoverride-host-type
p491
Vhppa64-linux-gnu
p492
ss(Vdescription
p493
g449
NVparisc64-smp
p494
tp495
(dp496
Vhardware
p497
Vmultiprocessor 64-bit PA-RISC
p498
sVhardware-long
p499
VHP PA-RISC 64-bit SMP systems with support for more than 4 GB RAM
p500
ss(Vrelations
p501
g449
tp502
(dp503
Vgcc-8
p504
Vgcc-8 <!stage1 !cross !pkg.linux.nokernel>, gcc-8-hppa-linux-gnu <!stage1 cross !pkg.linux.nokernel>, binutils-hppa64-linux-gnu <!stage1 !pkg.linux.nokernel>, gcc-8-hppa64-linux-gnu <!stage1 !pkg.linux.nokernel>
p505
ss(g195
g449
g164
tp506
(dp507
g198
(lp508
Vparisc
p509
aVparisc-smp
p510
aVparisc64-smp
p511
asg202
I01
ss(Vbase
p512
Vi386
p513
tp514
(dp515
Vfeaturesets
p516
(lp517
Vnone
p518
aVrt
p519
asVkernel-arch
p520
Vx86
p521
ss(Vbuild
p522
g513
tp523
(dp524
Vimage-file
p525
Varch/x86/boot/bzImage
p526
sVsigned-code
p527
I00
sVvdso
p528
I01
ss(Vdescription
p529
g513
tp530
(dp531
Vpart-long-pae
p532
VThis kernel requires PAE (Physical Address Extension).\u000aThis feature is supported by the Intel Pentium Pro/II/III/4/4M/D, Xeon,\u000aCore and Atom; AMD Geode NX, Athlon (K7), Duron, Opteron, Sempron,\u000aTurion or Phenom; Transmeta Efficeon; VIA C7; and some other processors.
p533
ss(Vimage
p534
g513
tp535
(dp536
Vbootloaders
p537
(lp538
Vgrub-pc
p539
aVgrub-efi-ia32
p540
aVextlinux
p541
asVinstall-stem
p542
Vvmlinuz
p543
sVbreaks
p544
(lp545
Vxserver-xorg-input-vmmouse (<< 1:13.0.99)
p546
ass(Vrelations
p547
g513
tp548
(dp549
Vgcc-8
p550
Vgcc-8 (>= 8-20180123-1~) <!stage1 !cross !pkg.linux.nokernel>, gcc-8-i686-linux-gnu (>= 8-20180123-1~) <!stage1 cross !pkg.linux.nokernel>
p551
sVheaders%gcc-8
p552
Vlinux-compiler-gcc-8-x86
p553
ss(Vdescription
p554
g513
NV686
p555
tp556
(dp557
Vhardware
p558
Volder PCs
p559
sVhardware-long
p560
VPCs with one or more processors not supporting PAE
p561
ss(Vbuild
p562
g513
NV686-pae
p563
tp564
(dp565
Vdebug-info
p566
I01
ss(Vdescription
p567
g513
NV686-pae
p568
tp569
(dp570
Vhardware
p571
Vmodern PCs
p572
sVhardware-long
p573
VPCs with one or more processors supporting PAE
p574
sVparts
p575
(lp576
Vpae
p577
ass(Vbase
p578
g513
Vnone
p579
tp580
(dp581
Vflavours
p582
(lp583
V686
p584
aV686-pae
p585
ass(Vbase
p586
g513
Vrt
p587
tp588
(dp589
Vflavours
p590
(lp591
V686-pae
p592
ass(Vbase
p593
Via64
p594
tp595
(dp596
Vkernel-arch
p597
Via64
p598
sg162
(lp599
g164
ass(Vbuild
p600
g594
tp601
(dp602
Vimage-file
p603
Vvmlinux.gz
p604
ss(Vimage
p605
g594
tp606
(dp607
Vbootloaders
p608
(lp609
Vgrub-efi-ia64
p610
asVinstall-stem
p611
Vvmlinuz
p612
ss(Vdescription
p613
g594
NVitanium
p614
tp615
(dp616
Vhardware
p617
VItanium (Merced)
p618
sVhardware-long
p619
Vsystems with original Itanium (Merced) processors
p620
ss(Vdescription
p621
g594
NVmckinley
p622
tp623
(dp624
Vhardware
p625
VItanium 2+
p626
sVhardware-long
p627
Vsystems with Itanium 2 or 9300/9500/9700-series processors
p628
ss(g195
g594
g164
tp629
(dp630
g198
(lp631
Vitanium
p632
aVmckinley
p633
asg202
I01
ss(Vbase
p634
Vm68k
p635
tp636
(dp637
Vcflags
p638
V-ffreestanding
p639
sVkernel-arch
p640
Vm68k
p641
sg162
(lp642
g164
ass(Vbuild
p643
g635
tp644
(dp645
Vimage-file
p646
Vvmlinux
p647
ss(Vimage
p648
g635
tp649
(dp650
Vsuggests
p651
(lp652
Vvmelilo
p653
aVfdutils
p654
asVinstall-stem
p655
Vvmlinux
p656
ss(Vdescription
p657
g635
NVm68k
p658
tp659
(dp660
Vhardware
p661
VMotorola MC68020+ family
p662
ss(g195
g635
g164
tp663
(dp664
g198
(lp665
Vm68k
p666
asg202
I01
ss(Vbase
p667
Vmips
p668
tp669
(dp670
Vkernel-arch
p671
Vmips
p672
sg162
(lp673
g164
ass(Vbuild
p674
g668
tp675
(dp676
Vimage-file
p677
Vvmlinux
p678
ss(Vimage
p679
g668
tp680
(dp681
Vinstall-stem
p682
Vvmlinux
p683
ss(Vdescription
p684
g668
NV4kc-malta
p685
tp686
(dp687
Vhardware
p688
VMIPS Malta
p689
sVhardware-long
p690
VMIPS Malta boards
p691
ss(Vimage
p692
g668
NV4kc-malta
p693
tp694
(dp695
Vconfigs
p696
(lp697
Vkernelarch-mips/config.malta
p698
aVkernelarch-mips/config.mips32r2
p699
ass(Vdescription
p700
g668
NV5kc-malta
p701
tp702
(dp703
Vhardware
p704
VMIPS Malta (64-bit)
p705
sVhardware-long
p706
VMIPS Malta boards (64-bit)
p707
ss(Vimage
p708
g668
NV5kc-malta
p709
tp710
(dp711
Vconfigs
p712
(lp713
Vkernelarch-mips/config.malta
p714
aVkernelarch-mips/config.mips64r2
p715
ass(Vdescription
p716
g668
NVocteon
p717
tp718
(dp719
Vhardware
p720
VOcteon
p721
sVhardware-long
p722
VCavium Networks Octeon
p723
ss(Vimage
p724
g668
NVocteon
p725
tp726
(dp727
Vconfigs
p728
(lp729
Vkernelarch-mips/config.octeon
p730
ass(g195
g668
g164
tp731
(dp732
g198
(lp733
V4kc-malta
p734
aV5kc-malta
p735
aVocteon
p736
asg202
I01
ss(Vbase
p737
Vmips64
p738
tp739
(dp740
Vkernel-arch
p741
Vmips
p742
sg162
(lp743
g164
ass(Vbuild
p744
g738
tp745
(dp746
Vimage-file
p747
Vvmlinux
p748
ss(Vimage
p749
g738
tp750
(dp751
Vinstall-stem
p752
Vvmlinux
p753
ss(Vdescription
p754
g738
NV5kc-malta
p755
tp756
(dp757
Vhardware
p758
VMIPS Malta
p759
sVhardware-long
p760
VMIPS Malta boards
p761
ss(Vimage
p762
g738
NV5kc-malta
p763
tp764
(dp765
Vconfigs
p766
(lp767
Vkernelarch-mips/config.malta
p768
aVkernelarch-mips/config.mips64r2
p769
ass(Vdescription
p770
g738
NVocteon
p771
tp772
(dp773
Vhardware
p774
VOcteon
p775
sVhardware-long
p776
VCavium Networks Octeon
p777
ss(Vimage
p778
g738
NVocteon
p779
tp780
(dp781
Vconfigs
p782
(lp783
Vkernelarch-mips/config.octeon
p784
ass(g195
g738
g164
tp785
(dp786
g198
(lp787
V5kc-malta
p788
aVocteon
p789
asg202
I01
ss(Vbase
p790
Vmips64el
p791
tp792
(dp793
Vkernel-arch
p794
Vmips
p795
sg162
(lp796
g164
ass(Vbuild
p797
g791
tp798
(dp799
Vimage-file
p800
Vvmlinux
p801
ss(Vimage
p802
g791
tp803
(dp804
Vinstall-stem
p805
Vvmlinux
p806
ss(Vdescription
p807
g791
NV5kc-malta
p808
tp809
(dp810
Vhardware
p811
VMIPS Malta
p812
sVhardware-long
p813
VMIPS Malta boards
p814
ss(Vimage
p815
g791
NV5kc-malta
p816
tp817
(dp818
Vconfigs
p819
(lp820
Vkernelarch-mips/config.malta
p821
aVkernelarch-mips/config.mips64r2
p822
ass(Vdescription
p823
g791
NVloongson-3
p824
tp825
(dp826
Vhardware
p827
VLoongson 3A/3B
p828
sVhardware-long
p829
VLoongson 3A or 3B based systems (e.g. from Loongson or Lemote)
p830
ss(Vimage
p831
g791
NVloongson-3
p832
tp833
(dp834
Vconfigs
p835
(lp836
Vkernelarch-mips/config.loongson-3
p837
ass(Vdescription
p838
g791
NVocteon
p839
tp840
(dp841
Vhardware
p842
VOcteon
p843
sVhardware-long
p844
VCavium Networks Octeon
p845
ss(Vimage
p846
g791
NVocteon
p847
tp848
(dp849
Vconfigs
p850
(lp851
Vkernelarch-mips/config.octeon
p852
ass(g195
g791
g164
tp853
(dp854
g198
(lp855
V5kc-malta
p856
aVloongson-3
p857
aVocteon
p858
asg202
I01
ss(Vbase
p859
Vmips64r6
p860
tp861
(dp862
Vkernel-arch
p863
Vmips
p864
sg162
(lp865
g164
ass(Vbuild
p866
g860
tp867
(dp868
Vimage-file
p869
Vvmlinux
p870
ss(Vimage
p871
g860
tp872
(dp873
Vinstall-stem
p874
Vvmlinux
p875
ss(Vdescription
p876
g860
NVmips64r6
p877
tp878
(dp879
Vhardware
p880
VMIPS R6 (64 bit, big endian)
p881
sVhardware-long
p882
VMIPS R6 (64 bit, big endian)
p883
ss(Vimage
p884
g860
NVmips64r6
p885
tp886
(dp887
Vconfigs
p888
(lp889
Vkernelarch-mips/config.boston
p890
aVkernelarch-mips/config.mips64r6
p891
ass(g195
g860
g164
tp892
(dp893
g198
(lp894
Vmips64r6
p895
asg202
I01
ss(Vbase
p896
Vmips64r6el
p897
tp898
(dp899
Vkernel-arch
p900
Vmips
p901
sg162
(lp902
g164
ass(Vbuild
p903
g897
tp904
(dp905
Vimage-file
p906
Vvmlinux
p907
ss(Vimage
p908
g897
tp909
(dp910
Vinstall-stem
p911
Vvmlinux
p912
ss(Vdescription
p913
g897
NVmips64r6el
p914
tp915
(dp916
Vhardware
p917
VMIPS R6 (64 bit, little endian)
p918
sVhardware-long
p919
VMIPS R6 (64 bit, little endian)
p920
ss(Vimage
p921
g897
NVmips64r6el
p922
tp923
(dp924
Vconfigs
p925
(lp926
Vkernelarch-mips/config.boston
p927
aVkernelarch-mips/config.mips64r6
p928
ass(g195
g897
g164
tp929
(dp930
g198
(lp931
Vmips64r6el
p932
asg202
I01
ss(Vbase
p933
Vmipsel
p934
tp935
(dp936
Vkernel-arch
p937
Vmips
p938
sg162
(lp939
g164
ass(Vbuild
p940
g934
tp941
(dp942
Vimage-file
p943
Vvmlinux
p944
ss(Vimage
p945
g934
tp946
(dp947
Vinstall-stem
p948
Vvmlinux
p949
ss(Vdescription
p950
g934
NV4kc-malta
p951
tp952
(dp953
Vhardware
p954
VMIPS Malta
p955
sVhardware-long
p956
VMIPS Malta boards
p957
ss(Vimage
p958
g934
NV4kc-malta
p959
tp960
(dp961
Vconfigs
p962
(lp963
Vkernelarch-mips/config.malta
p964
aVkernelarch-mips/config.mips32r2
p965
ass(Vdescription
p966
g934
NV5kc-malta
p967
tp968
(dp969
Vhardware
p970
VMIPS Malta (64-bit)
p971
sVhardware-long
p972
VMIPS Malta boards (64-bit)
p973
ss(Vimage
p974
g934
NV5kc-malta
p975
tp976
(dp977
Vconfigs
p978
(lp979
Vkernelarch-mips/config.malta
p980
aVkernelarch-mips/config.mips64r2
p981
ass(Vdescription
p982
g934
NVloongson-3
p983
tp984
(dp985
Vhardware
p986
VLoongson 3A/3B
p987
sVhardware-long
p988
VLoongson 3A or 3B based systems (e.g. from Loongson or Lemote)
p989
ss(Vimage
p990
g934
NVloongson-3
p991
tp992
(dp993
Vconfigs
p994
(lp995
Vkernelarch-mips/config.loongson-3
p996
ass(Vdescription
p997
g934
NVocteon
p998
tp999
(dp1000
Vhardware
p1001
VOcteon
p1002
sVhardware-long
p1003
VCavium Networks Octeon
p1004
ss(Vimage
p1005
g934
NVocteon
p1006
tp1007
(dp1008
Vconfigs
p1009
(lp1010
Vkernelarch-mips/config.octeon
p1011
ass(g195
g934
g164
tp1012
(dp1013
g198
(lp1014
V4kc-malta
p1015
aV5kc-malta
p1016
aVloongson-3
p1017
aVocteon
p1018
asg202
I01
ss(Vbase
p1019
Vmipsn32
p1020
tp1021
(dp1022
Vkernel-arch
p1023
Vmips
p1024
sVfeaturesets
p1025
(lp1026
ss(Vbase
p1027
Vmipsn32el
p1028
tp1029
(dp1030
Vkernel-arch
p1031
Vmips
p1032
sVfeaturesets
p1033
(lp1034
ss(Vbase
p1035
Vmipsn32r6
p1036
tp1037
(dp1038
Vkernel-arch
p1039
Vmips
p1040
sVfeaturesets
p1041
(lp1042
ss(Vbase
p1043
Vmipsn32r6el
p1044
tp1045
(dp1046
Vkernel-arch
p1047
Vmips
p1048
sVfeaturesets
p1049
(lp1050
ss(Vbase
p1051
Vmipsr6
p1052
tp1053
(dp1054
Vkernel-arch
p1055
Vmips
p1056
sg162
(lp1057
g164
ass(Vbuild
p1058
g1052
tp1059
(dp1060
Vimage-file
p1061
Vvmlinux
p1062
ss(Vimage
p1063
g1052
tp1064
(dp1065
Vinstall-stem
p1066
Vvmlinux
p1067
ss(Vdescription
p1068
g1052
NVmips32r6
p1069
tp1070
(dp1071
Vhardware
p1072
VMIPS R6 (32 bit, big endian)
p1073
sVhardware-long
p1074
VMIPS R6 (32 bit, big endian)
p1075
ss(Vimage
p1076
g1052
NVmips32r6
p1077
tp1078
(dp1079
Vconfigs
p1080
(lp1081
Vkernelarch-mips/config.boston
p1082
aVkernelarch-mips/config.mips32r6
p1083
ass(Vdescription
p1084
g1052
NVmips64r6
p1085
tp1086
(dp1087
Vhardware
p1088
VMIPS R6 (64 bit, big endian)
p1089
sVhardware-long
p1090
VMIPS R6 (64 bit, big endian)
p1091
ss(Vimage
p1092
g1052
NVmips64r6
p1093
tp1094
(dp1095
Vconfigs
p1096
(lp1097
Vkernelarch-mips/config.boston
p1098
aVkernelarch-mips/config.mips64r6
p1099
ass(g195
g1052
g164
tp1100
(dp1101
g198
(lp1102
Vmips32r6
p1103
aVmips64r6
p1104
asg202
I01
ss(Vbase
p1105
Vmipsr6el
p1106
tp1107
(dp1108
Vkernel-arch
p1109
Vmips
p1110
sg162
(lp1111
g164
ass(Vbuild
p1112
g1106
tp1113
(dp1114
Vimage-file
p1115
Vvmlinux
p1116
ss(Vimage
p1117
g1106
tp1118
(dp1119
Vinstall-stem
p1120
Vvmlinux
p1121
ss(Vdescription
p1122
g1106
NVmips32r6el
p1123
tp1124
(dp1125
Vhardware
p1126
VMIPS R6 (32 bit, little endian)
p1127
sVhardware-long
p1128
VMIPS R6 (32 bit, little endian)
p1129
ss(Vimage
p1130
g1106
NVmips32r6el
p1131
tp1132
(dp1133
Vconfigs
p1134
(lp1135
Vkernelarch-mips/config.boston
p1136
aVkernelarch-mips/config.mips32r6
p1137
ass(Vdescription
p1138
g1106
NVmips64r6el
p1139
tp1140
(dp1141
Vhardware
p1142
VMIPS R6 (64 bit, little endian)
p1143
sVhardware-long
p1144
VMIPS R6 (64 bit, little endian)
p1145
ss(Vimage
p1146
g1106
NVmips64r6el
p1147
tp1148
(dp1149
Vconfigs
p1150
(lp1151
Vkernelarch-mips/config.boston
p1152
aVkernelarch-mips/config.mips64r6
p1153
ass(g195
g1106
g164
tp1154
(dp1155
g198
(lp1156
Vmips32r6el
p1157
aVmips64r6el
p1158
asg202
I01
ss(Vbase
p1159
Vpowerpc
p1160
tp1161
(dp1162
Vkernel-arch
p1163
Vpowerpc
p1164
sg162
(lp1165
g164
ass(Vbuild
p1166
g1160
tp1167
(dp1168
Vimage-file
p1169
Vvmlinux
p1170
sVvdso
p1171
I01
ss(Vimage
p1172
g1160
tp1173
(dp1174
Vconfigs
p1175
(lp1176
sVbootloaders
p1177
(lp1178
Vgrub-ieee1275
p1179
asVsuggests
p1180
(lp1181
Vmkvmlinuz
p1182
asVinstall-stem
p1183
Vvmlinux
p1184
ss(Vdescription
p1185
g1160
NVpowerpc
p1186
tp1187
(dp1188
Vhardware
p1189
Vuniprocessor 32-bit PowerPC
p1190
ss(Vdescription
p1191
g1160
NVpowerpc-smp
p1192
tp1193
(dp1194
Vhardware
p1195
Vmultiprocessor 32-bit PowerPC
p1196
ss(Vimage
p1197
g1160
NVpowerpc-smp
p1198
tp1199
(dp1200
Vconfigs
p1201
(lp1202
Vpowerpc/config.powerpc
p1203
aVpowerpc/config.powerpc-smp
p1204
ass(Vdescription
p1205
g1160
NVpowerpc64
p1206
tp1207
(dp1208
Vhardware
p1209
V64-bit PowerPC
p1210
ss(Vimage
p1211
g1160
NVpowerpc64
p1212
tp1213
(dp1214
Vconfigs
p1215
(lp1216
Vkernelarch-powerpc/config-arch-64
p1217
aVkernelarch-powerpc/config-arch-64-be
p1218
ass(g195
g1160
g164
tp1219
(dp1220
g198
(lp1221
Vpowerpc
p1222
aVpowerpc-smp
p1223
aVpowerpc64
p1224
asg202
I01
ss(Vbase
p1225
Vpowerpcspe
p1226
tp1227
(dp1228
Vkernel-arch
p1229
Vpowerpc
p1230
sg162
(lp1231
g164
ass(Vbuild
p1232
g1226
tp1233
(dp1234
Vimage-file
p1235
Vvmlinux
p1236
sVvdso
p1237
I01
ss(Vimage
p1238
g1226
tp1239
(dp1240
Vsuggests
p1241
(lp1242
Vmkvmlinuz
p1243
asVinstall-stem
p1244
Vvmlinux
p1245
ss(Vdescription
p1246
g1226
tp1247
(dp1248
Vhardware
p1249
V32-bit PowerPC with SPE (instead of AltiVec) with SMP support
p1250
ss(g195
g1226
g164
tp1251
(dp1252
g198
(lp1253
Vpowerpcspe
p1254
asg202
I01
ss(Vbase
p1255
Vppc64
p1256
tp1257
(dp1258
Vkernel-arch
p1259
Vpowerpc
p1260
sg162
(lp1261
g164
ass(Vbuild
p1262
g1256
tp1263
(dp1264
Vimage-file
p1265
Vvmlinux
p1266
sVvdso
p1267
I01
ss(Vimage
p1268
g1256
tp1269
(dp1270
Vconfigs
p1271
(lp1272
sVbootloaders
p1273
(lp1274
Vgrub-ieee1275
p1275
asVsuggests
p1276
(lp1277
Vmkvmlinuz
p1278
asVinstall-stem
p1279
Vvmlinux
p1280
ss(Vdescription
p1281
g1256
NVpowerpc64
p1282
tp1283
(dp1284
Vhardware
p1285
V64-bit PowerPC
p1286
ss(Vimage
p1287
g1256
NVpowerpc64
p1288
tp1289
(dp1290
Vconfigs
p1291
(lp1292
Vkernelarch-powerpc/config-arch-64
p1293
aVkernelarch-powerpc/config-arch-64-be
p1294
ass(g195
g1256
g164
tp1295
(dp1296
g198
(lp1297
Vpowerpc64
p1298
asg202
I01
ss(Vbase
p1299
Vppc64el
p1300
tp1301
(dp1302
Vkernel-arch
p1303
Vpowerpc
p1304
sg162
(lp1305
g164
ass(Vbuild
p1306
g1300
tp1307
(dp1308
Vimage-file
p1309
Vvmlinux
p1310
sVvdso
p1311
I01
ss(Vimage
p1312
g1300
tp1313
(dp1314
Vconfigs
p1315
(lp1316
sVbootloaders
p1317
(lp1318
Vgrub-ieee1275
p1319
asVsuggests
p1320
(lp1321
Vmkvmlinuz
p1322
asVinstall-stem
p1323
Vvmlinux
p1324
ss(Vdescription
p1325
g1300
NVpowerpc64le
p1326
tp1327
(dp1328
Vhardware
p1329
VLittle-endian 64-bit PowerPC
p1330
ss(Vimage
p1331
g1300
NVpowerpc64le
p1332
tp1333
(dp1334
Vconfigs
p1335
(lp1336
Vkernelarch-powerpc/config-arch-64
p1337
aVkernelarch-powerpc/config-arch-64-le
p1338
ass(g195
g1300
g164
tp1339
(dp1340
g198
(lp1341
Vpowerpc64le
p1342
asg202
I01
ss(Vbase
p1343
Vriscv64
p1344
tp1345
(dp1346
Vkernel-arch
p1347
Vriscv
p1348
sVfeaturesets
p1349
(lp1350
Vnone
p1351
ass(Vbuild
p1352
g1344
tp1353
(dp1354
Vimage-file
p1355
Vvmlinux
p1356
sVvdso
p1357
I01
ss(Vimage
p1358
g1344
tp1359
(dp1360
Vinstall-stem
p1361
Vvmlinux
p1362
ss(Vdescription
p1363
g1344
NVriscv64
p1364
tp1365
(dp1366
Vhardware
p1367
V64-bit RISC-V platforms
p1368
sVhardware-long
p1369
V64-bit RISC-V platforms
p1370
ss(Vbase
p1371
g1344
Vnone
p1372
tp1373
(dp1374
Vflavours
p1375
(lp1376
Vriscv64
p1377
ass(Vbase
p1378
Vs390
p1379
tp1380
(dp1381
Vkernel-arch
p1382
Vs390
p1383
sVfeaturesets
p1384
(lp1385
ss(Vbase
p1386
Vs390x
p1387
tp1388
(dp1389
Vkernel-arch
p1390
Vs390
p1391
sg162
(lp1392
g164
ass(Vbuild
p1393
g1387
tp1394
(dp1395
Vimage-file
p1396
Varch/s390/boot/bzImage
p1397
sVvdso
p1398
I01
ss(Vimage
p1399
g1387
tp1400
(dp1401
Vbootloaders
p1402
(lp1403
Vs390-tools
p1404
asVinstall-stem
p1405
Vvmlinuz
p1406
ss(Vrelations
p1407
g1387
tp1408
(dp1409
Vheaders%gcc-8
p1410
Vlinux-compiler-gcc-8-s390
p1411
ss(Vbuild
p1412
g1387
NVs390x
p1413
tp1414
(dp1415
Vdebug-info
p1416
I01
ss(Vdescription
p1417
g1387
NVs390x
p1418
tp1419
(dp1420
Vhardware
p1421
VIBM zSeries
p1422
ss(g195
g1387
g164
tp1423
(dp1424
g198
(lp1425
Vs390x
p1426
asg202
I01
ss(Vbase
p1427
Vsh3
p1428
tp1429
(dp1430
Vkernel-arch
p1431
Vsh
p1432
sVfeaturesets
p1433
(lp1434
ss(Vbase
p1435
Vsh4
p1436
tp1437
(dp1438
Vkernel-arch
p1439
Vsh
p1440
sg162
(lp1441
g164
ass(Vbuild
p1442
g1436
tp1443
(dp1444
Vimage-file
p1445
Varch/sh/boot/zImage
p1446
ss(Vimage
p1447
g1436
tp1448
(dp1449
Vinstall-stem
p1450
Vvmlinuz
p1451
ss(Vdescription
p1452
g1436
NVsh7751r
p1453
tp1454
(dp1455
Vhardware
p1456
Vsh7751r
p1457
sVhardware-long
p1458
VRenesas SH7751R R2D plus board
p1459
ss(Vdescription
p1460
g1436
NVsh7785lcr
p1461
tp1462
(dp1463
Vhardware
p1464
Vsh7785lcr
p1465
sVhardware-long
p1466
VRenesas SH7785 reference board
p1467
ss(Vimage
p1468
g1436
NVsh7785lcr
p1469
tp1470
(dp1471
Vrecommends
p1472
(lp1473
Vu-boot-tools
p1474
asVcheck-size
p1475
I4194304
ss(g195
g1436
g164
tp1476
(dp1477
g198
(lp1478
Vsh7751r
p1479
aVsh7785lcr
p1480
asg202
I01
ss(Vbase
p1481
Vsparc
p1482
tp1483
(dp1484
Vkernel-arch
p1485
Vsparc
p1486
sVfeaturesets
p1487
(lp1488
ss(Vbase
p1489
Vsparc64
p1490
tp1491
(dp1492
Vkernel-arch
p1493
Vsparc
p1494
sg162
(lp1495
g164
ass(Vbuild
p1496
g1490
tp1497
(dp1498
Vimage-file
p1499
Vvmlinux
p1500
ss(Vimage
p1501
g1490
tp1502
(dp1503
Vconfigs
p1504
(lp1505
sVbootloaders
p1506
(lp1507
Vgrub-ieee1275
p1508
asVsuggests
p1509
(lp1510
Vfdutils
p1511
asVinstall-stem
p1512
Vvmlinux
p1513
ss(Vdescription
p1514
g1490
NVsparc64
p1515
tp1516
(dp1517
Vhardware
p1518
Vuniprocessor 64-bit UltraSPARC
p1519
ss(Vimage
p1520
g1490
NVsparc64
p1521
tp1522
(dp1523
Vconfigs
p1524
(lp1525
Vkernelarch-sparc/config-up
p1526
ass(Vdescription
p1527
g1490
NVsparc64-smp
p1528
tp1529
(dp1530
Vhardware
p1531
Vmultiprocessor 64-bit UltraSPARC
p1532
ss(Vimage
p1533
g1490
NVsparc64-smp
p1534
tp1535
(dp1536
Vconfigs
p1537
(lp1538
Vkernelarch-sparc/config-smp
p1539
ass(g195
g1490
g164
tp1540
(dp1541
g198
(lp1542
Vsparc64
p1543
aVsparc64-smp
p1544
asg202
I01
ss(Vbase
p1545
Vx32
p1546
tp1547
(dp1548
Vkernel-arch
p1549
Vx86
p1550
sVfeaturesets
p1551
(lp1552
ss(Vabi
p1553
NVrt
p1554
tp1555
(dp1556
Vignore-changes
p1557
(lp1558
V*
p1559
ass(Vdescription
p1560
Ng1554
tp1561
(dp1562
Vpart-long-rt
p1563
VThis kernel includes the PREEMPT_RT realtime patch set.
p1564
sVpart-short-rt
p1565
VPREEMPT_RT
p1566
sVparts
p1567
(lp1568
Vrt
p1569
ass(Vversion
p1570
tp1571
(dp1572
Vsource
p1573
V4.19.37-5parrot1
p1574
sVupstream
p1575
V4.19.37
p1576
sVabiname_base
p1577
g1576
sVabiname
p1578
V4.19.37-parrot1
p1579
ss.