cdebian_linux.config
ConfigCore
p0
(tRp1
(Vabi
p2
tp3
(dp4
Vabiname
p5
V6parrot1
p6
sVignore-changes
p7
(lp8
V__cpuhp_*
p9
aV__xive_vm_h_*
p10
aVbpf_analyzer
p11
aVcxl_*
p12
aVdax_flush
p13
aVieee80211_nullfunc_get
p14
aVinet_add_protocol
p15
aVinet_del_protocol
p16
aViommu_device_*
p17
aVkvm_async_pf_task_wait
p18
aVkvmppc_*
p19
aVmm_iommu_*
p20
aVmv_mbus_*
p21
aVperf_*
p22
aVregister_cxl_calls
p23
aVregister_key_type
p24
aVunregister_cxl_calls
p25
aV*_hw_breakpoint
p26
aVmodule:arch/x86/kvm/*
p27
aVmodule:drivers/crypto/ccp/*
p28
aVmodule:drivers/hv/*
p29
aVmodule:drivers/gpu/drm/sun4i/*
p30
aVmodule:drivers/iio/**
p31
aVmodule:drivers/misc/cxl/*
p32
aVmodule:drivers/mtd/nand/*
p33
aVmodule:drivers/net/ethernet/**
p34
aVmodule:drivers/net/wireless/**
p35
aVmodule:drivers/nvdimm/*
p36
aVmodule:drivers/power/supply/bq27xxx_battery
p37
aVmodule:drivers/scsi/cxgbi/*
p38
aVmodule:drivers/scsi/libiscs*
p39
aVmodule:drivers/scsi/qla2xxx/qla2xxx
p40
aVmodule:drivers/scsi/ufs/*
p41
aVmodule:drivers/target/**
p42
aVmodule:drivers/usb/chipidea/**
p43
aVmodule:drivers/usb/gadget/**
p44
aVmodule:drivers/usb/host/**
p45
aVmodule:drivers/usb/musb/**
p46
aVmodule:fs/nfs/**
p47
aVmodule:net/ceph/libceph
p48
aVmodule:net/l2tp/**
p49
aVmodule:net/rxrpc/rxrpc
p50
aVmodule:net/sctp/**
p51
aVmodule:sound/core/seq/**
p52
aVmodule:sound/firewire/snd-firewire-lib
p53
aVmodule:sound/pci/hda/*
p54
aVbtree_*
p55
aVvisitor*
p56
aVcan_rx_register
p57
aVip6_xmit
p58
aVmodule:net/dccp/dccp
p59
aVmodule:net/rds/rds
p60
aVdevfreq_*
p61
aVdevm_devfreq_*
p62
aVupdate_devfreq
p63
aVmodule:drivers/infiniband/**
p64
aVacpi_ec_add_query_handler
p65
aVacpi_ec_remove_query_handler
p66
aVfirst_ec
p67
aVdebugfs_create_automount
p68
aVmodule:drivers/iio/imu/inv_mpu6050/*
p69
aVdrm_crtc_accurate_vblank_count
p70
aVacpi_nfit_desc_init
p71
aVacpi_nfit_init
p72
aVloop_register_transfer
p73
aVxen_xlate_*
p74
aVnf_nat_masquerade_ipv4_register_notifier
p75
aVnf_nat_masquerade_ipv6_register_notifier
p76
aVmodule:drivers/scsi/hisi_sas/*
p77
ass(Vbase
p78
tp79
(dp80
Varches
p81
(lp82
Valpha
p83
aVamd64
p84
aVarm64
p85
aVarm64ilp32
p86
aVarmel
p87
aVarmhf
p88
aVhppa
p89
aVi386
p90
aVia64
p91
aVm68k
p92
aVmips
p93
aVmips64
p94
aVmips64el
p95
aVmips64r6
p96
aVmips64r6el
p97
aVmipsel
p98
aVmipsn32
p99
aVmipsn32el
p100
aVmipsn32r6
p101
aVmipsn32r6el
p102
aVmipsr6
p103
aVmipsr6el
p104
aVpowerpc
p105
aVpowerpcspe
p106
aVppc64
p107
aVppc64el
p108
aVriscv64
p109
aVs390
p110
aVs390x
p111
aVsh3
p112
aVsh4
p113
aVsparc
p114
aVsparc64
p115
aVx32
p116
asVcompiler
p117
Vgcc-8
p118
sVfeaturesets
p119
(lp120
Vnone
p121
aVrt
p122
ass(Vbuild
p123
tp124
(dp125
Vdebug-info
p126
I01
sVsigned-code
p127
I00
ss(Vbase
p128
NVrt
p129
tp130
(dp131
Venabled
p132
I01
ss(Vdescription
p133
tp134
(dp135
Vpart-long-up
p136
VThis kernel is not suitable for SMP (multi-processor,\u000amulti-core or hyper-threaded) systems.
p137
ss(Vimage
p138
tp139
(dp140
Vinitramfs-generators
p141
(lp142
Vinitramfs-tools
p143
aVinitramfs-fallback
p144
asVrecommends
p145
(lp146
Vapparmor
p147
ass(Vrelations
p148
tp149
(dp150
Vgcc-8
p151
Vgcc-8 <!stage1 !cross !pkg.linux.nokernel>, gcc-8-@gnu-type-package@ <!stage1 cross !pkg.linux.nokernel>
p152
sVinitramfs-fallback
p153
Vlinux-initramfs-tool
p154
sVinitramfs-tools
p155
Vinitramfs-tools (>= 0.120+deb8u2)
p156
ss(Vbase
p157
Valpha
p158
tp159
(dp160
Vkernel-arch
p161
Valpha
p162
sVfeaturesets
p163
(lp164
Vnone
p165
ass(Vbuild
p166
g158
tp167
(dp168
Vimage-file
p169
Varch/alpha/boot/vmlinux.gz
p170
ss(Vimage
p171
g158
tp172
(dp173
Vsuggests
p174
(lp175
Vaboot
p176
aVfdutils
p177
asVinstall-stem
p178
Vvmlinuz
p179
ss(Vdescription
p180
g158
NValpha-generic
p181
tp182
(dp183
Vhardware
p184
VAlpha
p185
sVhardware-long
p186
VDEC Alpha systems with extended kernel start address (Wildfire, Titan, Marvel)
p187
ss(Vdescription
p188
g158
NValpha-smp
p189
tp190
(dp191
Vhardware
p192
VAlpha SMP
p193
sVhardware-long
p194
VDEC Alpha SMP systems with extended kernel start address (Wildfire, Titan, Marvel)
p195
ss(Vbase
p196
g158
g165
tp197
(dp198
Vflavours
p199
(lp200
Valpha-generic
p201
aValpha-smp
p202
asVimplicit-flavour
p203
I01
ss(Vbase
p204
Vamd64
p205
tp206
(dp207
Vfeaturesets
p208
(lp209
Vnone
p210
aVrt
p211
asVkernel-arch
p212
Vx86
p213
ss(Vbuild
p214
g205
tp215
(dp216
Vdebug-info
p217
I01
sVimage-file
p218
Varch/x86/boot/bzImage
p219
sVsigned-code
p220
I00
sVvdso
p221
I01
ss(Vimage
p222
g205
tp223
(dp224
Vbootloaders
p225
(lp226
Vgrub-pc
p227
aVgrub-efi-amd64
p228
aVextlinux
p229
asVinstall-stem
p230
Vvmlinuz
p231
sVbreaks
p232
(lp233
Vxserver-xorg-input-vmmouse (<< 1:13.0.99)
p234
ass(Vrelations
p235
g205
tp236
(dp237
Vgcc-8
p238
Vgcc-8 (>= 8-20180123-1~) <!stage1 !cross !pkg.linux.nokernel>, gcc-8-x86-64-linux-gnu (>= 8-20180123-1~) <!stage1 cross !pkg.linux.nokernel>
p239
sVheaders%gcc-8
p240
Vlinux-compiler-gcc-8-x86
p241
ss(Vdescription
p242
g205
NVamd64
p243
tp244
(dp245
Vhardware
p246
V64-bit PCs
p247
sVhardware-long
p248
VPCs with AMD64, Intel 64 or VIA Nano processors
p249
ss(Vdescription
p250
g205
NVcloud-amd64
p251
tp252
(dp253
Vhardware
p254
Vx86-64 cloud
p255
sVhardware-long
p256
VAmazon EC2, Google Compute Engine and Microsoft Azure cloud platforms
p257
ss(Vbase
p258
g205
Vnone
p259
tp260
(dp261
Vflavours
p262
(lp263
Vamd64
p264
aVcloud-amd64
p265
ass(Vbase
p266
g205
Vrt
p267
tp268
(dp269
Vflavours
p270
(lp271
Vamd64
p272
ass(Vbase
p273
Varm64
p274
tp275
(dp276
Vkernel-arch
p277
Varm64
p278
sVfeaturesets
p279
(lp280
Vnone
p281
aVrt
p282
ass(Vbuild
p283
g274
tp284
(dp285
Vdebug-info
p286
I01
sVimage-file
p287
Varch/arm64/boot/Image
p288
sVsigned-code
p289
I00
sVvdso
p290
I01
ss(Vimage
p291
g274
tp292
(dp293
Vinstall-stem
p294
Vvmlinuz
p295
sVbreaks
p296
(lp297
Vlibmozjs185-1.0
p298
aVlibmozjs-24-0 (<< 24.2.0-5.1~)
p299
ass(Vdescription
p300
g274
NVarm64
p301
tp302
(dp303
Vhardware
p304
V64-bit ARMv8 machines
p305
ss(Vimage
p306
g274
NVarm64
p307
tp308
(dp309
s(Vbase
p310
g274
Vnone
p311
tp312
(dp313
Vflavours
p314
(lp315
Varm64
p316
ass(Vbase
p317
g274
Vrt
p318
tp319
(dp320
Vflavours
p321
(lp322
Varm64
p323
ass(Vbase
p324
Varm64ilp32
p325
tp326
(dp327
Vkernel-arch
p328
Varm64
p329
sVfeaturesets
p330
(lp331
ss(Vbase
p332
Varmel
p333
tp334
(dp335
Vkernel-arch
p336
Varm
p337
sg163
(lp338
g165
ass(Vbuild
p339
g333
tp340
(dp341
Vimage-file
p342
Varch/arm/boot/zImage
p343
sVuncompressed-image-file
p344
Varch/arm/boot/Image
p345
ss(Vimage
p346
g333
tp347
(dp348
Vinstall-stem
p349
Vvmlinuz
p350
ss(Vrelations
p351
g333
tp352
(dp353
Vheaders%gcc-8
p354
Vlinux-compiler-gcc-8-arm
p355
ss(Vdescription
p356
g333
NVmarvell
p357
tp358
(dp359
Vhardware
p360
VMarvell Kirkwood/Orion
p361
sVhardware-long
p362
VMarvell Kirkwood and Orion based systems (https://wiki.debian.org/ArmEabiPort#Supported_hardware)
p363
ss(Vdescription
p364
g333
NVrpi
p365
tp366
(dp367
Vhardware
p368
VRaspberry Pi and Pi Zero
p369
sVhardware-long
p370
VRaspberry Pi, Raspberry Pi Zero based systems
p371
ss(Vimage
p372
g333
NVmarvell
p373
tp374
(dp375
Vrecommends
p376
(lp377
Vu-boot-tools
p378
asVcheck-size
p379
I2097080
sVcheck-size-with-dtb
p380
I01
sVcheck-uncompressed-size
p381
I7340032
sVbreaks
p382
(lp383
Vflash-kernel (<< 3.57~)
p384
ass(g196
g333
g165
tp385
(dp386
g199
(lp387
Vmarvell
p388
aVrpi
p389
asg203
I01
ss(Vbase
p390
Varmhf
p391
tp392
(dp393
Vfeaturesets
p394
(lp395
Vnone
p396
aVrt
p397
asVkernel-arch
p398
Varm
p399
ss(Vbuild
p400
g391
tp401
(dp402
Vimage-file
p403
Varch/arm/boot/zImage
p404
sVvdso
p405
I01
ss(Vimage
p406
g391
tp407
(dp408
Vinstall-stem
p409
Vvmlinuz
p410
ss(Vrelations
p411
g391
tp412
(dp413
Vheaders%gcc-8
p414
Vlinux-compiler-gcc-8-arm
p415
ss(Vdescription
p416
g391
NVarmmp
p417
tp418
(dp419
Vhardware
p420
VARMv7 multiplatform compatible SoCs
p421
sVhardware-long
p422
VARMv7 multiplatform kernel. See\u000ahttps://wiki.debian.org/DebianKernel/ARMMP for details of supported\u000aplatforms
p423
ss(Vdescription
p424
g391
NVarmmp-lpae
p425
tp426
(dp427
Vhardware
p428
VARMv7 multiplatform compatible SoCs supporting LPAE
p429
sVhardware-long
p430
VARMv7 multiplatform kernel supporting LPAE. See\u000ahttps://wiki.debian.org/DebianKernel/ARMMP for details of supported\u000aplatforms.
p431
ss(Vbase
p432
g391
Vnone
p433
tp434
(dp435
Vflavours
p436
(lp437
Varmmp
p438
aVarmmp-lpae
p439
ass(Vbase
p440
g391
Vrt
p441
tp442
(dp443
Vflavours
p444
(lp445
Varmmp
p446
ass(Vbase
p447
Vhppa
p448
tp449
(dp450
Vkernel-arch
p451
Vparisc
p452
sg163
(lp453
g165
ass(Vbuild
p454
g448
tp455
(dp456
Vimage-file
p457
Varch/parisc/boot/bzImage
p458
sVdebug-info
p459
I00
ss(Vimage
p460
g448
tp461
(dp462
Vsuggests
p463
(lp464
Vpalo
p465
asVinstall-stem
p466
Vvmlinuz
p467
ss(Vdescription
p468
g448
NVparisc
p469
tp470
(dp471
Vhardware
p472
V32-bit PA-RISC
p473
sVhardware-long
p474
VHP PA-RISC 32-bit systems with max 4 GB RAM
p475
ss(Vdescription
p476
g448
NVparisc-smp
p477
tp478
(dp479
Vhardware
p480
Vmultiprocessor 32-bit PA-RISC
p481
sVhardware-long
p482
VHP PA-RISC 32-bit SMP systems with max 4 GB RAM
p483
ss(Vbase
p484
g448
NVparisc64-smp
p485
tp486
(dp487
Vcflags
p488
V-fno-cse-follow-jumps
p489
sVoverride-host-type
p490
Vhppa64-linux-gnu
p491
ss(Vdescription
p492
g448
NVparisc64-smp
p493
tp494
(dp495
Vhardware
p496
Vmultiprocessor 64-bit PA-RISC
p497
sVhardware-long
p498
VHP PA-RISC 64-bit SMP systems with support for more than 4 GB RAM
p499
ss(Vrelations
p500
g448
tp501
(dp502
Vgcc-8
p503
Vgcc-8 <!stage1 !cross !pkg.linux.nokernel>, gcc-8-hppa-linux-gnu <!stage1 cross !pkg.linux.nokernel>, binutils-hppa64-linux-gnu <!stage1 !pkg.linux.nokernel>, gcc-8-hppa64-linux-gnu <!stage1 !pkg.linux.nokernel>
p504
ss(g196
g448
g165
tp505
(dp506
g199
(lp507
Vparisc
p508
aVparisc-smp
p509
aVparisc64-smp
p510
asg203
I01
ss(Vbase
p511
Vi386
p512
tp513
(dp514
Vfeaturesets
p515
(lp516
Vnone
p517
aVrt
p518
asVkernel-arch
p519
Vx86
p520
ss(Vbuild
p521
g512
tp522
(dp523
Vimage-file
p524
Varch/x86/boot/bzImage
p525
sVsigned-code
p526
I00
sVvdso
p527
I01
ss(Vdescription
p528
g512
tp529
(dp530
Vpart-long-pae
p531
VThis kernel requires PAE (Physical Address Extension).\u000aThis feature is supported by the Intel Pentium Pro/II/III/4/4M/D, Xeon,\u000aCore and Atom; AMD Geode NX, Athlon (K7), Duron, Opteron, Sempron,\u000aTurion or Phenom; Transmeta Efficeon; VIA C7; and some other processors.
p532
ss(Vimage
p533
g512
tp534
(dp535
Vbootloaders
p536
(lp537
Vgrub-pc
p538
aVgrub-efi-ia32
p539
aVextlinux
p540
asVinstall-stem
p541
Vvmlinuz
p542
sVbreaks
p543
(lp544
Vxserver-xorg-input-vmmouse (<< 1:13.0.99)
p545
ass(Vrelations
p546
g512
tp547
(dp548
Vgcc-8
p549
Vgcc-8 (>= 8-20180123-1~) <!stage1 !cross !pkg.linux.nokernel>, gcc-8-i686-linux-gnu (>= 8-20180123-1~) <!stage1 cross !pkg.linux.nokernel>
p550
sVheaders%gcc-8
p551
Vlinux-compiler-gcc-8-x86
p552
ss(Vdescription
p553
g512
NV686
p554
tp555
(dp556
Vhardware
p557
Volder PCs
p558
sVhardware-long
p559
VPCs with one or more processors not supporting PAE
p560
ss(Vbuild
p561
g512
NV686-pae
p562
tp563
(dp564
Vdebug-info
p565
I01
ss(Vdescription
p566
g512
NV686-pae
p567
tp568
(dp569
Vhardware
p570
Vmodern PCs
p571
sVhardware-long
p572
VPCs with one or more processors supporting PAE
p573
sVparts
p574
(lp575
Vpae
p576
ass(Vbase
p577
g512
Vnone
p578
tp579
(dp580
Vflavours
p581
(lp582
V686
p583
aV686-pae
p584
ass(Vbase
p585
g512
Vrt
p586
tp587
(dp588
Vflavours
p589
(lp590
V686-pae
p591
ass(Vbase
p592
Via64
p593
tp594
(dp595
Vkernel-arch
p596
Via64
p597
sg163
(lp598
g165
ass(Vbuild
p599
g593
tp600
(dp601
Vimage-file
p602
Vvmlinux.gz
p603
ss(Vimage
p604
g593
tp605
(dp606
Vbootloaders
p607
(lp608
Vgrub-efi-ia64
p609
asVinstall-stem
p610
Vvmlinuz
p611
ss(Vdescription
p612
g593
NVitanium
p613
tp614
(dp615
Vhardware
p616
VItanium (Merced)
p617
sVhardware-long
p618
Vsystems with original Itanium (Merced) processors
p619
ss(Vdescription
p620
g593
NVmckinley
p621
tp622
(dp623
Vhardware
p624
VItanium 2+
p625
sVhardware-long
p626
Vsystems with Itanium 2 or 9300/9500/9700-series processors
p627
ss(g196
g593
g165
tp628
(dp629
g199
(lp630
Vitanium
p631
aVmckinley
p632
asg203
I01
ss(Vbase
p633
Vm68k
p634
tp635
(dp636
Vcflags
p637
V-ffreestanding
p638
sVkernel-arch
p639
Vm68k
p640
sg163
(lp641
g165
ass(Vbuild
p642
g634
tp643
(dp644
Vimage-file
p645
Vvmlinux
p646
ss(Vimage
p647
g634
tp648
(dp649
Vsuggests
p650
(lp651
Vvmelilo
p652
aVfdutils
p653
asVinstall-stem
p654
Vvmlinux
p655
ss(Vdescription
p656
g634
NVm68k
p657
tp658
(dp659
Vhardware
p660
VMotorola MC68020+ family
p661
ss(g196
g634
g165
tp662
(dp663
g199
(lp664
Vm68k
p665
asg203
I01
ss(Vbase
p666
Vmips
p667
tp668
(dp669
Vkernel-arch
p670
Vmips
p671
sg163
(lp672
g165
ass(Vbuild
p673
g667
tp674
(dp675
Vimage-file
p676
Vvmlinux
p677
ss(Vimage
p678
g667
tp679
(dp680
Vinstall-stem
p681
Vvmlinux
p682
ss(Vdescription
p683
g667
NV4kc-malta
p684
tp685
(dp686
Vhardware
p687
VMIPS Malta
p688
sVhardware-long
p689
VMIPS Malta boards
p690
ss(Vimage
p691
g667
NV4kc-malta
p692
tp693
(dp694
Vconfigs
p695
(lp696
Vkernelarch-mips/config.malta
p697
aVkernelarch-mips/config.mips32r2
p698
ass(Vdescription
p699
g667
NV5kc-malta
p700
tp701
(dp702
Vhardware
p703
VMIPS Malta (64-bit)
p704
sVhardware-long
p705
VMIPS Malta boards (64-bit)
p706
ss(Vimage
p707
g667
NV5kc-malta
p708
tp709
(dp710
Vconfigs
p711
(lp712
Vkernelarch-mips/config.malta
p713
aVkernelarch-mips/config.mips64r2
p714
ass(Vdescription
p715
g667
NVocteon
p716
tp717
(dp718
Vhardware
p719
VOcteon
p720
sVhardware-long
p721
VCavium Networks Octeon
p722
ss(Vimage
p723
g667
NVocteon
p724
tp725
(dp726
Vconfigs
p727
(lp728
Vkernelarch-mips/config.octeon
p729
ass(g196
g667
g165
tp730
(dp731
g199
(lp732
V4kc-malta
p733
aV5kc-malta
p734
aVocteon
p735
asg203
I01
ss(Vbase
p736
Vmips64
p737
tp738
(dp739
Vkernel-arch
p740
Vmips
p741
sg163
(lp742
g165
ass(Vbuild
p743
g737
tp744
(dp745
Vimage-file
p746
Vvmlinux
p747
ss(Vimage
p748
g737
tp749
(dp750
Vinstall-stem
p751
Vvmlinux
p752
ss(Vdescription
p753
g737
NV5kc-malta
p754
tp755
(dp756
Vhardware
p757
VMIPS Malta
p758
sVhardware-long
p759
VMIPS Malta boards
p760
ss(Vimage
p761
g737
NV5kc-malta
p762
tp763
(dp764
Vconfigs
p765
(lp766
Vkernelarch-mips/config.malta
p767
aVkernelarch-mips/config.mips64r2
p768
ass(Vdescription
p769
g737
NVocteon
p770
tp771
(dp772
Vhardware
p773
VOcteon
p774
sVhardware-long
p775
VCavium Networks Octeon
p776
ss(Vimage
p777
g737
NVocteon
p778
tp779
(dp780
Vconfigs
p781
(lp782
Vkernelarch-mips/config.octeon
p783
ass(g196
g737
g165
tp784
(dp785
g199
(lp786
V5kc-malta
p787
aVocteon
p788
asg203
I01
ss(Vbase
p789
Vmips64el
p790
tp791
(dp792
Vkernel-arch
p793
Vmips
p794
sg163
(lp795
g165
ass(Vbuild
p796
g790
tp797
(dp798
Vimage-file
p799
Vvmlinux
p800
ss(Vimage
p801
g790
tp802
(dp803
Vinstall-stem
p804
Vvmlinux
p805
ss(Vdescription
p806
g790
NV5kc-malta
p807
tp808
(dp809
Vhardware
p810
VMIPS Malta
p811
sVhardware-long
p812
VMIPS Malta boards
p813
ss(Vimage
p814
g790
NV5kc-malta
p815
tp816
(dp817
Vconfigs
p818
(lp819
Vkernelarch-mips/config.malta
p820
aVkernelarch-mips/config.mips64r2
p821
ass(Vdescription
p822
g790
NVloongson-3
p823
tp824
(dp825
Vhardware
p826
VLoongson 3A/3B
p827
sVhardware-long
p828
VLoongson 3A or 3B based systems (e.g. from Loongson or Lemote)
p829
ss(Vimage
p830
g790
NVloongson-3
p831
tp832
(dp833
Vconfigs
p834
(lp835
Vkernelarch-mips/config.loongson-3
p836
ass(Vdescription
p837
g790
NVocteon
p838
tp839
(dp840
Vhardware
p841
VOcteon
p842
sVhardware-long
p843
VCavium Networks Octeon
p844
ss(Vimage
p845
g790
NVocteon
p846
tp847
(dp848
Vconfigs
p849
(lp850
Vkernelarch-mips/config.octeon
p851
ass(g196
g790
g165
tp852
(dp853
g199
(lp854
V5kc-malta
p855
aVloongson-3
p856
aVocteon
p857
asg203
I01
ss(Vbase
p858
Vmips64r6
p859
tp860
(dp861
Vkernel-arch
p862
Vmips
p863
sg163
(lp864
g165
ass(Vbuild
p865
g859
tp866
(dp867
Vimage-file
p868
Vvmlinux
p869
ss(Vimage
p870
g859
tp871
(dp872
Vinstall-stem
p873
Vvmlinux
p874
ss(Vdescription
p875
g859
NVmips64r6
p876
tp877
(dp878
Vhardware
p879
VMIPS R6 (64 bit, big endian)
p880
sVhardware-long
p881
VMIPS R6 (64 bit, big endian)
p882
ss(Vimage
p883
g859
NVmips64r6
p884
tp885
(dp886
Vconfigs
p887
(lp888
Vkernelarch-mips/config.boston
p889
aVkernelarch-mips/config.mips64r6
p890
ass(g196
g859
g165
tp891
(dp892
g199
(lp893
Vmips64r6
p894
asg203
I01
ss(Vbase
p895
Vmips64r6el
p896
tp897
(dp898
Vkernel-arch
p899
Vmips
p900
sg163
(lp901
g165
ass(Vbuild
p902
g896
tp903
(dp904
Vimage-file
p905
Vvmlinux
p906
ss(Vimage
p907
g896
tp908
(dp909
Vinstall-stem
p910
Vvmlinux
p911
ss(Vdescription
p912
g896
NVmips64r6el
p913
tp914
(dp915
Vhardware
p916
VMIPS R6 (64 bit, little endian)
p917
sVhardware-long
p918
VMIPS R6 (64 bit, little endian)
p919
ss(Vimage
p920
g896
NVmips64r6el
p921
tp922
(dp923
Vconfigs
p924
(lp925
Vkernelarch-mips/config.boston
p926
aVkernelarch-mips/config.mips64r6
p927
ass(g196
g896
g165
tp928
(dp929
g199
(lp930
Vmips64r6el
p931
asg203
I01
ss(Vbase
p932
Vmipsel
p933
tp934
(dp935
Vkernel-arch
p936
Vmips
p937
sg163
(lp938
g165
ass(Vbuild
p939
g933
tp940
(dp941
Vimage-file
p942
Vvmlinux
p943
ss(Vimage
p944
g933
tp945
(dp946
Vinstall-stem
p947
Vvmlinux
p948
ss(Vdescription
p949
g933
NV4kc-malta
p950
tp951
(dp952
Vhardware
p953
VMIPS Malta
p954
sVhardware-long
p955
VMIPS Malta boards
p956
ss(Vimage
p957
g933
NV4kc-malta
p958
tp959
(dp960
Vconfigs
p961
(lp962
Vkernelarch-mips/config.malta
p963
aVkernelarch-mips/config.mips32r2
p964
ass(Vdescription
p965
g933
NV5kc-malta
p966
tp967
(dp968
Vhardware
p969
VMIPS Malta (64-bit)
p970
sVhardware-long
p971
VMIPS Malta boards (64-bit)
p972
ss(Vimage
p973
g933
NV5kc-malta
p974
tp975
(dp976
Vconfigs
p977
(lp978
Vkernelarch-mips/config.malta
p979
aVkernelarch-mips/config.mips64r2
p980
ass(Vdescription
p981
g933
NVloongson-3
p982
tp983
(dp984
Vhardware
p985
VLoongson 3A/3B
p986
sVhardware-long
p987
VLoongson 3A or 3B based systems (e.g. from Loongson or Lemote)
p988
ss(Vimage
p989
g933
NVloongson-3
p990
tp991
(dp992
Vconfigs
p993
(lp994
Vkernelarch-mips/config.loongson-3
p995
ass(Vdescription
p996
g933
NVocteon
p997
tp998
(dp999
Vhardware
p1000
VOcteon
p1001
sVhardware-long
p1002
VCavium Networks Octeon
p1003
ss(Vimage
p1004
g933
NVocteon
p1005
tp1006
(dp1007
Vconfigs
p1008
(lp1009
Vkernelarch-mips/config.octeon
p1010
ass(g196
g933
g165
tp1011
(dp1012
g199
(lp1013
V4kc-malta
p1014
aV5kc-malta
p1015
aVloongson-3
p1016
aVocteon
p1017
asg203
I01
ss(Vbase
p1018
Vmipsn32
p1019
tp1020
(dp1021
Vkernel-arch
p1022
Vmips
p1023
sVfeaturesets
p1024
(lp1025
ss(Vbase
p1026
Vmipsn32el
p1027
tp1028
(dp1029
Vkernel-arch
p1030
Vmips
p1031
sVfeaturesets
p1032
(lp1033
ss(Vbase
p1034
Vmipsn32r6
p1035
tp1036
(dp1037
Vkernel-arch
p1038
Vmips
p1039
sVfeaturesets
p1040
(lp1041
ss(Vbase
p1042
Vmipsn32r6el
p1043
tp1044
(dp1045
Vkernel-arch
p1046
Vmips
p1047
sVfeaturesets
p1048
(lp1049
ss(Vbase
p1050
Vmipsr6
p1051
tp1052
(dp1053
Vkernel-arch
p1054
Vmips
p1055
sg163
(lp1056
g165
ass(Vbuild
p1057
g1051
tp1058
(dp1059
Vimage-file
p1060
Vvmlinux
p1061
ss(Vimage
p1062
g1051
tp1063
(dp1064
Vinstall-stem
p1065
Vvmlinux
p1066
ss(Vdescription
p1067
g1051
NVmips32r6
p1068
tp1069
(dp1070
Vhardware
p1071
VMIPS R6 (32 bit, big endian)
p1072
sVhardware-long
p1073
VMIPS R6 (32 bit, big endian)
p1074
ss(Vimage
p1075
g1051
NVmips32r6
p1076
tp1077
(dp1078
Vconfigs
p1079
(lp1080
Vkernelarch-mips/config.boston
p1081
aVkernelarch-mips/config.mips32r6
p1082
ass(Vdescription
p1083
g1051
NVmips64r6
p1084
tp1085
(dp1086
Vhardware
p1087
VMIPS R6 (64 bit, big endian)
p1088
sVhardware-long
p1089
VMIPS R6 (64 bit, big endian)
p1090
ss(Vimage
p1091
g1051
NVmips64r6
p1092
tp1093
(dp1094
Vconfigs
p1095
(lp1096
Vkernelarch-mips/config.boston
p1097
aVkernelarch-mips/config.mips64r6
p1098
ass(g196
g1051
g165
tp1099
(dp1100
g199
(lp1101
Vmips32r6
p1102
aVmips64r6
p1103
asg203
I01
ss(Vbase
p1104
Vmipsr6el
p1105
tp1106
(dp1107
Vkernel-arch
p1108
Vmips
p1109
sg163
(lp1110
g165
ass(Vbuild
p1111
g1105
tp1112
(dp1113
Vimage-file
p1114
Vvmlinux
p1115
ss(Vimage
p1116
g1105
tp1117
(dp1118
Vinstall-stem
p1119
Vvmlinux
p1120
ss(Vdescription
p1121
g1105
NVmips32r6el
p1122
tp1123
(dp1124
Vhardware
p1125
VMIPS R6 (32 bit, little endian)
p1126
sVhardware-long
p1127
VMIPS R6 (32 bit, little endian)
p1128
ss(Vimage
p1129
g1105
NVmips32r6el
p1130
tp1131
(dp1132
Vconfigs
p1133
(lp1134
Vkernelarch-mips/config.boston
p1135
aVkernelarch-mips/config.mips32r6
p1136
ass(Vdescription
p1137
g1105
NVmips64r6el
p1138
tp1139
(dp1140
Vhardware
p1141
VMIPS R6 (64 bit, little endian)
p1142
sVhardware-long
p1143
VMIPS R6 (64 bit, little endian)
p1144
ss(Vimage
p1145
g1105
NVmips64r6el
p1146
tp1147
(dp1148
Vconfigs
p1149
(lp1150
Vkernelarch-mips/config.boston
p1151
aVkernelarch-mips/config.mips64r6
p1152
ass(g196
g1105
g165
tp1153
(dp1154
g199
(lp1155
Vmips32r6el
p1156
aVmips64r6el
p1157
asg203
I01
ss(Vbase
p1158
Vpowerpc
p1159
tp1160
(dp1161
Vkernel-arch
p1162
Vpowerpc
p1163
sg163
(lp1164
g165
ass(Vbuild
p1165
g1159
tp1166
(dp1167
Vimage-file
p1168
Vvmlinux
p1169
sVvdso
p1170
I01
ss(Vimage
p1171
g1159
tp1172
(dp1173
Vconfigs
p1174
(lp1175
sVbootloaders
p1176
(lp1177
Vgrub-ieee1275
p1178
asVsuggests
p1179
(lp1180
Vmkvmlinuz
p1181
asVinstall-stem
p1182
Vvmlinux
p1183
ss(Vdescription
p1184
g1159
NVpowerpc
p1185
tp1186
(dp1187
Vhardware
p1188
Vuniprocessor 32-bit PowerPC
p1189
ss(Vdescription
p1190
g1159
NVpowerpc-smp
p1191
tp1192
(dp1193
Vhardware
p1194
Vmultiprocessor 32-bit PowerPC
p1195
ss(Vimage
p1196
g1159
NVpowerpc-smp
p1197
tp1198
(dp1199
Vconfigs
p1200
(lp1201
Vpowerpc/config.powerpc
p1202
aVpowerpc/config.powerpc-smp
p1203
ass(Vdescription
p1204
g1159
NVpowerpc64
p1205
tp1206
(dp1207
Vhardware
p1208
V64-bit PowerPC
p1209
ss(Vimage
p1210
g1159
NVpowerpc64
p1211
tp1212
(dp1213
Vconfigs
p1214
(lp1215
Vkernelarch-powerpc/config-arch-64
p1216
aVkernelarch-powerpc/config-arch-64-be
p1217
ass(g196
g1159
g165
tp1218
(dp1219
g199
(lp1220
Vpowerpc
p1221
aVpowerpc-smp
p1222
aVpowerpc64
p1223
asg203
I01
ss(Vbase
p1224
Vpowerpcspe
p1225
tp1226
(dp1227
Vkernel-arch
p1228
Vpowerpc
p1229
sg163
(lp1230
g165
ass(Vbuild
p1231
g1225
tp1232
(dp1233
Vimage-file
p1234
Vvmlinux
p1235
sVvdso
p1236
I01
ss(Vimage
p1237
g1225
tp1238
(dp1239
Vsuggests
p1240
(lp1241
Vmkvmlinuz
p1242
asVinstall-stem
p1243
Vvmlinux
p1244
ss(Vdescription
p1245
g1225
tp1246
(dp1247
Vhardware
p1248
V32-bit PowerPC with SPE (instead of AltiVec) with SMP support
p1249
ss(g196
g1225
g165
tp1250
(dp1251
g199
(lp1252
Vpowerpcspe
p1253
asg203
I01
ss(Vbase
p1254
Vppc64
p1255
tp1256
(dp1257
Vkernel-arch
p1258
Vpowerpc
p1259
sg163
(lp1260
g165
ass(Vbuild
p1261
g1255
tp1262
(dp1263
Vimage-file
p1264
Vvmlinux
p1265
sVvdso
p1266
I01
ss(Vimage
p1267
g1255
tp1268
(dp1269
Vconfigs
p1270
(lp1271
sVbootloaders
p1272
(lp1273
Vgrub-ieee1275
p1274
asVsuggests
p1275
(lp1276
Vmkvmlinuz
p1277
asVinstall-stem
p1278
Vvmlinux
p1279
ss(Vdescription
p1280
g1255
NVpowerpc64
p1281
tp1282
(dp1283
Vhardware
p1284
V64-bit PowerPC
p1285
ss(Vimage
p1286
g1255
NVpowerpc64
p1287
tp1288
(dp1289
Vconfigs
p1290
(lp1291
Vkernelarch-powerpc/config-arch-64
p1292
aVkernelarch-powerpc/config-arch-64-be
p1293
ass(g196
g1255
g165
tp1294
(dp1295
g199
(lp1296
Vpowerpc64
p1297
asg203
I01
ss(Vbase
p1298
Vppc64el
p1299
tp1300
(dp1301
Vkernel-arch
p1302
Vpowerpc
p1303
sg163
(lp1304
g165
ass(Vbuild
p1305
g1299
tp1306
(dp1307
Vimage-file
p1308
Vvmlinux
p1309
sVvdso
p1310
I01
ss(Vimage
p1311
g1299
tp1312
(dp1313
Vconfigs
p1314
(lp1315
sVbootloaders
p1316
(lp1317
Vgrub-ieee1275
p1318
asVsuggests
p1319
(lp1320
Vmkvmlinuz
p1321
asVinstall-stem
p1322
Vvmlinux
p1323
ss(Vdescription
p1324
g1299
NVpowerpc64le
p1325
tp1326
(dp1327
Vhardware
p1328
VLittle-endian 64-bit PowerPC
p1329
ss(Vimage
p1330
g1299
NVpowerpc64le
p1331
tp1332
(dp1333
Vconfigs
p1334
(lp1335
Vkernelarch-powerpc/config-arch-64
p1336
aVkernelarch-powerpc/config-arch-64-le
p1337
ass(g196
g1299
g165
tp1338
(dp1339
g199
(lp1340
Vpowerpc64le
p1341
asg203
I01
ss(Vbase
p1342
Vriscv64
p1343
tp1344
(dp1345
Vkernel-arch
p1346
Vriscv
p1347
sVfeaturesets
p1348
(lp1349
Vnone
p1350
ass(Vbuild
p1351
g1343
tp1352
(dp1353
Vimage-file
p1354
Vvmlinux
p1355
sVvdso
p1356
I01
ss(Vimage
p1357
g1343
tp1358
(dp1359
Vinstall-stem
p1360
Vvmlinux
p1361
ss(Vdescription
p1362
g1343
NVriscv64
p1363
tp1364
(dp1365
Vhardware
p1366
V64-bit RISC-V platforms
p1367
sVhardware-long
p1368
V64-bit RISC-V platforms
p1369
ss(Vbase
p1370
g1343
Vnone
p1371
tp1372
(dp1373
Vflavours
p1374
(lp1375
Vriscv64
p1376
ass(Vbase
p1377
Vs390
p1378
tp1379
(dp1380
Vkernel-arch
p1381
Vs390
p1382
sVfeaturesets
p1383
(lp1384
ss(Vbase
p1385
Vs390x
p1386
tp1387
(dp1388
Vkernel-arch
p1389
Vs390
p1390
sg163
(lp1391
g165
ass(Vbuild
p1392
g1386
tp1393
(dp1394
Vimage-file
p1395
Varch/s390/boot/bzImage
p1396
sVvdso
p1397
I01
ss(Vimage
p1398
g1386
tp1399
(dp1400
Vbootloaders
p1401
(lp1402
Vs390-tools
p1403
asVinstall-stem
p1404
Vvmlinuz
p1405
ss(Vrelations
p1406
g1386
tp1407
(dp1408
Vheaders%gcc-8
p1409
Vlinux-compiler-gcc-8-s390
p1410
ss(Vbuild
p1411
g1386
NVs390x
p1412
tp1413
(dp1414
Vdebug-info
p1415
I01
ss(Vdescription
p1416
g1386
NVs390x
p1417
tp1418
(dp1419
Vhardware
p1420
VIBM zSeries
p1421
ss(g196
g1386
g165
tp1422
(dp1423
g199
(lp1424
Vs390x
p1425
asg203
I01
ss(Vbase
p1426
Vsh3
p1427
tp1428
(dp1429
Vkernel-arch
p1430
Vsh
p1431
sVfeaturesets
p1432
(lp1433
ss(Vbase
p1434
Vsh4
p1435
tp1436
(dp1437
Vkernel-arch
p1438
Vsh
p1439
sg163
(lp1440
g165
ass(Vbuild
p1441
g1435
tp1442
(dp1443
Vimage-file
p1444
Varch/sh/boot/zImage
p1445
ss(Vimage
p1446
g1435
tp1447
(dp1448
Vinstall-stem
p1449
Vvmlinuz
p1450
ss(Vdescription
p1451
g1435
NVsh7751r
p1452
tp1453
(dp1454
Vhardware
p1455
Vsh7751r
p1456
sVhardware-long
p1457
VRenesas SH7751R R2D plus board
p1458
ss(Vdescription
p1459
g1435
NVsh7785lcr
p1460
tp1461
(dp1462
Vhardware
p1463
Vsh7785lcr
p1464
sVhardware-long
p1465
VRenesas SH7785 reference board
p1466
ss(Vimage
p1467
g1435
NVsh7785lcr
p1468
tp1469
(dp1470
Vrecommends
p1471
(lp1472
Vu-boot-tools
p1473
asVcheck-size
p1474
I4194304
ss(g196
g1435
g165
tp1475
(dp1476
g199
(lp1477
Vsh7751r
p1478
aVsh7785lcr
p1479
asg203
I01
ss(Vbase
p1480
Vsparc
p1481
tp1482
(dp1483
Vkernel-arch
p1484
Vsparc
p1485
sVfeaturesets
p1486
(lp1487
ss(Vbase
p1488
Vsparc64
p1489
tp1490
(dp1491
Vkernel-arch
p1492
Vsparc
p1493
sg163
(lp1494
g165
ass(Vbuild
p1495
g1489
tp1496
(dp1497
Vimage-file
p1498
Vvmlinux
p1499
ss(Vimage
p1500
g1489
tp1501
(dp1502
Vconfigs
p1503
(lp1504
sVbootloaders
p1505
(lp1506
Vgrub-ieee1275
p1507
asVsuggests
p1508
(lp1509
Vfdutils
p1510
asVinstall-stem
p1511
Vvmlinux
p1512
ss(Vdescription
p1513
g1489
NVsparc64
p1514
tp1515
(dp1516
Vhardware
p1517
Vuniprocessor 64-bit UltraSPARC
p1518
ss(Vimage
p1519
g1489
NVsparc64
p1520
tp1521
(dp1522
Vconfigs
p1523
(lp1524
Vkernelarch-sparc/config-up
p1525
ass(Vdescription
p1526
g1489
NVsparc64-smp
p1527
tp1528
(dp1529
Vhardware
p1530
Vmultiprocessor 64-bit UltraSPARC
p1531
ss(Vimage
p1532
g1489
NVsparc64-smp
p1533
tp1534
(dp1535
Vconfigs
p1536
(lp1537
Vkernelarch-sparc/config-smp
p1538
ass(g196
g1489
g165
tp1539
(dp1540
g199
(lp1541
Vsparc64
p1542
aVsparc64-smp
p1543
asg203
I01
ss(Vbase
p1544
Vx32
p1545
tp1546
(dp1547
Vkernel-arch
p1548
Vx86
p1549
sVfeaturesets
p1550
(lp1551
ss(Vabi
p1552
NVrt
p1553
tp1554
(dp1555
Vignore-changes
p1556
(lp1557
V*
p1558
ass(Vdescription
p1559
Ng1553
tp1560
(dp1561
Vpart-long-rt
p1562
VThis kernel includes the PREEMPT_RT realtime patch set.
p1563
sVpart-short-rt
p1564
VPREEMPT_RT
p1565
sVparts
p1566
(lp1567
Vrt
p1568
ass(Vversion
p1569
tp1570
(dp1571
Vsource
p1572
V4.19.37-6parrot1
p1573
sVupstream
p1574
V4.19
p1575
sVabiname_base
p1576
V4.19.0
p1577
sVabiname
p1578
V4.19.0-6parrot1
p1579
ss.