cdebian_linux.config
ConfigCore
p0
(tRp1
(Vbase
p2
tp3
(dp4
Varches
p5
(lp6
Valpha
p7
aVamd64
p8
aVarm64
p9
aVarm64ilp32
p10
aVarmel
p11
aVarmhf
p12
aVhppa
p13
aVi386
p14
aVm68k
p15
aVmips
p16
aVmips64
p17
aVmips64el
p18
aVmips64r6
p19
aVmips64r6el
p20
aVmipsel
p21
aVmipsn32
p22
aVmipsn32el
p23
aVmipsn32r6
p24
aVmipsn32r6el
p25
aVmipsr6
p26
aVmipsr6el
p27
aVpowerpc
p28
aVpowerpcspe
p29
aVppc64
p30
aVppc64el
p31
aVs390
p32
aVs390x
p33
aVsh3
p34
aVsh4
p35
aVsparc
p36
aVsparc64
p37
aVtilegx
p38
aVx32
p39
asVfeaturesets
p40
(lp41
Vnone
p42
aVrt
p43
asVcompiler
p44
Vgcc-6
p45
ss(Vbuild
p46
tp47
(dp48
Vsigned-modules
p49
I00
sVdebug-info
p50
I01
ss(Vbase
p51
NVrt
p52
tp53
(dp54
Venabled
p55
I00
ss(Vdescription
p56
tp57
(dp58
Vpart-long-up
p59
VThis kernel is not suitable for SMP (multi-processor,\u000amulti-core or hyper-threaded) systems.
p60
sVpart-long-xen
p61
VThis kernel also runs on a Xen hypervisor.\u000aIt supports both privileged (dom0) and unprivileged (domU) operation.
p62
ss(Vrelations
p63
tp64
(dp65
Vinitramfs-tools
p66
Vinitramfs-tools (>= 0.120+deb8u2)
p67
sVgcc-6
p68
Vgcc-6 <!stage1 !cross>, gcc-6-@gnu-type-package@ <!stage1 cross>
p69
sVinitramfs-fallback
p70
Vlinux-initramfs-tool
p71
ss(Vimage
p72
tp73
(dp74
Vinitramfs-generators
p75
(lp76
Vinitramfs-tools
p77
aVinitramfs-fallback
p78
ass(Vabi
p79
tp80
(dp81
Vabiname
p82
Vparrot4
p83
sVignore-changes
p84
(lp85
V__cpuhp_*
p86
aVbpf_analyzer
p87
aVcxl_*
p88
aViommu_device_*
p89
aVmm_iommu_*
p90
aVperf_*
p91
aVregister_cxl_calls
p92
aVunregister_cxl_calls
p93
aV*_hw_breakpoint
p94
aVmodule:arch/x86/kvm/*
p95
aVmodule:drivers/crypto/ccp/*
p96
aVmodule:drivers/hv/*
p97
aVmodule:drivers/iio/common/hid-sensors/*
p98
aVmodule:drivers/iio/common/st_sensors/**
p99
aVmodule:drivers/mtd/nand/*
p100
aVmodule:drivers/net/wireless/**
p101
aVmodule:drivers/nvdimm/*
p102
aVmodule:drivers/power/supply/bq27xxx_battery
p103
aVmodule:drivers/scsi/cxgbi/*
p104
aVmodule:drivers/scsi/libiscs*
p105
aVmodule:drivers/scsi/qla2xxx/qla2xxx
p106
aVmodule:drivers/scsi/ufs/*
p107
aVmodule:drivers/target/**
p108
aVmodule:drivers/usb/chipidea/**
p109
aVmodule:drivers/usb/host/**
p110
aVmodule:drivers/usb/musb/**
p111
aVmodule:fs/nfs/**
p112
aVmodule:net/ceph/libceph
p113
aVmodule:net/l2tp/l2tp_core
p114
aVmodule:sound/firewire/snd-firewire-lib
p115
aVbtree_*
p116
aVvisitor*
p117
aVcan_rx_register
p118
aVip6_xmit
p119
aVmodule:net/dccp/dccp
p120
aVmodule:net/rds/rds
p121
aVdevfreq_*
p122
aVdevm_devfreq_*
p123
aVupdate_devfreq
p124
aVmodule:drivers/infiniband/**
p125
aVacpi_ec_add_query_handler
p126
aVacpi_ec_remove_query_handler
p127
aVfirst_ec
p128
aVdebugfs_create_automount
p129
aVmodule:drivers/iio/imu/inv_mpu6050/*
p130
ass(Vbase
p131
Valpha
p132
tp133
(dp134
Vfeaturesets
p135
(lp136
Vnone
p137
asVkernel-arch
p138
Valpha
p139
ss(Vdescription
p140
g132
NValpha-smp
p141
tp142
(dp143
Vhardware
p144
VAlpha SMP
p145
sVhardware-long
p146
VDEC Alpha SMP systems with extended kernel start address (Wildfire, Titan, Marvel)
p147
ss(Vbuild
p148
g132
tp149
(dp150
Vsigned-modules
p151
I00
sVimage-file
p152
Varch/alpha/boot/vmlinux.gz
p153
ss(Vdescription
p154
g132
NValpha-generic
p155
tp156
(dp157
Vhardware
p158
VAlpha
p159
sVhardware-long
p160
VDEC Alpha systems with extended kernel start address (Wildfire, Titan, Marvel)
p161
ss(Vimage
p162
g132
tp163
(dp164
Vsuggests
p165
Vaboot, fdutils
p166
sVinstall-stem
p167
Vvmlinuz
p168
ss(Vbase
p169
g132
g137
tp170
(dp171
Vflavours
p172
(lp173
Valpha-generic
p174
aValpha-smp
p175
asVimplicit-flavour
p176
I01
ss(Vbase
p177
Vamd64
p178
tp179
(dp180
Vfeaturesets
p181
(lp182
Vnone
p183
aVrt
p184
asVkernel-arch
p185
Vx86
p186
ss(Vdescription
p187
g178
NVamd64
p188
tp189
(dp190
Vhardware
p191
V64-bit PCs
p192
sVhardware-long
p193
VPCs with AMD64, Intel 64 or VIA Nano processors
p194
ss(Vbuild
p195
g178
tp196
(dp197
Vvdso
p198
I01
sVimage-file
p199
Varch/x86/boot/bzImage
p200
sVdebug-info
p201
I01
sVsigned-modules
p202
I00
ss(Vrelations
p203
g178
tp204
(dp205
Vheaders%gcc-6
p206
Vlinux-compiler-gcc-6-x86
p207
ss(Vimage
p208
g178
tp209
(dp210
Vbreaks
p211
Vxserver-xorg-input-vmmouse (<< 1:13.0.99)
p212
sVinstall-stem
p213
Vvmlinuz
p214
sVbootloaders
p215
(lp216
Vgrub-pc
p217
aVgrub-efi-amd64
p218
aVextlinux
p219
ass(Vbase
p220
g178
Vnone
p221
tp222
(dp223
Vflavours
p224
(lp225
Vamd64
p226
ass(Vdescription
p227
g178
g221
Vamd64
p228
tp229
(dp230
Vparts
p231
(lp232
Vxen
p233
ass(Vbase
p234
g178
Vrt
p235
tp236
(dp237
Vflavours
p238
(lp239
Vamd64
p240
ass(Vbase
p241
Varm64
p242
tp243
(dp244
Vfeaturesets
p245
(lp246
Vnone
p247
asVkernel-arch
p248
Varm64
p249
ss(Vdescription
p250
g242
NVarm64
p251
tp252
(dp253
Vhardware
p254
V64-bit ARMv8 machines
p255
ss(Vbuild
p256
g242
tp257
(dp258
Vvdso
p259
I01
sVimage-file
p260
Varch/arm64/boot/Image
p261
sVdebug-info
p262
I01
sVsigned-modules
p263
I00
ss(Vimage
p264
g242
NVarm64
p265
tp266
(dp267
s(Vimage
p268
g242
tp269
(dp270
Vbreaks
p271
Vlibmozjs185-1.0, libmozjs-24-0 (<< 24.2.0-5.1~)
p272
sVinstall-stem
p273
Vvmlinuz
p274
ss(Vbase
p275
g242
Vnone
p276
tp277
(dp278
Vflavours
p279
(lp280
Varm64
p281
ass(Vbase
p282
Varm64ilp32
p283
tp284
(dp285
Vfeaturesets
p286
(lp287
sVkernel-arch
p288
Varm64
p289
ss(Vbase
p290
Varmel
p291
tp292
(dp293
g135
(lp294
g137
asVkernel-arch
p295
Varm
p296
ss(Vbuild
p297
g291
tp298
(dp299
Vsigned-modules
p300
I00
sVimage-file
p301
Varch/arm/boot/zImage
p302
sVuncompressed-image-file
p303
Varch/arm/boot/Image
p304
ss(Vimage
p305
g291
NVmarvell
p306
tp307
(dp308
Vrecommends
p309
Vu-boot-tools
p310
sVbreaks
p311
Vflash-kernel (<< 3.57~)
p312
sVcheck-size-with-dtb
p313
I01
sVcheck-size
p314
L2097080L
sVcheck-uncompressed-size
p315
L7340032L
ss(Vdescription
p316
g291
NVmarvell
p317
tp318
(dp319
Vhardware
p320
VMarvell Kirkwood/Orion
p321
sVhardware-long
p322
VMarvell Kirkwood based systems (SheevaPlug, QNAP TS-119/TS-219, etc)\u000aand Orion 5181, 5182 and 5281 based systems (QNAP TS-109/TS-209, etc)
p323
ss(Vrelations
p324
g291
tp325
(dp326
Vheaders%gcc-6
p327
Vlinux-compiler-gcc-6-arm
p328
ss(Vimage
p329
g291
tp330
(dp331
Vinstall-stem
p332
Vvmlinuz
p333
ss(g169
g291
g137
tp334
(dp335
g172
(lp336
Vmarvell
p337
asg176
I01
ss(Vbase
p338
Varmhf
p339
tp340
(dp341
g135
(lp342
g137
asVkernel-arch
p343
Varm
p344
ss(Vdescription
p345
g339
NVarmmp
p346
tp347
(dp348
Vhardware
p349
VARMv7 multiplatform compatible SoCs
p350
sVhardware-long
p351
VARMv7 multiplatform kernel. See\u000ahttps://wiki.debian.org/DebianKernel/ARMMP for details of supported\u000aplatforms
p352
ss(Vbuild
p353
g339
tp354
(dp355
Vvdso
p356
I01
sVimage-file
p357
Varch/arm/boot/zImage
p358
sVsigned-modules
p359
I00
ss(Vdescription
p360
g339
NVarmmp-lpae
p361
tp362
(dp363
Vhardware
p364
VARMv7 multiplatform compatible SoCs supporting LPAE
p365
sVhardware-long
p366
VARMv7 multiplatform kernel supporting LPAE. See\u000ahttps://wiki.debian.org/DebianKernel/ARMMP for details of supported\u000aplatforms.
p367
ss(Vrelations
p368
g339
tp369
(dp370
Vheaders%gcc-6
p371
Vlinux-compiler-gcc-6-arm
p372
ss(Vimage
p373
g339
tp374
(dp375
Vinstall-stem
p376
Vvmlinuz
p377
ss(g169
g339
g137
tp378
(dp379
g172
(lp380
Varmmp
p381
aVarmmp-lpae
p382
asg176
I01
ss(Vbase
p383
Vhppa
p384
tp385
(dp386
g135
(lp387
g137
asVkernel-arch
p388
Vparisc
p389
ss(Vbuild
p390
g384
tp391
(dp392
Vsigned-modules
p393
I00
sVimage-file
p394
Vvmlinux
p395
ss(Vdescription
p396
g384
NVparisc64-smp
p397
tp398
(dp399
Vhardware
p400
Vmultiprocessor 64-bit PA-RISC
p401
sVhardware-long
p402
VHP PA-RISC 64-bit SMP systems with support for more than 4 GB RAM
p403
ss(Vbase
p404
g384
NVparisc64-smp
p405
tp406
(dp407
Vcflags
p408
V-fno-cse-follow-jumps
p409
sVoverride-host-type
p410
Vhppa64-linux-gnu
p411
ss(Vrelations
p412
g384
tp413
(dp414
Vgcc-6
p415
Vgcc-6 <!stage1 !cross>, binutils-hppa64-linux-gnu <!stage1 !cross>, gcc-6-hppa64-linux-gnu <!stage1 !cross>, gcc-6-hppa-linux-gnu <!stage1 cross>, binutils-hppa64-linux-gnu <!stage1 cross>, gcc-6-hppa64-linux-gnu <!stage1 cross>
p416
ss(Vdescription
p417
g384
NVparisc
p418
tp419
(dp420
Vhardware
p421
V32-bit PA-RISC
p422
sVhardware-long
p423
VHP PA-RISC 32-bit systems with max 4 GB RAM
p424
ss(Vimage
p425
g384
tp426
(dp427
Vsuggests
p428
Vpalo
p429
sVinstall-stem
p430
Vvmlinux
p431
ss(g169
g384
g137
tp432
(dp433
g172
(lp434
Vparisc
p435
aVparisc64-smp
p436
asg176
I01
ss(Vbase
p437
Vi386
p438
tp439
(dp440
Vfeaturesets
p441
(lp442
Vnone
p443
aVrt
p444
asVkernel-arch
p445
Vx86
p446
ss(Vbuild
p447
g438
tp448
(dp449
Vvdso
p450
I01
sVimage-file
p451
Varch/x86/boot/bzImage
p452
sVsigned-modules
p453
I00
ss(Vdescription
p454
g438
NV686-pae
p455
tp456
(dp457
Vhardware
p458
Vmodern PCs
p459
sVhardware-long
p460
VPCs with one or more processors supporting PAE
p461
sVparts
p462
(lp463
Vpae
p464
ass(Vdescription
p465
g438
tp466
(dp467
Vpart-long-pae
p468
VThis kernel requires PAE (Physical Address Extension).\u000aThis feature is supported by the Intel Pentium Pro/II/III/4/4M/D, Xeon,\u000aCore and Atom; AMD Geode NX, Athlon (K7), Duron, Opteron, Sempron,\u000aTurion or Phenom; Transmeta Efficeon; VIA C7; and some other processors.
p469
ss(Vbuild
p470
g438
NV686-pae
p471
tp472
(dp473
Vdebug-info
p474
I01
ss(Vdescription
p475
g438
NV686
p476
tp477
(dp478
Vhardware
p479
Volder PCs
p480
sVhardware-long
p481
VPCs with one or more processors not supporting PAE
p482
ss(Vrelations
p483
g438
tp484
(dp485
Vheaders%gcc-6
p486
Vlinux-compiler-gcc-6-x86
p487
ss(Vimage
p488
g438
tp489
(dp490
Vbreaks
p491
Vxserver-xorg-input-vmmouse (<< 1:13.0.99)
p492
sVinstall-stem
p493
Vvmlinuz
p494
sVbootloaders
p495
(lp496
Vgrub-pc
p497
aVextlinux
p498
ass(Vbase
p499
g438
Vnone
p500
tp501
(dp502
Vflavours
p503
(lp504
V686
p505
aV686-pae
p506
ass(Vdescription
p507
g438
g500
V686-pae
p508
tp509
(dp510
Vparts
p511
(lp512
Vxen
p513
ass(Vbase
p514
g438
Vrt
p515
tp516
(dp517
Vflavours
p518
(lp519
V686-pae
p520
ass(Vbase
p521
Vm68k
p522
tp523
(dp524
Vcflags
p525
V-ffreestanding
p526
sg135
(lp527
g137
asVkernel-arch
p528
Vm68k
p529
ss(Vbuild
p530
g522
tp531
(dp532
Vsigned-modules
p533
I00
sVimage-file
p534
Vvmlinux.gz
p535
ss(Vdescription
p536
g522
NVm68k
p537
tp538
(dp539
Vhardware
p540
VMotorola MC68020+ family
p541
ss(Vimage
p542
g522
tp543
(dp544
Vsuggests
p545
Vvmelilo, fdutils
p546
sVinstall-stem
p547
Vvmlinuz
p548
ss(g169
g522
g137
tp549
(dp550
g172
(lp551
Vm68k
p552
asg176
I01
ss(Vbase
p553
Vmips
p554
tp555
(dp556
g135
(lp557
g137
asVkernel-arch
p558
Vmips
p559
ss(Vbuild
p560
g554
tp561
(dp562
Vsigned-modules
p563
I00
sVimage-file
p564
Vvmlinux
p565
ss(Vimage
p566
g554
NV4kc-malta
p567
tp568
(dp569
Vconfigs
p570
(lp571
Vkernelarch-mips/config.malta
p572
aVkernelarch-mips/config.mips32r2
p573
ass(Vimage
p574
g554
NV5kc-malta
p575
tp576
(dp577
Vconfigs
p578
(lp579
Vkernelarch-mips/config.malta
p580
aVkernelarch-mips/config.mips64r2
p581
ass(Vdescription
p582
g554
NVocteon
p583
tp584
(dp585
Vhardware
p586
VOcteon
p587
sVhardware-long
p588
VCavium Networks Octeon
p589
ss(Vimage
p590
g554
NVocteon
p591
tp592
(dp593
Vconfigs
p594
(lp595
Vkernelarch-mips/config.octeon
p596
ass(Vimage
p597
g554
tp598
(dp599
Vinstall-stem
p600
Vvmlinux
p601
ss(Vdescription
p602
g554
NV5kc-malta
p603
tp604
(dp605
Vhardware
p606
VMIPS Malta (64-bit)
p607
sVhardware-long
p608
VMIPS Malta boards (64-bit)
p609
ss(Vdescription
p610
g554
NV4kc-malta
p611
tp612
(dp613
Vhardware
p614
VMIPS Malta
p615
sVhardware-long
p616
VMIPS Malta boards
p617
ss(g169
g554
g137
tp618
(dp619
g172
(lp620
V4kc-malta
p621
aV5kc-malta
p622
aVocteon
p623
asg176
I01
ss(Vbase
p624
Vmips64
p625
tp626
(dp627
g135
(lp628
g137
asVkernel-arch
p629
Vmips
p630
ss(Vbuild
p631
g625
tp632
(dp633
Vsigned-modules
p634
I00
sVimage-file
p635
Vvmlinux
p636
ss(Vimage
p637
g625
NV5kc-malta
p638
tp639
(dp640
Vconfigs
p641
(lp642
Vkernelarch-mips/config.malta
p643
aVkernelarch-mips/config.mips64r2
p644
ass(Vdescription
p645
g625
NVocteon
p646
tp647
(dp648
Vhardware
p649
VOcteon
p650
sVhardware-long
p651
VCavium Networks Octeon
p652
ss(Vimage
p653
g625
tp654
(dp655
Vinstall-stem
p656
Vvmlinux
p657
ss(Vdescription
p658
g625
NV5kc-malta
p659
tp660
(dp661
Vhardware
p662
VMIPS Malta
p663
sVhardware-long
p664
VMIPS Malta boards
p665
ss(Vimage
p666
g625
NVocteon
p667
tp668
(dp669
Vconfigs
p670
(lp671
Vkernelarch-mips/config.octeon
p672
ass(g169
g625
g137
tp673
(dp674
g172
(lp675
V5kc-malta
p676
aVocteon
p677
asg176
I01
ss(Vbase
p678
Vmips64el
p679
tp680
(dp681
g135
(lp682
g137
asVkernel-arch
p683
Vmips
p684
ss(Vimage
p685
g679
NVloongson-3
p686
tp687
(dp688
Vconfigs
p689
(lp690
Vkernelarch-mips/config.loongson-3
p691
ass(Vbuild
p692
g679
tp693
(dp694
Vsigned-modules
p695
I00
sVimage-file
p696
Vvmlinux
p697
ss(Vimage
p698
g679
NV5kc-malta
p699
tp700
(dp701
Vconfigs
p702
(lp703
Vkernelarch-mips/config.malta
p704
aVkernelarch-mips/config.mips64r2
p705
ass(Vdescription
p706
g679
NVocteon
p707
tp708
(dp709
Vhardware
p710
VOcteon
p711
sVhardware-long
p712
VCavium Networks Octeon
p713
ss(Vdescription
p714
g679
NVloongson-3
p715
tp716
(dp717
Vhardware
p718
VLoongson 3A/3B
p719
sVhardware-long
p720
VLoongson 3A or 3B based systems (e.g. from Loongson or Lemote)
p721
ss(Vimage
p722
g679
tp723
(dp724
Vinstall-stem
p725
Vvmlinux
p726
ss(Vdescription
p727
g679
NV5kc-malta
p728
tp729
(dp730
Vhardware
p731
VMIPS Malta
p732
sVhardware-long
p733
VMIPS Malta boards
p734
ss(Vimage
p735
g679
NVocteon
p736
tp737
(dp738
Vconfigs
p739
(lp740
Vkernelarch-mips/config.octeon
p741
ass(g169
g679
g137
tp742
(dp743
g172
(lp744
V5kc-malta
p745
aVloongson-3
p746
aVocteon
p747
asg176
I01
ss(Vbase
p748
Vmips64r6
p749
tp750
(dp751
g135
(lp752
g137
asVkernel-arch
p753
Vmips
p754
ss(Vbuild
p755
g749
tp756
(dp757
Vsigned-modules
p758
I00
sVimage-file
p759
Vvmlinux
p760
ss(Vimage
p761
g749
tp762
(dp763
Vinstall-stem
p764
Vvmlinux
p765
ss(Vimage
p766
g749
NVmips64r6
p767
tp768
(dp769
Vconfigs
p770
(lp771
Vkernelarch-mips/config.malta
p772
aVkernelarch-mips/config.mips64r6
p773
ass(Vdescription
p774
g749
NVmips64r6
p775
tp776
(dp777
Vhardware
p778
VMIPS R6 (64 bit, big endian)
p779
sVhardware-long
p780
VMIPS R6 (64 bit, big endian)
p781
ss(g169
g749
g137
tp782
(dp783
g172
(lp784
Vmips64r6
p785
asg176
I01
ss(Vbase
p786
Vmips64r6el
p787
tp788
(dp789
g135
(lp790
g137
asVkernel-arch
p791
Vmips
p792
ss(Vimage
p793
g787
NVmips64r6el
p794
tp795
(dp796
Vconfigs
p797
(lp798
Vkernelarch-mips/config.malta
p799
aVkernelarch-mips/config.mips64r6
p800
ass(Vbuild
p801
g787
tp802
(dp803
Vsigned-modules
p804
I00
sVimage-file
p805
Vvmlinux
p806
ss(Vdescription
p807
g787
NVmips64r6el
p808
tp809
(dp810
Vhardware
p811
VMIPS R6 (64 bit, little endian)
p812
sVhardware-long
p813
VMIPS R6 (64 bit, little endian)
p814
ss(Vimage
p815
g787
tp816
(dp817
Vinstall-stem
p818
Vvmlinux
p819
ss(g169
g787
g137
tp820
(dp821
g172
(lp822
Vmips64r6el
p823
asg176
I01
ss(Vbase
p824
Vmipsel
p825
tp826
(dp827
g135
(lp828
g137
asVkernel-arch
p829
Vmips
p830
ss(Vimage
p831
g825
NVloongson-3
p832
tp833
(dp834
Vconfigs
p835
(lp836
Vkernelarch-mips/config.loongson-3
p837
ass(Vbuild
p838
g825
tp839
(dp840
Vsigned-modules
p841
I00
sVimage-file
p842
Vvmlinux
p843
ss(Vimage
p844
g825
NV4kc-malta
p845
tp846
(dp847
Vconfigs
p848
(lp849
Vkernelarch-mips/config.malta
p850
aVkernelarch-mips/config.mips32r2
p851
ass(Vimage
p852
g825
NV5kc-malta
p853
tp854
(dp855
Vconfigs
p856
(lp857
Vkernelarch-mips/config.malta
p858
aVkernelarch-mips/config.mips64r2
p859
ass(Vdescription
p860
g825
NVocteon
p861
tp862
(dp863
Vhardware
p864
VOcteon
p865
sVhardware-long
p866
VCavium Networks Octeon
p867
ss(Vdescription
p868
g825
NVloongson-3
p869
tp870
(dp871
Vhardware
p872
VLoongson 3A/3B
p873
sVhardware-long
p874
VLoongson 3A or 3B based systems (e.g. from Loongson or Lemote)
p875
ss(Vimage
p876
g825
NVocteon
p877
tp878
(dp879
Vconfigs
p880
(lp881
Vkernelarch-mips/config.octeon
p882
ass(Vimage
p883
g825
tp884
(dp885
Vinstall-stem
p886
Vvmlinux
p887
ss(Vdescription
p888
g825
NV5kc-malta
p889
tp890
(dp891
Vhardware
p892
VMIPS Malta (64-bit)
p893
sVhardware-long
p894
VMIPS Malta boards (64-bit)
p895
ss(Vdescription
p896
g825
NV4kc-malta
p897
tp898
(dp899
Vhardware
p900
VMIPS Malta
p901
sVhardware-long
p902
VMIPS Malta boards
p903
ss(g169
g825
g137
tp904
(dp905
g172
(lp906
V4kc-malta
p907
aV5kc-malta
p908
aVloongson-3
p909
aVocteon
p910
asg176
I01
ss(Vbase
p911
Vmipsn32
p912
tp913
(dp914
Vfeaturesets
p915
(lp916
sVkernel-arch
p917
Vmips
p918
ss(Vbase
p919
Vmipsn32el
p920
tp921
(dp922
Vfeaturesets
p923
(lp924
sVkernel-arch
p925
Vmips
p926
ss(Vbase
p927
Vmipsn32r6
p928
tp929
(dp930
Vfeaturesets
p931
(lp932
sVkernel-arch
p933
Vmips
p934
ss(Vbase
p935
Vmipsn32r6el
p936
tp937
(dp938
Vfeaturesets
p939
(lp940
sVkernel-arch
p941
Vmips
p942
ss(Vbase
p943
Vmipsr6
p944
tp945
(dp946
g135
(lp947
g137
asVkernel-arch
p948
Vmips
p949
ss(Vbuild
p950
g944
tp951
(dp952
Vsigned-modules
p953
I00
sVimage-file
p954
Vvmlinux
p955
ss(Vdescription
p956
g944
NVmips32r6
p957
tp958
(dp959
Vhardware
p960
VMIPS R6 (32 bit, big endian)
p961
sVhardware-long
p962
VMIPS R6 (32 bit, big endian)
p963
ss(Vdescription
p964
g944
NVmips64r6
p965
tp966
(dp967
Vhardware
p968
VMIPS R6 (64 bit, big endian)
p969
sVhardware-long
p970
VMIPS R6 (64 bit, big endian)
p971
ss(Vimage
p972
g944
NVmips64r6
p973
tp974
(dp975
Vconfigs
p976
(lp977
Vkernelarch-mips/config.malta
p978
aVkernelarch-mips/config.mips64r6
p979
ass(Vimage
p980
g944
tp981
(dp982
Vinstall-stem
p983
Vvmlinux
p984
ss(Vimage
p985
g944
NVmips32r6
p986
tp987
(dp988
Vconfigs
p989
(lp990
Vkernelarch-mips/config.malta
p991
aVkernelarch-mips/config.mips32r6
p992
ass(g169
g944
g137
tp993
(dp994
g172
(lp995
Vmips32r6
p996
aVmips64r6
p997
asg176
I01
ss(Vbase
p998
Vmipsr6el
p999
tp1000
(dp1001
g135
(lp1002
g137
asVkernel-arch
p1003
Vmips
p1004
ss(Vimage
p1005
g999
NVmips32r6el
p1006
tp1007
(dp1008
Vconfigs
p1009
(lp1010
Vkernelarch-mips/config.malta
p1011
aVkernelarch-mips/config.mips32r6
p1012
ass(Vdescription
p1013
g999
NVmips64r6el
p1014
tp1015
(dp1016
Vhardware
p1017
VMIPS R6 (64 bit, little endian)
p1018
sVhardware-long
p1019
VMIPS R6 (64 bit, little endian)
p1020
ss(Vdescription
p1021
g999
NVmips32r6el
p1022
tp1023
(dp1024
Vhardware
p1025
VMIPS R6 (32 bit, little endian)
p1026
sVhardware-long
p1027
VMIPS R6 (32 bit, little endian)
p1028
ss(Vimage
p1029
g999
NVmips64r6el
p1030
tp1031
(dp1032
Vconfigs
p1033
(lp1034
Vkernelarch-mips/config.malta
p1035
aVkernelarch-mips/config.mips64r6
p1036
ass(Vbuild
p1037
g999
tp1038
(dp1039
Vsigned-modules
p1040
I00
sVimage-file
p1041
Vvmlinux
p1042
ss(Vimage
p1043
g999
tp1044
(dp1045
Vinstall-stem
p1046
Vvmlinux
p1047
ss(g169
g999
g137
tp1048
(dp1049
g172
(lp1050
Vmips32r6el
p1051
aVmips64r6el
p1052
asg176
I01
ss(Vbase
p1053
Vpowerpc
p1054
tp1055
(dp1056
g135
(lp1057
g137
asVkernel-arch
p1058
Vpowerpc
p1059
ss(Vdescription
p1060
g1054
NVpowerpc64
p1061
tp1062
(dp1063
Vhardware
p1064
V64-bit PowerPC
p1065
ss(Vbuild
p1066
g1054
tp1067
(dp1068
Vvdso
p1069
I01
sVimage-file
p1070
Vvmlinux
p1071
ss(Vimage
p1072
g1054
NVpowerpc-smp
p1073
tp1074
(dp1075
Vconfigs
p1076
(lp1077
Vpowerpc/config.powerpc
p1078
aVpowerpc/config.powerpc-smp
p1079
ass(Vdescription
p1080
g1054
NVpowerpc
p1081
tp1082
(dp1083
Vhardware
p1084
Vuniprocessor 32-bit PowerPC
p1085
ss(Vimage
p1086
g1054
NVpowerpc64
p1087
tp1088
(dp1089
Vconfigs
p1090
(lp1091
Vkernelarch-powerpc/config-arch-64
p1092
aVkernelarch-powerpc/config-arch-64-be
p1093
ass(Vdescription
p1094
g1054
NVpowerpc-smp
p1095
tp1096
(dp1097
Vhardware
p1098
Vmultiprocessor 32-bit PowerPC
p1099
ss(Vimage
p1100
g1054
tp1101
(dp1102
Vsuggests
p1103
Vmkvmlinuz
p1104
sVinstall-stem
p1105
Vvmlinux
p1106
sVconfigs
p1107
(lp1108
ss(g169
g1054
g137
tp1109
(dp1110
g172
(lp1111
Vpowerpc
p1112
aVpowerpc-smp
p1113
aVpowerpc64
p1114
asg176
I01
ss(Vbase
p1115
Vpowerpcspe
p1116
tp1117
(dp1118
g135
(lp1119
g137
asVkernel-arch
p1120
Vpowerpc
p1121
ss(Vbuild
p1122
g1116
tp1123
(dp1124
Vsigned-modules
p1125
I00
sVimage-file
p1126
Vvmlinux
p1127
sVvdso
p1128
I01
ss(Vimage
p1129
g1116
tp1130
(dp1131
Vsuggests
p1132
Vmkvmlinuz
p1133
sVinstall-stem
p1134
Vvmlinux
p1135
ss(Vdescription
p1136
g1116
tp1137
(dp1138
Vhardware
p1139
V32-bit PowerPC with SPE (instead of AltiVec) with SMP support
p1140
ss(g169
g1116
g137
tp1141
(dp1142
g172
(lp1143
Vpowerpcspe
p1144
asg176
I01
ss(Vbase
p1145
Vppc64
p1146
tp1147
(dp1148
g135
(lp1149
g137
asVkernel-arch
p1150
Vpowerpc
p1151
ss(Vdescription
p1152
g1146
NVpowerpc64
p1153
tp1154
(dp1155
Vhardware
p1156
V64-bit PowerPC
p1157
ss(Vbuild
p1158
g1146
tp1159
(dp1160
Vsigned-modules
p1161
I00
sVimage-file
p1162
Vvmlinux
p1163
sVvdso
p1164
I01
ss(Vimage
p1165
g1146
NVpowerpc64
p1166
tp1167
(dp1168
Vconfigs
p1169
(lp1170
Vkernelarch-powerpc/config-arch-64
p1171
aVkernelarch-powerpc/config-arch-64-be
p1172
ass(Vimage
p1173
g1146
tp1174
(dp1175
Vsuggests
p1176
Vmkvmlinuz
p1177
sVinstall-stem
p1178
Vvmlinux
p1179
sVconfigs
p1180
(lp1181
ss(g169
g1146
g137
tp1182
(dp1183
g172
(lp1184
Vpowerpc64
p1185
asg176
I01
ss(Vbase
p1186
Vppc64el
p1187
tp1188
(dp1189
g135
(lp1190
g137
asVkernel-arch
p1191
Vpowerpc
p1192
ss(Vdescription
p1193
g1187
NVpowerpc64le
p1194
tp1195
(dp1196
Vhardware
p1197
VLittle-endian 64-bit PowerPC
p1198
ss(Vbuild
p1199
g1187
tp1200
(dp1201
Vvdso
p1202
I01
sVimage-file
p1203
Vvmlinux
p1204
ss(Vimage
p1205
g1187
tp1206
(dp1207
Vsuggests
p1208
Vmkvmlinuz
p1209
sVinstall-stem
p1210
Vvmlinux
p1211
sVconfigs
p1212
(lp1213
ss(Vimage
p1214
g1187
NVpowerpc64le
p1215
tp1216
(dp1217
Vconfigs
p1218
(lp1219
Vkernelarch-powerpc/config-arch-64
p1220
aVkernelarch-powerpc/config-arch-64-le
p1221
ass(g169
g1187
g137
tp1222
(dp1223
g172
(lp1224
Vpowerpc64le
p1225
asg176
I01
ss(Vbase
p1226
Vs390
p1227
tp1228
(dp1229
Vfeaturesets
p1230
(lp1231
sVkernel-arch
p1232
Vs390
p1233
ss(Vbase
p1234
Vs390x
p1235
tp1236
(dp1237
g135
(lp1238
g137
asVkernel-arch
p1239
Vs390
p1240
ss(Vdescription
p1241
g1235
NVs390x
p1242
tp1243
(dp1244
Vhardware
p1245
VIBM zSeries
p1246
ss(Vbuild
p1247
g1235
tp1248
(dp1249
Vvdso
p1250
I01
sVimage-file
p1251
Varch/s390/boot/image
p1252
ss(Vbuild
p1253
g1235
NVs390x
p1254
tp1255
(dp1256
Vdebug-info
p1257
I01
ss(Vrelations
p1258
g1235
tp1259
(dp1260
Vheaders%gcc-6
p1261
Vlinux-compiler-gcc-6-s390
p1262
ss(Vimage
p1263
g1235
tp1264
(dp1265
Vinstall-stem
p1266
Vvmlinuz
p1267
sVbootloaders
p1268
(lp1269
Vs390-tools
p1270
ass(g169
g1235
g137
tp1271
(dp1272
g172
(lp1273
Vs390x
p1274
asg176
I01
ss(Vbase
p1275
Vsh3
p1276
tp1277
(dp1278
Vfeaturesets
p1279
(lp1280
sVkernel-arch
p1281
Vsh
p1282
ss(Vbase
p1283
Vsh4
p1284
tp1285
(dp1286
g135
(lp1287
g137
asVkernel-arch
p1288
Vsh
p1289
ss(Vbuild
p1290
g1284
tp1291
(dp1292
Vsigned-modules
p1293
I00
sVimage-file
p1294
Varch/sh/boot/zImage
p1295
ss(Vdescription
p1296
g1284
NVsh7751r
p1297
tp1298
(dp1299
Vhardware
p1300
Vsh7751r
p1301
sVhardware-long
p1302
VRenesas SH7751R R2D plus board
p1303
ss(Vdescription
p1304
g1284
NVsh7785lcr
p1305
tp1306
(dp1307
Vhardware
p1308
Vsh7785lcr
p1309
sVhardware-long
p1310
VRenesas SH7785 reference board
p1311
ss(Vimage
p1312
g1284
tp1313
(dp1314
Vinstall-stem
p1315
Vvmlinuz
p1316
ss(Vimage
p1317
g1284
NVsh7785lcr
p1318
tp1319
(dp1320
Vrecommends
p1321
Vu-boot-tools
p1322
sVcheck-size
p1323
L4194304L
ss(g169
g1284
g137
tp1324
(dp1325
g172
(lp1326
Vsh7751r
p1327
aVsh7785lcr
p1328
asg176
I01
ss(Vbase
p1329
Vsparc
p1330
tp1331
(dp1332
Vfeaturesets
p1333
(lp1334
sVkernel-arch
p1335
Vsparc
p1336
ss(Vbase
p1337
Vsparc64
p1338
tp1339
(dp1340
g135
(lp1341
g137
asVkernel-arch
p1342
Vsparc
p1343
ss(Vbuild
p1344
g1338
tp1345
(dp1346
Vsigned-modules
p1347
I00
sVimage-file
p1348
Varch/sparc/boot/zImage
p1349
ss(Vimage
p1350
g1338
NVsparc64
p1351
tp1352
(dp1353
Vconfigs
p1354
(lp1355
Vkernelarch-sparc/config-up
p1356
ass(Vimage
p1357
g1338
NVsparc64-smp
p1358
tp1359
(dp1360
Vconfigs
p1361
(lp1362
Vkernelarch-sparc/config-smp
p1363
ass(Vimage
p1364
g1338
tp1365
(dp1366
Vsuggests
p1367
Vsilo, fdutils
p1368
sVinstall-stem
p1369
Vvmlinuz
p1370
sVconfigs
p1371
(lp1372
ss(Vdescription
p1373
g1338
NVsparc64-smp
p1374
tp1375
(dp1376
Vhardware
p1377
Vmultiprocessor 64-bit UltraSPARC
p1378
ss(Vdescription
p1379
g1338
NVsparc64
p1380
tp1381
(dp1382
Vhardware
p1383
Vuniprocessor 64-bit UltraSPARC
p1384
ss(g169
g1338
g137
tp1385
(dp1386
g172
(lp1387
Vsparc64
p1388
aVsparc64-smp
p1389
asg176
I01
ss(Vbase
p1390
Vtilegx
p1391
tp1392
(dp1393
Vfeaturesets
p1394
(lp1395
sVkernel-arch
p1396
Vtile
p1397
ss(Vbase
p1398
Vx32
p1399
tp1400
(dp1401
Vfeaturesets
p1402
(lp1403
sVkernel-arch
p1404
Vx86
p1405
ss(Vdescription
p1406
NVrt
p1407
tp1408
(dp1409
Vparts
p1410
(lp1411
Vrt
p1412
asVpart-long-rt
p1413
VThis kernel includes the PREEMPT_RT realtime patch set.
p1414
sVpart-short-rt
p1415
VPREEMPT_RT
p1416
ss(Vabi
p1417
Ng1407
tp1418
(dp1419
Vignore-changes
p1420
(lp1421
V*
p1422
ass(Vversion
p1423
tp1424
(dp1425
Vupstream
p1426
V4.13
p1427
sVsource
p1428
V4.13.4-2parrot0
p1429
sVabiname
p1430
V4.13.0-parrot4
p1431
sVabiname_base
p1432
V4.13.0
p1433
ss.