cdebian_linux.config
ConfigCore
p0
(tRp1
(Vabi
p2
tp3
(dp4
Vabiname
p5
V5parrot1
p6
sVignore-changes
p7
(lp8
V__cpuhp_*
p9
aV__udp_gso_segment
p10
aVbpf_analyzer
p11
aVcxl_*
p12
aVdax_flush
p13
aVieee80211_nullfunc_get
p14
aVinet_add_protocol
p15
aVinet_del_protocol
p16
aViommu_device_*
p17
aVmm_iommu_*
p18
aVmv_mbus_*
p19
aVperf_*
p20
aVregister_cxl_calls
p21
aVregister_key_type
p22
aVunregister_cxl_calls
p23
aV*_hw_breakpoint
p24
aVmodule:drivers/crypto/ccp/*
p25
aVmodule:drivers/hv/*
p26
aVmodule:drivers/gpu/drm/sun4i/*
p27
aVmodule:drivers/iio/**
p28
aVmodule:drivers/misc/cxl/*
p29
aVmodule:drivers/mtd/nand/*
p30
aVmodule:drivers/net/ethernet/**
p31
aVmodule:drivers/net/wireless/**
p32
aVmodule:drivers/nvdimm/*
p33
aVmodule:drivers/nvme/**
p34
aVmodule:drivers/power/supply/bq27xxx_battery
p35
aVmodule:drivers/scsi/cxgbi/*
p36
aVmodule:drivers/scsi/libiscs*
p37
aVmodule:drivers/scsi/qla2xxx/qla2xxx
p38
aVmodule:drivers/scsi/ufs/*
p39
aVmodule:drivers/target/**
p40
aVmodule:drivers/usb/chipidea/**
p41
aVmodule:drivers/usb/gadget/**
p42
aVmodule:drivers/usb/host/**
p43
aVmodule:drivers/usb/musb/**
p44
aVmodule:fs/nfs/**
p45
aVmodule:net/ceph/libceph
p46
aVmodule:net/l2tp/**
p47
aVmodule:net/rxrpc/rxrpc
p48
aVmodule:net/sctp/**
p49
aVmodule:sound/core/seq/**
p50
aVmodule:sound/firewire/snd-firewire-lib
p51
aVmodule:sound/pci/hda/*
p52
aVbtree_*
p53
aVvisitor*
p54
aVcan_rx_register
p55
aVip6_xmit
p56
aVmodule:net/dccp/dccp
p57
aVmodule:net/rds/rds
p58
aVdevfreq_*
p59
aVdevm_devfreq_*
p60
aVupdate_devfreq
p61
aVmodule:drivers/infiniband/**
p62
aVacpi_ec_add_query_handler
p63
aVacpi_ec_remove_query_handler
p64
aVfirst_ec
p65
aVdebugfs_create_automount
p66
aVmodule:drivers/iio/imu/inv_mpu6050/*
p67
aVdrm_crtc_accurate_vblank_count
p68
aVacpi_nfit_desc_init
p69
aVacpi_nfit_init
p70
aVloop_register_transfer
p71
aVxen_xlate_*
p72
aVnf_nat_masquerade_ipv4_register_notifier
p73
aVnf_nat_masquerade_ipv6_register_notifier
p74
aVdfltcc_*
p75
aVmodule:drivers/scsi/hisi_sas/*
p76
aV__gfn_*
p77
aV__kvmhv_*
p78
aV__kvm_*
p79
aV__xive_vm_h_*
p80
aVgfn_*
p81
aVh_ipi_redirect
p82
aVhalt_poll_ns*
p83
aVkvm_*
p84
aVkvmhv_*
p85
aVkvmppc_*
p86
aVmark_page_dirty
p87
aVvcpu_*
p88
aVmodule:arch/powerpc/kvm/*
p89
aVmodule:arch/s390/kvm/*
p90
aVmodule:arch/x86/kvm/*
p91
aVuv_info
p92
aVxhci_init_driver
p93
ass(Vbase
p94
tp95
(dp96
Varches
p97
(lp98
Valpha
p99
aVamd64
p100
aVarm64
p101
aVarm64ilp32
p102
aVarmel
p103
aVarmhf
p104
aVhppa
p105
aVi386
p106
aVia64
p107
aVm68k
p108
aVmips
p109
aVmips64
p110
aVmips64el
p111
aVmips64r6
p112
aVmips64r6el
p113
aVmipsel
p114
aVmipsn32
p115
aVmipsn32el
p116
aVmipsn32r6
p117
aVmipsn32r6el
p118
aVmipsr6
p119
aVmipsr6el
p120
aVpowerpc
p121
aVppc64
p122
aVppc64el
p123
aVriscv64
p124
aVs390
p125
aVs390x
p126
aVsh3
p127
aVsh4
p128
aVsparc
p129
aVsparc64
p130
aVx32
p131
asVcompiler
p132
Vgcc-10
p133
sVfeaturesets
p134
(lp135
Vnone
p136
aVrt
p137
ass(Vbuild
p138
tp139
(dp140
Vdebug-info
p141
I01
sVsigned-code
p142
I00
ss(Vbase
p143
NVrt
p144
tp145
(dp146
Venabled
p147
I01
ss(Vdescription
p148
tp149
(dp150
Vpart-long-up
p151
VThis kernel is not suitable for SMP (multi-processor,\u000amulti-core or hyper-threaded) systems.
p152
ss(Vimage
p153
tp154
(dp155
Vinitramfs-generators
p156
(lp157
Vinitramfs-tools
p158
aVinitramfs-fallback
p159
asVbreaks
p160
(lp161
Vwireless-regdb (<< 2019.06.03-1~)
p162
asVrecommends
p163
(lp164
Vapparmor
p165
ass(Vrelations
p166
tp167
(dp168
Vgcc-10
p169
Vgcc-10 <!stage1 !cross !pkg.linux.nokernel>, gcc-10-@gnu-type-package@ <!stage1 cross !pkg.linux.nokernel>
p170
sVinitramfs-fallback
p171
Vlinux-initramfs-tool
p172
sVinitramfs-tools
p173
Vinitramfs-tools (>= 0.120+deb8u2)
p174
ss(Vbase
p175
Valpha
p176
tp177
(dp178
Vdefault-flavour
p179
Valpha-smp
p180
sVkernel-arch
p181
Valpha
p182
sVfeaturesets
p183
(lp184
Vnone
p185
ass(Vbuild
p186
g176
tp187
(dp188
Vimage-file
p189
Varch/alpha/boot/vmlinux.gz
p190
ss(Vimage
p191
g176
tp192
(dp193
Vsuggests
p194
(lp195
Vaboot
p196
aVfdutils
p197
asVinstall-stem
p198
Vvmlinuz
p199
ss(Vdescription
p200
g176
NValpha-generic
p201
tp202
(dp203
Vhardware
p204
VAlpha
p205
sVhardware-long
p206
VDEC Alpha systems with extended kernel start address (Wildfire, Titan, Marvel)
p207
ss(Vdescription
p208
g176
NValpha-smp
p209
tp210
(dp211
Vhardware
p212
VAlpha SMP
p213
sVhardware-long
p214
VDEC Alpha SMP systems with extended kernel start address (Wildfire, Titan, Marvel)
p215
ss(Vbase
p216
g176
g185
tp217
(dp218
Vflavours
p219
(lp220
Valpha-generic
p221
aValpha-smp
p222
asVimplicit-flavour
p223
I01
ss(Vbase
p224
Vamd64
p225
tp226
(dp227
Vfeaturesets
p228
(lp229
Vnone
p230
aVrt
p231
asVkernel-arch
p232
Vx86
p233
ss(Vbuild
p234
g225
tp235
(dp236
Vimage-file
p237
Varch/x86/boot/bzImage
p238
sVsigned-code
p239
I00
sVvdso
p240
I01
ss(Vimage
p241
g225
tp242
(dp243
Vbootloaders
p244
(lp245
Vgrub-pc
p246
aVgrub-efi-amd64
p247
aVextlinux
p248
asVinstall-stem
p249
Vvmlinuz
p250
sVbreaks
p251
(lp252
Vxserver-xorg-input-vmmouse (<< 1:13.0.99)
p253
ass(Vrelations
p254
g225
tp255
(dp256
Vheaders%gcc-10
p257
Vlinux-compiler-gcc-10-x86
p258
ss(Vdescription
p259
g225
NVamd64
p260
tp261
(dp262
Vhardware
p263
V64-bit PCs
p264
sVhardware-long
p265
VPCs with AMD64, Intel 64 or VIA Nano processors
p266
ss(Vdescription
p267
g225
NVcloud-amd64
p268
tp269
(dp270
Vhardware
p271
Vx86-64 cloud
p272
sVhardware-long
p273
Vcloud platforms including Amazon EC2, Microsoft Azure, and Google Compute Engine
p274
ss(Vbase
p275
g225
Vnone
p276
tp277
(dp278
Vflavours
p279
(lp280
Vamd64
p281
aVcloud-amd64
p282
asVdefault-flavour
p283
Vamd64
p284
ss(Vimage
p285
g225
g276
Vcloud-amd64
p286
tp287
(dp288
Vconfigs
p289
(lp290
Vconfig.cloud
p291
aVamd64/config.cloud-amd64
p292
ass(Vbase
p293
g225
Vrt
p294
tp295
(dp296
Vflavours
p297
(lp298
Vamd64
p299
ass(Vbase
p300
Varm64
p301
tp302
(dp303
Vcross-compile-compat
p304
Varm-linux-gnueabihf-
p305
sVkernel-arch
p306
Varm64
p307
sVfeaturesets
p308
(lp309
Vnone
p310
aVrt
p311
ass(Vbuild
p312
g301
tp313
(dp314
Vimage-file
p315
Varch/arm64/boot/Image
p316
sVsigned-code
p317
I00
sVvdso
p318
I01
ss(Vimage
p319
g301
tp320
(dp321
Vinstall-stem
p322
Vvmlinuz
p323
sVbreaks
p324
(lp325
Vlibmozjs185-1.0
p326
aVlibmozjs-24-0 (<< 24.2.0-5.1~)
p327
ass(Vdescription
p328
g301
NVarm64
p329
tp330
(dp331
Vhardware
p332
V64-bit ARMv8 machines
p333
ss(Vdescription
p334
g301
NVcloud-arm64
p335
tp336
(dp337
Vhardware
p338
Varm64 cloud
p339
sVhardware-long
p340
Vcloud platforms supporting arm64 virtual machines
p341
ss(Vimage
p342
g301
NVarm64
p343
tp344
(dp345
s(Vrelations
p346
g301
tp347
(dp348
Vgcc-10
p349
Vgcc-10 <!stage1 !cross !pkg.linux.nokernel>, gcc-10-aarch64-linux-gnu <!stage1 cross !pkg.linux.nokernel>, gcc-arm-linux-gnueabihf <!stage1 !pkg.linux.nokernel>
p350
sVheaders%gcc-10
p351
Vgcc-10
p352
ss(Vbase
p353
g301
Vnone
p354
tp355
(dp356
Vflavours
p357
(lp358
Varm64
p359
aVcloud-arm64
p360
asVdefault-flavour
p361
Varm64
p362
ss(Vimage
p363
g301
g354
Vcloud-arm64
p364
tp365
(dp366
Vconfigs
p367
(lp368
Vconfig.cloud
p369
aVarm64/config.cloud-arm64
p370
ass(Vbase
p371
g301
Vrt
p372
tp373
(dp374
Vflavours
p375
(lp376
Varm64
p377
ass(Vbase
p378
Varm64ilp32
p379
tp380
(dp381
Vkernel-arch
p382
Varm64
p383
sVfeaturesets
p384
(lp385
ss(Vbase
p386
Varmel
p387
tp388
(dp389
Vkernel-arch
p390
Varm
p391
sg183
(lp392
g185
ass(Vbuild
p393
g387
tp394
(dp395
Vimage-file
p396
Varch/arm/boot/zImage
p397
sVuncompressed-image-file
p398
Varch/arm/boot/Image
p399
ss(Vimage
p400
g387
tp401
(dp402
Vinstall-stem
p403
Vvmlinuz
p404
ss(Vrelations
p405
g387
tp406
(dp407
Vheaders%gcc-10
p408
Vlinux-compiler-gcc-10-arm
p409
ss(Vdescription
p410
g387
NVmarvell
p411
tp412
(dp413
Vhardware
p414
VMarvell Kirkwood/Orion
p415
sVhardware-long
p416
VMarvell Kirkwood and Orion based systems (https://wiki.debian.org/ArmEabiPort#Supported_hardware)
p417
ss(Vdescription
p418
g387
NVrpi
p419
tp420
(dp421
Vhardware
p422
VRaspberry Pi and Pi Zero
p423
sVhardware-long
p424
VRaspberry Pi, Raspberry Pi Zero based systems
p425
ss(Vimage
p426
g387
NVmarvell
p427
tp428
(dp429
Vrecommends
p430
(lp431
Vu-boot-tools
p432
asVcheck-size
p433
I2729712
sVcheck-size-with-dtb
p434
I01
sVbreaks
p435
(lp436
Vflash-kernel (<< 3.57~)
p437
ass(g216
g387
g185
tp438
(dp439
g219
(lp440
Vmarvell
p441
aVrpi
p442
asg223
I01
ss(Vbase
p443
Varmhf
p444
tp445
(dp446
Vfeaturesets
p447
(lp448
Vnone
p449
aVrt
p450
asVkernel-arch
p451
Varm
p452
ss(Vbuild
p453
g444
tp454
(dp455
Vimage-file
p456
Varch/arm/boot/zImage
p457
sVvdso
p458
I01
ss(Vimage
p459
g444
tp460
(dp461
Vinstall-stem
p462
Vvmlinuz
p463
ss(Vrelations
p464
g444
tp465
(dp466
Vheaders%gcc-10
p467
Vlinux-compiler-gcc-10-arm
p468
ss(Vdescription
p469
g444
NVarmmp
p470
tp471
(dp472
Vhardware
p473
VARMv7 multiplatform compatible SoCs
p474
sVhardware-long
p475
VARMv7 multiplatform kernel. See\u000ahttps://wiki.debian.org/DebianKernel/ARMMP for details of supported\u000aplatforms
p476
ss(Vdescription
p477
g444
NVarmmp-lpae
p478
tp479
(dp480
Vhardware
p481
VARMv7 multiplatform compatible SoCs supporting LPAE
p482
sVhardware-long
p483
VARMv7 multiplatform kernel supporting LPAE. See\u000ahttps://wiki.debian.org/DebianKernel/ARMMP for details of supported\u000aplatforms.
p484
ss(Vbase
p485
g444
Vnone
p486
tp487
(dp488
Vflavours
p489
(lp490
Varmmp
p491
aVarmmp-lpae
p492
asVdefault-flavour
p493
Varmmp
p494
ss(Vbase
p495
g444
Vrt
p496
tp497
(dp498
Vflavours
p499
(lp500
Varmmp
p501
ass(Vbase
p502
Vhppa
p503
tp504
(dp505
Vdefault-flavour
p506
Vparisc
p507
sVkernel-arch
p508
Vparisc
p509
sg183
(lp510
g185
ass(Vbuild
p511
g503
tp512
(dp513
Vimage-file
p514
Varch/parisc/boot/bzImage
p515
sVdebug-info
p516
I00
ss(Vimage
p517
g503
tp518
(dp519
Vsuggests
p520
(lp521
Vpalo
p522
asVinstall-stem
p523
Vvmlinuz
p524
ss(Vdescription
p525
g503
NVparisc
p526
tp527
(dp528
Vhardware
p529
V32-bit PA-RISC
p530
sVhardware-long
p531
VHP PA-RISC 32-bit systems with max 4 GB RAM
p532
ss(Vbase
p533
g503
NVparisc64
p534
tp535
(dp536
Vcflags
p537
V-fno-cse-follow-jumps
p538
sVoverride-host-type
p539
Vhppa64-linux-gnu
p540
ss(Vdescription
p541
g503
NVparisc64
p542
tp543
(dp544
Vhardware
p545
V64-bit PA-RISC
p546
sVhardware-long
p547
VHP PA-RISC 64-bit systems with support for more than 4 GB RAM
p548
ss(Vrelations
p549
g503
tp550
(dp551
Vgcc-10
p552
Vgcc-10 <!stage1 !cross !pkg.linux.nokernel>, gcc-10-hppa-linux-gnu <!stage1 cross !pkg.linux.nokernel>, binutils-hppa64-linux-gnu <!stage1 !pkg.linux.nokernel>, gcc-10-hppa64-linux-gnu <!stage1 !pkg.linux.nokernel>
p553
ss(g216
g503
g185
tp554
(dp555
g219
(lp556
Vparisc
p557
aVparisc64
p558
asg223
I01
ss(Vbase
p559
Vi386
p560
tp561
(dp562
Vfeaturesets
p563
(lp564
Vnone
p565
aVrt
p566
asVkernel-arch
p567
Vx86
p568
ss(Vbuild
p569
g560
tp570
(dp571
Vimage-file
p572
Varch/x86/boot/bzImage
p573
sVsigned-code
p574
I00
sVvdso
p575
I01
ss(Vdescription
p576
g560
tp577
(dp578
Vpart-long-pae
p579
VThis kernel requires PAE (Physical Address Extension).\u000aThis feature is supported by the Intel Pentium Pro/II/III/4/4M/D, Xeon,\u000aCore and Atom; AMD Geode NX, Athlon (K7), Duron, Opteron, Sempron,\u000aTurion or Phenom; Transmeta Efficeon; VIA C7; and some other processors.
p580
ss(Vimage
p581
g560
tp582
(dp583
Vbootloaders
p584
(lp585
Vgrub-pc
p586
aVgrub-efi-ia32
p587
aVextlinux
p588
asVinstall-stem
p589
Vvmlinuz
p590
sVbreaks
p591
(lp592
Vxserver-xorg-input-vmmouse (<< 1:13.0.99)
p593
ass(Vrelations
p594
g560
tp595
(dp596
Vheaders%gcc-10
p597
Vlinux-compiler-gcc-10-x86
p598
ss(Vdescription
p599
g560
NV686
p600
tp601
(dp602
Vhardware
p603
Volder PCs
p604
sVhardware-long
p605
VPCs with one or more processors not supporting PAE
p606
ss(Vdescription
p607
g560
NV686-pae
p608
tp609
(dp610
Vhardware
p611
Vmodern PCs
p612
sVhardware-long
p613
VPCs with one or more processors supporting PAE
p614
sVparts
p615
(lp616
Vpae
p617
ass(Vbase
p618
g560
Vnone
p619
tp620
(dp621
Vflavours
p622
(lp623
V686
p624
aV686-pae
p625
asVdefault-flavour
p626
V686-pae
p627
ss(Vbase
p628
g560
Vrt
p629
tp630
(dp631
Vflavours
p632
(lp633
V686-pae
p634
ass(Vbase
p635
Via64
p636
tp637
(dp638
Vdefault-flavour
p639
Vitanium
p640
sVkernel-arch
p641
Via64
p642
sg183
(lp643
g185
ass(Vbuild
p644
g636
tp645
(dp646
Vimage-file
p647
Vvmlinux.gz
p648
ss(Vimage
p649
g636
tp650
(dp651
Vbootloaders
p652
(lp653
Vgrub-efi-ia64
p654
asVinstall-stem
p655
Vvmlinuz
p656
ss(Vdescription
p657
g636
NVitanium
p658
tp659
(dp660
Vhardware
p661
VItanium (Merced)
p662
sVhardware-long
p663
Vsystems with original Itanium (Merced) processors
p664
ss(Vdescription
p665
g636
NVmckinley
p666
tp667
(dp668
Vhardware
p669
VItanium 2+
p670
sVhardware-long
p671
Vsystems with Itanium 2 or 9300/9500/9700-series processors
p672
ss(g216
g636
g185
tp673
(dp674
g219
(lp675
Vitanium
p676
aVmckinley
p677
asg223
I01
ss(Vbase
p678
Vm68k
p679
tp680
(dp681
Vcflags
p682
V-ffreestanding
p683
sVdefault-flavour
p684
Vm68k
p685
sVkernel-arch
p686
Vm68k
p687
sg183
(lp688
g185
ass(Vbuild
p689
g679
tp690
(dp691
Vimage-file
p692
Vvmlinux
p693
ss(Vimage
p694
g679
tp695
(dp696
Vsuggests
p697
(lp698
Vvmelilo
p699
aVfdutils
p700
asVinstall-stem
p701
Vvmlinux
p702
ss(Vdescription
p703
g679
NVm68k
p704
tp705
(dp706
Vhardware
p707
VMotorola MC68020+ family
p708
ss(g216
g679
g185
tp709
(dp710
g219
(lp711
Vm68k
p712
asg223
I01
ss(Vbase
p713
Vmips
p714
tp715
(dp716
Vkernel-arch
p717
Vmips
p718
sg183
(lp719
g185
ass(Vbuild
p720
g714
tp721
(dp722
Vimage-file
p723
Vvmlinuz
p724
ss(Vimage
p725
g714
tp726
(dp727
Vinstall-stem
p728
Vvmlinuz
p729
ss(Vdescription
p730
g714
NV4kc-malta
p731
tp732
(dp733
Vhardware
p734
VMIPS Malta
p735
sVhardware-long
p736
VMIPS Malta boards
p737
ss(Vimage
p738
g714
NV4kc-malta
p739
tp740
(dp741
Vconfigs
p742
(lp743
Vkernelarch-mips/config.malta
p744
aVkernelarch-mips/config.mips32r2
p745
ass(Vdescription
p746
g714
NV5kc-malta
p747
tp748
(dp749
Vhardware
p750
VMIPS Malta (64-bit)
p751
sVhardware-long
p752
VMIPS Malta boards (64-bit)
p753
ss(Vimage
p754
g714
NV5kc-malta
p755
tp756
(dp757
Vconfigs
p758
(lp759
Vkernelarch-mips/config.malta
p760
aVkernelarch-mips/config.mips64r2
p761
ass(Vdescription
p762
g714
NVocteon
p763
tp764
(dp765
Vhardware
p766
VOcteon
p767
sVhardware-long
p768
VCavium Networks Octeon
p769
ss(Vbuild
p770
g714
NVocteon
p771
tp772
(dp773
Vimage-file
p774
Vvmlinux
p775
ss(Vimage
p776
g714
NVocteon
p777
tp778
(dp779
Vinstall-stem
p780
Vvmlinux
p781
sVconfigs
p782
(lp783
Vkernelarch-mips/config.octeon
p784
ass(g216
g714
g185
tp785
(dp786
g219
(lp787
V4kc-malta
p788
aV5kc-malta
p789
aVocteon
p790
asg223
I01
ss(Vbase
p791
Vmips64
p792
tp793
(dp794
Vkernel-arch
p795
Vmips
p796
sg183
(lp797
g185
ass(Vbuild
p798
g792
tp799
(dp800
Vimage-file
p801
Vvmlinuz
p802
ss(Vimage
p803
g792
tp804
(dp805
Vinstall-stem
p806
Vvmlinuz
p807
ss(Vdescription
p808
g792
NV5kc-malta
p809
tp810
(dp811
Vhardware
p812
VMIPS Malta
p813
sVhardware-long
p814
VMIPS Malta boards
p815
ss(Vimage
p816
g792
NV5kc-malta
p817
tp818
(dp819
Vconfigs
p820
(lp821
Vkernelarch-mips/config.malta
p822
aVkernelarch-mips/config.mips64r2
p823
ass(Vdescription
p824
g792
NVocteon
p825
tp826
(dp827
Vhardware
p828
VOcteon
p829
sVhardware-long
p830
VCavium Networks Octeon
p831
ss(Vbuild
p832
g792
NVocteon
p833
tp834
(dp835
Vimage-file
p836
Vvmlinux
p837
ss(Vimage
p838
g792
NVocteon
p839
tp840
(dp841
Vinstall-stem
p842
Vvmlinux
p843
sVconfigs
p844
(lp845
Vkernelarch-mips/config.octeon
p846
ass(g216
g792
g185
tp847
(dp848
g219
(lp849
V5kc-malta
p850
aVocteon
p851
asg223
I01
ss(Vbase
p852
Vmips64el
p853
tp854
(dp855
Vkernel-arch
p856
Vmips
p857
sg183
(lp858
g185
ass(Vbuild
p859
g853
tp860
(dp861
Vimage-file
p862
Vvmlinuz
p863
ss(Vimage
p864
g853
tp865
(dp866
Vinstall-stem
p867
Vvmlinuz
p868
ss(Vdescription
p869
g853
NV5kc-malta
p870
tp871
(dp872
Vhardware
p873
VMIPS Malta
p874
sVhardware-long
p875
VMIPS Malta boards
p876
ss(Vimage
p877
g853
NV5kc-malta
p878
tp879
(dp880
Vconfigs
p881
(lp882
Vkernelarch-mips/config.malta
p883
aVkernelarch-mips/config.mips64r2
p884
ass(Vdescription
p885
g853
NVloongson-3
p886
tp887
(dp888
Vhardware
p889
VLoongson 3A/3B
p890
sVhardware-long
p891
VLoongson 3A or 3B based systems (e.g. from Loongson or Lemote)
p892
ss(Vimage
p893
g853
NVloongson-3
p894
tp895
(dp896
Vconfigs
p897
(lp898
Vkernelarch-mips/config.loongson-3
p899
ass(Vdescription
p900
g853
NVocteon
p901
tp902
(dp903
Vhardware
p904
VOcteon
p905
sVhardware-long
p906
VCavium Networks Octeon
p907
ss(Vbuild
p908
g853
NVocteon
p909
tp910
(dp911
Vimage-file
p912
Vvmlinux
p913
ss(Vimage
p914
g853
NVocteon
p915
tp916
(dp917
Vinstall-stem
p918
Vvmlinux
p919
sVconfigs
p920
(lp921
Vkernelarch-mips/config.octeon
p922
ass(g216
g853
g185
tp923
(dp924
g219
(lp925
V5kc-malta
p926
aVloongson-3
p927
aVocteon
p928
asg223
I01
ss(Vbase
p929
Vmips64r6
p930
tp931
(dp932
Vdefault-flavour
p933
Vmips64r6
p934
sVkernel-arch
p935
Vmips
p936
sg183
(lp937
g185
ass(Vbuild
p938
g930
tp939
(dp940
Vimage-file
p941
Vvmlinux
p942
ss(Vimage
p943
g930
tp944
(dp945
Vinstall-stem
p946
Vvmlinux
p947
ss(Vdescription
p948
g930
NVmips64r6
p949
tp950
(dp951
Vhardware
p952
VMIPS R6 (64 bit, big endian)
p953
sVhardware-long
p954
VMIPS R6 (64 bit, big endian)
p955
ss(Vimage
p956
g930
NVmips64r6
p957
tp958
(dp959
Vconfigs
p960
(lp961
Vkernelarch-mips/config.boston
p962
aVkernelarch-mips/config.mips64r6
p963
ass(g216
g930
g185
tp964
(dp965
g219
(lp966
Vmips64r6
p967
asg223
I01
ss(Vbase
p968
Vmips64r6el
p969
tp970
(dp971
Vdefault-flavour
p972
Vmips64r6el
p973
sVkernel-arch
p974
Vmips
p975
sg183
(lp976
g185
ass(Vbuild
p977
g969
tp978
(dp979
Vimage-file
p980
Vvmlinux
p981
ss(Vimage
p982
g969
tp983
(dp984
Vinstall-stem
p985
Vvmlinux
p986
ss(Vdescription
p987
g969
NVmips64r6el
p988
tp989
(dp990
Vhardware
p991
VMIPS R6 (64 bit, little endian)
p992
sVhardware-long
p993
VMIPS R6 (64 bit, little endian)
p994
ss(Vimage
p995
g969
NVmips64r6el
p996
tp997
(dp998
Vconfigs
p999
(lp1000
Vkernelarch-mips/config.boston
p1001
aVkernelarch-mips/config.mips64r6
p1002
ass(g216
g969
g185
tp1003
(dp1004
g219
(lp1005
Vmips64r6el
p1006
asg223
I01
ss(Vbase
p1007
Vmipsel
p1008
tp1009
(dp1010
Vkernel-arch
p1011
Vmips
p1012
sg183
(lp1013
g185
ass(Vbuild
p1014
g1008
tp1015
(dp1016
Vimage-file
p1017
Vvmlinuz
p1018
ss(Vimage
p1019
g1008
tp1020
(dp1021
Vinstall-stem
p1022
Vvmlinuz
p1023
ss(Vdescription
p1024
g1008
NV4kc-malta
p1025
tp1026
(dp1027
Vhardware
p1028
VMIPS Malta
p1029
sVhardware-long
p1030
VMIPS Malta boards
p1031
ss(Vimage
p1032
g1008
NV4kc-malta
p1033
tp1034
(dp1035
Vconfigs
p1036
(lp1037
Vkernelarch-mips/config.malta
p1038
aVkernelarch-mips/config.mips32r2
p1039
ass(Vdescription
p1040
g1008
NV5kc-malta
p1041
tp1042
(dp1043
Vhardware
p1044
VMIPS Malta (64-bit)
p1045
sVhardware-long
p1046
VMIPS Malta boards (64-bit)
p1047
ss(Vimage
p1048
g1008
NV5kc-malta
p1049
tp1050
(dp1051
Vconfigs
p1052
(lp1053
Vkernelarch-mips/config.malta
p1054
aVkernelarch-mips/config.mips64r2
p1055
ass(Vdescription
p1056
g1008
NVloongson-3
p1057
tp1058
(dp1059
Vhardware
p1060
VLoongson 3A/3B
p1061
sVhardware-long
p1062
VLoongson 3A or 3B based systems (e.g. from Loongson or Lemote)
p1063
ss(Vimage
p1064
g1008
NVloongson-3
p1065
tp1066
(dp1067
Vconfigs
p1068
(lp1069
Vkernelarch-mips/config.loongson-3
p1070
ass(Vdescription
p1071
g1008
NVocteon
p1072
tp1073
(dp1074
Vhardware
p1075
VOcteon
p1076
sVhardware-long
p1077
VCavium Networks Octeon
p1078
ss(Vbuild
p1079
g1008
NVocteon
p1080
tp1081
(dp1082
Vimage-file
p1083
Vvmlinux
p1084
ss(Vimage
p1085
g1008
NVocteon
p1086
tp1087
(dp1088
Vinstall-stem
p1089
Vvmlinux
p1090
sVconfigs
p1091
(lp1092
Vkernelarch-mips/config.octeon
p1093
ass(g216
g1008
g185
tp1094
(dp1095
g219
(lp1096
V4kc-malta
p1097
aV5kc-malta
p1098
aVloongson-3
p1099
aVocteon
p1100
asg223
I01
ss(Vbase
p1101
Vmipsn32
p1102
tp1103
(dp1104
Vkernel-arch
p1105
Vmips
p1106
sVfeaturesets
p1107
(lp1108
ss(Vbase
p1109
Vmipsn32el
p1110
tp1111
(dp1112
Vkernel-arch
p1113
Vmips
p1114
sVfeaturesets
p1115
(lp1116
ss(Vbase
p1117
Vmipsn32r6
p1118
tp1119
(dp1120
Vkernel-arch
p1121
Vmips
p1122
sVfeaturesets
p1123
(lp1124
ss(Vbase
p1125
Vmipsn32r6el
p1126
tp1127
(dp1128
Vkernel-arch
p1129
Vmips
p1130
sVfeaturesets
p1131
(lp1132
ss(Vbase
p1133
Vmipsr6
p1134
tp1135
(dp1136
Vdefault-flavour
p1137
Vmips32r6
p1138
sVkernel-arch
p1139
Vmips
p1140
sg183
(lp1141
g185
ass(Vbuild
p1142
g1134
tp1143
(dp1144
Vimage-file
p1145
Vvmlinux
p1146
ss(Vimage
p1147
g1134
tp1148
(dp1149
Vinstall-stem
p1150
Vvmlinux
p1151
ss(Vdescription
p1152
g1134
NVmips32r6
p1153
tp1154
(dp1155
Vhardware
p1156
VMIPS R6 (32 bit, big endian)
p1157
sVhardware-long
p1158
VMIPS R6 (32 bit, big endian)
p1159
ss(Vimage
p1160
g1134
NVmips32r6
p1161
tp1162
(dp1163
Vconfigs
p1164
(lp1165
Vkernelarch-mips/config.boston
p1166
aVkernelarch-mips/config.mips32r6
p1167
ass(Vdescription
p1168
g1134
NVmips64r6
p1169
tp1170
(dp1171
Vhardware
p1172
VMIPS R6 (64 bit, big endian)
p1173
sVhardware-long
p1174
VMIPS R6 (64 bit, big endian)
p1175
ss(Vimage
p1176
g1134
NVmips64r6
p1177
tp1178
(dp1179
Vconfigs
p1180
(lp1181
Vkernelarch-mips/config.boston
p1182
aVkernelarch-mips/config.mips64r6
p1183
ass(g216
g1134
g185
tp1184
(dp1185
g219
(lp1186
Vmips32r6
p1187
aVmips64r6
p1188
asg223
I01
ss(Vbase
p1189
Vmipsr6el
p1190
tp1191
(dp1192
Vdefault-flavour
p1193
Vmips32r6el
p1194
sVkernel-arch
p1195
Vmips
p1196
sg183
(lp1197
g185
ass(Vbuild
p1198
g1190
tp1199
(dp1200
Vimage-file
p1201
Vvmlinux
p1202
ss(Vimage
p1203
g1190
tp1204
(dp1205
Vinstall-stem
p1206
Vvmlinux
p1207
ss(Vdescription
p1208
g1190
NVmips32r6el
p1209
tp1210
(dp1211
Vhardware
p1212
VMIPS R6 (32 bit, little endian)
p1213
sVhardware-long
p1214
VMIPS R6 (32 bit, little endian)
p1215
ss(Vimage
p1216
g1190
NVmips32r6el
p1217
tp1218
(dp1219
Vconfigs
p1220
(lp1221
Vkernelarch-mips/config.boston
p1222
aVkernelarch-mips/config.mips32r6
p1223
ass(Vdescription
p1224
g1190
NVmips64r6el
p1225
tp1226
(dp1227
Vhardware
p1228
VMIPS R6 (64 bit, little endian)
p1229
sVhardware-long
p1230
VMIPS R6 (64 bit, little endian)
p1231
ss(Vimage
p1232
g1190
NVmips64r6el
p1233
tp1234
(dp1235
Vconfigs
p1236
(lp1237
Vkernelarch-mips/config.boston
p1238
aVkernelarch-mips/config.mips64r6
p1239
ass(g216
g1190
g185
tp1240
(dp1241
g219
(lp1242
Vmips32r6el
p1243
aVmips64r6el
p1244
asg223
I01
ss(Vbase
p1245
Vpowerpc
p1246
tp1247
(dp1248
Vkernel-arch
p1249
Vpowerpc
p1250
sg183
(lp1251
g185
ass(Vbuild
p1252
g1246
tp1253
(dp1254
Vimage-file
p1255
Vvmlinux
p1256
sVvdso
p1257
I01
ss(Vimage
p1258
g1246
tp1259
(dp1260
Vconfigs
p1261
(lp1262
sVbootloaders
p1263
(lp1264
Vgrub-ieee1275
p1265
asVsuggests
p1266
(lp1267
Vmkvmlinuz
p1268
asVinstall-stem
p1269
Vvmlinux
p1270
ss(Vdescription
p1271
g1246
NVpowerpc
p1272
tp1273
(dp1274
Vhardware
p1275
Vuniprocessor 32-bit PowerPC
p1276
ss(Vdescription
p1277
g1246
NVpowerpc-smp
p1278
tp1279
(dp1280
Vhardware
p1281
Vmultiprocessor 32-bit PowerPC
p1282
ss(Vimage
p1283
g1246
NVpowerpc-smp
p1284
tp1285
(dp1286
Vconfigs
p1287
(lp1288
Vpowerpc/config.powerpc
p1289
aVpowerpc/config.powerpc-smp
p1290
ass(Vdescription
p1291
g1246
NVpowerpc64
p1292
tp1293
(dp1294
Vhardware
p1295
V64-bit PowerPC
p1296
ss(Vimage
p1297
g1246
NVpowerpc64
p1298
tp1299
(dp1300
Vconfigs
p1301
(lp1302
Vkernelarch-powerpc/config-arch-64
p1303
aVkernelarch-powerpc/config-arch-64-be
p1304
ass(g216
g1246
g185
tp1305
(dp1306
g219
(lp1307
Vpowerpc
p1308
aVpowerpc-smp
p1309
aVpowerpc64
p1310
asg223
I01
ss(Vbase
p1311
Vppc64
p1312
tp1313
(dp1314
Vdefault-flavour
p1315
Vpowerpc64
p1316
sVkernel-arch
p1317
Vpowerpc
p1318
sg183
(lp1319
g185
ass(Vbuild
p1320
g1312
tp1321
(dp1322
Vimage-file
p1323
Vvmlinux
p1324
sVvdso
p1325
I01
ss(Vimage
p1326
g1312
tp1327
(dp1328
Vconfigs
p1329
(lp1330
sVbootloaders
p1331
(lp1332
Vgrub-ieee1275
p1333
asVsuggests
p1334
(lp1335
Vmkvmlinuz
p1336
asVinstall-stem
p1337
Vvmlinux
p1338
ss(Vdescription
p1339
g1312
NVpowerpc64
p1340
tp1341
(dp1342
Vhardware
p1343
V64-bit PowerPC
p1344
ss(Vimage
p1345
g1312
NVpowerpc64
p1346
tp1347
(dp1348
Vconfigs
p1349
(lp1350
Vkernelarch-powerpc/config-arch-64
p1351
aVkernelarch-powerpc/config-arch-64-be
p1352
ass(g216
g1312
g185
tp1353
(dp1354
g219
(lp1355
Vpowerpc64
p1356
asg223
I01
ss(Vbase
p1357
Vppc64el
p1358
tp1359
(dp1360
Vdefault-flavour
p1361
Vpowerpc64le
p1362
sVkernel-arch
p1363
Vpowerpc
p1364
sg183
(lp1365
g185
ass(Vbuild
p1366
g1358
tp1367
(dp1368
Vimage-file
p1369
Vvmlinux
p1370
sVvdso
p1371
I01
ss(Vimage
p1372
g1358
tp1373
(dp1374
Vconfigs
p1375
(lp1376
sVbootloaders
p1377
(lp1378
Vgrub-ieee1275
p1379
asVsuggests
p1380
(lp1381
Vmkvmlinuz
p1382
asVinstall-stem
p1383
Vvmlinux
p1384
ss(Vdescription
p1385
g1358
NVpowerpc64le
p1386
tp1387
(dp1388
Vhardware
p1389
VLittle-endian 64-bit PowerPC
p1390
ss(Vimage
p1391
g1358
NVpowerpc64le
p1392
tp1393
(dp1394
Vconfigs
p1395
(lp1396
Vkernelarch-powerpc/config-arch-64
p1397
aVkernelarch-powerpc/config-arch-64-le
p1398
ass(g216
g1358
g185
tp1399
(dp1400
g219
(lp1401
Vpowerpc64le
p1402
asg223
I01
ss(Vbase
p1403
Vriscv64
p1404
tp1405
(dp1406
Vkernel-arch
p1407
Vriscv
p1408
sVfeaturesets
p1409
(lp1410
Vnone
p1411
ass(Vbuild
p1412
g1404
tp1413
(dp1414
Vimage-file
p1415
Varch/riscv/boot/Image
p1416
sVvdso
p1417
I01
ss(Vimage
p1418
g1404
tp1419
(dp1420
Vinstall-stem
p1421
Vvmlinux
p1422
ss(Vdescription
p1423
g1404
NVriscv64
p1424
tp1425
(dp1426
Vhardware
p1427
V64-bit RISC-V platforms
p1428
sVhardware-long
p1429
V64-bit RISC-V platforms
p1430
ss(Vbase
p1431
g1404
Vnone
p1432
tp1433
(dp1434
Vflavours
p1435
(lp1436
Vriscv64
p1437
asVdefault-flavour
p1438
Vriscv64
p1439
ss(Vbase
p1440
Vs390
p1441
tp1442
(dp1443
Vkernel-arch
p1444
Vs390
p1445
sVfeaturesets
p1446
(lp1447
ss(Vbase
p1448
Vs390x
p1449
tp1450
(dp1451
Vdefault-flavour
p1452
Vs390x
p1453
sVkernel-arch
p1454
Vs390
p1455
sg183
(lp1456
g185
ass(Vbuild
p1457
g1449
tp1458
(dp1459
Vimage-file
p1460
Varch/s390/boot/bzImage
p1461
sVvdso
p1462
I01
ss(Vimage
p1463
g1449
tp1464
(dp1465
Vbootloaders
p1466
(lp1467
Vs390-tools
p1468
asVinstall-stem
p1469
Vvmlinuz
p1470
ss(Vrelations
p1471
g1449
tp1472
(dp1473
Vheaders%gcc-10
p1474
Vlinux-compiler-gcc-10-s390
p1475
ss(Vdescription
p1476
g1449
NVs390x
p1477
tp1478
(dp1479
Vhardware
p1480
VIBM zSeries
p1481
ss(g216
g1449
g185
tp1482
(dp1483
g219
(lp1484
Vs390x
p1485
asg223
I01
ss(Vbase
p1486
Vsh3
p1487
tp1488
(dp1489
Vkernel-arch
p1490
Vsh
p1491
sVfeaturesets
p1492
(lp1493
ss(Vbase
p1494
Vsh4
p1495
tp1496
(dp1497
Vkernel-arch
p1498
Vsh
p1499
sg183
(lp1500
g185
ass(Vbuild
p1501
g1495
tp1502
(dp1503
Vimage-file
p1504
Varch/sh/boot/zImage
p1505
ss(Vimage
p1506
g1495
tp1507
(dp1508
Vinstall-stem
p1509
Vvmlinuz
p1510
ss(Vdescription
p1511
g1495
NVsh7751r
p1512
tp1513
(dp1514
Vhardware
p1515
Vsh7751r
p1516
sVhardware-long
p1517
VRenesas SH7751R R2D plus board
p1518
ss(Vdescription
p1519
g1495
NVsh7785lcr
p1520
tp1521
(dp1522
Vhardware
p1523
Vsh7785lcr
p1524
sVhardware-long
p1525
VRenesas SH7785 reference board
p1526
ss(Vimage
p1527
g1495
NVsh7785lcr
p1528
tp1529
(dp1530
Vrecommends
p1531
(lp1532
Vu-boot-tools
p1533
asVcheck-size
p1534
I4194304
ss(g216
g1495
g185
tp1535
(dp1536
g219
(lp1537
Vsh7751r
p1538
aVsh7785lcr
p1539
asg223
I01
ss(Vbase
p1540
Vsparc
p1541
tp1542
(dp1543
Vkernel-arch
p1544
Vsparc
p1545
sVfeaturesets
p1546
(lp1547
ss(Vbase
p1548
Vsparc64
p1549
tp1550
(dp1551
Vdefault-flavour
p1552
Vsparc64-smp
p1553
sVkernel-arch
p1554
Vsparc
p1555
sg183
(lp1556
g185
ass(Vbuild
p1557
g1549
tp1558
(dp1559
Vimage-file
p1560
Vvmlinux
p1561
ss(Vimage
p1562
g1549
tp1563
(dp1564
Vconfigs
p1565
(lp1566
sVbootloaders
p1567
(lp1568
Vgrub-ieee1275
p1569
asVsuggests
p1570
(lp1571
Vfdutils
p1572
asVinstall-stem
p1573
Vvmlinux
p1574
ss(Vdescription
p1575
g1549
NVsparc64
p1576
tp1577
(dp1578
Vhardware
p1579
Vuniprocessor 64-bit UltraSPARC
p1580
ss(Vimage
p1581
g1549
NVsparc64
p1582
tp1583
(dp1584
Vconfigs
p1585
(lp1586
Vkernelarch-sparc/config-up
p1587
ass(Vdescription
p1588
g1549
NVsparc64-smp
p1589
tp1590
(dp1591
Vhardware
p1592
Vmultiprocessor 64-bit UltraSPARC
p1593
ss(Vimage
p1594
g1549
NVsparc64-smp
p1595
tp1596
(dp1597
Vconfigs
p1598
(lp1599
Vkernelarch-sparc/config-smp
p1600
ass(g216
g1549
g185
tp1601
(dp1602
g219
(lp1603
Vsparc64
p1604
aVsparc64-smp
p1605
asg223
I01
ss(Vbase
p1606
Vx32
p1607
tp1608
(dp1609
Vkernel-arch
p1610
Vx86
p1611
sVfeaturesets
p1612
(lp1613
ss(Vabi
p1614
NVrt
p1615
tp1616
(dp1617
Vignore-changes
p1618
(lp1619
V*
p1620
ass(Vdescription
p1621
Ng1615
tp1622
(dp1623
Vpart-long-rt
p1624
VThis kernel includes the PREEMPT_RT realtime patch set.
p1625
sVpart-short-rt
p1626
VPREEMPT_RT
p1627
sVparts
p1628
(lp1629
Vrt
p1630
ass(Vversion
p1631
tp1632
(dp1633
Vsource
p1634
V5.10.24-5parrot1
p1635
sVupstream
p1636
V5.10
p1637
sVabiname_base
p1638
V5.10.0
p1639
sVabiname
p1640
V5.10.0-5parrot1
p1641
ss.