ccopy_reg
_reconstructor
p0
(cdebian_linux.config
ConfigCore
p1
c__builtin__
dict
p2
(dp3
(Vrelations
p4
Vs390x
p5
tp6
(dp7
Vheaders%gcc-5
p8
Vlinux-compiler-gcc-5-s390
p9
ss(Vimage
p10
Vppc64
p11
NVpowerpc64
p12
tp13
(dp14
Vconfigs
p15
(lp16
Vkernelarch-powerpc/config-arch-64
p17
aVkernelarch-powerpc/config-arch-64-be
p18
ass(Vbase
p19
Vmipsn32el
p20
tp21
(dp22
Vfeaturesets
p23
(lp24
sVkernel-arch
p25
Vmips
p26
ss(Vimage
p27
Vmips
p28
NVocteon
p29
tp30
(dp31
Vconfigs
p32
(lp33
Vkernelarch-mips/config.octeon
p34
ass(Vbase
p35
Vmipsn32
p36
tp37
(dp38
Vfeaturesets
p39
(lp40
sVkernel-arch
p41
Vmips
p42
ss(Vimage
p43
Varm64
p44
NVarm64
p45
tp46
(dp47
s(Vimage
p48
Vmips64el
p49
NV5kc-malta
p50
tp51
(dp52
Vconfigs
p53
(lp54
Vkernelarch-mips/config.malta
p55
aVkernelarch-mips/config.mips64r2
p56
ass(Vbase
p57
Vamd64
p58
tp59
(dp60
Vfeaturesets
p61
(lp62
Vnone
p63
aVrt
p64
asVkernel-arch
p65
Vx86
p66
ss(Vbase
p67
Vmipsel
p68
tp69
(dp70
Vfeaturesets
p71
(lp72
Vnone
p73
asVkernel-arch
p74
Vmips
p75
ss(Vimage
p76
g68
tp77
(dp78
Vinstall-stem
p79
Vvmlinux
p80
ss(Vbase
p81
Vtilegx
p82
tp83
(dp84
Vfeaturesets
p85
(lp86
sVkernel-arch
p87
Vtile
p88
ss(Vdescription
p89
Vppc64el
p90
NVpowerpc64le
p91
tp92
(dp93
Vhardware
p94
VLittle-endian 64-bit PowerPC
p95
ss(Vdescription
p96
Valpha
p97
NValpha-generic
p98
tp99
(dp100
Vhardware
p101
VAlpha
p102
sVhardware-long
p103
VDEC Alpha systems with extended kernel start address (Wildfire, Titan, Marvel)
p104
ss(Vdescription
p105
Vi386
p106
NV686-pae
p107
tp108
(dp109
Vhardware
p110
Vmodern PCs
p111
sVhardware-long
p112
VPCs with one or more processors supporting PAE
p113
sVparts
p114
(lp115
Vpae
p116
ass(Vbase
p117
Vpowerpc
p118
g73
tp119
(dp120
Vimplicit-flavour
p121
I01
sVflavours
p122
(lp123
Vpowerpc
p124
aVpowerpc-smp
p125
aVpowerpc64
p126
ass(Vrelations
p127
Vhppa
p128
tp129
(dp130
Vgcc-5
p131
Vgcc-5 <!stage1 !cross>, binutils-hppa64-linux-gnu <!stage1 !cross>, gcc-5-hppa64-linux-gnu <!stage1 !cross>, gcc-5-hppa-linux-gnu:native <!stage1 cross>, binutils-hppa64-linux-gnu:native <!stage1 cross>, gcc-5-hppa64-linux-gnu:native <!stage1 cross>
p132
ss(Vbase
p133
g58
Vrt
p134
tp135
(dp136
Vflavours
p137
(lp138
Vamd64
p139
ass(Vdescription
p140
g49
NV5kc-malta
p141
tp142
(dp143
Vhardware
p144
VMIPS Malta
p145
sVhardware-long
p146
VMIPS Malta boards
p147
ss(Vbase
p148
g11
tp149
(dp150
g71
(lp151
g73
asVkernel-arch
p152
Vpowerpc
p153
ss(Vdescription
p154
g28
NV4kc-malta
p155
tp156
(dp157
Vhardware
p158
VMIPS Malta
p159
sVhardware-long
p160
VMIPS Malta boards
p161
ss(Vimage
p162
g49
NVloongson-3
p163
tp164
(dp165
Vconfigs
p166
(lp167
Vkernelarch-mips/config.loongson-3
p168
ass(Vimage
p169
g58
tp170
(dp171
Vbreaks
p172
Vxserver-xorg-input-vmmouse (<< 1:13.0.99)
p173
sVbootloaders
p174
(lp175
Vgrub-pc
p176
aVgrub-efi-amd64
p177
aVextlinux
p178
asVinstall-stem
p179
Vvmlinuz
p180
ss(g117
g97
g73
tp181
(dp182
g121
I01
sg122
(lp183
Valpha-generic
p184
aValpha-smp
p185
ass(Vbase
p186
g44
Vnone
p187
tp188
(dp189
Vflavours
p190
(lp191
Varm64
p192
ass(Vimage
p193
Vmips64
p194
tp195
(dp196
Vinstall-stem
p197
Vvmlinux
p198
ss(g117
g194
g73
tp199
(dp200
g121
I01
sg122
(lp201
V5kc-malta
p202
aVocteon
p203
ass(Vdescription
p204
tp205
(dp206
Vpart-long-up
p207
VThis kernel is not suitable for SMP (multi-processor,\u000amulti-core or hyper-threaded) systems.
p208
sVpart-long-xen
p209
VThis kernel also runs on a Xen hypervisor.\u000aIt supports both privileged (dom0) and unprivileged (domU) operation.
p210
ss(Vbuild
p211
g118
tp212
(dp213
Vvdso
p214
I01
sVimage-file
p215
Vvmlinux
p216
ss(Vabi
p217
tp218
(dp219
Vignore-changes
p220
(lp221
Vceph_monc_do_statfs
p222
aVfsnotify_*_group
p223
aVfsnotify_*_mark
p224
asVabiname
p225
Vparrot
p226
ss(Vbase
p227
g106
Vrt
p228
tp229
(dp230
Vflavours
p231
(lp232
V686-pae
p233
ass(Vbase
p234
g194
tp235
(dp236
g71
(lp237
g73
asVkernel-arch
p238
Vmips
p239
ss(Vimage
p240
g28
tp241
(dp242
Vinstall-stem
p243
Vvmlinux
p244
ss(Vdescription
p245
g28
NV5kc-malta
p246
tp247
(dp248
Vhardware
p249
VMIPS Malta (64-bit)
p250
sVhardware-long
p251
VMIPS Malta boards (64-bit)
p252
ss(Vimage
p253
Varmel
p254
tp255
(dp256
Vinstall-stem
p257
Vvmlinuz
p258
ss(Vbuild
p259
Varmhf
p260
tp261
(dp262
Vvdso
p263
I01
sVsigned-modules
p264
I00
sVimage-file
p265
Varch/arm/boot/zImage
p266
ss(Vimage
p267
g254
NVmarvell
p268
tp269
(dp270
Vbreaks
p271
Vflash-kernel (<< 3.57~)
p272
sVrecommends
p273
Vu-boot-tools
p274
sVcheck-size
p275
L2097080L
sVcheck-size-with-dtb
p276
I01
ss(Vbase
p277
Vpowerpcspe
p278
tp279
(dp280
g71
(lp281
g73
asVkernel-arch
p282
Vpowerpc
p283
ss(Vbase
p284
tp285
(dp286
Varches
p287
(lp288
Valpha
p289
aVamd64
p290
aVarm64
p291
aVarmel
p292
aVarmhf
p293
aVhppa
p294
aVi386
p295
aVm68k
p296
aVmips
p297
aVmipsel
p298
aVmipsn32
p299
aVmipsn32el
p300
aVmips64
p301
aVmips64el
p302
aVor1k
p303
aVpowerpc
p304
aVpowerpcspe
p305
aVppc64
p306
aVppc64el
p307
aVs390
p308
aVs390x
p309
aVsh4
p310
aVsparc
p311
aVsparc64
p312
aVtilegx
p313
aVx32
p314
asVfeaturesets
p315
(lp316
Vnone
p317
aVrt
p318
asVcompiler
p319
Vgcc-5
p320
ss(Vbase
p321
g97
tp322
(dp323
g71
(lp324
g73
asVkernel-arch
p325
Valpha
p326
ss(Vimage
p327
g118
tp328
(dp329
Vconfigs
p330
(lp331
sVinstall-stem
p332
Vvmlinux
p333
sVsuggests
p334
Vmkvmlinuz
p335
ss(Vrelations
p336
g58
tp337
(dp338
Vheaders%gcc-5
p339
Vlinux-compiler-gcc-5-x86
p340
ss(Vimage
p341
g118
NVpowerpc-smp
p342
tp343
(dp344
Vconfigs
p345
(lp346
Vpowerpc/config.powerpc
p347
aVpowerpc/config.powerpc-smp
p348
ass(Vbase
p349
g90
tp350
(dp351
g71
(lp352
g73
asVkernel-arch
p353
Vpowerpc
p354
ss(Vdescription
p355
g254
NVversatile
p356
tp357
(dp358
Vhardware
p359
VVersatile
p360
sVhardware-long
p361
VVersatile systems (PB, AB, Qemu)
p362
ss(Vimage
p363
g260
tp364
(dp365
Vinstall-stem
p366
Vvmlinuz
p367
ss(g117
g11
g73
tp368
(dp369
g121
I01
sg122
(lp370
Vpowerpc64
p371
ass(Vdescription
p372
g58
Vnone
p373
Vamd64
p374
tp375
(dp376
Vparts
p377
(lp378
Vxen
p379
ass(Vbuild
p380
g106
NV686-pae
p381
tp382
(dp383
Vdebug-info
p384
I01
ss(Vbase
p385
Vsparc
p386
tp387
(dp388
Vfeaturesets
p389
(lp390
sVkernel-arch
p391
Vsparc
p392
ss(Vbase
p393
g128
tp394
(dp395
g71
(lp396
g73
asVkernel-arch
p397
Vparisc
p398
ss(Vdescription
p399
Vsh4
p400
NVsh7751r
p401
tp402
(dp403
Vhardware
p404
Vsh7751r
p405
sVhardware-long
p406
VRenesas SH7751R R2D plus board
p407
ss(Vbase
p408
Vm68k
p409
tp410
(dp411
Vcflags
p412
V-ffreestanding
p413
sg71
(lp414
g73
asVkernel-arch
p415
Vm68k
p416
ss(Vdescription
p417
g58
NVamd64
p418
tp419
(dp420
Vhardware
p421
V64-bit PCs
p422
sVhardware-long
p423
VPCs with AMD64, Intel 64 or VIA Nano processors
p424
ss(Vdescription
p425
g118
NVpowerpc
p426
tp427
(dp428
Vhardware
p429
Vuniprocessor 32-bit PowerPC
p430
ss(Vbuild
p431
g68
tp432
(dp433
Vsigned-modules
p434
I00
sVimage-file
p435
Vvmlinux
p436
ss(Vdescription
p437
g400
NVsh7785lcr
p438
tp439
(dp440
Vhardware
p441
Vsh7785lcr
p442
sVhardware-long
p443
VRenesas SH7785 reference board
p444
ss(Vimage
p445
g68
NVocteon
p446
tp447
(dp448
Vconfigs
p449
(lp450
Vkernelarch-mips/config.octeon
p451
ass(Vbuild
p452
Vsparc64
p453
tp454
(dp455
Vsigned-modules
p456
I00
sVimage-file
p457
Varch/sparc/boot/zImage
p458
ss(Vbase
p459
g400
tp460
(dp461
g71
(lp462
g73
asVkernel-arch
p463
Vsh
p464
ss(Vdescription
p465
g260
NVarmmp
p466
tp467
(dp468
Vhardware
p469
VARMv7 multiplatform compatible SoCs
p470
sVhardware-long
p471
VARMv7 multiplatform kernel. See\u000ahttps://wiki.debian.org/DebianKernel/ARMMP for details of supported\u000aplatforms
p472
ss(Vdescription
p473
g28
NVocteon
p474
tp475
(dp476
Vhardware
p477
VOcteon
p478
sVhardware-long
p479
VCavium Networks Octeon
p480
ss(g117
g254
g73
tp481
(dp482
g121
I01
sg122
(lp483
Vmarvell
p484
aVversatile
p485
ass(Vrelations
p486
tp487
(dp488
Vinitramfs-fallback
p489
Vlinux-initramfs-tool
p490
sVgcc-5
p491
Vgcc-5 <!stage1 !cross>, gcc-5-@gnu-type-package@:native <!stage1 cross>
p492
sVinitramfs-tools
p493
Vinitramfs-tools (>= 0.110~)
p494
ss(Vbase
p495
Vx32
p496
tp497
(dp498
Vfeaturesets
p499
(lp500
sVkernel-arch
p501
Vx86
p502
ss(Vbuild
p503
g58
tp504
(dp505
Vvdso
p506
I01
sVsigned-modules
p507
I00
sVdebug-info
p508
I01
sVimage-file
p509
Varch/x86/boot/bzImage
p510
ss(Vimage
p511
g453
tp512
(dp513
Vconfigs
p514
(lp515
sVinstall-stem
p516
Vvmlinuz
p517
sVsuggests
p518
Vsilo, fdutils
p519
ss(Vbase
p520
g44
tp521
(dp522
Vfeaturesets
p523
(lp524
Vnone
p525
asVkernel-arch
p526
Varm64
p527
ss(Vbuild
p528
g194
tp529
(dp530
Vsigned-modules
p531
I00
sVimage-file
p532
Vvmlinux
p533
ss(g117
g90
g73
tp534
(dp535
g121
I01
sg122
(lp536
Vpowerpc64le
p537
ass(Vbuild
p538
g128
tp539
(dp540
Vsigned-modules
p541
I00
sVimage-file
p542
Vvmlinux
p543
ss(g117
g453
g73
tp544
(dp545
g121
I01
sg122
(lp546
Vsparc64
p547
aVsparc64-smp
p548
ass(Vimage
p549
g28
NV4kc-malta
p550
tp551
(dp552
Vconfigs
p553
(lp554
Vkernelarch-mips/config.malta
p555
aVkernelarch-mips/config.mips32r2
p556
ass(Vbuild
p557
g11
tp558
(dp559
Vvdso
p560
I01
sVsigned-modules
p561
I00
sVimage-file
p562
Vvmlinux
p563
ss(Vbuild
p564
g409
tp565
(dp566
Vsigned-modules
p567
I00
sVimage-file
p568
Vvmlinux.gz
p569
ss(Vdescription
p570
g68
NVloongson-3
p571
tp572
(dp573
Vhardware
p574
VLoongson 3A/3B
p575
sVhardware-long
p576
VLoongson 3A or 3B based systems (e.g. from Loongson or Lemote)
p577
ss(Vrelations
p578
g106
tp579
(dp580
Vheaders%gcc-5
p581
Vlinux-compiler-gcc-5-x86
p582
ss(Vbuild
p583
g44
tp584
(dp585
Vvdso
p586
I01
sVsigned-modules
p587
I00
sVdebug-info
p588
I01
sVimage-file
p589
Varch/arm64/boot/Image
p590
ss(Vdescription
p591
g49
NVloongson-3
p592
tp593
(dp594
Vhardware
p595
VLoongson 3A/3B
p596
sVhardware-long
p597
VLoongson 3A or 3B based systems (e.g. from Loongson or Lemote)
p598
ss(Vdescription
p599
g97
NValpha-smp
p600
tp601
(dp602
Vhardware
p603
VAlpha SMP
p604
sVhardware-long
p605
VDEC Alpha SMP systems with extended kernel start address (Wildfire, Titan, Marvel)
p606
ss(Vabi
p607
NVrt
p608
tp609
(dp610
Vignore-changes
p611
(lp612
V*
p613
ass(Vdescription
p614
g68
NV4kc-malta
p615
tp616
(dp617
Vhardware
p618
VMIPS Malta
p619
sVhardware-long
p620
VMIPS Malta boards
p621
ss(Vbase
p622
g453
tp623
(dp624
g71
(lp625
g73
asVkernel-arch
p626
Vsparc
p627
ss(Vimage
p628
g409
tp629
(dp630
Vsuggests
p631
Vvmelilo, fdutils
p632
sVinstall-stem
p633
Vvmlinuz
p634
ss(Vbuild
p635
tp636
(dp637
Vsigned-modules
p638
I01
sVdebug-info
p639
I01
ss(g117
g28
g73
tp640
(dp641
g121
I01
sg122
(lp642
V4kc-malta
p643
aV5kc-malta
p644
aVocteon
p645
ass(Vdescription
p646
Ng608
tp647
(dp648
Vpart-short-rt
p649
VPREEMPT_RT
p650
sVpart-long-rt
p651
VThis kernel includes the PREEMPT_RT realtime patch set.
p652
sVparts
p653
(lp654
Vrt
p655
ass(Vdescription
p656
g5
NVs390x
p657
tp658
(dp659
Vhardware
p660
VIBM zSeries
p661
ss(Vimage
p662
g11
tp663
(dp664
Vconfigs
p665
(lp666
sVinstall-stem
p667
Vvmlinux
p668
sVsuggests
p669
Vmkvmlinuz
p670
ss(g117
g260
g73
tp671
(dp672
g121
I01
sg122
(lp673
Varmmp
p674
aVarmmp-lpae
p675
ass(Vimage
p676
g68
NV4kc-malta
p677
tp678
(dp679
Vconfigs
p680
(lp681
Vkernelarch-mips/config.malta
p682
aVkernelarch-mips/config.mips32r2
p683
ass(Vdescription
p684
g118
NVpowerpc-smp
p685
tp686
(dp687
Vhardware
p688
Vmultiprocessor 32-bit PowerPC
p689
ss(Vbase
p690
g28
tp691
(dp692
g71
(lp693
g73
asVkernel-arch
p694
Vmips
p695
ss(Vdescription
p696
g68
NV5kc-malta
p697
tp698
(dp699
Vhardware
p700
VMIPS Malta (64-bit)
p701
sVhardware-long
p702
VMIPS Malta boards (64-bit)
p703
ss(Vrelations
p704
g260
tp705
(dp706
Vheaders%gcc-5
p707
Vlinux-compiler-gcc-5-arm
p708
ss(Vdescription
p709
g106
NV686
p710
tp711
(dp712
Vhardware
p713
Volder PCs
p714
sVhardware-long
p715
VPCs with one or more processors not supporting PAE
p716
ss(Vbuild
p717
g5
tp718
(dp719
Vvdso
p720
I01
sVimage-file
p721
Varch/s390/boot/image
p722
ss(Vdescription
p723
g260
NVarmmp-lpae
p724
tp725
(dp726
Vhardware
p727
VARMv7 multiplatform compatible SoCs supporting LPAE
p728
sVhardware-long
p729
VARMv7 multiplatform kernel supporting LPAE. See\u000ahttps://wiki.debian.org/DebianKernel/ARMMP for details of supported\u000aplatforms.
p730
ss(Vbase
p731
g106
Vnone
p732
tp733
(dp734
Vflavours
p735
(lp736
V686
p737
aV686-pae
p738
ass(Vimage
p739
g194
NV5kc-malta
p740
tp741
(dp742
Vconfigs
p743
(lp744
Vkernelarch-mips/config.malta
p745
aVkernelarch-mips/config.mips64r2
p746
ass(Vbuild
p747
g5
NVs390x
p748
tp749
(dp750
Vdebug-info
p751
I01
ss(Vbuild
p752
g28
tp753
(dp754
Vsigned-modules
p755
I00
sVimage-file
p756
Vvmlinux
p757
ss(Vbuild
p758
g278
tp759
(dp760
Vvdso
p761
I01
sVsigned-modules
p762
I00
sVimage-file
p763
Vvmlinux
p764
ss(Vbase
p765
g49
tp766
(dp767
g71
(lp768
g73
asVkernel-arch
p769
Vmips
p770
ss(g117
g278
g73
tp771
(dp772
g121
I01
sg122
(lp773
Vpowerpcspe
p774
ass(Vimage
p775
tp776
(dp777
Vinitramfs-generators
p778
(lp779
Vinitramfs-tools
p780
aVinitramfs-fallback
p781
ass(Vdescription
p782
g453
NVsparc64
p783
tp784
(dp785
Vhardware
p786
Vuniprocessor 64-bit UltraSPARC
p787
ss(Vimage
p788
g5
tp789
(dp790
Vbootloaders
p791
(lp792
Vs390-tools
p793
asVinstall-stem
p794
Vvmlinuz
p795
ss(Vbuild
p796
g97
tp797
(dp798
Vsigned-modules
p799
I00
sVimage-file
p800
Varch/alpha/boot/vmlinux.gz
p801
ss(Vdescription
p802
g44
NVarm64
p803
tp804
(dp805
Vhardware
p806
V64-bit ARMv8 machines
p807
ss(Vrelations
p808
g254
tp809
(dp810
Vheaders%gcc-5
p811
Vlinux-compiler-gcc-5-arm
p812
ss(Vbuild
p813
g90
tp814
(dp815
Vvdso
p816
I01
sVimage-file
p817
Vvmlinux
p818
ss(Vimage
p819
g49
tp820
(dp821
Vinstall-stem
p822
Vvmlinux
p823
ss(Vbase
p824
g254
tp825
(dp826
g71
(lp827
g73
asVkernel-arch
p828
Varm
p829
ss(Vimage
p830
g68
NV5kc-malta
p831
tp832
(dp833
Vconfigs
p834
(lp835
Vkernelarch-mips/config.malta
p836
aVkernelarch-mips/config.mips64r2
p837
ass(Vimage
p838
g278
tp839
(dp840
Vsuggests
p841
Vmkvmlinuz
p842
sVinstall-stem
p843
Vvmlinux
p844
ss(Vversion
p845
tp846
(dp847
Vsource
p848
V4.7.6-1parrot0
p849
sVupstream
p850
V4.7
p851
sVabiname_base
p852
V4.7.0
p853
sVabiname
p854
V4.7.0-parrot
p855
ss(Vbase
p856
g128
NVparisc64-smp
p857
tp858
(dp859
Vcflags
p860
V-fno-cse-follow-jumps
p861
sVoverride-host-type
p862
Vhppa64-linux-gnu
p863
ss(Vimage
p864
g90
NVpowerpc64le
p865
tp866
(dp867
Vconfigs
p868
(lp869
Vkernelarch-powerpc/config-arch-64
p870
aVkernelarch-powerpc/config-arch-64-le
p871
ass(Vimage
p872
g97
tp873
(dp874
Vsuggests
p875
Vaboot, fdutils
p876
sVinstall-stem
p877
Vvmlinuz
p878
ss(Vbase
p879
g106
tp880
(dp881
Vfeaturesets
p882
(lp883
Vnone
p884
aVrt
p885
asVkernel-arch
p886
Vx86
p887
ss(Vbase
p888
g5
tp889
(dp890
g71
(lp891
g73
asVkernel-arch
p892
Vs390
p893
ss(Vbase
p894
NVrt
p895
tp896
(dp897
Venabled
p898
I00
ss(Vimage
p899
g90
tp900
(dp901
Vconfigs
p902
(lp903
sVinstall-stem
p904
Vvmlinux
p905
sVsuggests
p906
Vmkvmlinuz
p907
ss(g117
g68
g73
tp908
(dp909
g121
I01
sg122
(lp910
V4kc-malta
p911
aV5kc-malta
p912
aVloongson-3
p913
aVocteon
p914
ass(Vbuild
p915
g49
tp916
(dp917
Vsigned-modules
p918
I00
sVimage-file
p919
Vvmlinux
p920
ss(g117
g49
g73
tp921
(dp922
g121
I01
sg122
(lp923
V5kc-malta
p924
aVloongson-3
p925
aVocteon
p926
ass(Vimage
p927
g68
NVloongson-3
p928
tp929
(dp930
Vconfigs
p931
(lp932
Vkernelarch-mips/config.loongson-3
p933
ass(Vbuild
p934
g400
tp935
(dp936
Vsigned-modules
p937
I00
sVimage-file
p938
Varch/sh/boot/zImage
p939
ss(Vimage
p940
g128
tp941
(dp942
Vsuggests
p943
Vpalo
p944
sVinstall-stem
p945
Vvmlinux
p946
ss(g117
g128
g73
tp947
(dp948
g121
I01
sg122
(lp949
Vparisc
p950
aVparisc64-smp
p951
ass(Vbuild
p952
g254
tp953
(dp954
Vsigned-modules
p955
I00
sVimage-file
p956
Varch/arm/boot/zImage
p957
ss(Vdescription
p958
g278
tp959
(dp960
Vhardware
p961
V32-bit PowerPC with SPE (instead of AltiVec) with SMP support
p962
ss(Vimage
p963
g44
tp964
(dp965
Vinstall-stem
p966
Vvmlinuz
p967
ss(Vimage
p968
g106
tp969
(dp970
Vbreaks
p971
Vxserver-xorg-input-vmmouse (<< 1:13.0.99)
p972
sVbootloaders
p973
(lp974
Vgrub-pc
p975
aVextlinux
p976
asVinstall-stem
p977
Vvmlinuz
p978
ss(Vbase
p979
g260
tp980
(dp981
g71
(lp982
g73
asVkernel-arch
p983
Varm
p984
ss(Vdescription
p985
g409
NVm68k
p986
tp987
(dp988
Vhardware
p989
VMotorola MC68020+ family
p990
ss(Vimage
p991
g400
tp992
(dp993
Vinstall-stem
p994
Vvmlinuz
p995
ss(Vbase
p996
g58
g373
tp997
(dp998
Vflavours
p999
(lp1000
Vamd64
p1001
ass(Vimage
p1002
g28
NV5kc-malta
p1003
tp1004
(dp1005
Vconfigs
p1006
(lp1007
Vkernelarch-mips/config.malta
p1008
aVkernelarch-mips/config.mips64r2
p1009
ass(Vimage
p1010
g49
NVocteon
p1011
tp1012
(dp1013
Vconfigs
p1014
(lp1015
Vkernelarch-mips/config.octeon
p1016
ass(Vdescription
p1017
g106
g732
V686-pae
p1018
tp1019
(dp1020
Vparts
p1021
(lp1022
Vxen
p1023
ass(g117
g400
g73
tp1024
(dp1025
g121
I01
sg122
(lp1026
Vsh7751r
p1027
aVsh7785lcr
p1028
ass(Vimage
p1029
g118
NVpowerpc64
p1030
tp1031
(dp1032
Vconfigs
p1033
(lp1034
Vkernelarch-powerpc/config-arch-64
p1035
aVkernelarch-powerpc/config-arch-64-be
p1036
ass(Vxen
p1037
g58
g373
Vamd64
p1038
tp1039
(dp1040
Vflavours
p1041
(lp1042
Vamd64
p1043
ass(Vdescription
p1044
g106
tp1045
(dp1046
Vpart-long-pae
p1047
VThis kernel requires PAE (Physical Address Extension).\u000aThis feature is supported by the Intel Pentium Pro/II/III/4/4M/D, Xeon,\u000aCore and Atom; AMD Geode NX, Athlon (K7), Duron, Opteron, Sempron,\u000aTurion or Phenom; Transmeta Efficeon; VIA C7; and some other processors.
p1048
ss(g117
g409
g73
tp1049
(dp1050
g121
I01
sg122
(lp1051
Vm68k
p1052
ass(Vbuild
p1053
g106
tp1054
(dp1055
Vvdso
p1056
I01
sVsigned-modules
p1057
I00
sVimage-file
p1058
Varch/x86/boot/bzImage
p1059
ss(Vdescription
p1060
g194
NV5kc-malta
p1061
tp1062
(dp1063
Vhardware
p1064
VMIPS Malta
p1065
sVhardware-long
p1066
VMIPS Malta boards
p1067
ss(Vdescription
p1068
g194
NVocteon
p1069
tp1070
(dp1071
Vhardware
p1072
VOcteon
p1073
sVhardware-long
p1074
VCavium Networks Octeon
p1075
ss(Vdescription
p1076
g11
NVpowerpc64
p1077
tp1078
(dp1079
Vhardware
p1080
V64-bit PowerPC
p1081
ss(Vbase
p1082
Vs390
p1083
tp1084
(dp1085
Vfeaturesets
p1086
(lp1087
sVkernel-arch
p1088
Vs390
p1089
ss(Vdescription
p1090
g49
NVocteon
p1091
tp1092
(dp1093
Vhardware
p1094
VOcteon
p1095
sVhardware-long
p1096
VCavium Networks Octeon
p1097
ss(Vdescription
p1098
g254
NVmarvell
p1099
tp1100
(dp1101
Vhardware
p1102
VMarvell Kirkwood/Orion
p1103
sVhardware-long
p1104
VMarvell Kirkwood based systems (SheevaPlug, QNAP TS-119/TS-219, etc)\u000aand Orion 5181, 5182 and 5281 based systems (QNAP TS-109/TS-209, etc)
p1105
ss(Vbase
p1106
g118
tp1107
(dp1108
g71
(lp1109
g73
asVkernel-arch
p1110
Vpowerpc
p1111
ss(Vbase
p1112
Vor1k
p1113
tp1114
(dp1115
Vfeaturesets
p1116
(lp1117
sVkernel-arch
p1118
Vopenrisc
p1119
ss(Vdescription
p1120
g128
NVparisc64-smp
p1121
tp1122
(dp1123
Vhardware
p1124
Vmultiprocessor 64-bit PA-RISC
p1125
sVhardware-long
p1126
VHP PA-RISC 64-bit SMP systems with support for more than 4 GB RAM
p1127
ss(Vimage
p1128
g194
NVocteon
p1129
tp1130
(dp1131
Vconfigs
p1132
(lp1133
Vkernelarch-mips/config.octeon
p1134
ass(g117
g5
g73
tp1135
(dp1136
g121
I01
sg122
(lp1137
Vs390x
p1138
ass(Vimage
p1139
g453
NVsparc64-smp
p1140
tp1141
(dp1142
Vconfigs
p1143
(lp1144
Vkernelarch-sparc/config-smp
p1145
ass(Vdescription
p1146
g118
NVpowerpc64
p1147
tp1148
(dp1149
Vhardware
p1150
V64-bit PowerPC
p1151
ss(Vdescription
p1152
g453
NVsparc64-smp
p1153
tp1154
(dp1155
Vhardware
p1156
Vmultiprocessor 64-bit UltraSPARC
p1157
ss(Vdescription
p1158
g128
NVparisc
p1159
tp1160
(dp1161
Vhardware
p1162
V32-bit PA-RISC
p1163
sVhardware-long
p1164
VHP PA-RISC 32-bit systems with max 4 GB RAM
p1165
ss(Vdescription
p1166
g68
NVocteon
p1167
tp1168
(dp1169
Vhardware
p1170
VOcteon
p1171
sVhardware-long
p1172
VCavium Networks Octeon
p1173
ss(Vimage
p1174
g400
NVsh7785lcr
p1175
tp1176
(dp1177
Vrecommends
p1178
Vu-boot-tools
p1179
sVcheck-size
p1180
L4194304L
ss(Vimage
p1181
g453
NVsparc64
p1182
tp1183
(dp1184
Vconfigs
p1185
(lp1186
Vkernelarch-sparc/config-up
p1187
asstp1188
Rp1189
.