cdebian_linux.config
ConfigCore
p0
(tRp1
(Vabi
p2
tp3
(dp4
Vabiname
p5
Vparrot11
p6
sVignore-changes
p7
(lp8
V__cpuhp_*
p9
aV__xive_vm_h_*
p10
aVbpf_analyzer
p11
aVcxl_*
p12
aVdax_flush
p13
aVieee80211_nullfunc_get
p14
aVinet_add_protocol
p15
aVinet_del_protocol
p16
aViommu_device_*
p17
aVkvm_async_pf_task_wait
p18
aVkvmppc_*
p19
aVmm_iommu_*
p20
aVmv_mbus_*
p21
aVperf_*
p22
aVregister_cxl_calls
p23
aVregister_key_type
p24
aVunregister_cxl_calls
p25
aV*_hw_breakpoint
p26
aVmodule:arch/x86/kvm/*
p27
aVmodule:drivers/crypto/ccp/*
p28
aVmodule:drivers/hv/*
p29
aVmodule:drivers/iio/common/hid-sensors/*
p30
aVmodule:drivers/iio/common/st_sensors/**
p31
aVmodule:drivers/mtd/nand/*
p32
aVmodule:drivers/net/wireless/**
p33
aVmodule:drivers/nvdimm/*
p34
aVmodule:drivers/power/supply/bq27xxx_battery
p35
aVmodule:drivers/scsi/cxgbi/*
p36
aVmodule:drivers/scsi/libiscs*
p37
aVmodule:drivers/scsi/qla2xxx/qla2xxx
p38
aVmodule:drivers/scsi/ufs/*
p39
aVmodule:drivers/target/**
p40
aVmodule:drivers/usb/chipidea/**
p41
aVmodule:drivers/usb/gadget/**
p42
aVmodule:drivers/usb/host/**
p43
aVmodule:drivers/usb/musb/**
p44
aVmodule:fs/nfs/**
p45
aVmodule:net/ceph/libceph
p46
aVmodule:net/l2tp/**
p47
aVmodule:net/rxrpc/rxrpc
p48
aVmodule:sound/core/seq/**
p49
aVmodule:sound/firewire/snd-firewire-lib
p50
aVbtree_*
p51
aVvisitor*
p52
aVcan_rx_register
p53
aVip6_xmit
p54
aVmodule:net/dccp/dccp
p55
aVmodule:net/rds/rds
p56
aVdevfreq_*
p57
aVdevm_devfreq_*
p58
aVupdate_devfreq
p59
aVmodule:drivers/infiniband/**
p60
aVacpi_ec_add_query_handler
p61
aVacpi_ec_remove_query_handler
p62
aVfirst_ec
p63
aVdebugfs_create_automount
p64
aVmodule:drivers/iio/imu/inv_mpu6050/*
p65
ass(Vbase
p66
tp67
(dp68
Varches
p69
(lp70
Valpha
p71
aVamd64
p72
aVarm64
p73
aVarm64ilp32
p74
aVarmel
p75
aVarmhf
p76
aVhppa
p77
aVi386
p78
aVm68k
p79
aVmips
p80
aVmips64
p81
aVmips64el
p82
aVmips64r6
p83
aVmips64r6el
p84
aVmipsel
p85
aVmipsn32
p86
aVmipsn32el
p87
aVmipsn32r6
p88
aVmipsn32r6el
p89
aVmipsr6
p90
aVmipsr6el
p91
aVpowerpc
p92
aVpowerpcspe
p93
aVppc64
p94
aVppc64el
p95
aVs390
p96
aVs390x
p97
aVsh3
p98
aVsh4
p99
aVsparc
p100
aVsparc64
p101
aVtilegx
p102
aVx32
p103
asVcompiler
p104
Vgcc-7
p105
sVfeaturesets
p106
(lp107
Vnone
p108
aVrt
p109
ass(Vbuild
p110
tp111
(dp112
Vdebug-info
p113
I01
sVsigned-modules
p114
I00
ss(Vbase
p115
NVrt
p116
tp117
(dp118
Venabled
p119
I00
ss(Vdescription
p120
tp121
(dp122
Vpart-long-up
p123
VThis kernel is not suitable for SMP (multi-processor,\u000amulti-core or hyper-threaded) systems.
p124
ss(Vimage
p125
tp126
(dp127
Vinitramfs-generators
p128
(lp129
Vinitramfs-tools
p130
aVinitramfs-fallback
p131
asVrecommends
p132
Vapparmor
p133
ss(Vrelations
p134
tp135
(dp136
Vgcc-7
p137
Vgcc-7 <!stage1 !cross>, gcc-7-@gnu-type-package@ <!stage1 cross>
p138
sVinitramfs-fallback
p139
Vlinux-initramfs-tool
p140
sVinitramfs-tools
p141
Vinitramfs-tools (>= 0.120+deb8u2)
p142
ss(Vbase
p143
Valpha
p144
tp145
(dp146
Vkernel-arch
p147
Valpha
p148
sVfeaturesets
p149
(lp150
Vnone
p151
ass(Vbuild
p152
g144
tp153
(dp154
Vimage-file
p155
Varch/alpha/boot/vmlinux.gz
p156
sVsigned-modules
p157
I00
ss(Vimage
p158
g144
tp159
(dp160
Vsuggests
p161
Vaboot, fdutils
p162
sVinstall-stem
p163
Vvmlinuz
p164
ss(Vdescription
p165
g144
NValpha-generic
p166
tp167
(dp168
Vhardware
p169
VAlpha
p170
sVhardware-long
p171
VDEC Alpha systems with extended kernel start address (Wildfire, Titan, Marvel)
p172
ss(Vdescription
p173
g144
NValpha-smp
p174
tp175
(dp176
Vhardware
p177
VAlpha SMP
p178
sVhardware-long
p179
VDEC Alpha SMP systems with extended kernel start address (Wildfire, Titan, Marvel)
p180
ss(Vbase
p181
g144
g151
tp182
(dp183
Vflavours
p184
(lp185
Valpha-generic
p186
aValpha-smp
p187
asVimplicit-flavour
p188
I01
ss(Vbase
p189
Vamd64
p190
tp191
(dp192
Vfeaturesets
p193
(lp194
Vnone
p195
aVrt
p196
asVkernel-arch
p197
Vx86
p198
ss(Vbuild
p199
g190
tp200
(dp201
Vdebug-info
p202
I01
sVimage-file
p203
Varch/x86/boot/bzImage
p204
sVvdso
p205
I01
ss(Vimage
p206
g190
tp207
(dp208
Vbootloaders
p209
(lp210
Vgrub-pc
p211
aVgrub-efi-amd64
p212
aVextlinux
p213
asVinstall-stem
p214
Vvmlinuz
p215
sVbreaks
p216
Vxserver-xorg-input-vmmouse (<< 1:13.0.99)
p217
ss(Vrelations
p218
g190
tp219
(dp220
Vgcc-7
p221
Vgcc-7 (>= 7.2.0-20~) <!stage1 !cross>, gcc-7-x86-64-linux-gnu (>= 7.2.0-20~) <!stage1 cross>
p222
sVheaders%gcc-7
p223
Vlinux-compiler-gcc-7-x86 (>= 4.14.17-1~)
p224
ss(Vdescription
p225
g190
NVamd64
p226
tp227
(dp228
Vhardware
p229
V64-bit PCs
p230
sVhardware-long
p231
VPCs with AMD64, Intel 64 or VIA Nano processors
p232
ss(Vdescription
p233
g190
NVcloud-amd64
p234
tp235
(dp236
Vhardware
p237
Vx86-64 cloud
p238
sVhardware-long
p239
VAmazon EC2, Google Compute Engine and Microsoft Azure cloud platforms
p240
ss(Vbase
p241
g190
Vnone
p242
tp243
(dp244
Vflavours
p245
(lp246
Vamd64
p247
aVcloud-amd64
p248
ass(Vbase
p249
g190
Vrt
p250
tp251
(dp252
Vflavours
p253
(lp254
Vamd64
p255
ass(Vbase
p256
Varm64
p257
tp258
(dp259
Vkernel-arch
p260
Varm64
p261
sVfeaturesets
p262
(lp263
Vnone
p264
ass(Vbuild
p265
g257
tp266
(dp267
Vdebug-info
p268
I01
sVimage-file
p269
Varch/arm64/boot/Image
p270
sVvdso
p271
I01
ss(Vimage
p272
g257
tp273
(dp274
Vinstall-stem
p275
Vvmlinuz
p276
sVbreaks
p277
Vlibmozjs185-1.0, libmozjs-24-0 (<< 24.2.0-5.1~)
p278
ss(Vdescription
p279
g257
NVarm64
p280
tp281
(dp282
Vhardware
p283
V64-bit ARMv8 machines
p284
ss(Vimage
p285
g257
NVarm64
p286
tp287
(dp288
s(Vbase
p289
g257
Vnone
p290
tp291
(dp292
Vflavours
p293
(lp294
Varm64
p295
ass(Vbase
p296
Varm64ilp32
p297
tp298
(dp299
Vkernel-arch
p300
Varm64
p301
sVfeaturesets
p302
(lp303
ss(Vbase
p304
Varmel
p305
tp306
(dp307
Vflavours
p308
(lp309
sVkernel-arch
p310
Varm
p311
sVfeaturesets
p312
(lp313
ss(Vbuild
p314
g305
tp315
(dp316
Vimage-file
p317
Varch/arm/boot/zImage
p318
sVsigned-modules
p319
I00
sVuncompressed-image-file
p320
Varch/arm/boot/Image
p321
ss(Vimage
p322
g305
tp323
(dp324
Vinstall-stem
p325
Vvmlinuz
p326
ss(Vrelations
p327
g305
tp328
(dp329
Vheaders%gcc-7
p330
Vlinux-compiler-gcc-7-arm
p331
ss(Vdescription
p332
g305
NVmarvell
p333
tp334
(dp335
Vhardware
p336
VMarvell Kirkwood/Orion
p337
sVhardware-long
p338
VMarvell Kirkwood based systems (SheevaPlug, QNAP TS-119/TS-219, etc)\u000aand Orion 5181, 5182 and 5281 based systems (QNAP TS-109/TS-209, etc)
p339
ss(Vimage
p340
g305
NVmarvell
p341
tp342
(dp343
Vrecommends
p344
Vu-boot-tools
p345
sVcheck-size
p346
L2097080L
sVcheck-size-with-dtb
p347
I01
sVcheck-uncompressed-size
p348
L7340032L
sVbreaks
p349
Vflash-kernel (<< 3.57~)
p350
ss(Vbase
p351
Varmhf
p352
tp353
(dp354
Vkernel-arch
p355
Varm
p356
sg149
(lp357
g151
ass(Vbuild
p358
g352
tp359
(dp360
Vimage-file
p361
Varch/arm/boot/zImage
p362
sVvdso
p363
I01
ss(Vimage
p364
g352
tp365
(dp366
Vinstall-stem
p367
Vvmlinuz
p368
ss(Vrelations
p369
g352
tp370
(dp371
Vheaders%gcc-7
p372
Vlinux-compiler-gcc-7-arm
p373
ss(Vdescription
p374
g352
NVarmmp
p375
tp376
(dp377
Vhardware
p378
VARMv7 multiplatform compatible SoCs
p379
sVhardware-long
p380
VARMv7 multiplatform kernel. See\u000ahttps://wiki.debian.org/DebianKernel/ARMMP for details of supported\u000aplatforms
p381
ss(Vdescription
p382
g352
NVarmmp-lpae
p383
tp384
(dp385
Vhardware
p386
VARMv7 multiplatform compatible SoCs supporting LPAE
p387
sVhardware-long
p388
VARMv7 multiplatform kernel supporting LPAE. See\u000ahttps://wiki.debian.org/DebianKernel/ARMMP for details of supported\u000aplatforms.
p389
ss(g181
g352
g151
tp390
(dp391
g184
(lp392
Varmmp
p393
aVarmmp-lpae
p394
asg188
I01
ss(Vbase
p395
Vhppa
p396
tp397
(dp398
Vkernel-arch
p399
Vparisc
p400
sg149
(lp401
g151
ass(Vbuild
p402
g396
tp403
(dp404
Vimage-file
p405
Vvmlinux
p406
sVsigned-modules
p407
I00
ss(Vimage
p408
g396
tp409
(dp410
Vsuggests
p411
Vpalo
p412
sVinstall-stem
p413
Vvmlinux
p414
ss(Vdescription
p415
g396
NVparisc
p416
tp417
(dp418
Vhardware
p419
V32-bit PA-RISC
p420
sVhardware-long
p421
VHP PA-RISC 32-bit systems with max 4 GB RAM
p422
ss(Vbase
p423
g396
NVparisc64-smp
p424
tp425
(dp426
Vcflags
p427
V-fno-cse-follow-jumps
p428
sVoverride-host-type
p429
Vhppa64-linux-gnu
p430
ss(Vdescription
p431
g396
NVparisc64-smp
p432
tp433
(dp434
Vhardware
p435
Vmultiprocessor 64-bit PA-RISC
p436
sVhardware-long
p437
VHP PA-RISC 64-bit SMP systems with support for more than 4 GB RAM
p438
ss(Vrelations
p439
g396
tp440
(dp441
Vgcc-7
p442
Vgcc-7 <!stage1 !cross>, binutils-hppa64-linux-gnu <!stage1 !cross>, gcc-7-hppa64-linux-gnu <!stage1 !cross>, gcc-7-hppa-linux-gnu <!stage1 cross>, binutils-hppa64-linux-gnu <!stage1 cross>, gcc-7-hppa64-linux-gnu <!stage1 cross>
p443
ss(g181
g396
g151
tp444
(dp445
g184
(lp446
Vparisc
p447
aVparisc64-smp
p448
asg188
I01
ss(Vbase
p449
Vi386
p450
tp451
(dp452
Vfeaturesets
p453
(lp454
Vnone
p455
aVrt
p456
asVkernel-arch
p457
Vx86
p458
ss(Vbuild
p459
g450
tp460
(dp461
Vimage-file
p462
Varch/x86/boot/bzImage
p463
sVvdso
p464
I01
ss(Vdescription
p465
g450
tp466
(dp467
Vpart-long-pae
p468
VThis kernel requires PAE (Physical Address Extension).\u000aThis feature is supported by the Intel Pentium Pro/II/III/4/4M/D, Xeon,\u000aCore and Atom; AMD Geode NX, Athlon (K7), Duron, Opteron, Sempron,\u000aTurion or Phenom; Transmeta Efficeon; VIA C7; and some other processors.
p469
ss(Vimage
p470
g450
tp471
(dp472
Vbootloaders
p473
(lp474
Vgrub-pc
p475
aVextlinux
p476
asVinstall-stem
p477
Vvmlinuz
p478
sVbreaks
p479
Vxserver-xorg-input-vmmouse (<< 1:13.0.99)
p480
ss(Vrelations
p481
g450
tp482
(dp483
Vgcc-7
p484
Vgcc-7 (>= 7.2.0-20~) <!stage1 !cross>, gcc-7-i686-linux-gnu (>= 7.2.0-20~) <!stage1 cross>
p485
sVheaders%gcc-7
p486
Vlinux-compiler-gcc-7-x86 (>= 4.14.17-1~)
p487
ss(Vdescription
p488
g450
NV686
p489
tp490
(dp491
Vhardware
p492
Volder PCs
p493
sVhardware-long
p494
VPCs with one or more processors not supporting PAE
p495
ss(Vbuild
p496
g450
NV686-pae
p497
tp498
(dp499
Vdebug-info
p500
I01
ss(Vdescription
p501
g450
NV686-pae
p502
tp503
(dp504
Vhardware
p505
Vmodern PCs
p506
sVhardware-long
p507
VPCs with one or more processors supporting PAE
p508
sVparts
p509
(lp510
Vpae
p511
ass(Vbase
p512
g450
Vnone
p513
tp514
(dp515
Vflavours
p516
(lp517
V686
p518
aV686-pae
p519
ass(Vbase
p520
g450
Vrt
p521
tp522
(dp523
Vflavours
p524
(lp525
V686-pae
p526
ass(Vbase
p527
Vm68k
p528
tp529
(dp530
Vcflags
p531
V-ffreestanding
p532
sVkernel-arch
p533
Vm68k
p534
sg149
(lp535
g151
ass(Vbuild
p536
g528
tp537
(dp538
Vimage-file
p539
Vvmlinux
p540
sVsigned-modules
p541
I00
ss(Vimage
p542
g528
tp543
(dp544
Vsuggests
p545
Vvmelilo, fdutils
p546
sVinstall-stem
p547
Vvmlinux
p548
ss(Vdescription
p549
g528
NVm68k
p550
tp551
(dp552
Vhardware
p553
VMotorola MC68020+ family
p554
ss(g181
g528
g151
tp555
(dp556
g184
(lp557
Vm68k
p558
asg188
I01
ss(Vbase
p559
Vmips
p560
tp561
(dp562
Vkernel-arch
p563
Vmips
p564
sg149
(lp565
g151
ass(Vbuild
p566
g560
tp567
(dp568
Vimage-file
p569
Vvmlinux
p570
sVsigned-modules
p571
I00
ss(Vimage
p572
g560
tp573
(dp574
Vinstall-stem
p575
Vvmlinux
p576
ss(Vdescription
p577
g560
NV4kc-malta
p578
tp579
(dp580
Vhardware
p581
VMIPS Malta
p582
sVhardware-long
p583
VMIPS Malta boards
p584
ss(Vimage
p585
g560
NV4kc-malta
p586
tp587
(dp588
Vconfigs
p589
(lp590
Vkernelarch-mips/config.malta
p591
aVkernelarch-mips/config.mips32r2
p592
ass(Vdescription
p593
g560
NV5kc-malta
p594
tp595
(dp596
Vhardware
p597
VMIPS Malta (64-bit)
p598
sVhardware-long
p599
VMIPS Malta boards (64-bit)
p600
ss(Vimage
p601
g560
NV5kc-malta
p602
tp603
(dp604
Vconfigs
p605
(lp606
Vkernelarch-mips/config.malta
p607
aVkernelarch-mips/config.mips64r2
p608
ass(Vdescription
p609
g560
NVocteon
p610
tp611
(dp612
Vhardware
p613
VOcteon
p614
sVhardware-long
p615
VCavium Networks Octeon
p616
ss(Vimage
p617
g560
NVocteon
p618
tp619
(dp620
Vconfigs
p621
(lp622
Vkernelarch-mips/config.octeon
p623
ass(g181
g560
g151
tp624
(dp625
g184
(lp626
V4kc-malta
p627
aV5kc-malta
p628
aVocteon
p629
asg188
I01
ss(Vbase
p630
Vmips64
p631
tp632
(dp633
Vkernel-arch
p634
Vmips
p635
sg149
(lp636
g151
ass(Vbuild
p637
g631
tp638
(dp639
Vimage-file
p640
Vvmlinux
p641
sVsigned-modules
p642
I00
ss(Vimage
p643
g631
tp644
(dp645
Vinstall-stem
p646
Vvmlinux
p647
ss(Vdescription
p648
g631
NV5kc-malta
p649
tp650
(dp651
Vhardware
p652
VMIPS Malta
p653
sVhardware-long
p654
VMIPS Malta boards
p655
ss(Vimage
p656
g631
NV5kc-malta
p657
tp658
(dp659
Vconfigs
p660
(lp661
Vkernelarch-mips/config.malta
p662
aVkernelarch-mips/config.mips64r2
p663
ass(Vdescription
p664
g631
NVocteon
p665
tp666
(dp667
Vhardware
p668
VOcteon
p669
sVhardware-long
p670
VCavium Networks Octeon
p671
ss(Vimage
p672
g631
NVocteon
p673
tp674
(dp675
Vconfigs
p676
(lp677
Vkernelarch-mips/config.octeon
p678
ass(g181
g631
g151
tp679
(dp680
g184
(lp681
V5kc-malta
p682
aVocteon
p683
asg188
I01
ss(Vbase
p684
Vmips64el
p685
tp686
(dp687
Vkernel-arch
p688
Vmips
p689
sg149
(lp690
g151
ass(Vbuild
p691
g685
tp692
(dp693
Vimage-file
p694
Vvmlinux
p695
sVsigned-modules
p696
I00
ss(Vimage
p697
g685
tp698
(dp699
Vinstall-stem
p700
Vvmlinux
p701
ss(Vdescription
p702
g685
NV5kc-malta
p703
tp704
(dp705
Vhardware
p706
VMIPS Malta
p707
sVhardware-long
p708
VMIPS Malta boards
p709
ss(Vimage
p710
g685
NV5kc-malta
p711
tp712
(dp713
Vconfigs
p714
(lp715
Vkernelarch-mips/config.malta
p716
aVkernelarch-mips/config.mips64r2
p717
ass(Vdescription
p718
g685
NVloongson-3
p719
tp720
(dp721
Vhardware
p722
VLoongson 3A/3B
p723
sVhardware-long
p724
VLoongson 3A or 3B based systems (e.g. from Loongson or Lemote)
p725
ss(Vimage
p726
g685
NVloongson-3
p727
tp728
(dp729
Vconfigs
p730
(lp731
Vkernelarch-mips/config.loongson-3
p732
ass(Vdescription
p733
g685
NVocteon
p734
tp735
(dp736
Vhardware
p737
VOcteon
p738
sVhardware-long
p739
VCavium Networks Octeon
p740
ss(Vimage
p741
g685
NVocteon
p742
tp743
(dp744
Vconfigs
p745
(lp746
Vkernelarch-mips/config.octeon
p747
ass(g181
g685
g151
tp748
(dp749
g184
(lp750
V5kc-malta
p751
aVloongson-3
p752
aVocteon
p753
asg188
I01
ss(Vbase
p754
Vmips64r6
p755
tp756
(dp757
Vkernel-arch
p758
Vmips
p759
sg149
(lp760
g151
ass(Vbuild
p761
g755
tp762
(dp763
Vimage-file
p764
Vvmlinux
p765
sVsigned-modules
p766
I00
ss(Vimage
p767
g755
tp768
(dp769
Vinstall-stem
p770
Vvmlinux
p771
ss(Vdescription
p772
g755
NVmips64r6
p773
tp774
(dp775
Vhardware
p776
VMIPS R6 (64 bit, big endian)
p777
sVhardware-long
p778
VMIPS R6 (64 bit, big endian)
p779
ss(Vimage
p780
g755
NVmips64r6
p781
tp782
(dp783
Vconfigs
p784
(lp785
Vkernelarch-mips/config.malta
p786
aVkernelarch-mips/config.mips64r6
p787
ass(g181
g755
g151
tp788
(dp789
g184
(lp790
Vmips64r6
p791
asg188
I01
ss(Vbase
p792
Vmips64r6el
p793
tp794
(dp795
Vkernel-arch
p796
Vmips
p797
sg149
(lp798
g151
ass(Vbuild
p799
g793
tp800
(dp801
Vimage-file
p802
Vvmlinux
p803
sVsigned-modules
p804
I00
ss(Vimage
p805
g793
tp806
(dp807
Vinstall-stem
p808
Vvmlinux
p809
ss(Vdescription
p810
g793
NVmips64r6el
p811
tp812
(dp813
Vhardware
p814
VMIPS R6 (64 bit, little endian)
p815
sVhardware-long
p816
VMIPS R6 (64 bit, little endian)
p817
ss(Vimage
p818
g793
NVmips64r6el
p819
tp820
(dp821
Vconfigs
p822
(lp823
Vkernelarch-mips/config.malta
p824
aVkernelarch-mips/config.mips64r6
p825
ass(g181
g793
g151
tp826
(dp827
g184
(lp828
Vmips64r6el
p829
asg188
I01
ss(Vbase
p830
Vmipsel
p831
tp832
(dp833
Vkernel-arch
p834
Vmips
p835
sg149
(lp836
g151
ass(Vbuild
p837
g831
tp838
(dp839
Vimage-file
p840
Vvmlinux
p841
sVsigned-modules
p842
I00
ss(Vimage
p843
g831
tp844
(dp845
Vinstall-stem
p846
Vvmlinux
p847
ss(Vdescription
p848
g831
NV4kc-malta
p849
tp850
(dp851
Vhardware
p852
VMIPS Malta
p853
sVhardware-long
p854
VMIPS Malta boards
p855
ss(Vimage
p856
g831
NV4kc-malta
p857
tp858
(dp859
Vconfigs
p860
(lp861
Vkernelarch-mips/config.malta
p862
aVkernelarch-mips/config.mips32r2
p863
ass(Vdescription
p864
g831
NV5kc-malta
p865
tp866
(dp867
Vhardware
p868
VMIPS Malta (64-bit)
p869
sVhardware-long
p870
VMIPS Malta boards (64-bit)
p871
ss(Vimage
p872
g831
NV5kc-malta
p873
tp874
(dp875
Vconfigs
p876
(lp877
Vkernelarch-mips/config.malta
p878
aVkernelarch-mips/config.mips64r2
p879
ass(Vdescription
p880
g831
NVloongson-3
p881
tp882
(dp883
Vhardware
p884
VLoongson 3A/3B
p885
sVhardware-long
p886
VLoongson 3A or 3B based systems (e.g. from Loongson or Lemote)
p887
ss(Vimage
p888
g831
NVloongson-3
p889
tp890
(dp891
Vconfigs
p892
(lp893
Vkernelarch-mips/config.loongson-3
p894
ass(Vdescription
p895
g831
NVocteon
p896
tp897
(dp898
Vhardware
p899
VOcteon
p900
sVhardware-long
p901
VCavium Networks Octeon
p902
ss(Vimage
p903
g831
NVocteon
p904
tp905
(dp906
Vconfigs
p907
(lp908
Vkernelarch-mips/config.octeon
p909
ass(g181
g831
g151
tp910
(dp911
g184
(lp912
V4kc-malta
p913
aV5kc-malta
p914
aVloongson-3
p915
aVocteon
p916
asg188
I01
ss(Vbase
p917
Vmipsn32
p918
tp919
(dp920
Vkernel-arch
p921
Vmips
p922
sVfeaturesets
p923
(lp924
ss(Vbase
p925
Vmipsn32el
p926
tp927
(dp928
Vkernel-arch
p929
Vmips
p930
sVfeaturesets
p931
(lp932
ss(Vbase
p933
Vmipsn32r6
p934
tp935
(dp936
Vkernel-arch
p937
Vmips
p938
sVfeaturesets
p939
(lp940
ss(Vbase
p941
Vmipsn32r6el
p942
tp943
(dp944
Vkernel-arch
p945
Vmips
p946
sVfeaturesets
p947
(lp948
ss(Vbase
p949
Vmipsr6
p950
tp951
(dp952
Vkernel-arch
p953
Vmips
p954
sg149
(lp955
g151
ass(Vbuild
p956
g950
tp957
(dp958
Vimage-file
p959
Vvmlinux
p960
sVsigned-modules
p961
I00
ss(Vimage
p962
g950
tp963
(dp964
Vinstall-stem
p965
Vvmlinux
p966
ss(Vdescription
p967
g950
NVmips32r6
p968
tp969
(dp970
Vhardware
p971
VMIPS R6 (32 bit, big endian)
p972
sVhardware-long
p973
VMIPS R6 (32 bit, big endian)
p974
ss(Vimage
p975
g950
NVmips32r6
p976
tp977
(dp978
Vconfigs
p979
(lp980
Vkernelarch-mips/config.malta
p981
aVkernelarch-mips/config.mips32r6
p982
ass(Vdescription
p983
g950
NVmips64r6
p984
tp985
(dp986
Vhardware
p987
VMIPS R6 (64 bit, big endian)
p988
sVhardware-long
p989
VMIPS R6 (64 bit, big endian)
p990
ss(Vimage
p991
g950
NVmips64r6
p992
tp993
(dp994
Vconfigs
p995
(lp996
Vkernelarch-mips/config.malta
p997
aVkernelarch-mips/config.mips64r6
p998
ass(g181
g950
g151
tp999
(dp1000
g184
(lp1001
Vmips32r6
p1002
aVmips64r6
p1003
asg188
I01
ss(Vbase
p1004
Vmipsr6el
p1005
tp1006
(dp1007
Vkernel-arch
p1008
Vmips
p1009
sg149
(lp1010
g151
ass(Vbuild
p1011
g1005
tp1012
(dp1013
Vimage-file
p1014
Vvmlinux
p1015
sVsigned-modules
p1016
I00
ss(Vimage
p1017
g1005
tp1018
(dp1019
Vinstall-stem
p1020
Vvmlinux
p1021
ss(Vdescription
p1022
g1005
NVmips32r6el
p1023
tp1024
(dp1025
Vhardware
p1026
VMIPS R6 (32 bit, little endian)
p1027
sVhardware-long
p1028
VMIPS R6 (32 bit, little endian)
p1029
ss(Vimage
p1030
g1005
NVmips32r6el
p1031
tp1032
(dp1033
Vconfigs
p1034
(lp1035
Vkernelarch-mips/config.malta
p1036
aVkernelarch-mips/config.mips32r6
p1037
ass(Vdescription
p1038
g1005
NVmips64r6el
p1039
tp1040
(dp1041
Vhardware
p1042
VMIPS R6 (64 bit, little endian)
p1043
sVhardware-long
p1044
VMIPS R6 (64 bit, little endian)
p1045
ss(Vimage
p1046
g1005
NVmips64r6el
p1047
tp1048
(dp1049
Vconfigs
p1050
(lp1051
Vkernelarch-mips/config.malta
p1052
aVkernelarch-mips/config.mips64r6
p1053
ass(g181
g1005
g151
tp1054
(dp1055
g184
(lp1056
Vmips32r6el
p1057
aVmips64r6el
p1058
asg188
I01
ss(Vbase
p1059
Vpowerpc
p1060
tp1061
(dp1062
Vkernel-arch
p1063
Vpowerpc
p1064
sg149
(lp1065
g151
ass(Vbuild
p1066
g1060
tp1067
(dp1068
Vimage-file
p1069
Vvmlinux
p1070
sVvdso
p1071
I01
ss(Vimage
p1072
g1060
tp1073
(dp1074
Vconfigs
p1075
(lp1076
sVsuggests
p1077
Vmkvmlinuz
p1078
sVinstall-stem
p1079
Vvmlinux
p1080
ss(Vdescription
p1081
g1060
NVpowerpc
p1082
tp1083
(dp1084
Vhardware
p1085
Vuniprocessor 32-bit PowerPC
p1086
ss(Vdescription
p1087
g1060
NVpowerpc-smp
p1088
tp1089
(dp1090
Vhardware
p1091
Vmultiprocessor 32-bit PowerPC
p1092
ss(Vimage
p1093
g1060
NVpowerpc-smp
p1094
tp1095
(dp1096
Vconfigs
p1097
(lp1098
Vpowerpc/config.powerpc
p1099
aVpowerpc/config.powerpc-smp
p1100
ass(Vdescription
p1101
g1060
NVpowerpc64
p1102
tp1103
(dp1104
Vhardware
p1105
V64-bit PowerPC
p1106
ss(Vimage
p1107
g1060
NVpowerpc64
p1108
tp1109
(dp1110
Vconfigs
p1111
(lp1112
Vkernelarch-powerpc/config-arch-64
p1113
aVkernelarch-powerpc/config-arch-64-be
p1114
ass(g181
g1060
g151
tp1115
(dp1116
g184
(lp1117
Vpowerpc
p1118
aVpowerpc-smp
p1119
aVpowerpc64
p1120
asg188
I01
ss(Vbase
p1121
Vpowerpcspe
p1122
tp1123
(dp1124
Vkernel-arch
p1125
Vpowerpc
p1126
sg149
(lp1127
g151
ass(Vbuild
p1128
g1122
tp1129
(dp1130
Vimage-file
p1131
Vvmlinux
p1132
sVsigned-modules
p1133
I00
sVvdso
p1134
I01
ss(Vimage
p1135
g1122
tp1136
(dp1137
Vsuggests
p1138
Vmkvmlinuz
p1139
sVinstall-stem
p1140
Vvmlinux
p1141
ss(Vdescription
p1142
g1122
tp1143
(dp1144
Vhardware
p1145
V32-bit PowerPC with SPE (instead of AltiVec) with SMP support
p1146
ss(g181
g1122
g151
tp1147
(dp1148
g184
(lp1149
Vpowerpcspe
p1150
asg188
I01
ss(Vbase
p1151
Vppc64
p1152
tp1153
(dp1154
Vkernel-arch
p1155
Vpowerpc
p1156
sg149
(lp1157
g151
ass(Vbuild
p1158
g1152
tp1159
(dp1160
Vimage-file
p1161
Vvmlinux
p1162
sVsigned-modules
p1163
I00
sVvdso
p1164
I01
ss(Vimage
p1165
g1152
tp1166
(dp1167
Vconfigs
p1168
(lp1169
sVsuggests
p1170
Vmkvmlinuz
p1171
sVinstall-stem
p1172
Vvmlinux
p1173
ss(Vdescription
p1174
g1152
NVpowerpc64
p1175
tp1176
(dp1177
Vhardware
p1178
V64-bit PowerPC
p1179
ss(Vimage
p1180
g1152
NVpowerpc64
p1181
tp1182
(dp1183
Vconfigs
p1184
(lp1185
Vkernelarch-powerpc/config-arch-64
p1186
aVkernelarch-powerpc/config-arch-64-be
p1187
ass(g181
g1152
g151
tp1188
(dp1189
g184
(lp1190
Vpowerpc64
p1191
asg188
I01
ss(Vbase
p1192
Vppc64el
p1193
tp1194
(dp1195
Vkernel-arch
p1196
Vpowerpc
p1197
sg149
(lp1198
g151
ass(Vbuild
p1199
g1193
tp1200
(dp1201
Vimage-file
p1202
Vvmlinux
p1203
sVvdso
p1204
I01
ss(Vimage
p1205
g1193
tp1206
(dp1207
Vconfigs
p1208
(lp1209
sVsuggests
p1210
Vmkvmlinuz
p1211
sVinstall-stem
p1212
Vvmlinux
p1213
ss(Vdescription
p1214
g1193
NVpowerpc64le
p1215
tp1216
(dp1217
Vhardware
p1218
VLittle-endian 64-bit PowerPC
p1219
ss(Vimage
p1220
g1193
NVpowerpc64le
p1221
tp1222
(dp1223
Vconfigs
p1224
(lp1225
Vkernelarch-powerpc/config-arch-64
p1226
aVkernelarch-powerpc/config-arch-64-le
p1227
ass(g181
g1193
g151
tp1228
(dp1229
g184
(lp1230
Vpowerpc64le
p1231
asg188
I01
ss(Vbase
p1232
Vs390
p1233
tp1234
(dp1235
Vkernel-arch
p1236
Vs390
p1237
sVfeaturesets
p1238
(lp1239
ss(Vbase
p1240
Vs390x
p1241
tp1242
(dp1243
Vkernel-arch
p1244
Vs390
p1245
sg149
(lp1246
g151
ass(Vbuild
p1247
g1241
tp1248
(dp1249
Vimage-file
p1250
Varch/s390/boot/image
p1251
sVvdso
p1252
I01
ss(Vimage
p1253
g1241
tp1254
(dp1255
Vbootloaders
p1256
(lp1257
Vs390-tools
p1258
asVinstall-stem
p1259
Vvmlinuz
p1260
ss(Vrelations
p1261
g1241
tp1262
(dp1263
Vheaders%gcc-7
p1264
Vlinux-compiler-gcc-7-s390
p1265
ss(Vbuild
p1266
g1241
NVs390x
p1267
tp1268
(dp1269
Vdebug-info
p1270
I01
ss(Vdescription
p1271
g1241
NVs390x
p1272
tp1273
(dp1274
Vhardware
p1275
VIBM zSeries
p1276
ss(g181
g1241
g151
tp1277
(dp1278
g184
(lp1279
Vs390x
p1280
asg188
I01
ss(Vbase
p1281
Vsh3
p1282
tp1283
(dp1284
Vkernel-arch
p1285
Vsh
p1286
sVfeaturesets
p1287
(lp1288
ss(Vbase
p1289
Vsh4
p1290
tp1291
(dp1292
Vkernel-arch
p1293
Vsh
p1294
sg149
(lp1295
g151
ass(Vbuild
p1296
g1290
tp1297
(dp1298
Vimage-file
p1299
Varch/sh/boot/zImage
p1300
sVsigned-modules
p1301
I00
ss(Vimage
p1302
g1290
tp1303
(dp1304
Vinstall-stem
p1305
Vvmlinuz
p1306
ss(Vdescription
p1307
g1290
NVsh7751r
p1308
tp1309
(dp1310
Vhardware
p1311
Vsh7751r
p1312
sVhardware-long
p1313
VRenesas SH7751R R2D plus board
p1314
ss(Vdescription
p1315
g1290
NVsh7785lcr
p1316
tp1317
(dp1318
Vhardware
p1319
Vsh7785lcr
p1320
sVhardware-long
p1321
VRenesas SH7785 reference board
p1322
ss(Vimage
p1323
g1290
NVsh7785lcr
p1324
tp1325
(dp1326
Vrecommends
p1327
Vu-boot-tools
p1328
sVcheck-size
p1329
L4194304L
ss(g181
g1290
g151
tp1330
(dp1331
g184
(lp1332
Vsh7751r
p1333
aVsh7785lcr
p1334
asg188
I01
ss(Vbase
p1335
Vsparc
p1336
tp1337
(dp1338
Vkernel-arch
p1339
Vsparc
p1340
sVfeaturesets
p1341
(lp1342
ss(Vbase
p1343
Vsparc64
p1344
tp1345
(dp1346
Vkernel-arch
p1347
Vsparc
p1348
sg149
(lp1349
g151
ass(Vbuild
p1350
g1344
tp1351
(dp1352
Vimage-file
p1353
Varch/sparc/boot/zImage
p1354
sVsigned-modules
p1355
I00
ss(Vimage
p1356
g1344
tp1357
(dp1358
Vconfigs
p1359
(lp1360
sVsuggests
p1361
Vsilo, fdutils
p1362
sVinstall-stem
p1363
Vvmlinuz
p1364
ss(Vdescription
p1365
g1344
NVsparc64
p1366
tp1367
(dp1368
Vhardware
p1369
Vuniprocessor 64-bit UltraSPARC
p1370
ss(Vimage
p1371
g1344
NVsparc64
p1372
tp1373
(dp1374
Vconfigs
p1375
(lp1376
Vkernelarch-sparc/config-up
p1377
ass(Vdescription
p1378
g1344
NVsparc64-smp
p1379
tp1380
(dp1381
Vhardware
p1382
Vmultiprocessor 64-bit UltraSPARC
p1383
ss(Vimage
p1384
g1344
NVsparc64-smp
p1385
tp1386
(dp1387
Vconfigs
p1388
(lp1389
Vkernelarch-sparc/config-smp
p1390
ass(g181
g1344
g151
tp1391
(dp1392
g184
(lp1393
Vsparc64
p1394
aVsparc64-smp
p1395
asg188
I01
ss(Vbase
p1396
Vtilegx
p1397
tp1398
(dp1399
Vkernel-arch
p1400
Vtile
p1401
sVfeaturesets
p1402
(lp1403
ss(Vbase
p1404
Vx32
p1405
tp1406
(dp1407
Vkernel-arch
p1408
Vx86
p1409
sVfeaturesets
p1410
(lp1411
ss(Vabi
p1412
NVrt
p1413
tp1414
(dp1415
Vignore-changes
p1416
(lp1417
V*
p1418
ass(Vdescription
p1419
Ng1413
tp1420
(dp1421
Vpart-long-rt
p1422
VThis kernel includes the PREEMPT_RT realtime patch set.
p1423
sVpart-short-rt
p1424
VPREEMPT_RT
p1425
sVparts
p1426
(lp1427
Vrt
p1428
ass(Vversion
p1429
tp1430
(dp1431
Vsource
p1432
V4.15.11-1parrot11
p1433
sVupstream
p1434
V4.15
p1435
sVabiname_base
p1436
V4.15.0
p1437
sVabiname
p1438
V4.15.0-parrot11
p1439
ss.