cdebian_linux.config
ConfigCore
p0
(tRp1
(Vabi
p2
tp3
(dp4
Vabiname
p5
Vparrot1-3t
p6
sVignore-changes
p7
(lp8
V__cpuhp_*
p9
aV__xive_vm_h_*
p10
aVbpf_analyzer
p11
aVcxl_*
p12
aVdax_flush
p13
aVieee80211_nullfunc_get
p14
aVinet_add_protocol
p15
aVinet_del_protocol
p16
aViommu_device_*
p17
aVkvm_async_pf_task_wait
p18
aVkvmppc_*
p19
aVmm_iommu_*
p20
aVmv_mbus_*
p21
aVperf_*
p22
aVregister_cxl_calls
p23
aVregister_key_type
p24
aVunregister_cxl_calls
p25
aV*_hw_breakpoint
p26
aVmodule:arch/x86/kvm/*
p27
aVmodule:drivers/crypto/ccp/*
p28
aVmodule:drivers/hv/*
p29
aVmodule:drivers/gpu/drm/sun4i/*
p30
aVmodule:drivers/iio/**
p31
aVmodule:drivers/misc/cxl/*
p32
aVmodule:drivers/mtd/nand/*
p33
aVmodule:drivers/net/ethernet/**
p34
aVmodule:drivers/net/wireless/**
p35
aVmodule:drivers/nvdimm/*
p36
aVmodule:drivers/power/supply/bq27xxx_battery
p37
aVmodule:drivers/scsi/cxgbi/*
p38
aVmodule:drivers/scsi/libiscs*
p39
aVmodule:drivers/scsi/qla2xxx/qla2xxx
p40
aVmodule:drivers/scsi/ufs/*
p41
aVmodule:drivers/target/**
p42
aVmodule:drivers/usb/chipidea/**
p43
aVmodule:drivers/usb/gadget/**
p44
aVmodule:drivers/usb/host/**
p45
aVmodule:drivers/usb/musb/**
p46
aVmodule:fs/nfs/**
p47
aVmodule:net/ceph/libceph
p48
aVmodule:net/l2tp/**
p49
aVmodule:net/rxrpc/rxrpc
p50
aVmodule:net/sctp/**
p51
aVmodule:sound/core/seq/**
p52
aVmodule:sound/firewire/snd-firewire-lib
p53
aVmodule:sound/pci/hda/*
p54
aVbtree_*
p55
aVvisitor*
p56
aVcan_rx_register
p57
aVip6_xmit
p58
aVmodule:net/dccp/dccp
p59
aVmodule:net/rds/rds
p60
aVdevfreq_*
p61
aVdevm_devfreq_*
p62
aVupdate_devfreq
p63
aVmodule:drivers/infiniband/**
p64
aVacpi_ec_add_query_handler
p65
aVacpi_ec_remove_query_handler
p66
aVfirst_ec
p67
aVdebugfs_create_automount
p68
aVmodule:drivers/iio/imu/inv_mpu6050/*
p69
aVdrm_crtc_accurate_vblank_count
p70
aVacpi_nfit_desc_init
p71
aVacpi_nfit_init
p72
aVloop_register_transfer
p73
aVxen_xlate_*
p74
aVnf_nat_masquerade_ipv4_register_notifier
p75
aVnf_nat_masquerade_ipv6_register_notifier
p76
ass(Vbase
p77
tp78
(dp79
Varches
p80
(lp81
Valpha
p82
aVamd64
p83
aVarm64
p84
aVarm64ilp32
p85
aVarmel
p86
aVarmhf
p87
aVhppa
p88
aVi386
p89
aVia64
p90
aVm68k
p91
aVmips
p92
aVmips64
p93
aVmips64el
p94
aVmips64r6
p95
aVmips64r6el
p96
aVmipsel
p97
aVmipsn32
p98
aVmipsn32el
p99
aVmipsn32r6
p100
aVmipsn32r6el
p101
aVmipsr6
p102
aVmipsr6el
p103
aVpowerpc
p104
aVpowerpcspe
p105
aVppc64
p106
aVppc64el
p107
aVriscv64
p108
aVs390
p109
aVs390x
p110
aVsh3
p111
aVsh4
p112
aVsparc
p113
aVsparc64
p114
aVx32
p115
asVcompiler
p116
Vgcc-8
p117
sVfeaturesets
p118
(lp119
Vnone
p120
aVrt
p121
ass(Vbuild
p122
tp123
(dp124
Vdebug-info
p125
I01
sVsigned-code
p126
I00
ss(Vbase
p127
NVrt
p128
tp129
(dp130
Venabled
p131
I00
ss(Vdescription
p132
tp133
(dp134
Vpart-long-up
p135
VThis kernel is not suitable for SMP (multi-processor,\u000amulti-core or hyper-threaded) systems.
p136
ss(Vimage
p137
tp138
(dp139
Vinitramfs-generators
p140
(lp141
Vinitramfs-tools
p142
aVinitramfs-fallback
p143
asVrecommends
p144
(lp145
Vapparmor
p146
ass(Vrelations
p147
tp148
(dp149
Vgcc-8
p150
Vgcc-8 <!stage1 !cross !pkg.linux.nokernel>, gcc-8-@gnu-type-package@ <!stage1 cross !pkg.linux.nokernel>
p151
sVinitramfs-fallback
p152
Vlinux-initramfs-tool
p153
sVinitramfs-tools
p154
Vinitramfs-tools (>= 0.120+deb8u2)
p155
ss(Vbase
p156
Valpha
p157
tp158
(dp159
Vkernel-arch
p160
Valpha
p161
sVfeaturesets
p162
(lp163
Vnone
p164
ass(Vbuild
p165
g157
tp166
(dp167
Vimage-file
p168
Varch/alpha/boot/vmlinux.gz
p169
ss(Vimage
p170
g157
tp171
(dp172
Vsuggests
p173
(lp174
Vaboot
p175
aVfdutils
p176
asVinstall-stem
p177
Vvmlinuz
p178
ss(Vdescription
p179
g157
NValpha-generic
p180
tp181
(dp182
Vhardware
p183
VAlpha
p184
sVhardware-long
p185
VDEC Alpha systems with extended kernel start address (Wildfire, Titan, Marvel)
p186
ss(Vdescription
p187
g157
NValpha-smp
p188
tp189
(dp190
Vhardware
p191
VAlpha SMP
p192
sVhardware-long
p193
VDEC Alpha SMP systems with extended kernel start address (Wildfire, Titan, Marvel)
p194
ss(Vbase
p195
g157
g164
tp196
(dp197
Vflavours
p198
(lp199
Valpha-generic
p200
aValpha-smp
p201
asVimplicit-flavour
p202
I01
ss(Vbase
p203
Vamd64
p204
tp205
(dp206
Vfeaturesets
p207
(lp208
Vnone
p209
aVrt
p210
asVkernel-arch
p211
Vx86
p212
ss(Vbuild
p213
g204
tp214
(dp215
Vdebug-info
p216
I01
sVimage-file
p217
Varch/x86/boot/bzImage
p218
sVsigned-code
p219
I00
sVvdso
p220
I01
ss(Vimage
p221
g204
tp222
(dp223
Vbootloaders
p224
(lp225
Vgrub-pc
p226
aVgrub-efi-amd64
p227
aVextlinux
p228
asVinstall-stem
p229
Vvmlinuz
p230
sVbreaks
p231
(lp232
Vxserver-xorg-input-vmmouse (<< 1:13.0.99)
p233
ass(Vrelations
p234
g204
tp235
(dp236
Vgcc-8
p237
Vgcc-8 (>= 8-20180123-1~) <!stage1 !cross !pkg.linux.nokernel>, gcc-8-x86-64-linux-gnu (>= 8-20180123-1~) <!stage1 cross !pkg.linux.nokernel>
p238
sVheaders%gcc-8
p239
Vlinux-compiler-gcc-8-x86
p240
ss(Vdescription
p241
g204
NVamd64
p242
tp243
(dp244
Vhardware
p245
V64-bit PCs
p246
sVhardware-long
p247
VPCs with AMD64, Intel 64 or VIA Nano processors
p248
ss(Vdescription
p249
g204
NVcloud-amd64
p250
tp251
(dp252
Vhardware
p253
Vx86-64 cloud
p254
sVhardware-long
p255
VAmazon EC2, Google Compute Engine and Microsoft Azure cloud platforms
p256
ss(Vbase
p257
g204
Vnone
p258
tp259
(dp260
Vflavours
p261
(lp262
Vamd64
p263
aVcloud-amd64
p264
ass(Vbase
p265
g204
Vrt
p266
tp267
(dp268
Vflavours
p269
(lp270
Vamd64
p271
ass(Vbase
p272
Varm64
p273
tp274
(dp275
Vkernel-arch
p276
Varm64
p277
sVfeaturesets
p278
(lp279
Vnone
p280
aVrt
p281
ass(Vbuild
p282
g273
tp283
(dp284
Vdebug-info
p285
I01
sVimage-file
p286
Varch/arm64/boot/Image
p287
sVsigned-code
p288
I00
sVvdso
p289
I01
ss(Vimage
p290
g273
tp291
(dp292
Vinstall-stem
p293
Vvmlinuz
p294
sVbreaks
p295
(lp296
Vlibmozjs185-1.0
p297
aVlibmozjs-24-0 (<< 24.2.0-5.1~)
p298
ass(Vdescription
p299
g273
NVarm64
p300
tp301
(dp302
Vhardware
p303
V64-bit ARMv8 machines
p304
ss(Vimage
p305
g273
NVarm64
p306
tp307
(dp308
s(Vbase
p309
g273
Vnone
p310
tp311
(dp312
Vflavours
p313
(lp314
Varm64
p315
ass(Vbase
p316
g273
Vrt
p317
tp318
(dp319
Vflavours
p320
(lp321
Varm64
p322
ass(Vbase
p323
Varm64ilp32
p324
tp325
(dp326
Vkernel-arch
p327
Varm64
p328
sVfeaturesets
p329
(lp330
ss(Vbase
p331
Varmel
p332
tp333
(dp334
Vkernel-arch
p335
Varm
p336
sg162
(lp337
g164
ass(Vbuild
p338
g332
tp339
(dp340
Vimage-file
p341
Varch/arm/boot/zImage
p342
sVuncompressed-image-file
p343
Varch/arm/boot/Image
p344
ss(Vimage
p345
g332
tp346
(dp347
Vinstall-stem
p348
Vvmlinuz
p349
ss(Vrelations
p350
g332
tp351
(dp352
Vheaders%gcc-8
p353
Vlinux-compiler-gcc-8-arm
p354
ss(Vdescription
p355
g332
NVmarvell
p356
tp357
(dp358
Vhardware
p359
VMarvell Kirkwood/Orion
p360
sVhardware-long
p361
VMarvell Kirkwood and Orion based systems (https://wiki.debian.org/ArmEabiPort#Supported_hardware)
p362
ss(Vdescription
p363
g332
NVrpi
p364
tp365
(dp366
Vhardware
p367
VRaspberry Pi and Pi Zero
p368
sVhardware-long
p369
VRaspberry Pi, Raspberry Pi Zero based systems
p370
ss(Vimage
p371
g332
NVmarvell
p372
tp373
(dp374
Vrecommends
p375
(lp376
Vu-boot-tools
p377
asVcheck-size
p378
I2097080
sVcheck-size-with-dtb
p379
I01
sVcheck-uncompressed-size
p380
I7340032
sVbreaks
p381
(lp382
Vflash-kernel (<< 3.57~)
p383
ass(g195
g332
g164
tp384
(dp385
g198
(lp386
Vmarvell
p387
aVrpi
p388
asg202
I01
ss(Vbase
p389
Varmhf
p390
tp391
(dp392
Vfeaturesets
p393
(lp394
Vnone
p395
aVrt
p396
asVkernel-arch
p397
Varm
p398
ss(Vbuild
p399
g390
tp400
(dp401
Vimage-file
p402
Varch/arm/boot/zImage
p403
sVvdso
p404
I01
ss(Vimage
p405
g390
tp406
(dp407
Vinstall-stem
p408
Vvmlinuz
p409
ss(Vrelations
p410
g390
tp411
(dp412
Vheaders%gcc-8
p413
Vlinux-compiler-gcc-8-arm
p414
ss(Vdescription
p415
g390
NVarmmp
p416
tp417
(dp418
Vhardware
p419
VARMv7 multiplatform compatible SoCs
p420
sVhardware-long
p421
VARMv7 multiplatform kernel. See\u000ahttps://wiki.debian.org/DebianKernel/ARMMP for details of supported\u000aplatforms
p422
ss(Vdescription
p423
g390
NVarmmp-lpae
p424
tp425
(dp426
Vhardware
p427
VARMv7 multiplatform compatible SoCs supporting LPAE
p428
sVhardware-long
p429
VARMv7 multiplatform kernel supporting LPAE. See\u000ahttps://wiki.debian.org/DebianKernel/ARMMP for details of supported\u000aplatforms.
p430
ss(Vbase
p431
g390
Vnone
p432
tp433
(dp434
Vflavours
p435
(lp436
Varmmp
p437
aVarmmp-lpae
p438
ass(Vbase
p439
g390
Vrt
p440
tp441
(dp442
Vflavours
p443
(lp444
Varmmp
p445
ass(Vbase
p446
Vhppa
p447
tp448
(dp449
Vkernel-arch
p450
Vparisc
p451
sg162
(lp452
g164
ass(Vbuild
p453
g447
tp454
(dp455
Vimage-file
p456
Varch/parisc/boot/bzImage
p457
sVdebug-info
p458
I00
ss(Vimage
p459
g447
tp460
(dp461
Vsuggests
p462
(lp463
Vpalo
p464
asVinstall-stem
p465
Vvmlinuz
p466
ss(Vdescription
p467
g447
NVparisc
p468
tp469
(dp470
Vhardware
p471
V32-bit PA-RISC
p472
sVhardware-long
p473
VHP PA-RISC 32-bit systems with max 4 GB RAM
p474
ss(Vbase
p475
g447
NVparisc64
p476
tp477
(dp478
Vcflags
p479
V-fno-cse-follow-jumps
p480
sVoverride-host-type
p481
Vhppa64-linux-gnu
p482
ss(Vdescription
p483
g447
NVparisc64
p484
tp485
(dp486
Vhardware
p487
V64-bit PA-RISC
p488
sVhardware-long
p489
VHP PA-RISC 64-bit systems with support for more than 4 GB RAM
p490
ss(Vrelations
p491
g447
tp492
(dp493
Vgcc-8
p494
Vgcc-8 <!stage1 !cross !pkg.linux.nokernel>, gcc-8-hppa-linux-gnu <!stage1 cross !pkg.linux.nokernel>, binutils-hppa64-linux-gnu <!stage1 !pkg.linux.nokernel>, gcc-8-hppa64-linux-gnu <!stage1 !pkg.linux.nokernel>
p495
ss(g195
g447
g164
tp496
(dp497
g198
(lp498
Vparisc
p499
aVparisc64
p500
asg202
I01
ss(Vbase
p501
Vi386
p502
tp503
(dp504
Vfeaturesets
p505
(lp506
Vnone
p507
aVrt
p508
asVkernel-arch
p509
Vx86
p510
ss(Vbuild
p511
g502
tp512
(dp513
Vimage-file
p514
Varch/x86/boot/bzImage
p515
sVsigned-code
p516
I00
sVvdso
p517
I01
ss(Vdescription
p518
g502
tp519
(dp520
Vpart-long-pae
p521
VThis kernel requires PAE (Physical Address Extension).\u000aThis feature is supported by the Intel Pentium Pro/II/III/4/4M/D, Xeon,\u000aCore and Atom; AMD Geode NX, Athlon (K7), Duron, Opteron, Sempron,\u000aTurion or Phenom; Transmeta Efficeon; VIA C7; and some other processors.
p522
ss(Vimage
p523
g502
tp524
(dp525
Vbootloaders
p526
(lp527
Vgrub-pc
p528
aVgrub-efi-ia32
p529
aVextlinux
p530
asVinstall-stem
p531
Vvmlinuz
p532
sVbreaks
p533
(lp534
Vxserver-xorg-input-vmmouse (<< 1:13.0.99)
p535
ass(Vrelations
p536
g502
tp537
(dp538
Vgcc-8
p539
Vgcc-8 (>= 8-20180123-1~) <!stage1 !cross !pkg.linux.nokernel>, gcc-8-i686-linux-gnu (>= 8-20180123-1~) <!stage1 cross !pkg.linux.nokernel>
p540
sVheaders%gcc-8
p541
Vlinux-compiler-gcc-8-x86
p542
ss(Vdescription
p543
g502
NV686
p544
tp545
(dp546
Vhardware
p547
Volder PCs
p548
sVhardware-long
p549
VPCs with one or more processors not supporting PAE
p550
ss(Vbuild
p551
g502
NV686-pae
p552
tp553
(dp554
Vdebug-info
p555
I01
ss(Vdescription
p556
g502
NV686-pae
p557
tp558
(dp559
Vhardware
p560
Vmodern PCs
p561
sVhardware-long
p562
VPCs with one or more processors supporting PAE
p563
sVparts
p564
(lp565
Vpae
p566
ass(Vbase
p567
g502
Vnone
p568
tp569
(dp570
Vflavours
p571
(lp572
V686-pae
p573
ass(Vbase
p574
g502
Vrt
p575
tp576
(dp577
Vflavours
p578
(lp579
V686-pae
p580
ass(Vbase
p581
Via64
p582
tp583
(dp584
Vkernel-arch
p585
Via64
p586
sg162
(lp587
g164
ass(Vbuild
p588
g582
tp589
(dp590
Vimage-file
p591
Vvmlinux.gz
p592
ss(Vimage
p593
g582
tp594
(dp595
Vbootloaders
p596
(lp597
Vgrub-efi-ia64
p598
asVinstall-stem
p599
Vvmlinuz
p600
ss(Vdescription
p601
g582
NVitanium
p602
tp603
(dp604
Vhardware
p605
VItanium (Merced)
p606
sVhardware-long
p607
Vsystems with original Itanium (Merced) processors
p608
ss(Vdescription
p609
g582
NVmckinley
p610
tp611
(dp612
Vhardware
p613
VItanium 2+
p614
sVhardware-long
p615
Vsystems with Itanium 2 or 9300/9500/9700-series processors
p616
ss(g195
g582
g164
tp617
(dp618
g198
(lp619
Vitanium
p620
aVmckinley
p621
asg202
I01
ss(Vbase
p622
Vm68k
p623
tp624
(dp625
Vcflags
p626
V-ffreestanding
p627
sVkernel-arch
p628
Vm68k
p629
sg162
(lp630
g164
ass(Vbuild
p631
g623
tp632
(dp633
Vimage-file
p634
Vvmlinux
p635
ss(Vimage
p636
g623
tp637
(dp638
Vsuggests
p639
(lp640
Vvmelilo
p641
aVfdutils
p642
asVinstall-stem
p643
Vvmlinux
p644
ss(Vdescription
p645
g623
NVm68k
p646
tp647
(dp648
Vhardware
p649
VMotorola MC68020+ family
p650
ss(g195
g623
g164
tp651
(dp652
g198
(lp653
Vm68k
p654
asg202
I01
ss(Vbase
p655
Vmips
p656
tp657
(dp658
Vkernel-arch
p659
Vmips
p660
sg162
(lp661
g164
ass(Vbuild
p662
g656
tp663
(dp664
Vimage-file
p665
Vvmlinux
p666
ss(Vimage
p667
g656
tp668
(dp669
Vinstall-stem
p670
Vvmlinux
p671
ss(Vdescription
p672
g656
NV4kc-malta
p673
tp674
(dp675
Vhardware
p676
VMIPS Malta
p677
sVhardware-long
p678
VMIPS Malta boards
p679
ss(Vimage
p680
g656
NV4kc-malta
p681
tp682
(dp683
Vconfigs
p684
(lp685
Vkernelarch-mips/config.malta
p686
aVkernelarch-mips/config.mips32r2
p687
ass(Vdescription
p688
g656
NV5kc-malta
p689
tp690
(dp691
Vhardware
p692
VMIPS Malta (64-bit)
p693
sVhardware-long
p694
VMIPS Malta boards (64-bit)
p695
ss(Vimage
p696
g656
NV5kc-malta
p697
tp698
(dp699
Vconfigs
p700
(lp701
Vkernelarch-mips/config.malta
p702
aVkernelarch-mips/config.mips64r2
p703
ass(Vdescription
p704
g656
NVocteon
p705
tp706
(dp707
Vhardware
p708
VOcteon
p709
sVhardware-long
p710
VCavium Networks Octeon
p711
ss(Vimage
p712
g656
NVocteon
p713
tp714
(dp715
Vconfigs
p716
(lp717
Vkernelarch-mips/config.octeon
p718
ass(g195
g656
g164
tp719
(dp720
g198
(lp721
V4kc-malta
p722
aV5kc-malta
p723
aVocteon
p724
asg202
I01
ss(Vbase
p725
Vmips64
p726
tp727
(dp728
Vkernel-arch
p729
Vmips
p730
sg162
(lp731
g164
ass(Vbuild
p732
g726
tp733
(dp734
Vimage-file
p735
Vvmlinux
p736
ss(Vimage
p737
g726
tp738
(dp739
Vinstall-stem
p740
Vvmlinux
p741
ss(Vdescription
p742
g726
NV5kc-malta
p743
tp744
(dp745
Vhardware
p746
VMIPS Malta
p747
sVhardware-long
p748
VMIPS Malta boards
p749
ss(Vimage
p750
g726
NV5kc-malta
p751
tp752
(dp753
Vconfigs
p754
(lp755
Vkernelarch-mips/config.malta
p756
aVkernelarch-mips/config.mips64r2
p757
ass(Vdescription
p758
g726
NVocteon
p759
tp760
(dp761
Vhardware
p762
VOcteon
p763
sVhardware-long
p764
VCavium Networks Octeon
p765
ss(Vimage
p766
g726
NVocteon
p767
tp768
(dp769
Vconfigs
p770
(lp771
Vkernelarch-mips/config.octeon
p772
ass(g195
g726
g164
tp773
(dp774
g198
(lp775
V5kc-malta
p776
aVocteon
p777
asg202
I01
ss(Vbase
p778
Vmips64el
p779
tp780
(dp781
Vkernel-arch
p782
Vmips
p783
sg162
(lp784
g164
ass(Vbuild
p785
g779
tp786
(dp787
Vimage-file
p788
Vvmlinux
p789
ss(Vimage
p790
g779
tp791
(dp792
Vinstall-stem
p793
Vvmlinux
p794
ss(Vdescription
p795
g779
NV5kc-malta
p796
tp797
(dp798
Vhardware
p799
VMIPS Malta
p800
sVhardware-long
p801
VMIPS Malta boards
p802
ss(Vimage
p803
g779
NV5kc-malta
p804
tp805
(dp806
Vconfigs
p807
(lp808
Vkernelarch-mips/config.malta
p809
aVkernelarch-mips/config.mips64r2
p810
ass(Vdescription
p811
g779
NVloongson-3
p812
tp813
(dp814
Vhardware
p815
VLoongson 3A/3B
p816
sVhardware-long
p817
VLoongson 3A or 3B based systems (e.g. from Loongson or Lemote)
p818
ss(Vimage
p819
g779
NVloongson-3
p820
tp821
(dp822
Vconfigs
p823
(lp824
Vkernelarch-mips/config.loongson-3
p825
ass(Vdescription
p826
g779
NVocteon
p827
tp828
(dp829
Vhardware
p830
VOcteon
p831
sVhardware-long
p832
VCavium Networks Octeon
p833
ss(Vimage
p834
g779
NVocteon
p835
tp836
(dp837
Vconfigs
p838
(lp839
Vkernelarch-mips/config.octeon
p840
ass(g195
g779
g164
tp841
(dp842
g198
(lp843
V5kc-malta
p844
aVloongson-3
p845
aVocteon
p846
asg202
I01
ss(Vbase
p847
Vmips64r6
p848
tp849
(dp850
Vkernel-arch
p851
Vmips
p852
sg162
(lp853
g164
ass(Vbuild
p854
g848
tp855
(dp856
Vimage-file
p857
Vvmlinux
p858
ss(Vimage
p859
g848
tp860
(dp861
Vinstall-stem
p862
Vvmlinux
p863
ss(Vdescription
p864
g848
NVmips64r6
p865
tp866
(dp867
Vhardware
p868
VMIPS R6 (64 bit, big endian)
p869
sVhardware-long
p870
VMIPS R6 (64 bit, big endian)
p871
ss(Vimage
p872
g848
NVmips64r6
p873
tp874
(dp875
Vconfigs
p876
(lp877
Vkernelarch-mips/config.boston
p878
aVkernelarch-mips/config.mips64r6
p879
ass(g195
g848
g164
tp880
(dp881
g198
(lp882
Vmips64r6
p883
asg202
I01
ss(Vbase
p884
Vmips64r6el
p885
tp886
(dp887
Vkernel-arch
p888
Vmips
p889
sg162
(lp890
g164
ass(Vbuild
p891
g885
tp892
(dp893
Vimage-file
p894
Vvmlinux
p895
ss(Vimage
p896
g885
tp897
(dp898
Vinstall-stem
p899
Vvmlinux
p900
ss(Vdescription
p901
g885
NVmips64r6el
p902
tp903
(dp904
Vhardware
p905
VMIPS R6 (64 bit, little endian)
p906
sVhardware-long
p907
VMIPS R6 (64 bit, little endian)
p908
ss(Vimage
p909
g885
NVmips64r6el
p910
tp911
(dp912
Vconfigs
p913
(lp914
Vkernelarch-mips/config.boston
p915
aVkernelarch-mips/config.mips64r6
p916
ass(g195
g885
g164
tp917
(dp918
g198
(lp919
Vmips64r6el
p920
asg202
I01
ss(Vbase
p921
Vmipsel
p922
tp923
(dp924
Vkernel-arch
p925
Vmips
p926
sg162
(lp927
g164
ass(Vbuild
p928
g922
tp929
(dp930
Vimage-file
p931
Vvmlinux
p932
ss(Vimage
p933
g922
tp934
(dp935
Vinstall-stem
p936
Vvmlinux
p937
ss(Vdescription
p938
g922
NV4kc-malta
p939
tp940
(dp941
Vhardware
p942
VMIPS Malta
p943
sVhardware-long
p944
VMIPS Malta boards
p945
ss(Vimage
p946
g922
NV4kc-malta
p947
tp948
(dp949
Vconfigs
p950
(lp951
Vkernelarch-mips/config.malta
p952
aVkernelarch-mips/config.mips32r2
p953
ass(Vdescription
p954
g922
NV5kc-malta
p955
tp956
(dp957
Vhardware
p958
VMIPS Malta (64-bit)
p959
sVhardware-long
p960
VMIPS Malta boards (64-bit)
p961
ss(Vimage
p962
g922
NV5kc-malta
p963
tp964
(dp965
Vconfigs
p966
(lp967
Vkernelarch-mips/config.malta
p968
aVkernelarch-mips/config.mips64r2
p969
ass(Vdescription
p970
g922
NVloongson-3
p971
tp972
(dp973
Vhardware
p974
VLoongson 3A/3B
p975
sVhardware-long
p976
VLoongson 3A or 3B based systems (e.g. from Loongson or Lemote)
p977
ss(Vimage
p978
g922
NVloongson-3
p979
tp980
(dp981
Vconfigs
p982
(lp983
Vkernelarch-mips/config.loongson-3
p984
ass(Vdescription
p985
g922
NVocteon
p986
tp987
(dp988
Vhardware
p989
VOcteon
p990
sVhardware-long
p991
VCavium Networks Octeon
p992
ss(Vimage
p993
g922
NVocteon
p994
tp995
(dp996
Vconfigs
p997
(lp998
Vkernelarch-mips/config.octeon
p999
ass(g195
g922
g164
tp1000
(dp1001
g198
(lp1002
V4kc-malta
p1003
aV5kc-malta
p1004
aVloongson-3
p1005
aVocteon
p1006
asg202
I01
ss(Vbase
p1007
Vmipsn32
p1008
tp1009
(dp1010
Vkernel-arch
p1011
Vmips
p1012
sVfeaturesets
p1013
(lp1014
ss(Vbase
p1015
Vmipsn32el
p1016
tp1017
(dp1018
Vkernel-arch
p1019
Vmips
p1020
sVfeaturesets
p1021
(lp1022
ss(Vbase
p1023
Vmipsn32r6
p1024
tp1025
(dp1026
Vkernel-arch
p1027
Vmips
p1028
sVfeaturesets
p1029
(lp1030
ss(Vbase
p1031
Vmipsn32r6el
p1032
tp1033
(dp1034
Vkernel-arch
p1035
Vmips
p1036
sVfeaturesets
p1037
(lp1038
ss(Vbase
p1039
Vmipsr6
p1040
tp1041
(dp1042
Vkernel-arch
p1043
Vmips
p1044
sg162
(lp1045
g164
ass(Vbuild
p1046
g1040
tp1047
(dp1048
Vimage-file
p1049
Vvmlinux
p1050
ss(Vimage
p1051
g1040
tp1052
(dp1053
Vinstall-stem
p1054
Vvmlinux
p1055
ss(Vdescription
p1056
g1040
NVmips32r6
p1057
tp1058
(dp1059
Vhardware
p1060
VMIPS R6 (32 bit, big endian)
p1061
sVhardware-long
p1062
VMIPS R6 (32 bit, big endian)
p1063
ss(Vimage
p1064
g1040
NVmips32r6
p1065
tp1066
(dp1067
Vconfigs
p1068
(lp1069
Vkernelarch-mips/config.boston
p1070
aVkernelarch-mips/config.mips32r6
p1071
ass(Vdescription
p1072
g1040
NVmips64r6
p1073
tp1074
(dp1075
Vhardware
p1076
VMIPS R6 (64 bit, big endian)
p1077
sVhardware-long
p1078
VMIPS R6 (64 bit, big endian)
p1079
ss(Vimage
p1080
g1040
NVmips64r6
p1081
tp1082
(dp1083
Vconfigs
p1084
(lp1085
Vkernelarch-mips/config.boston
p1086
aVkernelarch-mips/config.mips64r6
p1087
ass(g195
g1040
g164
tp1088
(dp1089
g198
(lp1090
Vmips32r6
p1091
aVmips64r6
p1092
asg202
I01
ss(Vbase
p1093
Vmipsr6el
p1094
tp1095
(dp1096
Vkernel-arch
p1097
Vmips
p1098
sg162
(lp1099
g164
ass(Vbuild
p1100
g1094
tp1101
(dp1102
Vimage-file
p1103
Vvmlinux
p1104
ss(Vimage
p1105
g1094
tp1106
(dp1107
Vinstall-stem
p1108
Vvmlinux
p1109
ss(Vdescription
p1110
g1094
NVmips32r6el
p1111
tp1112
(dp1113
Vhardware
p1114
VMIPS R6 (32 bit, little endian)
p1115
sVhardware-long
p1116
VMIPS R6 (32 bit, little endian)
p1117
ss(Vimage
p1118
g1094
NVmips32r6el
p1119
tp1120
(dp1121
Vconfigs
p1122
(lp1123
Vkernelarch-mips/config.boston
p1124
aVkernelarch-mips/config.mips32r6
p1125
ass(Vdescription
p1126
g1094
NVmips64r6el
p1127
tp1128
(dp1129
Vhardware
p1130
VMIPS R6 (64 bit, little endian)
p1131
sVhardware-long
p1132
VMIPS R6 (64 bit, little endian)
p1133
ss(Vimage
p1134
g1094
NVmips64r6el
p1135
tp1136
(dp1137
Vconfigs
p1138
(lp1139
Vkernelarch-mips/config.boston
p1140
aVkernelarch-mips/config.mips64r6
p1141
ass(g195
g1094
g164
tp1142
(dp1143
g198
(lp1144
Vmips32r6el
p1145
aVmips64r6el
p1146
asg202
I01
ss(Vbase
p1147
Vpowerpc
p1148
tp1149
(dp1150
Vkernel-arch
p1151
Vpowerpc
p1152
sg162
(lp1153
g164
ass(Vbuild
p1154
g1148
tp1155
(dp1156
Vimage-file
p1157
Vvmlinux
p1158
sVvdso
p1159
I01
ss(Vimage
p1160
g1148
tp1161
(dp1162
Vconfigs
p1163
(lp1164
sVbootloaders
p1165
(lp1166
Vgrub-ieee1275
p1167
asVsuggests
p1168
(lp1169
Vmkvmlinuz
p1170
asVinstall-stem
p1171
Vvmlinux
p1172
ss(Vdescription
p1173
g1148
NVpowerpc
p1174
tp1175
(dp1176
Vhardware
p1177
Vuniprocessor 32-bit PowerPC
p1178
ss(Vdescription
p1179
g1148
NVpowerpc-smp
p1180
tp1181
(dp1182
Vhardware
p1183
Vmultiprocessor 32-bit PowerPC
p1184
ss(Vimage
p1185
g1148
NVpowerpc-smp
p1186
tp1187
(dp1188
Vconfigs
p1189
(lp1190
Vpowerpc/config.powerpc
p1191
aVpowerpc/config.powerpc-smp
p1192
ass(Vdescription
p1193
g1148
NVpowerpc64
p1194
tp1195
(dp1196
Vhardware
p1197
V64-bit PowerPC
p1198
ss(Vimage
p1199
g1148
NVpowerpc64
p1200
tp1201
(dp1202
Vconfigs
p1203
(lp1204
Vkernelarch-powerpc/config-arch-64
p1205
aVkernelarch-powerpc/config-arch-64-be
p1206
ass(g195
g1148
g164
tp1207
(dp1208
g198
(lp1209
Vpowerpc
p1210
aVpowerpc-smp
p1211
aVpowerpc64
p1212
asg202
I01
ss(Vbase
p1213
Vpowerpcspe
p1214
tp1215
(dp1216
Vkernel-arch
p1217
Vpowerpc
p1218
sg162
(lp1219
g164
ass(Vbuild
p1220
g1214
tp1221
(dp1222
Vimage-file
p1223
Vvmlinux
p1224
sVvdso
p1225
I01
ss(Vimage
p1226
g1214
tp1227
(dp1228
Vsuggests
p1229
(lp1230
Vmkvmlinuz
p1231
asVinstall-stem
p1232
Vvmlinux
p1233
ss(Vdescription
p1234
g1214
tp1235
(dp1236
Vhardware
p1237
V32-bit PowerPC with SPE (instead of AltiVec) with SMP support
p1238
ss(g195
g1214
g164
tp1239
(dp1240
g198
(lp1241
Vpowerpcspe
p1242
asg202
I01
ss(Vbase
p1243
Vppc64
p1244
tp1245
(dp1246
Vkernel-arch
p1247
Vpowerpc
p1248
sg162
(lp1249
g164
ass(Vbuild
p1250
g1244
tp1251
(dp1252
Vimage-file
p1253
Vvmlinux
p1254
sVvdso
p1255
I01
ss(Vimage
p1256
g1244
tp1257
(dp1258
Vconfigs
p1259
(lp1260
sVbootloaders
p1261
(lp1262
Vgrub-ieee1275
p1263
asVsuggests
p1264
(lp1265
Vmkvmlinuz
p1266
asVinstall-stem
p1267
Vvmlinux
p1268
ss(Vdescription
p1269
g1244
NVpowerpc64
p1270
tp1271
(dp1272
Vhardware
p1273
V64-bit PowerPC
p1274
ss(Vimage
p1275
g1244
NVpowerpc64
p1276
tp1277
(dp1278
Vconfigs
p1279
(lp1280
Vkernelarch-powerpc/config-arch-64
p1281
aVkernelarch-powerpc/config-arch-64-be
p1282
ass(g195
g1244
g164
tp1283
(dp1284
g198
(lp1285
Vpowerpc64
p1286
asg202
I01
ss(Vbase
p1287
Vppc64el
p1288
tp1289
(dp1290
Vkernel-arch
p1291
Vpowerpc
p1292
sg162
(lp1293
g164
ass(Vbuild
p1294
g1288
tp1295
(dp1296
Vimage-file
p1297
Vvmlinux
p1298
sVvdso
p1299
I01
ss(Vimage
p1300
g1288
tp1301
(dp1302
Vconfigs
p1303
(lp1304
sVbootloaders
p1305
(lp1306
Vgrub-ieee1275
p1307
asVsuggests
p1308
(lp1309
Vmkvmlinuz
p1310
asVinstall-stem
p1311
Vvmlinux
p1312
ss(Vdescription
p1313
g1288
NVpowerpc64le
p1314
tp1315
(dp1316
Vhardware
p1317
VLittle-endian 64-bit PowerPC
p1318
ss(Vimage
p1319
g1288
NVpowerpc64le
p1320
tp1321
(dp1322
Vconfigs
p1323
(lp1324
Vkernelarch-powerpc/config-arch-64
p1325
aVkernelarch-powerpc/config-arch-64-le
p1326
ass(g195
g1288
g164
tp1327
(dp1328
g198
(lp1329
Vpowerpc64le
p1330
asg202
I01
ss(Vbase
p1331
Vriscv64
p1332
tp1333
(dp1334
Vkernel-arch
p1335
Vriscv
p1336
sVfeaturesets
p1337
(lp1338
Vnone
p1339
ass(Vbuild
p1340
g1332
tp1341
(dp1342
Vimage-file
p1343
Vvmlinux
p1344
sVvdso
p1345
I01
ss(Vimage
p1346
g1332
tp1347
(dp1348
Vinstall-stem
p1349
Vvmlinux
p1350
ss(Vdescription
p1351
g1332
NVriscv64
p1352
tp1353
(dp1354
Vhardware
p1355
V64-bit RISC-V platforms
p1356
sVhardware-long
p1357
V64-bit RISC-V platforms
p1358
ss(Vbase
p1359
g1332
Vnone
p1360
tp1361
(dp1362
Vflavours
p1363
(lp1364
Vriscv64
p1365
ass(Vbase
p1366
Vs390
p1367
tp1368
(dp1369
Vkernel-arch
p1370
Vs390
p1371
sVfeaturesets
p1372
(lp1373
ss(Vbase
p1374
Vs390x
p1375
tp1376
(dp1377
Vkernel-arch
p1378
Vs390
p1379
sg162
(lp1380
g164
ass(Vbuild
p1381
g1375
tp1382
(dp1383
Vimage-file
p1384
Varch/s390/boot/bzImage
p1385
sVvdso
p1386
I01
ss(Vimage
p1387
g1375
tp1388
(dp1389
Vbootloaders
p1390
(lp1391
Vs390-tools
p1392
asVinstall-stem
p1393
Vvmlinuz
p1394
ss(Vrelations
p1395
g1375
tp1396
(dp1397
Vheaders%gcc-8
p1398
Vlinux-compiler-gcc-8-s390
p1399
ss(Vbuild
p1400
g1375
NVs390x
p1401
tp1402
(dp1403
Vdebug-info
p1404
I01
ss(Vdescription
p1405
g1375
NVs390x
p1406
tp1407
(dp1408
Vhardware
p1409
VIBM zSeries
p1410
ss(g195
g1375
g164
tp1411
(dp1412
g198
(lp1413
Vs390x
p1414
asg202
I01
ss(Vbase
p1415
Vsh3
p1416
tp1417
(dp1418
Vkernel-arch
p1419
Vsh
p1420
sVfeaturesets
p1421
(lp1422
ss(Vbase
p1423
Vsh4
p1424
tp1425
(dp1426
Vkernel-arch
p1427
Vsh
p1428
sg162
(lp1429
g164
ass(Vbuild
p1430
g1424
tp1431
(dp1432
Vimage-file
p1433
Varch/sh/boot/zImage
p1434
ss(Vimage
p1435
g1424
tp1436
(dp1437
Vinstall-stem
p1438
Vvmlinuz
p1439
ss(Vdescription
p1440
g1424
NVsh7751r
p1441
tp1442
(dp1443
Vhardware
p1444
Vsh7751r
p1445
sVhardware-long
p1446
VRenesas SH7751R R2D plus board
p1447
ss(Vdescription
p1448
g1424
NVsh7785lcr
p1449
tp1450
(dp1451
Vhardware
p1452
Vsh7785lcr
p1453
sVhardware-long
p1454
VRenesas SH7785 reference board
p1455
ss(Vimage
p1456
g1424
NVsh7785lcr
p1457
tp1458
(dp1459
Vrecommends
p1460
(lp1461
Vu-boot-tools
p1462
asVcheck-size
p1463
I4194304
ss(g195
g1424
g164
tp1464
(dp1465
g198
(lp1466
Vsh7751r
p1467
aVsh7785lcr
p1468
asg202
I01
ss(Vbase
p1469
Vsparc
p1470
tp1471
(dp1472
Vkernel-arch
p1473
Vsparc
p1474
sVfeaturesets
p1475
(lp1476
ss(Vbase
p1477
Vsparc64
p1478
tp1479
(dp1480
Vkernel-arch
p1481
Vsparc
p1482
sg162
(lp1483
g164
ass(Vbuild
p1484
g1478
tp1485
(dp1486
Vimage-file
p1487
Vvmlinux
p1488
ss(Vimage
p1489
g1478
tp1490
(dp1491
Vconfigs
p1492
(lp1493
sVbootloaders
p1494
(lp1495
Vgrub-ieee1275
p1496
asVsuggests
p1497
(lp1498
Vfdutils
p1499
asVinstall-stem
p1500
Vvmlinux
p1501
ss(Vdescription
p1502
g1478
NVsparc64
p1503
tp1504
(dp1505
Vhardware
p1506
Vuniprocessor 64-bit UltraSPARC
p1507
ss(Vimage
p1508
g1478
NVsparc64
p1509
tp1510
(dp1511
Vconfigs
p1512
(lp1513
Vkernelarch-sparc/config-up
p1514
ass(Vdescription
p1515
g1478
NVsparc64-smp
p1516
tp1517
(dp1518
Vhardware
p1519
Vmultiprocessor 64-bit UltraSPARC
p1520
ss(Vimage
p1521
g1478
NVsparc64-smp
p1522
tp1523
(dp1524
Vconfigs
p1525
(lp1526
Vkernelarch-sparc/config-smp
p1527
ass(g195
g1478
g164
tp1528
(dp1529
g198
(lp1530
Vsparc64
p1531
aVsparc64-smp
p1532
asg202
I01
ss(Vbase
p1533
Vx32
p1534
tp1535
(dp1536
Vkernel-arch
p1537
Vx86
p1538
sVfeaturesets
p1539
(lp1540
ss(Vabi
p1541
NVrt
p1542
tp1543
(dp1544
Vignore-changes
p1545
(lp1546
V*
p1547
ass(Vdescription
p1548
Ng1542
tp1549
(dp1550
Vpart-long-rt
p1551
VThis kernel includes the PREEMPT_RT realtime patch set.
p1552
sVpart-short-rt
p1553
VPREEMPT_RT
p1554
sVparts
p1555
(lp1556
Vrt
p1557
ass(Vversion
p1558
tp1559
(dp1560
Vsource
p1561
V5.1.3-1parrot1.3t
p1562
sVupstream
p1563
V5.1
p1564
sVabiname_base
p1565
V5.1.0
p1566
sVabiname
p1567
V5.1.0-parrot1-3t
p1568
ss.